
/media/data_nvme/git/uboot/u-boot/build/mt7622/release/bl2/bl2.elf:     file format elf64-littleaarch64
/media/data_nvme/git/uboot/u-boot/build/mt7622/release/bl2/bl2.elf
architecture: aarch64, flags 0x00000112:
EXEC_P, HAS_SYMS, D_PAGED
start address 0x0000000000201000

Program Header:
    LOAD off    0x0000000000001000 vaddr 0x0000000000201000 paddr 0x0000000000201000 align 2**12
         filesz 0x000000000000f000 memsz 0x000000000000f000 flags r-x
    LOAD off    0x0000000000010000 vaddr 0x0000000000210000 paddr 0x0000000000210000 align 2**12
         filesz 0x000000000000071d memsz 0x0000000000004e80 flags rw-
   STACK off    0x0000000000000000 vaddr 0x0000000000000000 paddr 0x0000000000000000 align 2**4
         filesz 0x0000000000000000 memsz 0x0000000000000000 flags rw-
private flags = 0x0:

Sections:
Idx Name          Size      VMA               LMA               File off  Algn
  0 .ro           0000f000  0000000000201000  0000000000201000  00001000  2**11
                  CONTENTS, ALLOC, LOAD, READONLY, CODE
  1 .data         0000071d  0000000000210000  0000000000210000  00010000  2**3
                  CONTENTS, ALLOC, LOAD, DATA
  2 .stacks       00001000  0000000000210740  0000000000210740  0001071d  2**6
                  ALLOC
  3 .bss          00003740  0000000000211740  0000000000211740  0001071d  2**4
                  ALLOC
  4 .coherent_ram 00000000  0000000000215000  0000000000215000  00011000  2**12
                  CONTENTS
  5 .debug_info   0001bfac  0000000000000000  0000000000000000  00011000  2**0
                  CONTENTS, READONLY, DEBUGGING, OCTETS
  6 .debug_abbrev 0000563f  0000000000000000  0000000000000000  0002cfac  2**0
                  CONTENTS, READONLY, DEBUGGING, OCTETS
  7 .debug_aranges 00001900  0000000000000000  0000000000000000  000325f0  2**4
                  CONTENTS, READONLY, DEBUGGING, OCTETS
  8 .debug_line   0000c6a2  0000000000000000  0000000000000000  00033ef0  2**0
                  CONTENTS, READONLY, DEBUGGING, OCTETS
  9 .debug_str    00004a10  0000000000000000  0000000000000000  00040592  2**0
                  CONTENTS, READONLY, DEBUGGING, OCTETS
 10 .comment      0000003c  0000000000000000  0000000000000000  00044fa2  2**0
                  CONTENTS, READONLY
 11 .debug_loc    0001ad24  0000000000000000  0000000000000000  00044fde  2**0
                  CONTENTS, READONLY, DEBUGGING, OCTETS
 12 .debug_ranges 00005770  0000000000000000  0000000000000000  0005fd10  2**4
                  CONTENTS, READONLY, DEBUGGING, OCTETS
 13 .debug_frame  00000a20  0000000000000000  0000000000000000  00065480  2**3
                  CONTENTS, READONLY, DEBUGGING, OCTETS
SYMBOL TABLE:
0000000000201000 l    d  .ro	0000000000000000 .ro
0000000000210000 l    d  .data	0000000000000000 .data
0000000000210740 l    d  .stacks	0000000000000000 .stacks
0000000000211740 l    d  .bss	0000000000000000 .bss
0000000000215000 l    d  .coherent_ram	0000000000000000 .coherent_ram
0000000000000000 l    d  .debug_info	0000000000000000 .debug_info
0000000000000000 l    d  .debug_abbrev	0000000000000000 .debug_abbrev
0000000000000000 l    d  .debug_aranges	0000000000000000 .debug_aranges
0000000000000000 l    d  .debug_line	0000000000000000 .debug_line
0000000000000000 l    d  .debug_str	0000000000000000 .debug_str
0000000000000000 l    d  .comment	0000000000000000 .comment
0000000000000000 l    d  .debug_loc	0000000000000000 .debug_loc
0000000000000000 l    d  .debug_ranges	0000000000000000 .debug_ranges
0000000000000000 l    d  .debug_frame	0000000000000000 .debug_frame
0000000000000000 l    df *ABS*	0000000000000000 bl2_el3_entrypoint.o
0000000000201094 l       .ro	0000000000000000 do_primary_cold_boot
0000000000000000 l    df *ABS*	0000000000000000 bl2_run_next_image.o
0000000000000000 l    df *ABS*	0000000000000000 cortex_a53.o
000000000020113c l     F .ro	0000000000000020 errata_a53_826319_wa
000000000020115c l     F .ro	0000000000000008 check_errata_826319
0000000000201164 l     F .ro	000000000000001c a53_disable_non_temporal_hint
0000000000201180 l     F .ro	0000000000000008 check_errata_disable_non_temporal_hint
0000000000201188 l     F .ro	000000000000001c errata_a53_855873_wa
00000000002011a4 l     F .ro	0000000000000008 check_errata_855873
00000000002011ac l     F .ro	0000000000000038 cortex_a53_reset_func
000000000020e7d9 l       .ro	0000000000000000 cortex_a53_errata_list_start
000000000020e7d9 l       .ro	0000000000000000 cortex_a53_errata_list_end
0000000000000000 l    df *ABS*	0000000000000000 cpu_helpers.o
0000000000201240 l       .ro	0000000000000000 search_def_ptr
0000000000000000 l    df *ABS*	0000000000000000 platform_up_stack.o
0000000000210740 l       .stacks	0000000000000000 platform_normal_stacks
0000000000000006 l       *ABS*	0000000000000000 TZ_COUNT
0000000000000000 l    df *ABS*	0000000000000000 hsuart.o
000000000020133c l       .ro	0000000000000000 init_fail
00000000002012c4 l       .ro	0000000000000000 set_baud_force_high_speed
00000000002012ec l       .ro	0000000000000000 set_baud_low_speed
0000000000201300 l       .ro	0000000000000000 set_divisor
0000000000201354 l       .ro	0000000000000000 no_char
00000000002013ac l     F .ro	0000000000000008 console_hsuart_getc
00000000002013b4 l     F .ro	0000000000000008 console_hsuart_putc
00000000002013bc l     F .ro	0000000000000008 console_hsuart_flush
0000000000201418 l       .ro	0000000000000000 register_fail
00000000002013e0 l       .ro	0000000000000000 register_hsuart
0000000000000000 l    df *ABS*	0000000000000000 plat_helpers.o
000000000020141c l       .ro	0000000000000000 cb_panic
0000000000000000 l    df *ABS*	0000000000000000 debug.o
000000000020e7d9 l       .ro	0000000000000000 panic_msg
00000000002014a8 l       .ro	0000000000000000 panic_common
00000000002014d0 l       .ro	0000000000000000 _panic_handler
0000000000000000 l    df *ABS*	0000000000000000 cache_helpers.o
000000000020150c l       .ro	0000000000000000 exit_loop_civac
00000000002014f8 l       .ro	0000000000000000 loop_civac
0000000000201544 l       .ro	0000000000000000 exit_loop_ivac
0000000000201530 l       .ro	0000000000000000 loop_ivac
0000000000000000 l    df *ABS*	0000000000000000 misc_helpers.o
0000000000201550 l     F .ro	00000000000000e8 zeromem_dczva
000000000020163c l       .ro	0000000000000000 do_disable_mmu_el3
0000000000000000 l    df *ABS*	0000000000000000 platform_helpers.o
0000000000000000 l    df *ABS*	0000000000000000 bl2_arch_setup.c
0000000000000000 l    df *ABS*	0000000000000000 bl2_image_load_v2.c
0000000000000000 l    df *ABS*	0000000000000000 bl2_main.c
0000000000000000 l    df *ABS*	0000000000000000 desc_image_load.c
0000000000211948 l     O .bss	0000000000000010 bl_load_info
0000000000211958 l     O .bss	0000000000000010 next_bl_params
0000000000000000 l    df *ABS*	0000000000000000 image_decompress.c
0000000000211968 l     O .bss	0000000000000008 decompressor
0000000000211970 l     O .bss	0000000000000008 decompressor_buf_base
0000000000214780 l     O .bss	0000000000000004 decompressor_buf_size
0000000000211978 l     O .bss	0000000000000018 saved_image_info
0000000000000000 l    df *ABS*	0000000000000000 tf_crc32.c
0000000000000000 l    df *ABS*	0000000000000000 delay_timer.c
0000000000211990 l     O .bss	0000000000000008 timer_ops
0000000000000000 l    df *ABS*	0000000000000000 generic_delay_timer.c
0000000000201bcc l     F .ro	000000000000000c get_timer_value
0000000000211998 l     O .bss	0000000000000010 ops
0000000000000000 l    df *ABS*	0000000000000000 gpio.c
00000000002119a8 l     O .bss	0000000000000008 ops
0000000000000000 l    df *ABS*	0000000000000000 io_block.c
0000000000201c50 l     F .ro	000000000000001c block_open
0000000000201c6c l     F .ro	0000000000000030 block_seek
0000000000201c9c l     F .ro	000000000000000c block_close
0000000000201ca8 l     F .ro	000000000000015c block_write
0000000000201e04 l     F .ro	00000000000000fc block_read
0000000000201f00 l     F .ro	0000000000000064 block_dev_close
0000000000201f64 l     F .ro	0000000000000060 block_dev_open
0000000000214784 l     O .bss	0000000000000004 block_dev_count
00000000002119b0 l     O .bss	0000000000000010 dev_info_pool
00000000002119c0 l     O .bss	0000000000000020 state_pool
000000000020c210 l     O .ro	0000000000000008 block_dev_connector
000000000020c218 l     O .ro	0000000000000048 block_dev_funcs
0000000000000000 l    df *ABS*	0000000000000000 io_fip.c
0000000000201ffc l     F .ro	0000000000000008 device_type_fip
0000000000202004 l     F .ro	0000000000000014 fip_file_len
0000000000202018 l     F .ro	000000000000003c fip_file_close
0000000000202054 l     F .ro	00000000000000b4 fip_dev_init
0000000000202108 l     F .ro	00000000000000b8 fip_file_read
00000000002021c0 l     F .ro	0000000000000060 fip_dev_open
0000000000202220 l     F .ro	00000000000000f4 fip_file_open
0000000000202314 l     F .ro	000000000000005c fip_dev_close
00000000002119e0 l     O .bss	0000000000000008 backend_dev_handle
00000000002119e8 l     O .bss	0000000000000008 backend_image_spec
00000000002119f0 l     O .bss	0000000000000030 current_fip_file
0000000000211a20 l     O .bss	0000000000000010 dev_info_pool
0000000000214788 l     O .bss	0000000000000004 fip_dev_count
0000000000211a30 l     O .bss	0000000000000010 state_pool
000000000020c260 l     O .ro	0000000000000008 fip_dev_connector
000000000020c268 l     O .ro	0000000000000048 fip_dev_funcs
000000000020e2f4 l     O .ro	0000000000000010 uuid_null.0
0000000000000000 l    df *ABS*	0000000000000000 io_storage.c
00000000002023a8 l     F .ro	0000000000000044 free_entity.isra.0
000000000021478c l     O .bss	0000000000000004 dev_count
0000000000214790 l     O .bss	0000000000000004 entity_count
0000000000211a40 l     O .bss	0000000000000020 entity_map
0000000000211a60 l     O .bss	0000000000000040 entity_pool
0000000000000000 l    df *ABS*	0000000000000000 mmc.c
00000000002025e0 l     F .ro	00000000000000f0 mmc_send_cmd
00000000002026d0 l     F .ro	0000000000000074 mmc_device_state
0000000000202744 l     F .ro	000000000000009c sd_switch.constprop.0
0000000000214794 l     O .bss	0000000000000010 mmc_csd
0000000000211aa0 l     O .bss	0000000000000008 mmc_dev_info
0000000000211740 l     O .bss	0000000000000200 mmc_ext_csd
00000000002147a4 l     O .bss	0000000000000004 mmc_flags
00000000002147a8 l     O .bss	0000000000000004 mmc_ocr_value
0000000000211aa8 l     O .bss	0000000000000008 ops
00000000002147ac l     O .bss	0000000000000004 rca
0000000000211940 l     O .bss	0000000000000008 scr
0000000000214c34 l     O .bss	0000000000000040 sd_switch_func_status
000000000020e38e l     O .ro	0000000000000010 sd_tran_speed_base
000000000020e39e l     O .ro	0000000000000010 tran_speed_base
0000000000000000 l    df *ABS*	0000000000000000 gpt.c
0000000000000000 l    df *ABS*	0000000000000000 partition.c
0000000000211ab0 l     O .bss	0000000000002c08 list
0000000000214c76 l     O .bss	0000000000000200 mbr_sector
0000000000000000 l    df *ABS*	0000000000000000 tf_unxz.c
0000000000214e76 l     O .bss	0000000000000001 xz_crc32_initialized
00000000002146b8 l     O .bss	0000000000000008 xzalloc_current
00000000002146c0 l     O .bss	0000000000000008 xzalloc_end
0000000000000000 l    df *ABS*	0000000000000000 xz_crc32.c
00000000002147b0 l     O .bss	0000000000000400 xz_crc32_table
0000000000000000 l    df *ABS*	0000000000000000 xz_dec_lzma2.c
0000000000203500 l     F .ro	00000000000000ac dict_repeat
00000000002035ac l     F .ro	00000000000001d4 lzma_len
0000000000203780 l     F .ro	00000000000008c8 lzma_main
0000000000000000 l    df *ABS*	0000000000000000 xz_dec_stream.c
0000000000204734 l     F .ro	0000000000000020 get_unaligned_le32
0000000000204754 l     F .ro	0000000000000078 dec_vli
00000000002047cc l     F .ro	0000000000000048 index_update
0000000000204814 l     F .ro	0000000000000094 fill_temp
0000000000000000 l    df *ABS*	0000000000000000 bl2_boot_mmc.c
00000000002146c8 l     O .bss	0000000000000010 mmc_dev_fip_spec
00000000002146d8 l     O .bss	0000000000000008 mmc_dev_handle
0000000000210000 l     O .data	0000000000000028 mmc_dev_spec
000000000020c2b0 l     O .ro	0000000000000010 mmc_dev_gpt_spec
0000000000000000 l    df *ABS*	0000000000000000 bl2_plat_setup.c
000000000020514c l     F .ro	0000000000000010 check_gpt_dev
000000000020515c l     F .ro	0000000000000010 check_boot_dev
000000000020516c l     F .ro	0000000000000048 check_fip
00000000002146e0 l     O .bss	0000000000000008 boot_dev_handle
00000000002146e8 l     O .bss	0000000000000030 console.0
0000000000214718 l     O .bss	0000000000000008 fip_dev_con
0000000000214720 l     O .bss	0000000000000008 fip_dev_handle
0000000000214728 l     O .bss	0000000000000008 gpt_dev_handle
0000000000210028 l     O .data	0000000000000170 bl2_mem_params_descs
00000000002101a0 l     O .data	00000000000002b8 policies
000000000020e486 l     O .ro	0000000000000010 bl31_uuid_spec
000000000020e496 l     O .ro	0000000000000010 bl32_uuid_spec
000000000020e4a6 l     O .ro	0000000000000010 bl33_uuid_spec
0000000000000000 l    df *ABS*	0000000000000000 mtk-sd.c
0000000000205358 l     F .ro	0000000000000018 msdc_card_busy
0000000000205370 l     F .ro	0000000000000058 mtk_mmc_prepare
00000000002053c8 l     F .ro	0000000000000008 mtk_mmc_write
00000000002053d0 l     F .ro	000000000000017c mtk_mmc_read
000000000020554c l     F .ro	00000000000001a8 msdc_ops_set_ios
00000000002056f4 l     F .ro	0000000000000020 msdc_reset_hw.constprop.0
0000000000205714 l     F .ro	0000000000000228 msdc_init_hw
000000000020593c l     F .ro	0000000000000224 mtk_mmc_send_cmd
0000000000214730 l     O .bss	0000000000000040 _host
0000000000214e77 l     O .bss	0000000000000001 new_xfer
0000000000214bb0 l     O .bss	0000000000000004 xfer_blocks
0000000000214bb4 l     O .bss	0000000000000004 xfer_blocksz
0000000000214770 l     O .bss	0000000000000008 xfer_size
0000000000210458 l     O .data	0000000000000018 mtk_mmc_device_info
000000000020e62c l     O .ro	000000000000001d CSWTCH.46
000000000020c2c0 l     O .ro	0000000000000038 mtk_mmc_ops
0000000000000000 l    df *ABS*	0000000000000000 platform_common.c
0000000000000000 l    df *ABS*	0000000000000000 bl2_dev_mmc.c
000000000020c44c l     O .ro	0000000000000018 msdc1_pins
000000000020c464 l     O .ro	000000000000000c mt7622_msdc1_compat
0000000000000000 l    df *ABS*	0000000000000000 bl2_plat_init.c
0000000000205c20 l     F .ro	0000000000000010 mtk_print_cpu
0000000000205c30 l     F .ro	0000000000000018 mtk_wdt_init
0000000000000000 l    df *ABS*	0000000000000000 pinctrl.c
0000000000205c54 l     F .ro	0000000000000058 mtk_set_pin_value.constprop.0
0000000000205cac l     F .ro	000000000000000c mtk_set_pin_out
0000000000205cb8 l     F .ro	0000000000000058 mtk_set_pin_pull
0000000000205d10 l     F .ro	000000000000000c mtk_set_pin_dir
0000000000205d1c l     F .ro	000000000000005c mtk_get_pin_value.constprop.0
0000000000205d78 l     F .ro	000000000000000c mtk_get_pin_in
0000000000205d84 l     F .ro	000000000000005c mtk_get_pin_pull
0000000000205de0 l     F .ro	000000000000000c mtk_get_pin_dir
000000000020c470 l     O .ro	00000000000004d4 mtk_pin_info_datain
000000000020c944 l     O .ro	00000000000004d4 mtk_pin_info_dataout
000000000020ce18 l     O .ro	00000000000004d4 mtk_pin_info_dir
000000000020d2ec l     O .ro	00000000000004d4 mtk_pin_info_mode
000000000020d7c0 l     O .ro	00000000000004d4 mtk_pin_info_pd
000000000020dc94 l     O .ro	00000000000004d4 mtk_pin_info_pu
000000000020c348 l     O .ro	0000000000000040 mtk_pin_ops
0000000000000000 l    df *ABS*	0000000000000000 pll.c
000000000020e168 l     O .ro	0000000000000010 wait_time
0000000000000000 l    df *ABS*	0000000000000000 pmic.c
00000000002065ac l     F .ro	0000000000000058 pmic_config_interface
0000000000000000 l    df *ABS*	0000000000000000 pmic_wrap.c
00000000002066b4 l     F .ro	000000000000008c wait_for_state_idle.constprop.0
0000000000000000 l    df *ABS*	0000000000000000 mtcmos.c
0000000000206944 l     F .ro	00000000000000e4 mtcmos_power_on.constprop.0
0000000000210474 l     O .data	000000000000003c scp_domain_mt7622
0000000000000000 l    df *ABS*	0000000000000000 cpuxgpt.c
0000000000000000 l    df *ABS*	0000000000000000 mtk_wdt.c
000000000020c388 l     O .ro	0000000000000060 wdt_rst_reason
0000000000000000 l    df *ABS*	0000000000000000 bl_common.c
0000000000000000 l    df *ABS*	0000000000000000 tf_log.c
00000000002104b0 l     O .data	0000000000000004 max_log_level
0000000000000000 l    df *ABS*	0000000000000000 multi_console.c
000000000021070c l     O .data	0000000000000001 console_state
0000000000000000 l    df *ABS*	0000000000000000 plat_bl_common.c
0000000000000000 l    df *ABS*	0000000000000000 plat_log_common.c
000000000020c3e8 l     O .ro	0000000000000028 plat_prefix_str
0000000000000000 l    df *ABS*	0000000000000000 dram-flyby.o
0000000000000000 l    df *ABS*	0000000000000000 memcmp.c
0000000000000000 l    df *ABS*	0000000000000000 memcpy.c
0000000000000000 l    df *ABS*	0000000000000000 memmove.c
0000000000000000 l    df *ABS*	0000000000000000 memset.c
0000000000000000 l    df *ABS*	0000000000000000 printf.c
000000000020bc78 l     F .ro	00000000000000d0 unsigned_num_print.part.0
0000000000000000 l    df *ABS*	0000000000000000 strcmp.c
0000000000000000 l    df *ABS*	0000000000000000 
0000000000000000 l    df *ABS*	0000000000000000 bl2_el3_exceptions.o
000000000020f000 l     F .ro	0000000000000000 SynchronousExceptionSP0
000000000020f080 l     F .ro	0000000000000000 IrqSP0
000000000020f100 l     F .ro	0000000000000000 FiqSP0
000000000020f180 l     F .ro	0000000000000000 SErrorSP0
000000000020f200 l     F .ro	0000000000000000 SynchronousExceptionSPx
000000000020f280 l     F .ro	0000000000000000 IrqSPx
000000000020f300 l     F .ro	0000000000000000 FiqSPx
000000000020f380 l     F .ro	0000000000000000 SErrorSPx
000000000020f400 l     F .ro	0000000000000000 SynchronousExceptionA64
000000000020f480 l     F .ro	0000000000000000 IrqA64
000000000020f500 l     F .ro	0000000000000000 FiqA64
000000000020f580 l     F .ro	0000000000000000 SErrorA64
000000000020f600 l     F .ro	0000000000000000 SynchronousExceptionA32
000000000020f680 l     F .ro	0000000000000000 IrqA32
000000000020f700 l     F .ro	0000000000000000 FiqA32
000000000020f780 l     F .ro	0000000000000000 SErrorA32
0000000000206e98 g     F .ro	0000000000000028 putchar
0000000000201394 g     F .ro	0000000000000018 console_hsuart_core_flush
0000000000201bb4 g     F .ro	000000000000000c mdelay
0000000000214e80 g       .bss	0000000000000000 __PMF_TIMESTAMP_START__
0000000000206dc8 g     F .ro	0000000000000034 console_register
0000000000215000 g       .coherent_ram	0000000000000000 __COHERENT_RAM_END__
00000000002011e4 g     F .ro	0000000000000020 reset_handler
0000000000201548 g     F .ro	0000000000000008 zeromem
000000000020e1c6 g     O .ro	000000000000002e version_string
00000000002014a0 g     F .ro	0000000000000008 asm_print_newline
0000000000202fc8 g     F .ro	0000000000000298 load_partition_table
0000000000206d04 g     F .ro	0000000000000004 print_entry_point_info
000000000020c18c g     F .ro	0000000000000054 printf
0000000000210000 g       .ro	0000000000000000 __RW_START__
0000000000214e80 g       .coherent_ram	0000000000000000 __XLAT_TABLE_START__
00000000002052a4 g     F .ro	0000000000000028 bl2_el3_early_platform_setup
000000000020bbcc g     F .ro	0000000000000034 memmove
00000000002087f4 g     F .ro	00000000000002a8 dramc_engine1
000000000020b304 g     F .ro	0000000000000048 mtk_set_emi_reserve_mode
0000000000206f28  w    F .ro	0000000000000030 plat_log_get_prefix
000000000020165c  w    F .ro	0000000000000004 plat_report_exception
00000000002048a8 g     F .ro	0000000000000050 xz_dec_reset
0000000000203344 g     F .ro	000000000000013c unxz
000000000020e1a8 g     O .ro	000000000000001e build_message
0000000000210000 g       .data	0000000000000000 __DATA_START__
00000000002018a8 g     F .ro	0000000000000030 get_bl_mem_params_node
0000000000205bbc g     F .ro	0000000000000064 mtk_plat_mmc_setup
00000000002052cc g     F .ro	000000000000008c bl2_platform_setup
0000000000201fc4 g     F .ro	0000000000000038 register_io_dev_block
000000000020ba58 g     F .ro	000000000000001c dram_reserve_mode_enabled
000000000020166c g       .ro	0000000000000000 __TEXT_RESIDENT_END__
000000000020bbac g     F .ro	0000000000000020 memcpy
0000000000201840 g     F .ro	000000000000001c flush_bl_params_desc
0000000000201550 g     F .ro	00000000000000e8 zero_normalmem
0000000000204ff8 g     F .ro	0000000000000064 xz_dec_init
00000000002052a0 g     F .ro	0000000000000004 platform_mem_init
00000000002046e4 g     F .ro	000000000000004c xz_dec_lzma2_reset
000000000020b990 g     F .ro	00000000000000a4 mtk_mem_init
0000000000205bb4 g     F .ro	0000000000000008 plat_get_syscnt_freq2
0000000000201664  w    F .ro	0000000000000008 plat_panic_handler
000000000020529c g     F .ro	0000000000000004 plat_flush_next_bl_params
000000000020ee98 g       .ro	0000000000000000 __RT_SVC_DESCS_START__
0000000000206fcc g     F .ro	00000000000001fc dramc_phy_reset
0000000000211740 g       .stacks	0000000000000000 __STACKS_END__
000000000020506c g     F .ro	000000000000006c mtk_mmc_gpt_image_setup
0000000000206ae4 g     F .ro	000000000000001c wdt_rmw
0000000000210198 g     O .data	0000000000000008 bl_mem_params_desc_ptr
0000000000202558 g     F .ro	0000000000000020 io_size
0000000000204048 g     F .ro	0000000000000668 xz_dec_lzma2_run
0000000000202414 g     F .ro	0000000000000018 io_dev_open
000000000020127c  w    F .ro	0000000000000010 plat_set_my_stack
000000000020ee98 g       .ro	0000000000000000 __RT_SVC_DESCS_END__
000000000020185c g     F .ro	000000000000004c get_bl_params_node_index
0000000000201470 g     F .ro	0000000000000030 asm_print_hex
0000000000003740 g       *ABS*	0000000000000000 __BSS_SIZE__
0000000000201458 g     F .ro	0000000000000018 asm_print_str
0000000000201638 g     F .ro	000000000000001c disable_mmu_el3
000000000020144c g     F .ro	000000000000000c plat_crash_console_flush
0000000000206f18  w    F .ro	0000000000000008 plat_error_handler
00000000002050d8 g     F .ro	0000000000000074 mtk_fip_image_setup
000000000020525c g     F .ro	0000000000000038 bl2_plat_handle_post_image_load
000000000020f800 g       .ro	0000000000000000 __RO_END_UNALIGNED__
0000000000206ad4 g     F .ro	0000000000000010 wdt_read
0000000000201000 g       .ro	0000000000000000 RAM_REGION_START
0000000000206dfc g     F .ro	000000000000009c console_putc
000000000020141c g     F .ro	0000000000000004 plat_secondary_cold_boot_setup
0000000000206604 g     F .ro	00000000000000b0 mtk_pmic_init
000000000020ba48 g     F .ro	0000000000000010 disable_dram_reserve_mode
0000000000208a9c g     F .ro	000000000000033c dramc_engine2
0000000000201420 g     F .ro	0000000000000020 plat_crash_console_init
00000000002014d8 g     F .ro	0000000000000038 flush_dcache_range
00000000002048f8 g     F .ro	0000000000000700 xz_dec_run
0000000000206a28 g     F .ro	0000000000000048 mtcmos_non_cpu_ctrl
0000000000201bc0 g     F .ro	000000000000000c timer_init
000000000020194c g     F .ro	00000000000000d8 get_next_bl_params_from_mem_params_desc
000000000020ee98 g       .ro	0000000000000000 __PMF_SVC_DESCS_END__
000000000020128c g     F .ro	00000000000000b8 console_hsuart_init
0000000000210720 g       .data	0000000000000000 __RELA_END__
0000000000210720 g       .data	0000000000000000 __RELA_START__
0000000000215000 g       .bss	0000000000000000 RAM_REGION_END
000000000020bd48 g     F .ro	0000000000000444 vprintf
00000000002046b0 g     F .ro	0000000000000034 xz_dec_lzma2_create
0000000000206f8c g     F .ro	0000000000000040 dram_reg_read
0000000000202904 g     F .ro	00000000000005f8 mmc_init
00000000002013c4 g     F .ro	0000000000000058 console_hsuart_register
0000000000201660  w    F .ro	0000000000000004 plat_reset_handler
0000000000201204 g     F .ro	0000000000000040 get_cpu_ops_ptr
0000000000205294 g     F .ro	0000000000000004 plat_get_bl_image_load_info
000000000020b34c g     F .ro	0000000000000644 complex_mem_test
0000000000206c18 g     F .ro	00000000000000ec load_auth_image
0000000000215000 g       .bss	0000000000000000 __BL2_END__
000000000020ba74 g     F .ro	0000000000000104 check_dram_reserve_mode
000000000020505c g     F .ro	0000000000000010 xz_dec_end
0000000000201a7c g     F .ro	00000000000000a8 image_decompress
000000000021071d g       .data	0000000000000000 __DATA_RAM_END__
0000000000214e80 g       .bss	0000000000000000 __PMF_PERCPU_TIMESTAMP_END__
00000000002017a4 g     F .ro	000000000000006c bl2_main
000000000021071d g       .data	0000000000000000 __DATA_END__
0000000000201a40 g     F .ro	000000000000003c image_decompress_prepare
0000000000203480 g     F .ro	0000000000000044 xz_crc32_init
0000000000201474 g       .ro	0000000000000000 asm_print_hex_bits
0000000000214e80 g       .bss	0000000000000000 __BASE_XLAT_TABLE_START__
000000000020ee98 g       .ro	0000000000000000 __CPU_OPS_START__
0000000000201b4c g     F .ro	0000000000000068 udelay
0000000000206740 g     F .ro	00000000000000e4 pwrap_read
0000000000201510 g     F .ro	0000000000000038 inv_dcache_range
0000000000201678  w    F .ro	0000000000000008 mtk_ar_update_bl_ar_ver
0000000000201000 g     F .ro	0000000000000104 bl2_entrypoint
0000000000201bf8 g     F .ro	0000000000000044 generic_delay_timer_init
0000000000206f14  w    F .ro	0000000000000004 bl2_el3_plat_prepare_exit
0000000000206f58 g     F .ro	0000000000000034 dram_reg_write
0000000000201bd8 g     F .ro	0000000000000020 generic_delay_timer_init_args
000000000020bb78 g     F .ro	0000000000000034 memcmp
0000000000201244 g     F .ro	0000000000000010 cpu_get_rev_var
0000000000205c4c g     F .ro	0000000000000008 plat_is_my_cpu_primary
0000000000214e80 g       .bss	0000000000000000 __BSS_END__
000000000020eed8 g       .ro	0000000000000000 __CPU_OPS_END__
0000000000202538 g     F .ro	0000000000000020 io_seek
0000000000202598 g     F .ro	0000000000000048 io_close
000000000020c2f8 g     O .ro	0000000000000050 bl2_initcalls
0000000000215000 g       .coherent_ram	0000000000000000 __COHERENT_RAM_START__
000000000020eed8 g       .ro	0000000000000000 __GOT_END__
000000000020bc00 g     F .ro	0000000000000078 memset
0000000000206a70 g     F .ro	0000000000000064 plat_mt_cpuxgpt_init
00000000002032d8 g     F .ro	0000000000000004 partition_init
000000000020ee98 g       .ro	0000000000000000 __PARSER_LIB_DESCS_END__
0000000000205c48 g     F .ro	0000000000000004 bl2_el3_plat_arch_setup
0000000000201104 g     F .ro	0000000000000038 bl2_run_next_image
0000000000000000 g       *ABS*	0000000000000000 __COHERENT_RAM_UNALIGNED_SIZE__
0000000000201654 g     F .ro	0000000000000008 disable_mmu_icache_el3
0000000000210470 g     O .data	0000000000000004 bl_mem_params_desc_num
0000000000206824 g     F .ro	0000000000000094 pwrap_write
000000000020521c g     F .ro	0000000000000014 bl2_plat_preload_setup
0000000000209178 g     F .ro	000000000000218c mtk_set_emi_dram
0000000000201680 g     F .ro	0000000000000110 bl2_load_images
000000000020f000 g       .ro	0000000000000000 bl2_el3_exceptions
000000000020166c g     F .ro	000000000000000c bl2_arch_setup
000000000020eed8 g       .ro	0000000000000000 __GOT_START__
0000000000000000 g       *ABS*	0000000000000000 __PERCPU_TIMESTAMP_SIZE__
000000000020c1e0 g     F .ro	000000000000002c strcmp
00000000002034c4 g     F .ro	000000000000003c xz_crc32
000000000020ee98 g       .ro	0000000000000000 __FCONF_POPULATOR_END__
000000000021070d g     O .data	0000000000000010 bit_doq_mapping_4bit_mux
0000000000201810 g     F .ro	0000000000000030 flush_bl_params_desc_args
00000000002068b8 g     F .ro	000000000000008c mtk_pwrap_init
00000000002032dc g     F .ro	0000000000000068 xz_malloc
0000000000214e80 g       .bss	0000000000000000 __BASE_XLAT_TABLE_END__
0000000000206ec0 g     F .ro	0000000000000054 console_flush
0000000000210000 g       .ro	0000000000000000 __RO_END__
000000000020242c g     F .ro	000000000000001c io_dev_init
0000000000202578 g     F .ro	0000000000000020 io_read
0000000000211740 g       .bss	0000000000000000 __BSS_START__
0000000000210000 g       .data	0000000000000000 __DATA_RAM_START__
0000000000201000 g       .ro	0000000000000000 __RO_START__
0000000000206f20  w    F .ro	0000000000000008 plat_try_next_boot_source
000000000020ee98 g       .ro	0000000000000000 __PMF_SVC_DESCS_START__
0000000000201440 g     F .ro	000000000000000c plat_crash_console_putc
0000000000201268 g     F .ro	0000000000000014 cpu_rev_var_hs
0000000000202464 g     F .ro	00000000000000d4 io_open
00000000002071c8 g     F .ro	00000000000000bc dle_factor_handler
00000000002027e0 g     F .ro	0000000000000124 mmc_read_blocks
0000000000201790 g     F .ro	0000000000000014 bl2_el3_setup
0000000000206d9c g     F .ro	000000000000002c console_is_registered
00000000002051b4 g     F .ro	0000000000000068 plat_get_image_source
0000000000206d08 g     F .ro	0000000000000094 tf_log
00000000002023ec g     F .ro	0000000000000028 io_register_device
000000000020ee98 g       .ro	0000000000000000 __FCONF_POPULATOR_START__
000000000003f000 g       *ABS*	0000000000000000 RAM_REGION_LENGTH
0000000000201254 g     F .ro	0000000000000014 cpu_rev_var_ls
0000000000201344 g     F .ro	0000000000000018 console_hsuart_core_getc
0000000000215000 g       .bss	0000000000000000 __RW_END__
0000000000215000 g       .coherent_ram	0000000000000000 __COHERENT_RAM_END_UNALIGNED__
000000000020135c g     F .ro	0000000000000038 console_hsuart_core_putc
00000000002018d8 g     F .ro	0000000000000074 get_bl_load_info_from_mem_params_desc
0000000000210740 g       .stacks	0000000000000000 __STACKS_START__
0000000000208dd8 g     F .ro	00000000000003a0 dramc_rxdqs_gating_cal
0000000000201b24 g     F .ro	0000000000000028 tf_crc32
0000000000207284 g     F .ro	00000000000013cc do_calib
0000000000214e80 g       .bss	0000000000000000 __PMF_TIMESTAMP_END__
0000000000201000 g       .ro	0000000000000000 __TEXT_RESIDENT_START__
0000000000202efc g     F .ro	00000000000000cc parse_gpt_entry
0000000000206b00 g     F .ro	0000000000000050 mtk_wdt_control
0000000000204730 g     F .ro	0000000000000004 xz_dec_lzma2_end
0000000000214e80 g       .coherent_ram	0000000000000000 __XLAT_TABLE_END__
0000000000205230 g     F .ro	000000000000002c bl2_plat_handle_pre_image_load
0000000000206b50 g     F .ro	00000000000000c8 mtk_wdt_print_status
0000000000205e70 g     F .ro	000000000000073c mtk_pll_init
0000000000202448 g     F .ro	000000000000001c io_dev_close
00000000002014a8 g     F .ro	0000000000000030 el3_panic
000000000020ba34 g     F .ro	0000000000000014 enable_dram_reserve_mode
0000000000205dec g     F .ro	0000000000000078 mtk_set_pin_mode
0000000000202370 g     F .ro	0000000000000038 register_io_dev_fip
0000000000201c3c g     F .ro	000000000000000c gpio_init
0000000000214778 g     O .bss	0000000000000008 console_list
0000000000201c48 g     F .ro	0000000000000008 device_type_block
0000000000205298 g     F .ro	0000000000000004 plat_get_next_bl_params
0000000000203260 g     F .ro	0000000000000078 get_partition_entry
0000000000205e64 g     F .ro	000000000000000c mtk_pin_init
0000000000201a24 g     F .ro	000000000000001c image_decompress_init
0000000000205b60 g     F .ro	0000000000000054 mtk_mmc_init
000000000020ee98 g       .ro	0000000000000000 __PARSER_LIB_DESCS_START__



Disassembly of section .ro:

0000000000201000 <bl2_entrypoint>:
  201000:	aa0003f4 	mov	x20, x0
  201004:	aa0103f5 	mov	x21, x1
  201008:	aa0203f6 	mov	x22, x2
  20100c:	aa0303f7 	mov	x23, x3
  201010:	d2810600 	mov	x0, #0x830                 	// #2096
  201014:	f2a618a0 	movk	x0, #0x30c5, lsl #16
  201018:	d51e1000 	msr	sctlr_el3, x0
  20101c:	d5033fdf 	isb
  201020:	1006ff00 	adr	x0, 20f000 <SynchronousExceptionSP0>
  201024:	d51ec000 	msr	vbar_el3, x0
  201028:	d5033fdf 	isb
  20102c:	9400006e 	bl	2011e4 <reset_handler>
  201030:	d2820141 	mov	x1, #0x100a                	// #4106
  201034:	d53e1000 	mrs	x0, sctlr_el3
  201038:	aa010000 	orr	x0, x0, x1
  20103c:	d51e1000 	msr	sctlr_el3, x0
  201040:	d5033fdf 	isb
  201044:	d2804700 	mov	x0, #0x238                 	// #568
  201048:	d51e1100 	msr	scr_el3, x0
  20104c:	d2900000 	mov	x0, #0x8000                	// #32768
  201050:	f2a20020 	movk	x0, #0x1001, lsl #16
  201054:	d5380501 	mrs	x1, id_aa64dfr0_el1
  201058:	d368ac21 	ubfx	x1, x1, #40, #4
  20105c:	b4000041 	cbz	x1, 201064 <bl2_entrypoint+0x64>
  201060:	b26d0000 	orr	x0, x0, #0x80000
  201064:	d51e1320 	msr	mdcr_el3, x0
  201068:	d50344ff 	msr	daifclr, #0x4
  20106c:	d2a80000 	mov	x0, #0x40000000            	// #1073741824
  201070:	d5380501 	mrs	x1, id_aa64dfr0_el1
  201074:	d3441c21 	ubfx	x1, x1, #4, #4
  201078:	b4000041 	cbz	x1, 201080 <bl2_entrypoint+0x80>
  20107c:	b26c0000 	orr	x0, x0, #0x100000
  201080:	d51e1140 	msr	cptr_el3, x0
  201084:	940012f2 	bl	205c4c <plat_is_my_cpu_primary>
  201088:	35000060 	cbnz	w0, 201094 <do_primary_cold_boot>
  20108c:	940000e4 	bl	20141c <plat_secondary_cold_boot_setup>
  201090:	94000106 	bl	2014a8 <el3_panic>

0000000000201094 <do_primary_cold_boot>:
  201094:	94001083 	bl	2052a0 <platform_mem_init>
  201098:	f0000060 	adrp	x0, 210000 <__RO_END__>
  20109c:	91000000 	add	x0, x0, #0x0
  2010a0:	900000a1 	adrp	x1, 215000 <RAM_REGION_END>
  2010a4:	91000021 	add	x1, x1, #0x0
  2010a8:	cb000021 	sub	x1, x1, x0
  2010ac:	94000119 	bl	201510 <inv_dcache_range>
  2010b0:	90000080 	adrp	x0, 211000 <__STACKS_START__+0x8c0>
  2010b4:	911d0000 	add	x0, x0, #0x740
  2010b8:	f0000081 	adrp	x1, 214000 <list+0x2550>
  2010bc:	913a0021 	add	x1, x1, #0xe80
  2010c0:	cb000021 	sub	x1, x1, x0
  2010c4:	94000121 	bl	201548 <zeromem>
  2010c8:	900000a0 	adrp	x0, 215000 <RAM_REGION_END>
  2010cc:	91000000 	add	x0, x0, #0x0
  2010d0:	900000a1 	adrp	x1, 215000 <RAM_REGION_END>
  2010d4:	91000021 	add	x1, x1, #0x0
  2010d8:	cb000021 	sub	x1, x1, x0
  2010dc:	9400011b 	bl	201548 <zeromem>
  2010e0:	d50040bf 	msr	spsel, #0x0
  2010e4:	94000066 	bl	20127c <plat_set_my_stack>
  2010e8:	aa1403e0 	mov	x0, x20
  2010ec:	aa1503e1 	mov	x1, x21
  2010f0:	aa1603e2 	mov	x2, x22
  2010f4:	aa1703e3 	mov	x3, x23
  2010f8:	940001a6 	bl	201790 <bl2_el3_setup>
  2010fc:	940001aa 	bl	2017a4 <bl2_main>
  201100:	94000159 	bl	201664 <plat_panic_handler>

0000000000201104 <bl2_run_next_image>:
  201104:	aa0003f4 	mov	x20, x0
  201108:	94000153 	bl	201654 <disable_mmu_icache_el3>
  20110c:	d50e871f 	tlbi	alle3
  201110:	94001781 	bl	206f14 <bl2_el3_plat_prepare_exit>
  201114:	a9408680 	ldp	x0, x1, [x20, #8]
  201118:	d51e4020 	msr	elr_el3, x0
  20111c:	d51e4001 	msr	spsr_el3, x1
  201120:	a9449e86 	ldp	x6, x7, [x20, #72]
  201124:	a9439684 	ldp	x4, x5, [x20, #56]
  201128:	a9428e82 	ldp	x2, x3, [x20, #40]
  20112c:	a9418680 	ldp	x0, x1, [x20, #24]
  201130:	d69f03e0 	eret
  201134:	d503379f 	dsb	nsh
  201138:	d5033fdf 	isb

000000000020113c <errata_a53_826319_wa>:
  20113c:	aa1e03f1 	mov	x17, x30
  201140:	94000007 	bl	20115c <check_errata_826319>
  201144:	b40000a0 	cbz	x0, 201158 <errata_a53_826319_wa+0x1c>
  201148:	d539f001 	mrs	x1, s3_1_c15_c0_0
  20114c:	9271f821 	and	x1, x1, #0xffffffffffffbfff
  201150:	b27d0021 	orr	x1, x1, #0x8
  201154:	d519f001 	msr	s3_1_c15_c0_0, x1
  201158:	d65f0220 	ret	x17

000000000020115c <check_errata_826319>:
  20115c:	d2800041 	mov	x1, #0x2                   	// #2
  201160:	1400003d 	b	201254 <cpu_rev_var_ls>

0000000000201164 <a53_disable_non_temporal_hint>:
  201164:	aa1e03f1 	mov	x17, x30
  201168:	94000006 	bl	201180 <check_errata_disable_non_temporal_hint>
  20116c:	b4000080 	cbz	x0, 20117c <a53_disable_non_temporal_hint+0x18>
  201170:	d539f201 	mrs	x1, s3_1_c15_c2_0
  201174:	b2680021 	orr	x1, x1, #0x1000000
  201178:	d519f201 	msr	s3_1_c15_c2_0, x1
  20117c:	d65f0220 	ret	x17

0000000000201180 <check_errata_disable_non_temporal_hint>:
  201180:	d2800061 	mov	x1, #0x3                   	// #3
  201184:	14000034 	b	201254 <cpu_rev_var_ls>

0000000000201188 <errata_a53_855873_wa>:
  201188:	aa1e03f1 	mov	x17, x30
  20118c:	94000006 	bl	2011a4 <check_errata_855873>
  201190:	b4000080 	cbz	x0, 2011a0 <errata_a53_855873_wa+0x18>
  201194:	d539f201 	mrs	x1, s3_1_c15_c2_0
  201198:	b2540021 	orr	x1, x1, #0x100000000000
  20119c:	d519f201 	msr	s3_1_c15_c2_0, x1
  2011a0:	d65f0220 	ret	x17

00000000002011a4 <check_errata_855873>:
  2011a4:	d2800061 	mov	x1, #0x3                   	// #3
  2011a8:	14000030 	b	201268 <cpu_rev_var_hs>

00000000002011ac <cortex_a53_reset_func>:
  2011ac:	aa1e03f3 	mov	x19, x30
  2011b0:	94000025 	bl	201244 <cpu_get_rev_var>
  2011b4:	aa0003f2 	mov	x18, x0
  2011b8:	aa1203e0 	mov	x0, x18
  2011bc:	97ffffe0 	bl	20113c <errata_a53_826319_wa>
  2011c0:	aa1203e0 	mov	x0, x18
  2011c4:	97ffffe8 	bl	201164 <a53_disable_non_temporal_hint>
  2011c8:	aa1203e0 	mov	x0, x18
  2011cc:	97ffffef 	bl	201188 <errata_a53_855873_wa>
  2011d0:	d539f220 	mrs	x0, s3_1_c15_c2_1
  2011d4:	b27a0000 	orr	x0, x0, #0x40
  2011d8:	d519f220 	msr	s3_1_c15_c2_1, x0
  2011dc:	d5033fdf 	isb
  2011e0:	d65f0260 	ret	x19

00000000002011e4 <reset_handler>:
  2011e4:	aa1e03f3 	mov	x19, x30
  2011e8:	9400011e 	bl	201660 <plat_reset_handler>
  2011ec:	94000006 	bl	201204 <get_cpu_ops_ptr>
  2011f0:	f9400402 	ldr	x2, [x0, #8]
  2011f4:	aa1303fe 	mov	x30, x19
  2011f8:	b4000042 	cbz	x2, 201200 <reset_handler+0x1c>
  2011fc:	d61f0040 	br	x2
  201200:	d65f03c0 	ret

0000000000201204 <get_cpu_ops_ptr>:
  201204:	d5380002 	mrs	x2, midr_el1
  201208:	d29ffe03 	mov	x3, #0xfff0                	// #65520
  20120c:	f2bfe003 	movk	x3, #0xff00, lsl #16
  201210:	0a030042 	and	w2, w2, w3
  201214:	1006e625 	adr	x5, 20eed8 <__CPU_OPS_END__>
  201218:	d2800000 	mov	x0, #0x0                   	// #0
  20121c:	1006e3e4 	adr	x4, 20ee98 <__CPU_OPS_START__>
  201220:	eb05009f 	cmp	x4, x5
  201224:	540000e0 	b.eq	201240 <search_def_ptr>  // b.none
  201228:	f8440481 	ldr	x1, [x4], #64
  20122c:	0a030021 	and	w1, w1, w3
  201230:	6b02003f 	cmp	w1, w2
  201234:	54ffff61 	b.ne	201220 <get_cpu_ops_ptr+0x1c>  // b.any
  201238:	d1010080 	sub	x0, x4, #0x40
  20123c:	d65f03c0 	ret

0000000000201240 <search_def_ptr>:
  201240:	d65f03c0 	ret

0000000000201244 <cpu_get_rev_var>:
  201244:	d5380001 	mrs	x1, midr_el1
  201248:	d3505c20 	ubfx	x0, x1, #16, #8
  20124c:	b3400c20 	bfxil	x0, x1, #0, #4
  201250:	d65f03c0 	ret

0000000000201254 <cpu_rev_var_ls>:
  201254:	d2800022 	mov	x2, #0x1                   	// #1
  201258:	d2800003 	mov	x3, #0x0                   	// #0
  20125c:	eb01001f 	cmp	x0, x1
  201260:	9a839040 	csel	x0, x2, x3, ls  // ls = plast
  201264:	d65f03c0 	ret

0000000000201268 <cpu_rev_var_hs>:
  201268:	d2800022 	mov	x2, #0x1                   	// #1
  20126c:	d2800003 	mov	x3, #0x0                   	// #0
  201270:	eb01001f 	cmp	x0, x1
  201274:	9a832040 	csel	x0, x2, x3, cs  // cs = hs, nlast
  201278:	d65f03c0 	ret

000000000020127c <plat_set_my_stack>:
  20127c:	90000080 	adrp	x0, 211000 <__STACKS_START__+0x8c0>
  201280:	911d0000 	add	x0, x0, #0x740
  201284:	9100001f 	mov	sp, x0
  201288:	d65f03c0 	ret

000000000020128c <console_hsuart_init>:
  20128c:	b4000580 	cbz	x0, 20133c <init_fail>
  201290:	34000561 	cbz	w1, 20133c <init_fail>
  201294:	34000542 	cbz	w2, 20133c <init_fail>
  201298:	b900041f 	str	wzr, [x0, #4]
  20129c:	52800064 	mov	w4, #0x3                   	// #3
  2012a0:	b9001004 	str	w4, [x0, #16]
  2012a4:	528000e4 	mov	w4, #0x7                   	// #7
  2012a8:	b9000804 	str	w4, [x0, #8]
  2012ac:	6b1f007f 	cmp	w3, wzr
  2012b0:	540000a1 	b.ne	2012c4 <set_baud_force_high_speed>  // b.any
  2012b4:	52984003 	mov	w3, #0xc200                	// #49664
  2012b8:	72a00023 	movk	w3, #0x1, lsl #16
  2012bc:	6b03005f 	cmp	w2, w3
  2012c0:	5400016d 	b.le	2012ec <set_baud_low_speed>

00000000002012c4 <set_baud_force_high_speed>:
  2012c4:	52800063 	mov	w3, #0x3                   	// #3
  2012c8:	b9002403 	str	w3, [x0, #36]
  2012cc:	51000423 	sub	w3, w1, #0x1
  2012d0:	53185c44 	lsl	w4, w2, #8
  2012d4:	0b040063 	add	w3, w3, w4
  2012d8:	1ac40863 	udiv	w3, w3, w4
  2012dc:	1b027c62 	mul	w2, w3, w2
  2012e0:	0b420421 	add	w1, w1, w2, lsr #1
  2012e4:	1ac20821 	udiv	w1, w1, w2
  2012e8:	14000006 	b	201300 <set_divisor>

00000000002012ec <set_baud_low_speed>:
  2012ec:	b900241f 	str	wzr, [x0, #36]
  2012f0:	0b020c21 	add	w1, w1, w2, lsl #3
  2012f4:	531c6c42 	lsl	w2, w2, #4
  2012f8:	1ac20823 	udiv	w3, w1, w2
  2012fc:	52800021 	mov	w1, #0x1                   	// #1

0000000000201300 <set_divisor>:
  201300:	52801062 	mov	w2, #0x83                  	// #131
  201304:	b9000c02 	str	w2, [x0, #12]
  201308:	12001c62 	and	w2, w3, #0xff
  20130c:	b9000002 	str	w2, [x0]
  201310:	53083c63 	ubfx	w3, w3, #8, #8
  201314:	b9000403 	str	w3, [x0, #4]
  201318:	52800062 	mov	w2, #0x3                   	// #3
  20131c:	b9000c02 	str	w2, [x0, #12]
  201320:	51000423 	sub	w3, w1, #0x1
  201324:	b9002803 	str	w3, [x0, #40]
  201328:	51000821 	sub	w1, w1, #0x2
  20132c:	13017c21 	asr	w1, w1, #1
  201330:	b9002c01 	str	w1, [x0, #44]
  201334:	52800020 	mov	w0, #0x1                   	// #1
  201338:	d65f03c0 	ret

000000000020133c <init_fail>:
  20133c:	2a1f03e0 	mov	w0, wzr
  201340:	d65f03c0 	ret

0000000000201344 <console_hsuart_core_getc>:
  201344:	b9401401 	ldr	w1, [x0, #20]
  201348:	36000061 	tbz	w1, #0, 201354 <no_char>
  20134c:	b9400000 	ldr	w0, [x0]
  201350:	d65f03c0 	ret

0000000000201354 <no_char>:
  201354:	12800000 	mov	w0, #0xffffffff            	// #-1
  201358:	d65f03c0 	ret

000000000020135c <console_hsuart_core_putc>:
  20135c:	7100281f 	cmp	w0, #0xa
  201360:	540000e1 	b.ne	20137c <console_hsuart_core_putc+0x20>  // b.any
  201364:	b9401422 	ldr	w2, [x1, #20]
  201368:	121b0442 	and	w2, w2, #0x60
  20136c:	7101805f 	cmp	w2, #0x60
  201370:	54ffffa1 	b.ne	201364 <console_hsuart_core_putc+0x8>  // b.any
  201374:	528001a2 	mov	w2, #0xd                   	// #13
  201378:	b9000022 	str	w2, [x1]
  20137c:	b9401422 	ldr	w2, [x1, #20]
  201380:	121b0442 	and	w2, w2, #0x60
  201384:	7101805f 	cmp	w2, #0x60
  201388:	54ffffa1 	b.ne	20137c <console_hsuart_core_putc+0x20>  // b.any
  20138c:	b9000020 	str	w0, [x1]
  201390:	d65f03c0 	ret

0000000000201394 <console_hsuart_core_flush>:
  201394:	b9401401 	ldr	w1, [x0, #20]
  201398:	121b0421 	and	w1, w1, #0x60
  20139c:	7101803f 	cmp	w1, #0x60
  2013a0:	54ffffa1 	b.ne	201394 <console_hsuart_core_flush>  // b.any
  2013a4:	2a1f03e0 	mov	w0, wzr
  2013a8:	d65f03c0 	ret

00000000002013ac <console_hsuart_getc>:
  2013ac:	f9401400 	ldr	x0, [x0, #40]
  2013b0:	17ffffe5 	b	201344 <console_hsuart_core_getc>

00000000002013b4 <console_hsuart_putc>:
  2013b4:	f9401421 	ldr	x1, [x1, #40]
  2013b8:	17ffffe9 	b	20135c <console_hsuart_core_putc>

00000000002013bc <console_hsuart_flush>:
  2013bc:	f9401400 	ldr	x0, [x0, #40]
  2013c0:	17fffff5 	b	201394 <console_hsuart_core_flush>

00000000002013c4 <console_hsuart_register>:
  2013c4:	aa1e03e7 	mov	x7, x30
  2013c8:	aa0403e6 	mov	x6, x4
  2013cc:	b4000266 	cbz	x6, 201418 <register_fail>
  2013d0:	f90014c0 	str	x0, [x6, #40]
  2013d4:	34000061 	cbz	w1, 2013e0 <register_hsuart>
  2013d8:	97ffffad 	bl	20128c <console_hsuart_init>
  2013dc:	b40001e0 	cbz	x0, 201418 <register_fail>

00000000002013e0 <register_hsuart>:
  2013e0:	aa0603e0 	mov	x0, x6
  2013e4:	aa0703fe 	mov	x30, x7
  2013e8:	90000001 	adrp	x1, 201000 <bl2_entrypoint>
  2013ec:	910ed021 	add	x1, x1, #0x3b4
  2013f0:	f9000801 	str	x1, [x0, #16]
  2013f4:	90000001 	adrp	x1, 201000 <bl2_entrypoint>
  2013f8:	910eb021 	add	x1, x1, #0x3ac
  2013fc:	f9000c01 	str	x1, [x0, #24]
  201400:	90000001 	adrp	x1, 201000 <bl2_entrypoint>
  201404:	910ef021 	add	x1, x1, #0x3bc
  201408:	f9001001 	str	x1, [x0, #32]
  20140c:	d28000a1 	mov	x1, #0x5                   	// #5
  201410:	f9000401 	str	x1, [x0, #8]
  201414:	1400166d 	b	206dc8 <console_register>

0000000000201418 <register_fail>:
  201418:	d65f00e0 	ret	x7

000000000020141c <plat_secondary_cold_boot_setup>:
  20141c:	14000000 	b	20141c <plat_secondary_cold_boot_setup>

0000000000201420 <plat_crash_console_init>:
  201420:	d2840000 	mov	x0, #0x2000                	// #8192
  201424:	f2a22000 	movk	x0, #0x1100, lsl #16
  201428:	d28f0801 	mov	x1, #0x7840                	// #30784
  20142c:	f2a02fa1 	movk	x1, #0x17d, lsl #16
  201430:	d2984002 	mov	x2, #0xc200                	// #49664
  201434:	f2a00022 	movk	x2, #0x1, lsl #16
  201438:	d2800023 	mov	x3, #0x1                   	// #1
  20143c:	17ffff94 	b	20128c <console_hsuart_init>

0000000000201440 <plat_crash_console_putc>:
  201440:	d2840001 	mov	x1, #0x2000                	// #8192
  201444:	f2a22001 	movk	x1, #0x1100, lsl #16
  201448:	17ffffc5 	b	20135c <console_hsuart_core_putc>

000000000020144c <plat_crash_console_flush>:
  20144c:	d2840000 	mov	x0, #0x2000                	// #8192
  201450:	f2a22000 	movk	x0, #0x1100, lsl #16
  201454:	17ffffd0 	b	201394 <console_hsuart_core_flush>

0000000000201458 <asm_print_str>:
  201458:	aa1e03e3 	mov	x3, x30
  20145c:	38401480 	ldrb	w0, [x4], #1
  201460:	b4000060 	cbz	x0, 20146c <asm_print_str+0x14>
  201464:	97fffff7 	bl	201440 <plat_crash_console_putc>
  201468:	17fffffd 	b	20145c <asm_print_str+0x4>
  20146c:	d65f0060 	ret	x3

0000000000201470 <asm_print_hex>:
  201470:	d2800805 	mov	x5, #0x40                  	// #64

0000000000201474 <asm_print_hex_bits>:
  201474:	aa1e03e3 	mov	x3, x30
  201478:	d10010a5 	sub	x5, x5, #0x4
  20147c:	9ac52480 	lsr	x0, x4, x5
  201480:	92400c00 	and	x0, x0, #0xf
  201484:	f100281f 	cmp	x0, #0xa
  201488:	54000043 	b.cc	201490 <asm_print_hex_bits+0x1c>  // b.lo, b.ul, b.last
  20148c:	91009c00 	add	x0, x0, #0x27
  201490:	9100c000 	add	x0, x0, #0x30
  201494:	97ffffeb 	bl	201440 <plat_crash_console_putc>
  201498:	b5ffff05 	cbnz	x5, 201478 <asm_print_hex_bits+0x4>
  20149c:	d65f0060 	ret	x3

00000000002014a0 <asm_print_newline>:
  2014a0:	d2800140 	mov	x0, #0xa                   	// #10
  2014a4:	17ffffe7 	b	201440 <plat_crash_console_putc>

00000000002014a8 <el3_panic>:
  2014a8:	aa1e03e6 	mov	x6, x30
  2014ac:	97ffffdd 	bl	201420 <plat_crash_console_init>
  2014b0:	b4000100 	cbz	x0, 2014d0 <_panic_handler>
  2014b4:	30069924 	adr	x4, 20e7d9 <cortex_a53_errata_list_end>
  2014b8:	97ffffe8 	bl	201458 <asm_print_str>
  2014bc:	aa0603e4 	mov	x4, x6
  2014c0:	d1001084 	sub	x4, x4, #0x4
  2014c4:	97ffffeb 	bl	201470 <asm_print_hex>
  2014c8:	97fffff6 	bl	2014a0 <asm_print_newline>
  2014cc:	97ffffe0 	bl	20144c <plat_crash_console_flush>

00000000002014d0 <_panic_handler>:
  2014d0:	aa0603fe 	mov	x30, x6
  2014d4:	14000064 	b	201664 <plat_panic_handler>

00000000002014d8 <flush_dcache_range>:
  2014d8:	b40001a1 	cbz	x1, 20150c <exit_loop_civac>
  2014dc:	d53b0023 	mrs	x3, ctr_el0
  2014e0:	d3504c63 	ubfx	x3, x3, #16, #4
  2014e4:	d2800082 	mov	x2, #0x4                   	// #4
  2014e8:	9ac32042 	lsl	x2, x2, x3
  2014ec:	8b010001 	add	x1, x0, x1
  2014f0:	d1000443 	sub	x3, x2, #0x1
  2014f4:	8a230000 	bic	x0, x0, x3

00000000002014f8 <loop_civac>:
  2014f8:	d50b7e20 	dc	civac, x0
  2014fc:	8b020000 	add	x0, x0, x2
  201500:	eb01001f 	cmp	x0, x1
  201504:	54ffffa3 	b.cc	2014f8 <loop_civac>  // b.lo, b.ul, b.last
  201508:	d5033f9f 	dsb	sy

000000000020150c <exit_loop_civac>:
  20150c:	d65f03c0 	ret

0000000000201510 <inv_dcache_range>:
  201510:	b40001a1 	cbz	x1, 201544 <exit_loop_ivac>
  201514:	d53b0023 	mrs	x3, ctr_el0
  201518:	d3504c63 	ubfx	x3, x3, #16, #4
  20151c:	d2800082 	mov	x2, #0x4                   	// #4
  201520:	9ac32042 	lsl	x2, x2, x3
  201524:	8b010001 	add	x1, x0, x1
  201528:	d1000443 	sub	x3, x2, #0x1
  20152c:	8a230000 	bic	x0, x0, x3

0000000000201530 <loop_ivac>:
  201530:	d5087620 	dc	ivac, x0
  201534:	8b020000 	add	x0, x0, x2
  201538:	eb01001f 	cmp	x0, x1
  20153c:	54ffffa3 	b.cc	201530 <loop_ivac>  // b.lo, b.ul, b.last
  201540:	d5033f9f 	dsb	sy

0000000000201544 <exit_loop_ivac>:
  201544:	d65f03c0 	ret

0000000000201548 <zeromem>:
  201548:	8b010002 	add	x2, x0, x1
  20154c:	14000030 	b	20160c <zero_normalmem+0xbc>

0000000000201550 <zero_normalmem>:
  201550:	8b010002 	add	x2, x0, x1
  201554:	d53b00e3 	mrs	x3, dczid_el0
  201558:	d3400c63 	ubfx	x3, x3, #0, #4
  20155c:	d2800085 	mov	x5, #0x4                   	// #4
  201560:	9ac320a3 	lsl	x3, x5, x3
  201564:	eb03003f 	cmp	x1, x3
  201568:	54000523 	b.cc	20160c <zero_normalmem+0xbc>  // b.lo, b.ul, b.last
  20156c:	d1000461 	sub	x1, x3, #0x1
  201570:	ea01001f 	tst	x0, x1
  201574:	54000260 	b.eq	2015c0 <zero_normalmem+0x70>  // b.none
  201578:	aa010004 	orr	x4, x0, x1
  20157c:	91000484 	add	x4, x4, #0x1
  201580:	b4000464 	cbz	x4, 20160c <zero_normalmem+0xbc>
  201584:	eb02009f 	cmp	x4, x2
  201588:	54000428 	b.hi	20160c <zero_normalmem+0xbc>  // b.pmore
  20158c:	f2400c1f 	tst	x0, #0xf
  201590:	540000e0 	b.eq	2015ac <zero_normalmem+0x5c>  // b.none
  201594:	b2400c05 	orr	x5, x0, #0xf
  201598:	910004a5 	add	x5, x5, #0x1
  20159c:	b4000385 	cbz	x5, 20160c <zero_normalmem+0xbc>
  2015a0:	3800141f 	strb	wzr, [x0], #1
  2015a4:	eb05001f 	cmp	x0, x5
  2015a8:	54ffffc1 	b.ne	2015a0 <zero_normalmem+0x50>  // b.any
  2015ac:	eb04001f 	cmp	x0, x4
  2015b0:	54000082 	b.cs	2015c0 <zero_normalmem+0x70>  // b.hs, b.nlast
  2015b4:	a8817c1f 	stp	xzr, xzr, [x0], #16
  2015b8:	eb04001f 	cmp	x0, x4
  2015bc:	54ffffc3 	b.cc	2015b4 <zero_normalmem+0x64>  // b.lo, b.ul, b.last
  2015c0:	8a210044 	bic	x4, x2, x1
  2015c4:	eb04001f 	cmp	x0, x4
  2015c8:	540000a2 	b.cs	2015dc <zero_normalmem+0x8c>  // b.hs, b.nlast
  2015cc:	d50b7420 	dc	zva, x0
  2015d0:	8b030000 	add	x0, x0, x3
  2015d4:	eb04001f 	cmp	x0, x4
  2015d8:	54ffffa3 	b.cc	2015cc <zero_normalmem+0x7c>  // b.lo, b.ul, b.last
  2015dc:	927cec44 	and	x4, x2, #0xfffffffffffffff0
  2015e0:	eb04001f 	cmp	x0, x4
  2015e4:	54000082 	b.cs	2015f4 <zero_normalmem+0xa4>  // b.hs, b.nlast
  2015e8:	a8817c1f 	stp	xzr, xzr, [x0], #16
  2015ec:	eb04001f 	cmp	x0, x4
  2015f0:	54ffffc3 	b.cc	2015e8 <zero_normalmem+0x98>  // b.lo, b.ul, b.last
  2015f4:	eb02001f 	cmp	x0, x2
  2015f8:	54000080 	b.eq	201608 <zero_normalmem+0xb8>  // b.none
  2015fc:	3800141f 	strb	wzr, [x0], #1
  201600:	eb02001f 	cmp	x0, x2
  201604:	54ffffc1 	b.ne	2015fc <zero_normalmem+0xac>  // b.any
  201608:	d65f03c0 	ret
  20160c:	f2400c1f 	tst	x0, #0xf
  201610:	54fffe60 	b.eq	2015dc <zero_normalmem+0x8c>  // b.none
  201614:	b2400c04 	orr	x4, x0, #0xf
  201618:	91000484 	add	x4, x4, #0x1
  20161c:	b4fffec4 	cbz	x4, 2015f4 <zero_normalmem+0xa4>
  201620:	eb02009f 	cmp	x4, x2
  201624:	54fffe82 	b.cs	2015f4 <zero_normalmem+0xa4>  // b.hs, b.nlast
  201628:	3800141f 	strb	wzr, [x0], #1
  20162c:	eb04001f 	cmp	x0, x4
  201630:	54ffffc1 	b.ne	201628 <zero_normalmem+0xd8>  // b.any
  201634:	17ffffea 	b	2015dc <zero_normalmem+0x8c>

0000000000201638 <disable_mmu_el3>:
  201638:	d28000a1 	mov	x1, #0x5                   	// #5

000000000020163c <do_disable_mmu_el3>:
  20163c:	d53e1000 	mrs	x0, sctlr_el3
  201640:	8a210000 	bic	x0, x0, x1
  201644:	d51e1000 	msr	sctlr_el3, x0
  201648:	d5033fdf 	isb
  20164c:	d5033f9f 	dsb	sy
  201650:	d65f03c0 	ret

0000000000201654 <disable_mmu_icache_el3>:
  201654:	d28200a1 	mov	x1, #0x1005                	// #4101
  201658:	17fffff9 	b	20163c <do_disable_mmu_el3>

000000000020165c <plat_report_exception>:
  20165c:	d65f03c0 	ret

0000000000201660 <plat_reset_handler>:
  201660:	d65f03c0 	ret

0000000000201664 <plat_panic_handler>:
  201664:	d503207f 	wfi
  201668:	17ffffff 	b	201664 <plat_panic_handler>

000000000020166c <bl2_arch_setup>:
  20166c:	d2a00600 	mov	x0, #0x300000              	// #3145728
  201670:	d5181040 	msr	cpacr_el1, x0
  201674:	d65f03c0 	ret

0000000000201678 <mtk_ar_update_bl_ar_ver>:
  201678:	52800000 	mov	w0, #0x0                   	// #0
  20167c:	d65f03c0 	ret

0000000000201680 <bl2_load_images>:
  201680:	a9bd7bfd 	stp	x29, x30, [sp, #-48]!
  201684:	910003fd 	mov	x29, sp
  201688:	a90153f3 	stp	x19, x20, [sp, #16]
  20168c:	f90013f5 	str	x21, [sp, #32]
  201690:	94000f01 	bl	205294 <plat_get_bl_image_load_info>
  201694:	f9400413 	ldr	x19, [x0, #8]
  201698:	52800015 	mov	w21, #0x0                   	// #0
  20169c:	b5000213 	cbnz	x19, 2016dc <bl2_load_images+0x5c>
  2016a0:	94000efe 	bl	205298 <plat_get_next_bl_params>
  2016a4:	aa0003f3 	mov	x19, x0
  2016a8:	f9400400 	ldr	x0, [x0, #8]
  2016ac:	f9400800 	ldr	x0, [x0, #16]
  2016b0:	f9400c01 	ldr	x1, [x0, #24]
  2016b4:	b5000041 	cbnz	x1, 2016bc <bl2_load_images+0x3c>
  2016b8:	f9000c13 	str	x19, [x0, #24]
  2016bc:	94000ef8 	bl	20529c <plat_flush_next_bl_params>
  2016c0:	97ffffee 	bl	201678 <mtk_ar_update_bl_ar_ver>
  2016c4:	2a0003f4 	mov	w20, w0
  2016c8:	34000580 	cbz	w0, 201778 <bl2_load_images+0xf8>
  2016cc:	2a0003e1 	mov	w1, w0
  2016d0:	b0000060 	adrp	x0, 20e000 <mtk_pin_info_pu+0x36c>
  2016d4:	9109e800 	add	x0, x0, #0x27a
  2016d8:	1400000e 	b	201710 <bl2_load_images+0x90>
  2016dc:	f9400660 	ldr	x0, [x19, #8]
  2016e0:	b9400400 	ldr	w0, [x0, #4]
  2016e4:	36100080 	tbz	w0, #2, 2016f4 <bl2_load_images+0x74>
  2016e8:	35000075 	cbnz	w21, 2016f4 <bl2_load_images+0x74>
  2016ec:	52800035 	mov	w21, #0x1                   	// #1
  2016f0:	94000ef7 	bl	2052cc <bl2_platform_setup>
  2016f4:	b9400260 	ldr	w0, [x19]
  2016f8:	94000ece 	bl	205230 <bl2_plat_handle_pre_image_load>
  2016fc:	2a0003f4 	mov	w20, w0
  201700:	340000c0 	cbz	w0, 201718 <bl2_load_images+0x98>
  201704:	2a0003e1 	mov	w1, w0
  201708:	b0000060 	adrp	x0, 20e000 <mtk_pin_info_pu+0x36c>
  20170c:	9107d000 	add	x0, x0, #0x1f4
  201710:	9400157e 	bl	206d08 <tf_log>
  201714:	1400000d 	b	201748 <bl2_load_images+0xc8>
  201718:	f9400661 	ldr	x1, [x19, #8]
  20171c:	b9400420 	ldr	w0, [x1, #4]
  201720:	37080180 	tbnz	w0, #1, 201750 <bl2_load_images+0xd0>
  201724:	b9400260 	ldr	w0, [x19]
  201728:	9400153c 	bl	206c18 <load_auth_image>
  20172c:	2a0003f4 	mov	w20, w0
  201730:	34000100 	cbz	w0, 201750 <bl2_load_images+0xd0>
  201734:	b9400261 	ldr	w1, [x19]
  201738:	2a0003e2 	mov	w2, w0
  20173c:	b0000060 	adrp	x0, 20e000 <mtk_pin_info_pu+0x36c>
  201740:	91088c00 	add	x0, x0, #0x223
  201744:	94001571 	bl	206d08 <tf_log>
  201748:	2a1403e0 	mov	w0, w20
  20174c:	940015f3 	bl	206f18 <plat_error_handler>
  201750:	b9400260 	ldr	w0, [x19]
  201754:	94000ec2 	bl	20525c <bl2_plat_handle_post_image_load>
  201758:	2a0003f4 	mov	w20, w0
  20175c:	340000a0 	cbz	w0, 201770 <bl2_load_images+0xf0>
  201760:	2a0003e1 	mov	w1, w0
  201764:	b0000060 	adrp	x0, 20e000 <mtk_pin_info_pu+0x36c>
  201768:	91092800 	add	x0, x0, #0x24a
  20176c:	17ffffe9 	b	201710 <bl2_load_images+0x90>
  201770:	f9400a73 	ldr	x19, [x19, #16]
  201774:	17ffffca 	b	20169c <bl2_load_images+0x1c>
  201778:	f9400660 	ldr	x0, [x19, #8]
  20177c:	a94153f3 	ldp	x19, x20, [sp, #16]
  201780:	f9400800 	ldr	x0, [x0, #16]
  201784:	f94013f5 	ldr	x21, [sp, #32]
  201788:	a8c37bfd 	ldp	x29, x30, [sp], #48
  20178c:	d65f03c0 	ret

0000000000201790 <bl2_el3_setup>:
  201790:	a9bf7bfd 	stp	x29, x30, [sp, #-16]!
  201794:	910003fd 	mov	x29, sp
  201798:	94000ec3 	bl	2052a4 <bl2_el3_early_platform_setup>
  20179c:	a8c17bfd 	ldp	x29, x30, [sp], #16
  2017a0:	1400112a 	b	205c48 <bl2_el3_plat_arch_setup>

00000000002017a4 <bl2_main>:
  2017a4:	a9be7bfd 	stp	x29, x30, [sp, #-32]!
  2017a8:	b0000061 	adrp	x1, 20e000 <mtk_pin_info_pu+0x36c>
  2017ac:	91071821 	add	x1, x1, #0x1c6
  2017b0:	910003fd 	mov	x29, sp
  2017b4:	f9000bf3 	str	x19, [sp, #16]
  2017b8:	b0000073 	adrp	x19, 20e000 <mtk_pin_info_pu+0x36c>
  2017bc:	910ac273 	add	x19, x19, #0x2b0
  2017c0:	aa1303e0 	mov	x0, x19
  2017c4:	94001551 	bl	206d08 <tf_log>
  2017c8:	aa1303e0 	mov	x0, x19
  2017cc:	b0000061 	adrp	x1, 20e000 <mtk_pin_info_pu+0x36c>
  2017d0:	9106a021 	add	x1, x1, #0x1a8
  2017d4:	9400154d 	bl	206d08 <tf_log>
  2017d8:	97ffffa5 	bl	20166c <bl2_arch_setup>
  2017dc:	94000e90 	bl	20521c <bl2_plat_preload_setup>
  2017e0:	97ffffa8 	bl	201680 <bl2_load_images>
  2017e4:	aa0003f3 	mov	x19, x0
  2017e8:	b0000060 	adrp	x0, 20e000 <mtk_pin_info_pu+0x36c>
  2017ec:	910ae800 	add	x0, x0, #0x2ba
  2017f0:	94001546 	bl	206d08 <tf_log>
  2017f4:	aa1303e0 	mov	x0, x19
  2017f8:	94001543 	bl	206d04 <print_entry_point_info>
  2017fc:	940015b1 	bl	206ec0 <console_flush>
  201800:	aa1303e0 	mov	x0, x19
  201804:	f9400bf3 	ldr	x19, [sp, #16]
  201808:	a8c27bfd 	ldp	x29, x30, [sp], #32
  20180c:	17fffe3e 	b	201104 <bl2_run_next_image>

0000000000201810 <flush_bl_params_desc_args>:
  201810:	a9be7bfd 	stp	x29, x30, [sp, #-32]!
  201814:	910003fd 	mov	x29, sp
  201818:	f9000bf3 	str	x19, [sp, #16]
  20181c:	aa0203f3 	mov	x19, x2
  201820:	52801702 	mov	w2, #0xb8                  	// #184
  201824:	9ba27c21 	umull	x1, w1, w2
  201828:	97ffff2c 	bl	2014d8 <flush_dcache_range>
  20182c:	aa1303e0 	mov	x0, x19
  201830:	d2800201 	mov	x1, #0x10                  	// #16
  201834:	f9400bf3 	ldr	x19, [sp, #16]
  201838:	a8c27bfd 	ldp	x29, x30, [sp], #32
  20183c:	17ffff27 	b	2014d8 <flush_dcache_range>

0000000000201840 <flush_bl_params_desc>:
  201840:	f0000060 	adrp	x0, 210000 <__RO_END__>
  201844:	90000082 	adrp	x2, 211000 <__STACKS_START__+0x8c0>
  201848:	91256042 	add	x2, x2, #0x958
  20184c:	b9447001 	ldr	w1, [x0, #1136]
  201850:	f0000060 	adrp	x0, 210000 <__RO_END__>
  201854:	f940cc00 	ldr	x0, [x0, #408]
  201858:	17ffffee 	b	201810 <flush_bl_params_desc_args>

000000000020185c <get_bl_params_node_index>:
  20185c:	2a0003e1 	mov	w1, w0
  201860:	f0000060 	adrp	x0, 210000 <__RO_END__>
  201864:	d2801703 	mov	x3, #0xb8                  	// #184
  201868:	b9447004 	ldr	w4, [x0, #1136]
  20186c:	f0000060 	adrp	x0, 210000 <__RO_END__>
  201870:	f940cc02 	ldr	x2, [x0, #408]
  201874:	d2800000 	mov	x0, #0x0                   	// #0
  201878:	d102e042 	sub	x2, x2, #0xb8
  20187c:	6b00009f 	cmp	w4, w0
  201880:	54000068 	b.hi	20188c <get_bl_params_node_index+0x30>  // b.pmore
  201884:	12800000 	mov	w0, #0xffffffff            	// #-1
  201888:	d65f03c0 	ret
  20188c:	9b030c06 	madd	x6, x0, x3, x3
  201890:	91000405 	add	x5, x0, #0x1
  201894:	b8666846 	ldr	w6, [x2, x6]
  201898:	6b0100df 	cmp	w6, w1
  20189c:	54ffff60 	b.eq	201888 <get_bl_params_node_index+0x2c>  // b.none
  2018a0:	aa0503e0 	mov	x0, x5
  2018a4:	17fffff6 	b	20187c <get_bl_params_node_index+0x20>

00000000002018a8 <get_bl_mem_params_node>:
  2018a8:	a9bf7bfd 	stp	x29, x30, [sp, #-16]!
  2018ac:	910003fd 	mov	x29, sp
  2018b0:	97ffffeb 	bl	20185c <get_bl_params_node_index>
  2018b4:	37f800e0 	tbnz	w0, #31, 2018d0 <get_bl_mem_params_node+0x28>
  2018b8:	f0000061 	adrp	x1, 210000 <__RO_END__>
  2018bc:	52801702 	mov	w2, #0xb8                  	// #184
  2018c0:	f940cc21 	ldr	x1, [x1, #408]
  2018c4:	9b220400 	smaddl	x0, w0, w2, x1
  2018c8:	a8c17bfd 	ldp	x29, x30, [sp], #16
  2018cc:	d65f03c0 	ret
  2018d0:	d2800000 	mov	x0, #0x0                   	// #0
  2018d4:	17fffffd 	b	2018c8 <get_bl_mem_params_node+0x20>

00000000002018d8 <get_bl_load_info_from_mem_params_desc>:
  2018d8:	f0000060 	adrp	x0, 210000 <__RO_END__>
  2018dc:	b9447004 	ldr	w4, [x0, #1136]
  2018e0:	34000324 	cbz	w4, 201944 <get_bl_load_info_from_mem_params_desc+0x6c>
  2018e4:	f0000060 	adrp	x0, 210000 <__RO_END__>
  2018e8:	90000083 	adrp	x3, 211000 <__STACKS_START__+0x8c0>
  2018ec:	d2804085 	mov	x5, #0x204                 	// #516
  2018f0:	f940cc01 	ldr	x1, [x0, #408]
  2018f4:	91252060 	add	x0, x3, #0x948
  2018f8:	f2a00205 	movk	x5, #0x10, lsl #16
  2018fc:	f904a465 	str	x5, [x3, #2376]
  201900:	91020022 	add	x2, x1, #0x80
  201904:	91002021 	add	x1, x1, #0x8
  201908:	52800003 	mov	w3, #0x0                   	// #0
  20190c:	f9000402 	str	x2, [x0, #8]
  201910:	b85f8025 	ldur	w5, [x1, #-8]
  201914:	11000463 	add	w3, w3, #0x1
  201918:	b9000045 	str	w5, [x2]
  20191c:	f9000441 	str	x1, [x2, #8]
  201920:	6b03009f 	cmp	w4, w3
  201924:	54000089 	b.ls	201934 <get_bl_load_info_from_mem_params_desc+0x5c>  // b.plast
  201928:	9104c025 	add	x5, x1, #0x130
  20192c:	f9000845 	str	x5, [x2, #16]
  201930:	aa0503e2 	mov	x2, x5
  201934:	9102e021 	add	x1, x1, #0xb8
  201938:	6b03009f 	cmp	w4, w3
  20193c:	54fffea1 	b.ne	201910 <get_bl_load_info_from_mem_params_desc+0x38>  // b.any
  201940:	d65f03c0 	ret
  201944:	d2800000 	mov	x0, #0x0                   	// #0
  201948:	17fffffe 	b	201940 <get_bl_load_info_from_mem_params_desc+0x68>

000000000020194c <get_next_bl_params_from_mem_params_desc>:
  20194c:	f0000060 	adrp	x0, 210000 <__RO_END__>
  201950:	b944700a 	ldr	w10, [x0, #1136]
  201954:	3400064a 	cbz	w10, 201a1c <get_next_bl_params_from_mem_params_desc+0xd0>
  201958:	a9bf7bfd 	stp	x29, x30, [sp, #-16]!
  20195c:	f0000060 	adrp	x0, 210000 <__RO_END__>
  201960:	d2c00303 	mov	x3, #0x1800000000          	// #103079215104
  201964:	910003fd 	mov	x29, sp
  201968:	f940cc0b 	ldr	x11, [x0, #408]
  20196c:	52800000 	mov	w0, #0x0                   	// #0
  201970:	aa0b03e1 	mov	x1, x11
  201974:	f9401022 	ldr	x2, [x1, #32]
  201978:	925d0442 	and	x2, x2, #0x1800000000
  20197c:	eb03005f 	cmp	x2, x3
  201980:	54000421 	b.ne	201a04 <get_next_bl_params_from_mem_params_desc+0xb8>  // b.any
  201984:	90000082 	adrp	x2, 211000 <__STACKS_START__+0x8c0>
  201988:	91026021 	add	x1, x1, #0x98
  20198c:	f904b041 	str	x1, [x2, #2400]
  201990:	90000087 	adrp	x7, 211000 <__STACKS_START__+0x8c0>
  201994:	d28040a1 	mov	x1, #0x205                 	// #517
  201998:	f2a00201 	movk	x1, #0x10, lsl #16
  20199c:	d2800008 	mov	x8, #0x0                   	// #0
  2019a0:	f904ace1 	str	x1, [x7, #2392]
  2019a4:	52800009 	mov	w9, #0x0                   	// #0
  2019a8:	5280170c 	mov	w12, #0xb8                  	// #184
  2019ac:	9bac7c00 	umull	x0, w0, w12
  2019b0:	aa0803e2 	mov	x2, x8
  2019b4:	8b000161 	add	x1, x11, x0
  2019b8:	91026028 	add	x8, x1, #0x98
  2019bc:	b8606960 	ldr	w0, [x11, x0]
  2019c0:	b9009820 	str	w0, [x1, #152]
  2019c4:	91002020 	add	x0, x1, #0x8
  2019c8:	f9000500 	str	x0, [x8, #8]
  2019cc:	91008020 	add	x0, x1, #0x20
  2019d0:	f9000900 	str	x0, [x8, #16]
  2019d4:	b4000042 	cbz	x2, 2019dc <get_next_bl_params_from_mem_params_desc+0x90>
  2019d8:	f9000c48 	str	x8, [x2, #24]
  2019dc:	b9407820 	ldr	w0, [x1, #120]
  2019e0:	3100041f 	cmn	w0, #0x1
  2019e4:	540000a0 	b.eq	2019f8 <get_next_bl_params_from_mem_params_desc+0xac>  // b.none
  2019e8:	11000529 	add	w9, w9, #0x1
  2019ec:	97ffff9c 	bl	20185c <get_bl_params_node_index>
  2019f0:	6b09015f 	cmp	w10, w9
  2019f4:	54fffdc1 	b.ne	2019ac <get_next_bl_params_from_mem_params_desc+0x60>  // b.any
  2019f8:	912560e0 	add	x0, x7, #0x958
  2019fc:	a8c17bfd 	ldp	x29, x30, [sp], #16
  201a00:	d65f03c0 	ret
  201a04:	11000400 	add	w0, w0, #0x1
  201a08:	9102e021 	add	x1, x1, #0xb8
  201a0c:	6b00015f 	cmp	w10, w0
  201a10:	54fffb21 	b.ne	201974 <get_next_bl_params_from_mem_params_desc+0x28>  // b.any
  201a14:	52800000 	mov	w0, #0x0                   	// #0
  201a18:	17ffffde 	b	201990 <get_next_bl_params_from_mem_params_desc+0x44>
  201a1c:	d2800000 	mov	x0, #0x0                   	// #0
  201a20:	d65f03c0 	ret

0000000000201a24 <image_decompress_init>:
  201a24:	90000083 	adrp	x3, 211000 <__STACKS_START__+0x8c0>
  201a28:	f904b860 	str	x0, [x3, #2416]
  201a2c:	f0000080 	adrp	x0, 214000 <list+0x2550>
  201a30:	b9078001 	str	w1, [x0, #1920]
  201a34:	90000080 	adrp	x0, 211000 <__STACKS_START__+0x8c0>
  201a38:	f904b402 	str	x2, [x0, #2408]
  201a3c:	d65f03c0 	ret

0000000000201a40 <image_decompress_prepare>:
  201a40:	90000082 	adrp	x2, 211000 <__STACKS_START__+0x8c0>
  201a44:	9125e041 	add	x1, x2, #0x978
  201a48:	f9400003 	ldr	x3, [x0]
  201a4c:	f904bc43 	str	x3, [x2, #2424]
  201a50:	f9400402 	ldr	x2, [x0, #8]
  201a54:	f9000422 	str	x2, [x1, #8]
  201a58:	f9400802 	ldr	x2, [x0, #16]
  201a5c:	f9000822 	str	x2, [x1, #16]
  201a60:	90000081 	adrp	x1, 211000 <__STACKS_START__+0x8c0>
  201a64:	f944b821 	ldr	x1, [x1, #2416]
  201a68:	f9000401 	str	x1, [x0, #8]
  201a6c:	f0000081 	adrp	x1, 214000 <list+0x2550>
  201a70:	b9478021 	ldr	w1, [x1, #1920]
  201a74:	b9001401 	str	w1, [x0, #20]
  201a78:	d65f03c0 	ret

0000000000201a7c <image_decompress>:
  201a7c:	a9bd7bfd 	stp	x29, x30, [sp, #-48]!
  201a80:	910003fd 	mov	x29, sp
  201a84:	b9401001 	ldr	w1, [x0, #16]
  201a88:	a90153f3 	stp	x19, x20, [sp, #16]
  201a8c:	aa0003f3 	mov	x19, x0
  201a90:	f9400404 	ldr	x4, [x0, #8]
  201a94:	90000080 	adrp	x0, 211000 <__STACKS_START__+0x8c0>
  201a98:	9125e002 	add	x2, x0, #0x978
  201a9c:	f944bc00 	ldr	x0, [x0, #2424]
  201aa0:	f9000260 	str	x0, [x19]
  201aa4:	f9400440 	ldr	x0, [x2, #8]
  201aa8:	f9000660 	str	x0, [x19, #8]
  201aac:	a90203e4 	stp	x4, x0, [sp, #32]
  201ab0:	f0000080 	adrp	x0, 214000 <list+0x2550>
  201ab4:	8b214084 	add	x4, x4, w1, uxtw
  201ab8:	b9478005 	ldr	w5, [x0, #1920]
  201abc:	90000080 	adrp	x0, 211000 <__STACKS_START__+0x8c0>
  201ac0:	f9400843 	ldr	x3, [x2, #16]
  201ac4:	f9000a63 	str	x3, [x19, #16]
  201ac8:	f944b406 	ldr	x6, [x0, #2408]
  201acc:	4b0100a5 	sub	w5, w5, w1
  201ad0:	d360fc63 	lsr	x3, x3, #32
  201ad4:	9100a3e2 	add	x2, sp, #0x28
  201ad8:	2a0103e1 	mov	w1, w1
  201adc:	910083e0 	add	x0, sp, #0x20
  201ae0:	d63f00c0 	blr	x6
  201ae4:	2a0003f4 	mov	w20, w0
  201ae8:	34000120 	cbz	w0, 201b0c <image_decompress+0x90>
  201aec:	2a0003e1 	mov	w1, w0
  201af0:	b0000060 	adrp	x0, 20e000 <mtk_pin_info_pu+0x36c>
  201af4:	910b3800 	add	x0, x0, #0x2ce
  201af8:	94001484 	bl	206d08 <tf_log>
  201afc:	2a1403e0 	mov	w0, w20
  201b00:	a94153f3 	ldp	x19, x20, [sp, #16]
  201b04:	a8c37bfd 	ldp	x29, x30, [sp], #48
  201b08:	d65f03c0 	ret
  201b0c:	f9400660 	ldr	x0, [x19, #8]
  201b10:	f94017e1 	ldr	x1, [sp, #40]
  201b14:	4b000021 	sub	w1, w1, w0
  201b18:	b9001261 	str	w1, [x19, #16]
  201b1c:	97fffe6f 	bl	2014d8 <flush_dcache_range>
  201b20:	17fffff7 	b	201afc <image_decompress+0x80>

0000000000201b24 <tf_crc32>:
  201b24:	2a2003e0 	mvn	w0, w0
  201b28:	d2800003 	mov	x3, #0x0                   	// #0
  201b2c:	eb03005f 	cmp	x2, x3
  201b30:	54000061 	b.ne	201b3c <tf_crc32+0x18>  // b.any
  201b34:	2a2003e0 	mvn	w0, w0
  201b38:	d65f03c0 	ret
  201b3c:	38636824 	ldrb	w4, [x1, x3]
  201b40:	91000463 	add	x3, x3, #0x1
  201b44:	1ac44000 	crc32b	w0, w0, w4
  201b48:	17fffff9 	b	201b2c <tf_crc32+0x8>

0000000000201b4c <udelay>:
  201b4c:	a9bd7bfd 	stp	x29, x30, [sp, #-48]!
  201b50:	910003fd 	mov	x29, sp
  201b54:	a90153f3 	stp	x19, x20, [sp, #16]
  201b58:	90000094 	adrp	x20, 211000 <__STACKS_START__+0x8c0>
  201b5c:	2a0003f3 	mov	w19, w0
  201b60:	f944ca80 	ldr	x0, [x20, #2448]
  201b64:	f9400000 	ldr	x0, [x0]
  201b68:	f90013f5 	str	x21, [sp, #32]
  201b6c:	d63f0000 	blr	x0
  201b70:	2a0003f5 	mov	w21, w0
  201b74:	f944ca82 	ldr	x2, [x20, #2448]
  201b78:	29410841 	ldp	w1, w2, [x2, #8]
  201b7c:	d1000420 	sub	x0, x1, #0x1
  201b80:	9ba20273 	umaddl	x19, w19, w2, x0
  201b84:	9ac10a73 	udiv	x19, x19, x1
  201b88:	91000673 	add	x19, x19, #0x1
  201b8c:	f944ca80 	ldr	x0, [x20, #2448]
  201b90:	f9400000 	ldr	x0, [x0]
  201b94:	d63f0000 	blr	x0
  201b98:	4b0002a1 	sub	w1, w21, w0
  201b9c:	eb13003f 	cmp	x1, x19
  201ba0:	54ffff63 	b.cc	201b8c <udelay+0x40>  // b.lo, b.ul, b.last
  201ba4:	a94153f3 	ldp	x19, x20, [sp, #16]
  201ba8:	f94013f5 	ldr	x21, [sp, #32]
  201bac:	a8c37bfd 	ldp	x29, x30, [sp], #48
  201bb0:	d65f03c0 	ret

0000000000201bb4 <mdelay>:
  201bb4:	52807d01 	mov	w1, #0x3e8                 	// #1000
  201bb8:	1b017c00 	mul	w0, w0, w1
  201bbc:	17ffffe4 	b	201b4c <udelay>

0000000000201bc0 <timer_init>:
  201bc0:	90000081 	adrp	x1, 211000 <__STACKS_START__+0x8c0>
  201bc4:	f904c820 	str	x0, [x1, #2448]
  201bc8:	d65f03c0 	ret

0000000000201bcc <get_timer_value>:
  201bcc:	d53be020 	mrs	x0, cntpct_el0
  201bd0:	2a2003e0 	mvn	w0, w0
  201bd4:	d65f03c0 	ret

0000000000201bd8 <generic_delay_timer_init_args>:
  201bd8:	2a0003e4 	mov	w4, w0
  201bdc:	90000083 	adrp	x3, 211000 <__STACKS_START__+0x8c0>
  201be0:	91266060 	add	x0, x3, #0x998
  201be4:	90000002 	adrp	x2, 201000 <bl2_entrypoint>
  201be8:	912f3042 	add	x2, x2, #0xbcc
  201bec:	f904cc62 	str	x2, [x3, #2456]
  201bf0:	29010404 	stp	w4, w1, [x0, #8]
  201bf4:	17fffff3 	b	201bc0 <timer_init>

0000000000201bf8 <generic_delay_timer_init>:
  201bf8:	a9bf7bfd 	stp	x29, x30, [sp, #-16]!
  201bfc:	910003fd 	mov	x29, sp
  201c00:	94000fed 	bl	205bb4 <plat_get_syscnt_freq2>
  201c04:	2a0003e1 	mov	w1, w0
  201c08:	52884800 	mov	w0, #0x4240                	// #16960
  201c0c:	528000c3 	mov	w3, #0x6                   	// #6
  201c10:	72a001e0 	movk	w0, #0xf, lsl #16
  201c14:	52800142 	mov	w2, #0xa                   	// #10
  201c18:	1ac20824 	udiv	w4, w1, w2
  201c1c:	1b028485 	msub	w5, w4, w2, w1
  201c20:	350000a5 	cbnz	w5, 201c34 <generic_delay_timer_init+0x3c>
  201c24:	1ac20800 	udiv	w0, w0, w2
  201c28:	2a0403e1 	mov	w1, w4
  201c2c:	71000463 	subs	w3, w3, #0x1
  201c30:	54ffff41 	b.ne	201c18 <generic_delay_timer_init+0x20>  // b.any
  201c34:	a8c17bfd 	ldp	x29, x30, [sp], #16
  201c38:	17ffffe8 	b	201bd8 <generic_delay_timer_init_args>

0000000000201c3c <gpio_init>:
  201c3c:	90000081 	adrp	x1, 211000 <__STACKS_START__+0x8c0>
  201c40:	f904d420 	str	x0, [x1, #2472]
  201c44:	d65f03c0 	ret

0000000000201c48 <device_type_block>:
  201c48:	52800080 	mov	w0, #0x4                   	// #4
  201c4c:	d65f03c0 	ret

0000000000201c50 <block_open>:
  201c50:	f9400400 	ldr	x0, [x0, #8]
  201c54:	a9400423 	ldp	x3, x1, [x1]
  201c58:	a900fc03 	stp	x3, xzr, [x0, #8]
  201c5c:	f9000c01 	str	x1, [x0, #24]
  201c60:	f9000440 	str	x0, [x2, #8]
  201c64:	52800000 	mov	w0, #0x0                   	// #0
  201c68:	d65f03c0 	ret

0000000000201c6c <block_seek>:
  201c6c:	f9400400 	ldr	x0, [x0, #8]
  201c70:	7100043f 	cmp	w1, #0x1
  201c74:	540000e0 	b.eq	201c90 <block_seek+0x24>  // b.none
  201c78:	71000c3f 	cmp	w1, #0x3
  201c7c:	54000060 	b.eq	201c88 <block_seek+0x1c>  // b.none
  201c80:	128002a0 	mov	w0, #0xffffffea            	// #-22
  201c84:	d65f03c0 	ret
  201c88:	f9400801 	ldr	x1, [x0, #16]
  201c8c:	8b020022 	add	x2, x1, x2
  201c90:	f9000802 	str	x2, [x0, #16]
  201c94:	52800000 	mov	w0, #0x0                   	// #0
  201c98:	17fffffb 	b	201c84 <block_seek+0x18>

0000000000201c9c <block_close>:
  201c9c:	f900041f 	str	xzr, [x0, #8]
  201ca0:	52800000 	mov	w0, #0x0                   	// #0
  201ca4:	d65f03c0 	ret

0000000000201ca8 <block_write>:
  201ca8:	a9b87bfd 	stp	x29, x30, [sp, #-128]!
  201cac:	910003fd 	mov	x29, sp
  201cb0:	a9025bf5 	stp	x21, x22, [sp, #32]
  201cb4:	d2800015 	mov	x21, #0x0                   	// #0
  201cb8:	f9400416 	ldr	x22, [x0, #8]
  201cbc:	a90573fb 	stp	x27, x28, [sp, #80]
  201cc0:	a9046bf9 	stp	x25, x26, [sp, #64]
  201cc4:	f94002db 	ldr	x27, [x22]
  201cc8:	a90153f3 	stp	x19, x20, [sp, #16]
  201ccc:	aa0203f4 	mov	x20, x2
  201cd0:	a90363f7 	stp	x23, x24, [sp, #48]
  201cd4:	f940137a 	ldr	x26, [x27, #32]
  201cd8:	f9003be3 	str	x3, [sp, #112]
  201cdc:	cb1a03f8 	neg	x24, x26
  201ce0:	d1000740 	sub	x0, x26, #0x1
  201ce4:	a90607e0 	stp	x0, x1, [sp, #96]
  201ce8:	b50000b4 	cbnz	x20, 201cfc <block_write+0x54>
  201cec:	f9403be0 	ldr	x0, [sp, #112]
  201cf0:	f9000015 	str	x21, [x0]
  201cf4:	52800000 	mov	w0, #0x0                   	// #0
  201cf8:	1400001c 	b	201d68 <block_write+0xc0>
  201cfc:	f9400ad9 	ldr	x25, [x22, #16]
  201d00:	f94033e0 	ldr	x0, [sp, #96]
  201d04:	f9400762 	ldr	x2, [x27, #8]
  201d08:	8a000333 	and	x19, x25, x0
  201d0c:	f94006c0 	ldr	x0, [x22, #8]
  201d10:	8b130297 	add	x23, x20, x19
  201d14:	8b000339 	add	x25, x25, x0
  201d18:	9ada0b39 	udiv	x25, x25, x26
  201d1c:	eb17005f 	cmp	x2, x23
  201d20:	54000083 	b.cc	201d30 <block_write+0x88>  // b.lo, b.ul, b.last
  201d24:	f94033e0 	ldr	x0, [sp, #96]
  201d28:	8b170002 	add	x2, x0, x23
  201d2c:	8a180042 	and	x2, x2, x24
  201d30:	91004360 	add	x0, x27, #0x10
  201d34:	f9003fe0 	str	x0, [sp, #120]
  201d38:	cb130044 	sub	x4, x2, x19
  201d3c:	eb04029f 	cmp	x20, x4
  201d40:	54000043 	b.cc	201d48 <block_write+0xa0>  // b.lo, b.ul, b.last
  201d44:	b40005d3 	cbz	x19, 201dfc <block_write+0x154>
  201d48:	f9400361 	ldr	x1, [x27]
  201d4c:	2a1903e0 	mov	w0, w25
  201d50:	f9400b64 	ldr	x4, [x27, #16]
  201d54:	d63f0080 	blr	x4
  201d58:	8a00031c 	and	x28, x24, x0
  201d5c:	eb1c027f 	cmp	x19, x28
  201d60:	54000123 	b.cc	201d84 <block_write+0xdc>  // b.lo, b.ul, b.last
  201d64:	12800080 	mov	w0, #0xfffffffb            	// #-5
  201d68:	a94153f3 	ldp	x19, x20, [sp, #16]
  201d6c:	a9425bf5 	ldp	x21, x22, [sp, #32]
  201d70:	a94363f7 	ldp	x23, x24, [sp, #48]
  201d74:	a9446bf9 	ldp	x25, x26, [sp, #64]
  201d78:	a94573fb 	ldp	x27, x28, [sp, #80]
  201d7c:	a8c87bfd 	ldp	x29, x30, [sp], #128
  201d80:	d65f03c0 	ret
  201d84:	cb130384 	sub	x4, x28, x19
  201d88:	cb140082 	sub	x2, x4, x20
  201d8c:	eb04029f 	cmp	x20, x4
  201d90:	9a9f3042 	csel	x2, x2, xzr, cc  // cc = lo, ul, last
  201d94:	cb020084 	sub	x4, x4, x2
  201d98:	f9400360 	ldr	x0, [x27]
  201d9c:	aa0403e2 	mov	x2, x4
  201da0:	f94037e1 	ldr	x1, [sp, #104]
  201da4:	8b000260 	add	x0, x19, x0
  201da8:	8b0102a1 	add	x1, x21, x1
  201dac:	94002780 	bl	20bbac <memcpy>
  201db0:	f9400361 	ldr	x1, [x27]
  201db4:	aa1c03e2 	mov	x2, x28
  201db8:	f9400f64 	ldr	x4, [x27, #24]
  201dbc:	2a1903e0 	mov	w0, w25
  201dc0:	d63f0080 	blr	x4
  201dc4:	eb00027f 	cmp	x19, x0
  201dc8:	54fffce2 	b.cs	201d64 <block_write+0xbc>  // b.hs, b.nlast
  201dcc:	cb130013 	sub	x19, x0, x19
  201dd0:	cb140261 	sub	x1, x19, x20
  201dd4:	eb13029f 	cmp	x20, x19
  201dd8:	9a9f3034 	csel	x20, x1, xzr, cc  // cc = lo, ul, last
  201ddc:	f9400ac1 	ldr	x1, [x22, #16]
  201de0:	cb140273 	sub	x19, x19, x20
  201de4:	cb000294 	sub	x20, x20, x0
  201de8:	8b1302b5 	add	x21, x21, x19
  201dec:	8b130021 	add	x1, x1, x19
  201df0:	8b170294 	add	x20, x20, x23
  201df4:	f9000ac1 	str	x1, [x22, #16]
  201df8:	17ffffbc 	b	201ce8 <block_write+0x40>
  201dfc:	aa0403fc 	mov	x28, x4
  201e00:	17ffffe6 	b	201d98 <block_write+0xf0>

0000000000201e04 <block_read>:
  201e04:	a9b87bfd 	stp	x29, x30, [sp, #-128]!
  201e08:	910003fd 	mov	x29, sp
  201e0c:	a9046bf9 	stp	x25, x26, [sp, #64]
  201e10:	f940041a 	ldr	x26, [x0, #8]
  201e14:	a9025bf5 	stp	x21, x22, [sp, #32]
  201e18:	a90153f3 	stp	x19, x20, [sp, #16]
  201e1c:	aa0203f3 	mov	x19, x2
  201e20:	f9400359 	ldr	x25, [x26]
  201e24:	a90363f7 	stp	x23, x24, [sp, #48]
  201e28:	a90573fb 	stp	x27, x28, [sp, #80]
  201e2c:	d280001c 	mov	x28, #0x0                   	// #0
  201e30:	f9401335 	ldr	x21, [x25, #32]
  201e34:	a9068fe1 	stp	x1, x3, [sp, #104]
  201e38:	d10006b7 	sub	x23, x21, #0x1
  201e3c:	cb1503f8 	neg	x24, x21
  201e40:	b5000173 	cbnz	x19, 201e6c <block_read+0x68>
  201e44:	f9403be0 	ldr	x0, [sp, #112]
  201e48:	f900001c 	str	x28, [x0]
  201e4c:	52800000 	mov	w0, #0x0                   	// #0
  201e50:	a94153f3 	ldp	x19, x20, [sp, #16]
  201e54:	a9425bf5 	ldp	x21, x22, [sp, #32]
  201e58:	a94363f7 	ldp	x23, x24, [sp, #48]
  201e5c:	a9446bf9 	ldp	x25, x26, [sp, #64]
  201e60:	a94573fb 	ldp	x27, x28, [sp, #80]
  201e64:	a8c87bfd 	ldp	x29, x30, [sp], #128
  201e68:	d65f03c0 	ret
  201e6c:	a9408341 	ldp	x1, x0, [x26, #8]
  201e70:	f9400722 	ldr	x2, [x25, #8]
  201e74:	8a170003 	and	x3, x0, x23
  201e78:	8b010000 	add	x0, x0, x1
  201e7c:	8b030276 	add	x22, x19, x3
  201e80:	9ad50800 	udiv	x0, x0, x21
  201e84:	eb16005f 	cmp	x2, x22
  201e88:	54000063 	b.cc	201e94 <block_read+0x90>  // b.lo, b.ul, b.last
  201e8c:	8b1602e2 	add	x2, x23, x22
  201e90:	8a180042 	and	x2, x2, x24
  201e94:	f9400321 	ldr	x1, [x25]
  201e98:	f9003fe3 	str	x3, [sp, #120]
  201e9c:	f9400b26 	ldr	x6, [x25, #16]
  201ea0:	d63f00c0 	blr	x6
  201ea4:	f9403fe3 	ldr	x3, [sp, #120]
  201ea8:	eb00007f 	cmp	x3, x0
  201eac:	54000262 	b.cs	201ef8 <block_read+0xf4>  // b.hs, b.nlast
  201eb0:	cb030014 	sub	x20, x0, x3
  201eb4:	cb130282 	sub	x2, x20, x19
  201eb8:	eb14027f 	cmp	x19, x20
  201ebc:	9a9f3053 	csel	x19, x2, xzr, cc  // cc = lo, ul, last
  201ec0:	cb130294 	sub	x20, x20, x19
  201ec4:	cb000273 	sub	x19, x19, x0
  201ec8:	f9400321 	ldr	x1, [x25]
  201ecc:	aa1403e2 	mov	x2, x20
  201ed0:	f94037e0 	ldr	x0, [sp, #104]
  201ed4:	8b010061 	add	x1, x3, x1
  201ed8:	8b160273 	add	x19, x19, x22
  201edc:	8b000380 	add	x0, x28, x0
  201ee0:	94002733 	bl	20bbac <memcpy>
  201ee4:	f9400b40 	ldr	x0, [x26, #16]
  201ee8:	8b14039c 	add	x28, x28, x20
  201eec:	8b140000 	add	x0, x0, x20
  201ef0:	f9000b40 	str	x0, [x26, #16]
  201ef4:	17ffffd3 	b	201e40 <block_read+0x3c>
  201ef8:	12800080 	mov	w0, #0xfffffffb            	// #-5
  201efc:	17ffffd5 	b	201e50 <block_read+0x4c>

0000000000201f00 <block_dev_close>:
  201f00:	a9be7bfd 	stp	x29, x30, [sp, #-32]!
  201f04:	90000081 	adrp	x1, 211000 <__STACKS_START__+0x8c0>
  201f08:	910003fd 	mov	x29, sp
  201f0c:	f9000bf3 	str	x19, [sp, #16]
  201f10:	aa0003f3 	mov	x19, x0
  201f14:	f9400400 	ldr	x0, [x0, #8]
  201f18:	f944e021 	ldr	x1, [x1, #2496]
  201f1c:	f9400002 	ldr	x2, [x0]
  201f20:	eb01005f 	cmp	x2, x1
  201f24:	540001c1 	b.ne	201f5c <block_dev_close+0x5c>  // b.any
  201f28:	d2800401 	mov	x1, #0x20                  	// #32
  201f2c:	97fffd87 	bl	201548 <zeromem>
  201f30:	aa1303e0 	mov	x0, x19
  201f34:	d2800201 	mov	x1, #0x10                  	// #16
  201f38:	97fffd84 	bl	201548 <zeromem>
  201f3c:	f0000081 	adrp	x1, 214000 <list+0x2550>
  201f40:	b9478420 	ldr	w0, [x1, #1924]
  201f44:	51000400 	sub	w0, w0, #0x1
  201f48:	b9078420 	str	w0, [x1, #1924]
  201f4c:	52800000 	mov	w0, #0x0                   	// #0
  201f50:	f9400bf3 	ldr	x19, [sp, #16]
  201f54:	a8c27bfd 	ldp	x29, x30, [sp], #32
  201f58:	d65f03c0 	ret
  201f5c:	12800020 	mov	w0, #0xfffffffe            	// #-2
  201f60:	17fffffc 	b	201f50 <block_dev_close+0x50>

0000000000201f64 <block_dev_open>:
  201f64:	f0000086 	adrp	x6, 214000 <list+0x2550>
  201f68:	aa0003e4 	mov	x4, x0
  201f6c:	b94784c0 	ldr	w0, [x6, #1924]
  201f70:	34000060 	cbz	w0, 201f7c <block_dev_open+0x18>
  201f74:	12800020 	mov	w0, #0xfffffffe            	// #-2
  201f78:	d65f03c0 	ret
  201f7c:	90000083 	adrp	x3, 211000 <__STACKS_START__+0x8c0>
  201f80:	12800022 	mov	w2, #0xfffffffe            	// #-2
  201f84:	90000087 	adrp	x7, 211000 <__STACKS_START__+0x8c0>
  201f88:	9126c0e5 	add	x5, x7, #0x9b0
  201f8c:	f944e060 	ldr	x0, [x3, #2496]
  201f90:	f100001f 	cmp	x0, #0x0
  201f94:	1a8203e0 	csel	w0, wzr, w2, eq  // eq = none
  201f98:	f0000042 	adrp	x2, 20c000 <vprintf+0x2b8>
  201f9c:	91086042 	add	x2, x2, #0x218
  201fa0:	f904d8e2 	str	x2, [x7, #2480]
  201fa4:	91270062 	add	x2, x3, #0x9c0
  201fa8:	f90004a2 	str	x2, [x5, #8]
  201fac:	52800022 	mov	w2, #0x1                   	// #1
  201fb0:	b90784c2 	str	w2, [x6, #1924]
  201fb4:	35fffe00 	cbnz	w0, 201f74 <block_dev_open+0x10>
  201fb8:	f904e064 	str	x4, [x3, #2496]
  201fbc:	f9000025 	str	x5, [x1]
  201fc0:	17ffffee 	b	201f78 <block_dev_open+0x14>

0000000000201fc4 <register_io_dev_block>:
  201fc4:	a9be7bfd 	stp	x29, x30, [sp, #-32]!
  201fc8:	910003fd 	mov	x29, sp
  201fcc:	f9000bf3 	str	x19, [sp, #16]
  201fd0:	aa0003f3 	mov	x19, x0
  201fd4:	90000080 	adrp	x0, 211000 <__STACKS_START__+0x8c0>
  201fd8:	9126c000 	add	x0, x0, #0x9b0
  201fdc:	94000104 	bl	2023ec <io_register_device>
  201fe0:	35000080 	cbnz	w0, 201ff0 <register_io_dev_block+0x2c>
  201fe4:	f0000041 	adrp	x1, 20c000 <vprintf+0x2b8>
  201fe8:	91084021 	add	x1, x1, #0x210
  201fec:	f9000261 	str	x1, [x19]
  201ff0:	f9400bf3 	ldr	x19, [sp, #16]
  201ff4:	a8c27bfd 	ldp	x29, x30, [sp], #32
  201ff8:	d65f03c0 	ret

0000000000201ffc <device_type_fip>:
  201ffc:	52800060 	mov	w0, #0x3                   	// #3
  202000:	d65f03c0 	ret

0000000000202004 <fip_file_len>:
  202004:	f9400400 	ldr	x0, [x0, #8]
  202008:	f9401000 	ldr	x0, [x0, #32]
  20200c:	f9000020 	str	x0, [x1]
  202010:	52800000 	mov	w0, #0x0                   	// #0
  202014:	d65f03c0 	ret

0000000000202018 <fip_file_close>:
  202018:	a9be7bfd 	stp	x29, x30, [sp, #-32]!
  20201c:	f0000061 	adrp	x1, 211000 <__STACKS_START__+0x8c0>
  202020:	910003fd 	mov	x29, sp
  202024:	f9000bf3 	str	x19, [sp, #16]
  202028:	aa0003f3 	mov	x19, x0
  20202c:	9127c020 	add	x0, x1, #0x9f0
  202030:	f9400c01 	ldr	x1, [x0, #24]
  202034:	b4000061 	cbz	x1, 202040 <fip_file_close+0x28>
  202038:	d2800601 	mov	x1, #0x30                  	// #48
  20203c:	97fffd43 	bl	201548 <zeromem>
  202040:	f900067f 	str	xzr, [x19, #8]
  202044:	52800000 	mov	w0, #0x0                   	// #0
  202048:	f9400bf3 	ldr	x19, [sp, #16]
  20204c:	a8c27bfd 	ldp	x29, x30, [sp], #32
  202050:	d65f03c0 	ret

0000000000202054 <fip_dev_init>:
  202054:	a9bb7bfd 	stp	x29, x30, [sp, #-80]!
  202058:	aa0103e3 	mov	x3, x1
  20205c:	910003fd 	mov	x29, sp
  202060:	a90153f3 	stp	x19, x20, [sp, #16]
  202064:	f0000074 	adrp	x20, 211000 <__STACKS_START__+0x8c0>
  202068:	f0000073 	adrp	x19, 211000 <__STACKS_START__+0x8c0>
  20206c:	9127a282 	add	x2, x20, #0x9e8
  202070:	91278261 	add	x1, x19, #0x9e0
  202074:	f90013f5 	str	x21, [sp, #32]
  202078:	f9400415 	ldr	x21, [x0, #8]
  20207c:	2a0303e0 	mov	w0, w3
  202080:	94000c4d 	bl	2051b4 <plat_get_image_source>
  202084:	340000e0 	cbz	w0, 2020a0 <fip_dev_init+0x4c>
  202088:	12800033 	mov	w19, #0xfffffffe            	// #-2
  20208c:	2a1303e0 	mov	w0, w19
  202090:	a94153f3 	ldp	x19, x20, [sp, #16]
  202094:	f94013f5 	ldr	x21, [sp, #32]
  202098:	a8c57bfd 	ldp	x29, x30, [sp], #80
  20209c:	d65f03c0 	ret
  2020a0:	f944f681 	ldr	x1, [x20, #2536]
  2020a4:	9100c3e2 	add	x2, sp, #0x30
  2020a8:	f944f260 	ldr	x0, [x19, #2528]
  2020ac:	940000ee 	bl	202464 <io_open>
  2020b0:	35fffec0 	cbnz	w0, 202088 <fip_dev_init+0x34>
  2020b4:	f9401be0 	ldr	x0, [sp, #48]
  2020b8:	9100e3e3 	add	x3, sp, #0x38
  2020bc:	910103e1 	add	x1, sp, #0x40
  2020c0:	d2800202 	mov	x2, #0x10                  	// #16
  2020c4:	9400012d 	bl	202578 <io_read>
  2020c8:	2a0003f3 	mov	w19, w0
  2020cc:	35000140 	cbnz	w0, 2020f4 <fip_dev_init+0xa0>
  2020d0:	b94043e1 	ldr	w1, [sp, #64]
  2020d4:	52800020 	mov	w0, #0x1                   	// #1
  2020d8:	72b54c80 	movk	w0, #0xaa64, lsl #16
  2020dc:	6b00003f 	cmp	w1, w0
  2020e0:	54000101 	b.ne	202100 <fip_dev_init+0xac>  // b.any
  2020e4:	b94047e0 	ldr	w0, [sp, #68]
  2020e8:	340000c0 	cbz	w0, 202100 <fip_dev_init+0xac>
  2020ec:	b9404fe0 	ldr	w0, [sp, #76]
  2020f0:	790012a0 	strh	w0, [x21, #8]
  2020f4:	f9401be0 	ldr	x0, [sp, #48]
  2020f8:	94000128 	bl	202598 <io_close>
  2020fc:	17ffffe4 	b	20208c <fip_dev_init+0x38>
  202100:	12800033 	mov	w19, #0xfffffffe            	// #-2
  202104:	17fffffc 	b	2020f4 <fip_dev_init+0xa0>

0000000000202108 <fip_file_read>:
  202108:	a9bc7bfd 	stp	x29, x30, [sp, #-64]!
  20210c:	910003fd 	mov	x29, sp
  202110:	a90153f3 	stp	x19, x20, [sp, #16]
  202114:	aa0003f4 	mov	x20, x0
  202118:	f0000060 	adrp	x0, 211000 <__STACKS_START__+0x8c0>
  20211c:	aa0103f3 	mov	x19, x1
  202120:	a9025bf5 	stp	x21, x22, [sp, #32]
  202124:	aa0203f6 	mov	x22, x2
  202128:	f944f401 	ldr	x1, [x0, #2536]
  20212c:	f0000060 	adrp	x0, 211000 <__STACKS_START__+0x8c0>
  202130:	aa0303f5 	mov	x21, x3
  202134:	9100e3e2 	add	x2, sp, #0x38
  202138:	f944f000 	ldr	x0, [x0, #2528]
  20213c:	940000ca 	bl	202464 <io_open>
  202140:	350003c0 	cbnz	w0, 2021b8 <fip_file_read+0xb0>
  202144:	f9400694 	ldr	x20, [x20, #8]
  202148:	52800021 	mov	w1, #0x1                   	// #1
  20214c:	f9400e80 	ldr	x0, [x20, #24]
  202150:	b9400282 	ldr	w2, [x20]
  202154:	8b000042 	add	x2, x2, x0
  202158:	f9401fe0 	ldr	x0, [sp, #56]
  20215c:	940000f7 	bl	202538 <io_seek>
  202160:	34000120 	cbz	w0, 202184 <fip_file_read+0x7c>
  202164:	12800033 	mov	w19, #0xfffffffe            	// #-2
  202168:	f9401fe0 	ldr	x0, [sp, #56]
  20216c:	9400010b 	bl	202598 <io_close>
  202170:	2a1303e0 	mov	w0, w19
  202174:	a94153f3 	ldp	x19, x20, [sp, #16]
  202178:	a9425bf5 	ldp	x21, x22, [sp, #32]
  20217c:	a8c47bfd 	ldp	x29, x30, [sp], #64
  202180:	d65f03c0 	ret
  202184:	f9401fe0 	ldr	x0, [sp, #56]
  202188:	aa1303e1 	mov	x1, x19
  20218c:	9100c3e3 	add	x3, sp, #0x30
  202190:	aa1603e2 	mov	x2, x22
  202194:	940000f9 	bl	202578 <io_read>
  202198:	2a0003f3 	mov	w19, w0
  20219c:	35fffe40 	cbnz	w0, 202164 <fip_file_read+0x5c>
  2021a0:	f9401be1 	ldr	x1, [sp, #48]
  2021a4:	b9400280 	ldr	w0, [x20]
  2021a8:	f90002a1 	str	x1, [x21]
  2021ac:	0b010000 	add	w0, w0, w1
  2021b0:	b9000280 	str	w0, [x20]
  2021b4:	17ffffed 	b	202168 <fip_file_read+0x60>
  2021b8:	12800033 	mov	w19, #0xfffffffe            	// #-2
  2021bc:	17ffffed 	b	202170 <fip_file_read+0x68>

00000000002021c0 <fip_dev_open>:
  2021c0:	d0000086 	adrp	x6, 214000 <list+0x2550>
  2021c4:	aa0003e4 	mov	x4, x0
  2021c8:	b94788c0 	ldr	w0, [x6, #1928]
  2021cc:	34000060 	cbz	w0, 2021d8 <fip_dev_open+0x18>
  2021d0:	12800160 	mov	w0, #0xfffffff4            	// #-12
  2021d4:	d65f03c0 	ret
  2021d8:	f0000063 	adrp	x3, 211000 <__STACKS_START__+0x8c0>
  2021dc:	12800022 	mov	w2, #0xfffffffe            	// #-2
  2021e0:	f0000067 	adrp	x7, 211000 <__STACKS_START__+0x8c0>
  2021e4:	912880e5 	add	x5, x7, #0xa20
  2021e8:	f9451860 	ldr	x0, [x3, #2608]
  2021ec:	f100001f 	cmp	x0, #0x0
  2021f0:	1a8203e0 	csel	w0, wzr, w2, eq  // eq = none
  2021f4:	d0000042 	adrp	x2, 20c000 <vprintf+0x2b8>
  2021f8:	9109a042 	add	x2, x2, #0x268
  2021fc:	f90510e2 	str	x2, [x7, #2592]
  202200:	9128c062 	add	x2, x3, #0xa30
  202204:	f90004a2 	str	x2, [x5, #8]
  202208:	52800022 	mov	w2, #0x1                   	// #1
  20220c:	b90788c2 	str	w2, [x6, #1928]
  202210:	35fffe00 	cbnz	w0, 2021d0 <fip_dev_open+0x10>
  202214:	f9051864 	str	x4, [x3, #2608]
  202218:	f9000025 	str	x5, [x1]
  20221c:	17ffffee 	b	2021d4 <fip_dev_open+0x14>

0000000000202220 <fip_file_open>:
  202220:	a9bb7bfd 	stp	x29, x30, [sp, #-80]!
  202224:	910003fd 	mov	x29, sp
  202228:	a90153f3 	stp	x19, x20, [sp, #16]
  20222c:	f0000074 	adrp	x20, 211000 <__STACKS_START__+0x8c0>
  202230:	9127c294 	add	x20, x20, #0x9f0
  202234:	a9025bf5 	stp	x21, x22, [sp, #32]
  202238:	f9400e80 	ldr	x0, [x20, #24]
  20223c:	a90363f7 	stp	x23, x24, [sp, #48]
  202240:	b50005c0 	cbnz	x0, 2022f8 <fip_file_open+0xd8>
  202244:	f0000060 	adrp	x0, 211000 <__STACKS_START__+0x8c0>
  202248:	aa0103f8 	mov	x24, x1
  20224c:	aa0203f5 	mov	x21, x2
  202250:	910103e2 	add	x2, sp, #0x40
  202254:	f944f401 	ldr	x1, [x0, #2536]
  202258:	f0000060 	adrp	x0, 211000 <__STACKS_START__+0x8c0>
  20225c:	f944f000 	ldr	x0, [x0, #2528]
  202260:	94000081 	bl	202464 <io_open>
  202264:	350004e0 	cbnz	w0, 202300 <fip_file_open+0xe0>
  202268:	f94023e0 	ldr	x0, [sp, #64]
  20226c:	d2800202 	mov	x2, #0x10                  	// #16
  202270:	52800021 	mov	w1, #0x1                   	// #1
  202274:	940000b1 	bl	202538 <io_seek>
  202278:	350002e0 	cbnz	w0, 2022d4 <fip_file_open+0xb4>
  20227c:	90000077 	adrp	x23, 20e000 <mtk_pin_info_pu+0x36c>
  202280:	91002296 	add	x22, x20, #0x8
  202284:	910bd2f7 	add	x23, x23, #0x2f4
  202288:	f94023e0 	ldr	x0, [sp, #64]
  20228c:	910123e3 	add	x3, sp, #0x48
  202290:	aa1603e1 	mov	x1, x22
  202294:	d2800502 	mov	x2, #0x28                  	// #40
  202298:	940000b8 	bl	202578 <io_read>
  20229c:	2a0003f3 	mov	w19, w0
  2022a0:	350001c0 	cbnz	w0, 2022d8 <fip_file_open+0xb8>
  2022a4:	aa1803e1 	mov	x1, x24
  2022a8:	aa1603e0 	mov	x0, x22
  2022ac:	d2800202 	mov	x2, #0x10                  	// #16
  2022b0:	94002632 	bl	20bb78 <memcmp>
  2022b4:	2a0003f3 	mov	w19, w0
  2022b8:	34000280 	cbz	w0, 202308 <fip_file_open+0xe8>
  2022bc:	aa1703e1 	mov	x1, x23
  2022c0:	aa1603e0 	mov	x0, x22
  2022c4:	d2800202 	mov	x2, #0x10                  	// #16
  2022c8:	9400262c 	bl	20bb78 <memcmp>
  2022cc:	35fffde0 	cbnz	w0, 202288 <fip_file_open+0x68>
  2022d0:	f9000e9f 	str	xzr, [x20, #24]
  2022d4:	12800033 	mov	w19, #0xfffffffe            	// #-2
  2022d8:	f94023e0 	ldr	x0, [sp, #64]
  2022dc:	940000af 	bl	202598 <io_close>
  2022e0:	2a1303e0 	mov	w0, w19
  2022e4:	a94153f3 	ldp	x19, x20, [sp, #16]
  2022e8:	a9425bf5 	ldp	x21, x22, [sp, #32]
  2022ec:	a94363f7 	ldp	x23, x24, [sp, #48]
  2022f0:	a8c57bfd 	ldp	x29, x30, [sp], #80
  2022f4:	d65f03c0 	ret
  2022f8:	128002d3 	mov	w19, #0xffffffe9            	// #-23
  2022fc:	17fffff9 	b	2022e0 <fip_file_open+0xc0>
  202300:	12800033 	mov	w19, #0xfffffffe            	// #-2
  202304:	17fffff7 	b	2022e0 <fip_file_open+0xc0>
  202308:	b900029f 	str	wzr, [x20]
  20230c:	f90006b4 	str	x20, [x21, #8]
  202310:	17fffff2 	b	2022d8 <fip_file_open+0xb8>

0000000000202314 <fip_dev_close>:
  202314:	f0000061 	adrp	x1, 211000 <__STACKS_START__+0x8c0>
  202318:	f9400400 	ldr	x0, [x0, #8]
  20231c:	f904f03f 	str	xzr, [x1, #2528]
  202320:	f0000061 	adrp	x1, 211000 <__STACKS_START__+0x8c0>
  202324:	f904f43f 	str	xzr, [x1, #2536]
  202328:	f0000061 	adrp	x1, 211000 <__STACKS_START__+0x8c0>
  20232c:	f9451822 	ldr	x2, [x1, #2608]
  202330:	f9400001 	ldr	x1, [x0]
  202334:	eb01005f 	cmp	x2, x1
  202338:	54000181 	b.ne	202368 <fip_dev_close+0x54>  // b.any
  20233c:	a9bf7bfd 	stp	x29, x30, [sp, #-16]!
  202340:	d2800201 	mov	x1, #0x10                  	// #16
  202344:	910003fd 	mov	x29, sp
  202348:	97fffc80 	bl	201548 <zeromem>
  20234c:	d0000081 	adrp	x1, 214000 <list+0x2550>
  202350:	a8c17bfd 	ldp	x29, x30, [sp], #16
  202354:	b9478820 	ldr	w0, [x1, #1928]
  202358:	51000400 	sub	w0, w0, #0x1
  20235c:	b9078820 	str	w0, [x1, #1928]
  202360:	52800000 	mov	w0, #0x0                   	// #0
  202364:	d65f03c0 	ret
  202368:	12800020 	mov	w0, #0xfffffffe            	// #-2
  20236c:	d65f03c0 	ret

0000000000202370 <register_io_dev_fip>:
  202370:	a9be7bfd 	stp	x29, x30, [sp, #-32]!
  202374:	910003fd 	mov	x29, sp
  202378:	f9000bf3 	str	x19, [sp, #16]
  20237c:	aa0003f3 	mov	x19, x0
  202380:	f0000060 	adrp	x0, 211000 <__STACKS_START__+0x8c0>
  202384:	91288000 	add	x0, x0, #0xa20
  202388:	94000019 	bl	2023ec <io_register_device>
  20238c:	35000080 	cbnz	w0, 20239c <register_io_dev_fip+0x2c>
  202390:	d0000041 	adrp	x1, 20c000 <vprintf+0x2b8>
  202394:	91098021 	add	x1, x1, #0x260
  202398:	f9000261 	str	x1, [x19]
  20239c:	f9400bf3 	ldr	x19, [sp, #16]
  2023a0:	a8c27bfd 	ldp	x29, x30, [sp], #32
  2023a4:	d65f03c0 	ret

00000000002023a8 <free_entity.isra.0>:
  2023a8:	f0000062 	adrp	x2, 211000 <__STACKS_START__+0x8c0>
  2023ac:	91290042 	add	x2, x2, #0xa40
  2023b0:	d2800001 	mov	x1, #0x0                   	// #0
  2023b4:	f8617844 	ldr	x4, [x2, x1, lsl #3]
  2023b8:	2a0103e3 	mov	w3, w1
  2023bc:	eb04001f 	cmp	x0, x4
  2023c0:	540000a0 	b.eq	2023d4 <free_entity.isra.0+0x2c>  // b.none
  2023c4:	91000421 	add	x1, x1, #0x1
  2023c8:	f100103f 	cmp	x1, #0x4
  2023cc:	54ffff41 	b.ne	2023b4 <free_entity.isra.0+0xc>  // b.any
  2023d0:	d65f03c0 	ret
  2023d4:	d0000081 	adrp	x1, 214000 <list+0x2550>
  2023d8:	f823585f 	str	xzr, [x2, w3, uxtw #3]
  2023dc:	b9479020 	ldr	w0, [x1, #1936]
  2023e0:	51000400 	sub	w0, w0, #0x1
  2023e4:	b9079020 	str	w0, [x1, #1936]
  2023e8:	17fffffa 	b	2023d0 <free_entity.isra.0+0x28>

00000000002023ec <io_register_device>:
  2023ec:	d0000081 	adrp	x1, 214000 <list+0x2550>
  2023f0:	b9478c20 	ldr	w0, [x1, #1932]
  2023f4:	7100081f 	cmp	w0, #0x2
  2023f8:	540000a8 	b.hi	20240c <io_register_device+0x20>  // b.pmore
  2023fc:	11000400 	add	w0, w0, #0x1
  202400:	b9078c20 	str	w0, [x1, #1932]
  202404:	52800000 	mov	w0, #0x0                   	// #0
  202408:	d65f03c0 	ret
  20240c:	12800160 	mov	w0, #0xfffffff4            	// #-12
  202410:	17fffffe 	b	202408 <io_register_device+0x1c>

0000000000202414 <io_dev_open>:
  202414:	aa0003e3 	mov	x3, x0
  202418:	aa0103e0 	mov	x0, x1
  20241c:	aa0203e1 	mov	x1, x2
  202420:	f9400063 	ldr	x3, [x3]
  202424:	aa0303f0 	mov	x16, x3
  202428:	d61f0200 	br	x16

000000000020242c <io_dev_init>:
  20242c:	f9400002 	ldr	x2, [x0]
  202430:	f9401c42 	ldr	x2, [x2, #56]
  202434:	b4000062 	cbz	x2, 202440 <io_dev_init+0x14>
  202438:	aa0203f0 	mov	x16, x2
  20243c:	d61f0200 	br	x16
  202440:	52800000 	mov	w0, #0x0                   	// #0
  202444:	d65f03c0 	ret

0000000000202448 <io_dev_close>:
  202448:	f9400001 	ldr	x1, [x0]
  20244c:	f9402021 	ldr	x1, [x1, #64]
  202450:	b4000061 	cbz	x1, 20245c <io_dev_close+0x14>
  202454:	aa0103f0 	mov	x16, x1
  202458:	d61f0200 	br	x16
  20245c:	52800000 	mov	w0, #0x0                   	// #0
  202460:	d65f03c0 	ret

0000000000202464 <io_open>:
  202464:	a9bc7bfd 	stp	x29, x30, [sp, #-64]!
  202468:	910003fd 	mov	x29, sp
  20246c:	a90153f3 	stp	x19, x20, [sp, #16]
  202470:	aa0003f3 	mov	x19, x0
  202474:	d0000080 	adrp	x0, 214000 <list+0x2550>
  202478:	a9025bf5 	stp	x21, x22, [sp, #32]
  20247c:	b9479004 	ldr	w4, [x0, #1936]
  202480:	f9001bf7 	str	x23, [sp, #48]
  202484:	71000c9f 	cmp	w4, #0x3
  202488:	54000548 	b.hi	202530 <io_open+0xcc>  // b.pmore
  20248c:	f0000066 	adrp	x6, 211000 <__STACKS_START__+0x8c0>
  202490:	aa0203f6 	mov	x22, x2
  202494:	912900c6 	add	x6, x6, #0xa40
  202498:	aa0003e3 	mov	x3, x0
  20249c:	d2800000 	mov	x0, #0x0                   	// #0
  2024a0:	f86078c5 	ldr	x5, [x6, x0, lsl #3]
  2024a4:	2a0003e2 	mov	w2, w0
  2024a8:	b40003a5 	cbz	x5, 20251c <io_open+0xb8>
  2024ac:	91000400 	add	x0, x0, #0x1
  2024b0:	f100101f 	cmp	x0, #0x4
  2024b4:	54ffff61 	b.ne	2024a0 <io_open+0x3c>  // b.any
  2024b8:	52800002 	mov	w2, #0x0                   	// #0
  2024bc:	12800025 	mov	w5, #0xfffffffe            	// #-2
  2024c0:	d37c7c57 	ubfiz	x23, x2, #4, #32
  2024c4:	f0000075 	adrp	x21, 211000 <__STACKS_START__+0x8c0>
  2024c8:	912982b5 	add	x21, x21, #0xa60
  2024cc:	11000484 	add	w4, w4, #0x1
  2024d0:	8b1702b4 	add	x20, x21, x23
  2024d4:	b9079064 	str	w4, [x3, #1936]
  2024d8:	f82258d4 	str	x20, [x6, w2, uxtw #3]
  2024dc:	35000145 	cbnz	w5, 202504 <io_open+0xa0>
  2024e0:	f9400260 	ldr	x0, [x19]
  2024e4:	aa1403e2 	mov	x2, x20
  2024e8:	f9400403 	ldr	x3, [x0, #8]
  2024ec:	aa1303e0 	mov	x0, x19
  2024f0:	d63f0060 	blr	x3
  2024f4:	2a0003e5 	mov	w5, w0
  2024f8:	35000160 	cbnz	w0, 202524 <io_open+0xc0>
  2024fc:	f8376ab3 	str	x19, [x21, x23]
  202500:	f90002d4 	str	x20, [x22]
  202504:	2a0503e0 	mov	w0, w5
  202508:	a94153f3 	ldp	x19, x20, [sp, #16]
  20250c:	a9425bf5 	ldp	x21, x22, [sp, #32]
  202510:	f9401bf7 	ldr	x23, [sp, #48]
  202514:	a8c47bfd 	ldp	x29, x30, [sp], #64
  202518:	d65f03c0 	ret
  20251c:	52800005 	mov	w5, #0x0                   	// #0
  202520:	17ffffe8 	b	2024c0 <io_open+0x5c>
  202524:	aa1403e0 	mov	x0, x20
  202528:	97ffffa0 	bl	2023a8 <free_entity.isra.0>
  20252c:	17fffff6 	b	202504 <io_open+0xa0>
  202530:	12800165 	mov	w5, #0xfffffff4            	// #-12
  202534:	17fffff4 	b	202504 <io_open+0xa0>

0000000000202538 <io_seek>:
  202538:	f9400003 	ldr	x3, [x0]
  20253c:	f9400063 	ldr	x3, [x3]
  202540:	f9400863 	ldr	x3, [x3, #16]
  202544:	b4000063 	cbz	x3, 202550 <io_seek+0x18>
  202548:	aa0303f0 	mov	x16, x3
  20254c:	d61f0200 	br	x16
  202550:	12800240 	mov	w0, #0xffffffed            	// #-19
  202554:	d65f03c0 	ret

0000000000202558 <io_size>:
  202558:	f9400002 	ldr	x2, [x0]
  20255c:	f9400042 	ldr	x2, [x2]
  202560:	f9400c42 	ldr	x2, [x2, #24]
  202564:	b4000062 	cbz	x2, 202570 <io_size+0x18>
  202568:	aa0203f0 	mov	x16, x2
  20256c:	d61f0200 	br	x16
  202570:	12800240 	mov	w0, #0xffffffed            	// #-19
  202574:	d65f03c0 	ret

0000000000202578 <io_read>:
  202578:	f9400004 	ldr	x4, [x0]
  20257c:	f9400084 	ldr	x4, [x4]
  202580:	f9401084 	ldr	x4, [x4, #32]
  202584:	b4000064 	cbz	x4, 202590 <io_read+0x18>
  202588:	aa0403f0 	mov	x16, x4
  20258c:	d61f0200 	br	x16
  202590:	12800240 	mov	w0, #0xffffffed            	// #-19
  202594:	d65f03c0 	ret

0000000000202598 <io_close>:
  202598:	a9be7bfd 	stp	x29, x30, [sp, #-32]!
  20259c:	910003fd 	mov	x29, sp
  2025a0:	f9400001 	ldr	x1, [x0]
  2025a4:	f9400021 	ldr	x1, [x1]
  2025a8:	f9401821 	ldr	x1, [x1, #48]
  2025ac:	f9000bf3 	str	x19, [sp, #16]
  2025b0:	aa0003f3 	mov	x19, x0
  2025b4:	b4000121 	cbz	x1, 2025d8 <io_close+0x40>
  2025b8:	d63f0020 	blr	x1
  2025bc:	2a0003e5 	mov	w5, w0
  2025c0:	aa1303e0 	mov	x0, x19
  2025c4:	97ffff79 	bl	2023a8 <free_entity.isra.0>
  2025c8:	2a0503e0 	mov	w0, w5
  2025cc:	f9400bf3 	ldr	x19, [sp, #16]
  2025d0:	a8c27bfd 	ldp	x29, x30, [sp], #32
  2025d4:	d65f03c0 	ret
  2025d8:	52800005 	mov	w5, #0x0                   	// #0
  2025dc:	17fffff9 	b	2025c0 <io_close+0x28>

00000000002025e0 <mmc_send_cmd>:
  2025e0:	a9bb7bfd 	stp	x29, x30, [sp, #-80]!
  2025e4:	910003fd 	mov	x29, sp
  2025e8:	a90153f3 	stp	x19, x20, [sp, #16]
  2025ec:	2a0103f4 	mov	w20, w1
  2025f0:	aa0303f3 	mov	x19, x3
  2025f4:	d2800381 	mov	x1, #0x1c                  	// #28
  2025f8:	a9025bf5 	stp	x21, x22, [sp, #32]
  2025fc:	2a0203f5 	mov	w21, w2
  202600:	2a0003f6 	mov	w22, w0
  202604:	9100c3e0 	add	x0, sp, #0x30
  202608:	97fffbd0 	bl	201548 <zeromem>
  20260c:	290653f6 	stp	w22, w20, [sp, #48]
  202610:	f0000074 	adrp	x20, 211000 <__STACKS_START__+0x8c0>
  202614:	b9003bf5 	str	w21, [sp, #56]
  202618:	f9455680 	ldr	x0, [x20, #2728]
  20261c:	f9400401 	ldr	x1, [x0, #8]
  202620:	9100c3e0 	add	x0, sp, #0x30
  202624:	d63f0020 	blr	x1
  202628:	7100001f 	cmp	w0, #0x0
  20262c:	fa400a64 	ccmp	x19, #0x0, #0x4, eq  // eq = none
  202630:	54000120 	b.eq	202654 <mmc_send_cmd+0x74>  // b.none
  202634:	b9403fe1 	ldr	w1, [sp, #60]
  202638:	b9000261 	str	w1, [x19]
  20263c:	b94043e1 	ldr	w1, [sp, #64]
  202640:	b9000661 	str	w1, [x19, #4]
  202644:	b94047e1 	ldr	w1, [sp, #68]
  202648:	b9000a61 	str	w1, [x19, #8]
  20264c:	b9404be1 	ldr	w1, [sp, #72]
  202650:	b9000e61 	str	w1, [x19, #12]
  202654:	710076bf 	cmp	w21, #0x1d
  202658:	54000301 	b.ne	2026b8 <mmc_send_cmd+0xd8>  // b.any
  20265c:	f9455680 	ldr	x0, [x20, #2728]
  202660:	f9401800 	ldr	x0, [x0, #48]
  202664:	b4000320 	cbz	x0, 2026c8 <mmc_send_cmd+0xe8>
  202668:	d53be013 	mrs	x19, cntfrq_el0
  20266c:	d53be020 	mrs	x0, cntpct_el0
  202670:	d2820001 	mov	x1, #0x1000                	// #4096
  202674:	f2a004e1 	movk	x1, #0x27, lsl #16
  202678:	9b017e73 	mul	x19, x19, x1
  20267c:	d2884801 	mov	x1, #0x4240                	// #16960
  202680:	f2a001e1 	movk	x1, #0xf, lsl #16
  202684:	9ac10a73 	udiv	x19, x19, x1
  202688:	8b000273 	add	x19, x19, x0
  20268c:	d53be020 	mrs	x0, cntpct_el0
  202690:	eb13001f 	cmp	x0, x19
  202694:	54000069 	b.ls	2026a0 <mmc_send_cmd+0xc0>  // b.plast
  202698:	12800760 	mov	w0, #0xffffffc4            	// #-60
  20269c:	14000007 	b	2026b8 <mmc_send_cmd+0xd8>
  2026a0:	f9455680 	ldr	x0, [x20, #2728]
  2026a4:	f9401800 	ldr	x0, [x0, #48]
  2026a8:	d63f0000 	blr	x0
  2026ac:	7100001f 	cmp	w0, #0x0
  2026b0:	5400004b 	b.lt	2026b8 <mmc_send_cmd+0xd8>  // b.tstop
  2026b4:	54fffec1 	b.ne	20268c <mmc_send_cmd+0xac>  // b.any
  2026b8:	a94153f3 	ldp	x19, x20, [sp, #16]
  2026bc:	a9425bf5 	ldp	x21, x22, [sp, #32]
  2026c0:	a8c57bfd 	ldp	x29, x30, [sp], #80
  2026c4:	d65f03c0 	ret
  2026c8:	12800580 	mov	w0, #0xffffffd3            	// #-45
  2026cc:	17fffffb 	b	2026b8 <mmc_send_cmd+0xd8>

00000000002026d0 <mmc_device_state>:
  2026d0:	a9bd7bfd 	stp	x29, x30, [sp, #-48]!
  2026d4:	910003fd 	mov	x29, sp
  2026d8:	a90153f3 	stp	x19, x20, [sp, #16]
  2026dc:	d0000094 	adrp	x20, 214000 <list+0x2550>
  2026e0:	911eb294 	add	x20, x20, #0x7ac
  2026e4:	52800093 	mov	w19, #0x4                   	// #4
  2026e8:	b9400281 	ldr	w1, [x20]
  2026ec:	528001a2 	mov	w2, #0xd                   	// #13
  2026f0:	910083e3 	add	x3, sp, #0x20
  2026f4:	2a0203e0 	mov	w0, w2
  2026f8:	53103c21 	lsl	w1, w1, #16
  2026fc:	97ffffb9 	bl	2025e0 <mmc_send_cmd>
  202700:	b94023e1 	ldr	w1, [sp, #32]
  202704:	35000040 	cbnz	w0, 20270c <mmc_device_state+0x3c>
  202708:	373801a1 	tbnz	w1, #7, 20273c <mmc_device_state+0x6c>
  20270c:	364000a1 	tbz	w1, #8, 202720 <mmc_device_state+0x50>
  202710:	d3493020 	ubfx	x0, x1, #9, #4
  202714:	a94153f3 	ldp	x19, x20, [sp, #16]
  202718:	a8c37bfd 	ldp	x29, x30, [sp], #48
  20271c:	d65f03c0 	ret
  202720:	51000673 	sub	w19, w19, #0x1
  202724:	3100067f 	cmn	w19, #0x1
  202728:	54fffe01 	b.ne	2026e8 <mmc_device_state+0x18>  // b.any
  20272c:	90000060 	adrp	x0, 20e000 <mtk_pin_info_pu+0x36c>
  202730:	528000a1 	mov	w1, #0x5                   	// #5
  202734:	910c1000 	add	x0, x0, #0x304
  202738:	94001174 	bl	206d08 <tf_log>
  20273c:	12800080 	mov	w0, #0xfffffffb            	// #-5
  202740:	17fffff5 	b	202714 <mmc_device_state+0x44>

0000000000202744 <sd_switch.constprop.0>:
  202744:	a9bd7bfd 	stp	x29, x30, [sp, #-48]!
  202748:	d2800802 	mov	x2, #0x40                  	// #64
  20274c:	910003fd 	mov	x29, sp
  202750:	f90013f5 	str	x21, [sp, #32]
  202754:	f0000075 	adrp	x21, 211000 <__STACKS_START__+0x8c0>
  202758:	a90153f3 	stp	x19, x20, [sp, #16]
  20275c:	2a0003f4 	mov	w20, w0
  202760:	d0000093 	adrp	x19, 214000 <list+0x2550>
  202764:	f94556a0 	ldr	x0, [x21, #2728]
  202768:	9130d273 	add	x19, x19, #0xc34
  20276c:	aa1303e1 	mov	x1, x19
  202770:	f9400c03 	ldr	x3, [x0, #24]
  202774:	52800000 	mov	w0, #0x0                   	// #0
  202778:	d63f0060 	blr	x3
  20277c:	35000260 	cbnz	w0, 2027c8 <sd_switch.constprop.0+0x84>
  202780:	528001a2 	mov	w2, #0xd                   	// #13
  202784:	529ffe21 	mov	w1, #0xfff1                	// #65521
  202788:	d2800003 	mov	x3, #0x0                   	// #0
  20278c:	72a01fe1 	movk	w1, #0xff, lsl #16
  202790:	528000c0 	mov	w0, #0x6                   	// #6
  202794:	2a010281 	orr	w1, w20, w1
  202798:	97ffff92 	bl	2025e0 <mmc_send_cmd>
  20279c:	2a0003e2 	mov	w2, w0
  2027a0:	35000160 	cbnz	w0, 2027cc <sd_switch.constprop.0+0x88>
  2027a4:	f94556a1 	ldr	x1, [x21, #2728]
  2027a8:	d2800802 	mov	x2, #0x40                  	// #64
  2027ac:	f94013f5 	ldr	x21, [sp, #32]
  2027b0:	f9401023 	ldr	x3, [x1, #32]
  2027b4:	aa1303e1 	mov	x1, x19
  2027b8:	a94153f3 	ldp	x19, x20, [sp, #16]
  2027bc:	aa0303f0 	mov	x16, x3
  2027c0:	a8c37bfd 	ldp	x29, x30, [sp], #48
  2027c4:	d61f0200 	br	x16
  2027c8:	2a0003e2 	mov	w2, w0
  2027cc:	2a0203e0 	mov	w0, w2
  2027d0:	a94153f3 	ldp	x19, x20, [sp, #16]
  2027d4:	f94013f5 	ldr	x21, [sp, #32]
  2027d8:	a8c37bfd 	ldp	x29, x30, [sp], #48
  2027dc:	d65f03c0 	ret

00000000002027e0 <mmc_read_blocks>:
  2027e0:	a9bc7bfd 	stp	x29, x30, [sp, #-64]!
  2027e4:	910003fd 	mov	x29, sp
  2027e8:	a9025bf5 	stp	x21, x22, [sp, #32]
  2027ec:	f0000076 	adrp	x22, 211000 <__STACKS_START__+0x8c0>
  2027f0:	f94556c3 	ldr	x3, [x22, #2728]
  2027f4:	a90153f3 	stp	x19, x20, [sp, #16]
  2027f8:	2a0003f4 	mov	w20, w0
  2027fc:	aa0203f3 	mov	x19, x2
  202800:	f9400c63 	ldr	x3, [x3, #24]
  202804:	f9001bf7 	str	x23, [sp, #48]
  202808:	aa0103f7 	mov	x23, x1
  20280c:	d63f0060 	blr	x3
  202810:	34000100 	cbz	w0, 202830 <mmc_read_blocks+0x50>
  202814:	d2800013 	mov	x19, #0x0                   	// #0
  202818:	aa1303e0 	mov	x0, x19
  20281c:	a94153f3 	ldp	x19, x20, [sp, #16]
  202820:	a9425bf5 	ldp	x21, x22, [sp, #32]
  202824:	f9401bf7 	ldr	x23, [sp, #48]
  202828:	a8c47bfd 	ldp	x29, x30, [sp], #64
  20282c:	d65f03c0 	ret
  202830:	d0000080 	adrp	x0, 214000 <list+0x2550>
  202834:	aa0003f5 	mov	x21, x0
  202838:	b947a401 	ldr	w1, [x0, #1956]
  20283c:	360005c1 	tbz	w1, #0, 2028f4 <mmc_read_blocks+0x114>
  202840:	d349a261 	ubfx	x1, x19, #9, #32
  202844:	d2800003 	mov	x3, #0x0                   	// #0
  202848:	528001a2 	mov	w2, #0xd                   	// #13
  20284c:	528002e0 	mov	w0, #0x17                  	// #23
  202850:	97ffff64 	bl	2025e0 <mmc_send_cmd>
  202854:	35fffe00 	cbnz	w0, 202814 <mmc_read_blocks+0x34>
  202858:	52800240 	mov	w0, #0x12                  	// #18
  20285c:	d0000082 	adrp	x2, 214000 <list+0x2550>
  202860:	2a1403e1 	mov	w1, w20
  202864:	b947a842 	ldr	w2, [x2, #1960]
  202868:	7203045f 	tst	w2, #0x60000000
  20286c:	540000e1 	b.ne	202888 <mmc_read_blocks+0xa8>  // b.any
  202870:	f0000062 	adrp	x2, 211000 <__STACKS_START__+0x8c0>
  202874:	f9455042 	ldr	x2, [x2, #2720]
  202878:	b9401442 	ldr	w2, [x2, #20]
  20287c:	7100085f 	cmp	w2, #0x2
  202880:	54000040 	b.eq	202888 <mmc_read_blocks+0xa8>  // b.none
  202884:	53175a81 	lsl	w1, w20, #9
  202888:	d2800003 	mov	x3, #0x0                   	// #0
  20288c:	528001a2 	mov	w2, #0xd                   	// #13
  202890:	97ffff54 	bl	2025e0 <mmc_send_cmd>
  202894:	35fffc00 	cbnz	w0, 202814 <mmc_read_blocks+0x34>
  202898:	f94556c0 	ldr	x0, [x22, #2728]
  20289c:	aa1303e2 	mov	x2, x19
  2028a0:	aa1703e1 	mov	x1, x23
  2028a4:	f9401003 	ldr	x3, [x0, #32]
  2028a8:	2a1403e0 	mov	w0, w20
  2028ac:	d63f0060 	blr	x3
  2028b0:	35fffb20 	cbnz	w0, 202814 <mmc_read_blocks+0x34>
  2028b4:	97ffff87 	bl	2026d0 <mmc_device_state>
  2028b8:	37fffae0 	tbnz	w0, #31, 202814 <mmc_read_blocks+0x34>
  2028bc:	51001000 	sub	w0, w0, #0x4
  2028c0:	7100041f 	cmp	w0, #0x1
  2028c4:	54ffff88 	b.hi	2028b4 <mmc_read_blocks+0xd4>  // b.pmore
  2028c8:	b947a6a0 	ldr	w0, [x21, #1956]
  2028cc:	3707fa60 	tbnz	w0, #0, 202818 <mmc_read_blocks+0x38>
  2028d0:	f108027f 	cmp	x19, #0x200
  2028d4:	54fffa29 	b.ls	202818 <mmc_read_blocks+0x38>  // b.plast
  2028d8:	d2800003 	mov	x3, #0x0                   	// #0
  2028dc:	528003a2 	mov	w2, #0x1d                  	// #29
  2028e0:	52800001 	mov	w1, #0x0                   	// #0
  2028e4:	52800180 	mov	w0, #0xc                   	// #12
  2028e8:	97ffff3e 	bl	2025e0 <mmc_send_cmd>
  2028ec:	34fff960 	cbz	w0, 202818 <mmc_read_blocks+0x38>
  2028f0:	17ffffc9 	b	202814 <mmc_read_blocks+0x34>
  2028f4:	f108027f 	cmp	x19, #0x200
  2028f8:	54fffb08 	b.hi	202858 <mmc_read_blocks+0x78>  // b.pmore
  2028fc:	52800220 	mov	w0, #0x11                  	// #17
  202900:	17ffffd7 	b	20285c <mmc_read_blocks+0x7c>

0000000000202904 <mmc_init>:
  202904:	a9b77bfd 	stp	x29, x30, [sp, #-144]!
  202908:	910003fd 	mov	x29, sp
  20290c:	a9025bf5 	stp	x21, x22, [sp, #32]
  202910:	f0000075 	adrp	x21, 211000 <__STACKS_START__+0x8c0>
  202914:	2a0203f6 	mov	w22, w2
  202918:	f90556a0 	str	x0, [x21, #2728]
  20291c:	f9400000 	ldr	x0, [x0]
  202920:	a90153f3 	stp	x19, x20, [sp, #16]
  202924:	f0000073 	adrp	x19, 211000 <__STACKS_START__+0x8c0>
  202928:	a90363f7 	stp	x23, x24, [sp, #48]
  20292c:	a9046bf9 	stp	x25, x26, [sp, #64]
  202930:	d0000099 	adrp	x25, 214000 <list+0x2550>
  202934:	a90573fb 	stp	x27, x28, [sp, #80]
  202938:	b907a723 	str	w3, [x25, #1956]
  20293c:	f9055264 	str	x4, [x19, #2720]
  202940:	b9006be1 	str	w1, [sp, #104]
  202944:	d63f0000 	blr	x0
  202948:	d2800003 	mov	x3, #0x0                   	// #0
  20294c:	52800002 	mov	w2, #0x0                   	// #0
  202950:	52800001 	mov	w1, #0x0                   	// #0
  202954:	52800000 	mov	w0, #0x0                   	// #0
  202958:	97ffff22 	bl	2025e0 <mmc_send_cmd>
  20295c:	2a0003f8 	mov	w24, w0
  202960:	35000ec0 	cbnz	w0, 202b38 <mmc_init+0x234>
  202964:	52800040 	mov	w0, #0x2                   	// #2
  202968:	97fffc93 	bl	201bb4 <mdelay>
  20296c:	f9455260 	ldr	x0, [x19, #2720]
  202970:	b9401400 	ldr	w0, [x0, #20]
  202974:	35000f20 	cbnz	w0, 202b58 <mmc_init+0x254>
  202978:	52901017 	mov	w23, #0x8080                	// #32896
  20297c:	52800c94 	mov	w20, #0x64                  	// #100
  202980:	72a81ff7 	movk	w23, #0x40ff, lsl #16
  202984:	52800022 	mov	w2, #0x1                   	// #1
  202988:	910203e3 	add	x3, sp, #0x80
  20298c:	2a1703e1 	mov	w1, w23
  202990:	2a0203e0 	mov	w0, w2
  202994:	97ffff13 	bl	2025e0 <mmc_send_cmd>
  202998:	2a0003f8 	mov	w24, w0
  20299c:	35000ce0 	cbnz	w0, 202b38 <mmc_init+0x234>
  2029a0:	b94083e0 	ldr	w0, [sp, #128]
  2029a4:	36f80b80 	tbz	w0, #31, 202b14 <mmc_init+0x210>
  2029a8:	d0000081 	adrp	x1, 214000 <list+0x2550>
  2029ac:	b907a820 	str	w0, [x1, #1960]
  2029b0:	d2800003 	mov	x3, #0x0                   	// #0
  2029b4:	528000e2 	mov	w2, #0x7                   	// #7
  2029b8:	52800001 	mov	w1, #0x0                   	// #0
  2029bc:	52800040 	mov	w0, #0x2                   	// #2
  2029c0:	97ffff08 	bl	2025e0 <mmc_send_cmd>
  2029c4:	2a0003f8 	mov	w24, w0
  2029c8:	35000b80 	cbnz	w0, 202b38 <mmc_init+0x234>
  2029cc:	f9455260 	ldr	x0, [x19, #2720]
  2029d0:	b9401400 	ldr	w0, [x0, #20]
  2029d4:	350011e0 	cbnz	w0, 202c10 <mmc_init+0x30c>
  2029d8:	d0000080 	adrp	x0, 214000 <list+0x2550>
  2029dc:	528000c1 	mov	w1, #0x6                   	// #6
  2029e0:	d2800003 	mov	x3, #0x0                   	// #0
  2029e4:	528001a2 	mov	w2, #0xd                   	// #13
  2029e8:	b907ac01 	str	w1, [x0, #1964]
  2029ec:	52a000c1 	mov	w1, #0x60000               	// #393216
  2029f0:	52800060 	mov	w0, #0x3                   	// #3
  2029f4:	97fffefb 	bl	2025e0 <mmc_send_cmd>
  2029f8:	2a0003f8 	mov	w24, w0
  2029fc:	350009e0 	cbnz	w0, 202b38 <mmc_init+0x234>
  202a00:	d0000097 	adrp	x23, 214000 <list+0x2550>
  202a04:	9101c3e3 	add	x3, sp, #0x70
  202a08:	528000e2 	mov	w2, #0x7                   	// #7
  202a0c:	52800120 	mov	w0, #0x9                   	// #9
  202a10:	b947aee1 	ldr	w1, [x23, #1964]
  202a14:	53103c21 	lsl	w1, w1, #16
  202a18:	97fffef2 	bl	2025e0 <mmc_send_cmd>
  202a1c:	2a0003f8 	mov	w24, w0
  202a20:	350008c0 	cbnz	w0, 202b38 <mmc_init+0x234>
  202a24:	d0000094 	adrp	x20, 214000 <list+0x2550>
  202a28:	911e5294 	add	x20, x20, #0x794
  202a2c:	9101c3e1 	add	x1, sp, #0x70
  202a30:	d2800202 	mov	x2, #0x10                  	// #16
  202a34:	aa1403e0 	mov	x0, x20
  202a38:	9400245d 	bl	20bbac <memcpy>
  202a3c:	b947aee1 	ldr	w1, [x23, #1964]
  202a40:	d2800003 	mov	x3, #0x0                   	// #0
  202a44:	528001a2 	mov	w2, #0xd                   	// #13
  202a48:	528000e0 	mov	w0, #0x7                   	// #7
  202a4c:	53103c21 	lsl	w1, w1, #16
  202a50:	97fffee4 	bl	2025e0 <mmc_send_cmd>
  202a54:	2a0003f8 	mov	w24, w0
  202a58:	35000700 	cbnz	w0, 202b38 <mmc_init+0x234>
  202a5c:	97ffff1d 	bl	2026d0 <mmc_device_state>
  202a60:	2a0003f8 	mov	w24, w0
  202a64:	37f806a0 	tbnz	w0, #31, 202b38 <mmc_init+0x234>
  202a68:	7100101f 	cmp	w0, #0x4
  202a6c:	54ffff81 	b.ne	202a5c <mmc_init+0x158>  // b.any
  202a70:	f9455260 	ldr	x0, [x19, #2720]
  202a74:	b9401400 	ldr	w0, [x0, #20]
  202a78:	34001da0 	cbz	w0, 202e2c <mmc_init+0x528>
  202a7c:	f94556a0 	ldr	x0, [x21, #2728]
  202a80:	71000adf 	cmp	w22, #0x2
  202a84:	f000007a 	adrp	x26, 211000 <__STACKS_START__+0x8c0>
  202a88:	9125035c 	add	x28, x26, #0x940
  202a8c:	1a9f16db 	csinc	w27, w22, wzr, ne  // ne = any
  202a90:	aa1c03e1 	mov	x1, x28
  202a94:	f9400c03 	ldr	x3, [x0, #24]
  202a98:	d2800102 	mov	x2, #0x8                   	// #8
  202a9c:	52800000 	mov	w0, #0x0                   	// #0
  202aa0:	d63f0060 	blr	x3
  202aa4:	2a0003f8 	mov	w24, w0
  202aa8:	35000480 	cbnz	w0, 202b38 <mmc_init+0x234>
  202aac:	b947aee1 	ldr	w1, [x23, #1964]
  202ab0:	d2800003 	mov	x3, #0x0                   	// #0
  202ab4:	528001a2 	mov	w2, #0xd                   	// #13
  202ab8:	528006e0 	mov	w0, #0x37                  	// #55
  202abc:	53103c21 	lsl	w1, w1, #16
  202ac0:	97fffec8 	bl	2025e0 <mmc_send_cmd>
  202ac4:	2a0003f8 	mov	w24, w0
  202ac8:	35000380 	cbnz	w0, 202b38 <mmc_init+0x234>
  202acc:	528000a5 	mov	w5, #0x5                   	// #5
  202ad0:	d2800003 	mov	x3, #0x0                   	// #0
  202ad4:	528001a2 	mov	w2, #0xd                   	// #13
  202ad8:	52800001 	mov	w1, #0x0                   	// #0
  202adc:	52800660 	mov	w0, #0x33                  	// #51
  202ae0:	b9006fe5 	str	w5, [sp, #108]
  202ae4:	97fffebf 	bl	2025e0 <mmc_send_cmd>
  202ae8:	b9406fe5 	ldr	w5, [sp, #108]
  202aec:	7100001f 	cmp	w0, #0x0
  202af0:	2a0003f8 	mov	w24, w0
  202af4:	7a4018a0 	ccmp	w5, #0x0, #0x0, ne  // ne = any
  202af8:	54000a21 	b.ne	202c3c <mmc_init+0x338>  // b.any
  202afc:	2a0003e2 	mov	w2, w0
  202b00:	528000a1 	mov	w1, #0x5                   	// #5
  202b04:	90000060 	adrp	x0, 20e000 <mtk_pin_info_pu+0x36c>
  202b08:	910d9000 	add	x0, x0, #0x364
  202b0c:	9400107f 	bl	206d08 <tf_log>
  202b10:	1400000a 	b	202b38 <mmc_init+0x234>
  202b14:	52800140 	mov	w0, #0xa                   	// #10
  202b18:	97fffc27 	bl	201bb4 <mdelay>
  202b1c:	71000694 	subs	w20, w20, #0x1
  202b20:	54fff321 	b.ne	202984 <mmc_init+0x80>  // b.any
  202b24:	90000060 	adrp	x0, 20e000 <mtk_pin_info_pu+0x36c>
  202b28:	910c9000 	add	x0, x0, #0x324
  202b2c:	52800c81 	mov	w1, #0x64                  	// #100
  202b30:	12800098 	mov	w24, #0xfffffffb            	// #-5
  202b34:	94001075 	bl	206d08 <tf_log>
  202b38:	2a1803e0 	mov	w0, w24
  202b3c:	a94153f3 	ldp	x19, x20, [sp, #16]
  202b40:	a9425bf5 	ldp	x21, x22, [sp, #32]
  202b44:	a94363f7 	ldp	x23, x24, [sp, #48]
  202b48:	a9446bf9 	ldp	x25, x26, [sp, #64]
  202b4c:	a94573fb 	ldp	x27, x28, [sp, #80]
  202b50:	a8c97bfd 	ldp	x29, x30, [sp], #144
  202b54:	d65f03c0 	ret
  202b58:	9101c3e3 	add	x3, sp, #0x70
  202b5c:	528001a2 	mov	w2, #0xd                   	// #13
  202b60:	52803541 	mov	w1, #0x1aa                 	// #426
  202b64:	52800100 	mov	w0, #0x8                   	// #8
  202b68:	97fffe9e 	bl	2025e0 <mmc_send_cmd>
  202b6c:	2a0003f8 	mov	w24, w0
  202b70:	35fffe40 	cbnz	w0, 202b38 <mmc_init+0x234>
  202b74:	3941c3e0 	ldrb	w0, [sp, #112]
  202b78:	7102a81f 	cmp	w0, #0xaa
  202b7c:	54fff1a1 	b.ne	2029b0 <mmc_init+0xac>  // b.any
  202b80:	52800c94 	mov	w20, #0x64                  	// #100
  202b84:	d2800003 	mov	x3, #0x0                   	// #0
  202b88:	528001a2 	mov	w2, #0xd                   	// #13
  202b8c:	52800001 	mov	w1, #0x0                   	// #0
  202b90:	528006e0 	mov	w0, #0x37                  	// #55
  202b94:	97fffe93 	bl	2025e0 <mmc_send_cmd>
  202b98:	2a0003f8 	mov	w24, w0
  202b9c:	35fffce0 	cbnz	w0, 202b38 <mmc_init+0x234>
  202ba0:	f9455260 	ldr	x0, [x19, #2720]
  202ba4:	910203e3 	add	x3, sp, #0x80
  202ba8:	52800022 	mov	w2, #0x1                   	// #1
  202bac:	912a8277 	add	x23, x19, #0xaa0
  202bb0:	b9401001 	ldr	w1, [x0, #16]
  202bb4:	52800520 	mov	w0, #0x29                  	// #41
  202bb8:	32020021 	orr	w1, w1, #0x40000000
  202bbc:	97fffe89 	bl	2025e0 <mmc_send_cmd>
  202bc0:	2a0003f8 	mov	w24, w0
  202bc4:	35fffba0 	cbnz	w0, 202b38 <mmc_init+0x234>
  202bc8:	b94083e0 	ldr	w0, [sp, #128]
  202bcc:	36f80120 	tbz	w0, #31, 202bf0 <mmc_init+0x2ec>
  202bd0:	d0000081 	adrp	x1, 214000 <list+0x2550>
  202bd4:	f262001f 	tst	x0, #0x40000000
  202bd8:	b907a820 	str	w0, [x1, #1960]
  202bdc:	52800040 	mov	w0, #0x2                   	// #2
  202be0:	f94002e1 	ldr	x1, [x23]
  202be4:	1a9f1400 	csinc	w0, w0, wzr, ne  // ne = any
  202be8:	b9001420 	str	w0, [x1, #20]
  202bec:	17ffff71 	b	2029b0 <mmc_init+0xac>
  202bf0:	52800140 	mov	w0, #0xa                   	// #10
  202bf4:	97fffbf0 	bl	201bb4 <mdelay>
  202bf8:	71000694 	subs	w20, w20, #0x1
  202bfc:	54fffc41 	b.ne	202b84 <mmc_init+0x280>  // b.any
  202c00:	90000060 	adrp	x0, 20e000 <mtk_pin_info_pu+0x36c>
  202c04:	52800c81 	mov	w1, #0x64                  	// #100
  202c08:	910d0c00 	add	x0, x0, #0x343
  202c0c:	17ffffc9 	b	202b30 <mmc_init+0x22c>
  202c10:	9101c3e3 	add	x3, sp, #0x70
  202c14:	528001a2 	mov	w2, #0xd                   	// #13
  202c18:	52800001 	mov	w1, #0x0                   	// #0
  202c1c:	52800060 	mov	w0, #0x3                   	// #3
  202c20:	97fffe70 	bl	2025e0 <mmc_send_cmd>
  202c24:	2a0003f8 	mov	w24, w0
  202c28:	35fff880 	cbnz	w0, 202b38 <mmc_init+0x234>
  202c2c:	d0000080 	adrp	x0, 214000 <list+0x2550>
  202c30:	7940e7e1 	ldrh	w1, [sp, #114]
  202c34:	b907ac01 	str	w1, [x0, #1964]
  202c38:	17ffff72 	b	202a00 <mmc_init+0xfc>
  202c3c:	510004a5 	sub	w5, w5, #0x1
  202c40:	35fff480 	cbnz	w0, 202ad0 <mmc_init+0x1cc>
  202c44:	f94556a1 	ldr	x1, [x21, #2728]
  202c48:	d2800102 	mov	x2, #0x8                   	// #8
  202c4c:	f9401023 	ldr	x3, [x1, #32]
  202c50:	aa1c03e1 	mov	x1, x28
  202c54:	d63f0060 	blr	x3
  202c58:	2a0003f8 	mov	w24, w0
  202c5c:	35fff6e0 	cbnz	w0, 202b38 <mmc_init+0x234>
  202c60:	b9494340 	ldr	w0, [x26, #2368]
  202c64:	1216001a 	and	w26, w0, #0x400
  202c68:	36500080 	tbz	w0, #10, 202c78 <mmc_init+0x374>
  202c6c:	7100077f 	cmp	w27, #0x1
  202c70:	1a9f17fa 	cset	w26, eq  // eq = none
  202c74:	531f7b5a 	lsl	w26, w26, #1
  202c78:	b947aee1 	ldr	w1, [x23, #1964]
  202c7c:	d2800003 	mov	x3, #0x0                   	// #0
  202c80:	528001a2 	mov	w2, #0xd                   	// #13
  202c84:	528006e0 	mov	w0, #0x37                  	// #55
  202c88:	53103c21 	lsl	w1, w1, #16
  202c8c:	97fffe55 	bl	2025e0 <mmc_send_cmd>
  202c90:	2a0003f8 	mov	w24, w0
  202c94:	35fff520 	cbnz	w0, 202b38 <mmc_init+0x234>
  202c98:	2a1a03e1 	mov	w1, w26
  202c9c:	d2800003 	mov	x3, #0x0                   	// #0
  202ca0:	528001a2 	mov	w2, #0xd                   	// #13
  202ca4:	528000c0 	mov	w0, #0x6                   	// #6
  202ca8:	97fffe4e 	bl	2025e0 <mmc_send_cmd>
  202cac:	2a0003f8 	mov	w24, w0
  202cb0:	35fff440 	cbnz	w0, 202b38 <mmc_init+0x234>
  202cb4:	97fffe87 	bl	2026d0 <mmc_device_state>
  202cb8:	2a0003f8 	mov	w24, w0
  202cbc:	37fff3e0 	tbnz	w0, #31, 202b38 <mmc_init+0x234>
  202cc0:	71001c1f 	cmp	w0, #0x7
  202cc4:	54ffff80 	b.eq	202cb4 <mmc_init+0x3b0>  // b.none
  202cc8:	f94556a0 	ldr	x0, [x21, #2728]
  202ccc:	2a1b03e1 	mov	w1, w27
  202cd0:	f9400802 	ldr	x2, [x0, #16]
  202cd4:	b9406be0 	ldr	w0, [sp, #104]
  202cd8:	d63f0040 	blr	x2
  202cdc:	2a0003f8 	mov	w24, w0
  202ce0:	35fff2c0 	cbnz	w0, 202b38 <mmc_init+0x234>
  202ce4:	f9455262 	ldr	x2, [x19, #2720]
  202ce8:	b9401441 	ldr	w1, [x2, #20]
  202cec:	7100043f 	cmp	w1, #0x1
  202cf0:	54000c00 	b.eq	202e70 <mmc_init+0x56c>  // b.none
  202cf4:	7100083f 	cmp	w1, #0x2
  202cf8:	54000da0 	b.eq	202eac <mmc_init+0x5a8>  // b.none
  202cfc:	35000f81 	cbnz	w1, 202eec <mmc_init+0x5e8>
  202d00:	52804001 	mov	w1, #0x200                 	// #512
  202d04:	b9000841 	str	w1, [x2, #8]
  202d08:	f94556a1 	ldr	x1, [x21, #2728]
  202d0c:	f0000077 	adrp	x23, 211000 <__STACKS_START__+0x8c0>
  202d10:	911d02f7 	add	x23, x23, #0x740
  202d14:	d2804002 	mov	x2, #0x200                 	// #512
  202d18:	f9400c23 	ldr	x3, [x1, #24]
  202d1c:	aa1703e1 	mov	x1, x23
  202d20:	d63f0060 	blr	x3
  202d24:	35000800 	cbnz	w0, 202e24 <mmc_init+0x520>
  202d28:	d2800003 	mov	x3, #0x0                   	// #0
  202d2c:	528001a2 	mov	w2, #0xd                   	// #13
  202d30:	52800001 	mov	w1, #0x0                   	// #0
  202d34:	52800100 	mov	w0, #0x8                   	// #8
  202d38:	97fffe2a 	bl	2025e0 <mmc_send_cmd>
  202d3c:	35000dc0 	cbnz	w0, 202ef4 <mmc_init+0x5f0>
  202d40:	f94556a1 	ldr	x1, [x21, #2728]
  202d44:	d2804002 	mov	x2, #0x200                 	// #512
  202d48:	f9401023 	ldr	x3, [x1, #32]
  202d4c:	aa1703e1 	mov	x1, x23
  202d50:	d63f0060 	blr	x3
  202d54:	35000680 	cbnz	w0, 202e24 <mmc_init+0x520>
  202d58:	97fffe5e 	bl	2026d0 <mmc_device_state>
  202d5c:	37f80640 	tbnz	w0, #31, 202e24 <mmc_init+0x520>
  202d60:	7100101f 	cmp	w0, #0x4
  202d64:	54ffffa1 	b.ne	202d58 <mmc_init+0x454>  // b.any
  202d68:	f9455261 	ldr	x1, [x19, #2720]
  202d6c:	b940d6e0 	ldr	w0, [x23, #212]
  202d70:	b9400822 	ldr	w2, [x1, #8]
  202d74:	9ba27c00 	umull	x0, w0, w2
  202d78:	f9000020 	str	x0, [x1]
  202d7c:	f9455261 	ldr	x1, [x19, #2720]
  202d80:	39403280 	ldrb	w0, [x20, #12]
  202d84:	39403282 	ldrb	w2, [x20, #12]
  202d88:	b9401425 	ldr	w5, [x1, #20]
  202d8c:	d3431800 	ubfx	x0, x0, #3, #4
  202d90:	35000a05 	cbnz	w5, 202ed0 <mmc_init+0x5cc>
  202d94:	90000063 	adrp	x3, 20e000 <mtk_pin_info_pu+0x36c>
  202d98:	910e7863 	add	x3, x3, #0x39e
  202d9c:	38606860 	ldrb	w0, [x3, x0]
  202da0:	12000842 	and	w2, w2, #0x7
  202da4:	52800143 	mov	w3, #0xa                   	// #10
  202da8:	b9000c20 	str	w0, [x1, #12]
  202dac:	b9400c20 	ldr	w0, [x1, #12]
  202db0:	35000962 	cbnz	w2, 202edc <mmc_init+0x5d8>
  202db4:	5284e202 	mov	w2, #0x2710                	// #10000
  202db8:	1b027c00 	mul	w0, w0, w2
  202dbc:	b9000c20 	str	w0, [x1, #12]
  202dc0:	b947a720 	ldr	w0, [x25, #1956]
  202dc4:	360feba0 	tbz	w0, #1, 202b38 <mmc_init+0x234>
  202dc8:	710008bf 	cmp	w5, #0x2
  202dcc:	54ffeb61 	b.ne	202b38 <mmc_init+0x234>  // b.any
  202dd0:	52800000 	mov	w0, #0x0                   	// #0
  202dd4:	97fffe5c 	bl	202744 <sd_switch.constprop.0>
  202dd8:	35000260 	cbnz	w0, 202e24 <mmc_init+0x520>
  202ddc:	d0000094 	adrp	x20, 214000 <list+0x2550>
  202de0:	9130d294 	add	x20, x20, #0xc34
  202de4:	79401a80 	ldrh	w0, [x20, #12]
  202de8:	364fea80 	tbz	w0, #9, 202b38 <mmc_init+0x234>
  202dec:	52b00000 	mov	w0, #0x80000000            	// #-2147483648
  202df0:	97fffe55 	bl	202744 <sd_switch.constprop.0>
  202df4:	35000180 	cbnz	w0, 202e24 <mmc_init+0x520>
  202df8:	39404280 	ldrb	w0, [x20, #16]
  202dfc:	3607e9e0 	tbz	w0, #0, 202b38 <mmc_init+0x234>
  202e00:	f9455260 	ldr	x0, [x19, #2720]
  202e04:	529e1001 	mov	w1, #0xf080                	// #61568
  202e08:	72a05f41 	movk	w1, #0x2fa, lsl #16
  202e0c:	b9000c01 	str	w1, [x0, #12]
  202e10:	2a1603e1 	mov	w1, w22
  202e14:	f94556a0 	ldr	x0, [x21, #2728]
  202e18:	f9400802 	ldr	x2, [x0, #16]
  202e1c:	b9406be0 	ldr	w0, [sp, #104]
  202e20:	d63f0040 	blr	x2
  202e24:	2a0003f8 	mov	w24, w0
  202e28:	17ffff44 	b	202b38 <mmc_init+0x234>
  202e2c:	53181ec0 	ubfiz	w0, w22, #8, #8
  202e30:	52800021 	mov	w1, #0x1                   	// #1
  202e34:	d2800003 	mov	x3, #0x0                   	// #0
  202e38:	528003a2 	mov	w2, #0x1d                  	// #29
  202e3c:	72a076e1 	movk	w1, #0x3b7, lsl #16
  202e40:	2a010001 	orr	w1, w0, w1
  202e44:	528000c0 	mov	w0, #0x6                   	// #6
  202e48:	97fffde6 	bl	2025e0 <mmc_send_cmd>
  202e4c:	2a0003f8 	mov	w24, w0
  202e50:	35ffe740 	cbnz	w0, 202b38 <mmc_init+0x234>
  202e54:	97fffe1f 	bl	2026d0 <mmc_device_state>
  202e58:	2a0003f8 	mov	w24, w0
  202e5c:	37ffe6e0 	tbnz	w0, #31, 202b38 <mmc_init+0x234>
  202e60:	71001c1f 	cmp	w0, #0x7
  202e64:	54ffff80 	b.eq	202e54 <mmc_init+0x550>  // b.none
  202e68:	2a1603fb 	mov	w27, w22
  202e6c:	17ffff97 	b	202cc8 <mmc_init+0x3c4>
  202e70:	29408283 	ldp	w3, w0, [x20, #4]
  202e74:	d3504c00 	ubfx	x0, x0, #16, #4
  202e78:	531e7c65 	lsr	w5, w3, #30
  202e7c:	d34f4463 	ubfx	x3, x3, #15, #3
  202e80:	1ac02021 	lsl	w1, w1, w0
  202e84:	b9400a80 	ldr	w0, [x20, #8]
  202e88:	11000863 	add	w3, w3, #0x2
  202e8c:	b9000841 	str	w1, [x2, #8]
  202e90:	d37e2400 	ubfiz	x0, x0, #2, #10
  202e94:	aa050000 	orr	x0, x0, x5
  202e98:	91000400 	add	x0, x0, #0x1
  202e9c:	9ac32000 	lsl	x0, x0, x3
  202ea0:	9b017c00 	mul	x0, x0, x1
  202ea4:	f9000040 	str	x0, [x2]
  202ea8:	17ffffb5 	b	202d7c <mmc_init+0x478>
  202eac:	52804000 	mov	w0, #0x200                 	// #512
  202eb0:	b9000840 	str	w0, [x2, #8]
  202eb4:	b9400a80 	ldr	w0, [x20, #8]
  202eb8:	79400e81 	ldrh	w1, [x20, #6]
  202ebc:	d3701400 	ubfiz	x0, x0, #16, #6
  202ec0:	aa010000 	orr	x0, x0, x1
  202ec4:	91000400 	add	x0, x0, #0x1
  202ec8:	d36db000 	lsl	x0, x0, #19
  202ecc:	17fffff6 	b	202ea4 <mmc_init+0x5a0>
  202ed0:	90000063 	adrp	x3, 20e000 <mtk_pin_info_pu+0x36c>
  202ed4:	910e3863 	add	x3, x3, #0x38e
  202ed8:	17ffffb1 	b	202d9c <mmc_init+0x498>
  202edc:	1b037c00 	mul	w0, w0, w3
  202ee0:	51000442 	sub	w2, w2, #0x1
  202ee4:	b9000c20 	str	w0, [x1, #12]
  202ee8:	17ffffb1 	b	202dac <mmc_init+0x4a8>
  202eec:	128002b8 	mov	w24, #0xffffffea            	// #-22
  202ef0:	17ffff12 	b	202b38 <mmc_init+0x234>
  202ef4:	2a0003f8 	mov	w24, w0
  202ef8:	17ffff10 	b	202b38 <mmc_init+0x234>

0000000000202efc <parse_gpt_entry>:
  202efc:	a9be7bfd 	stp	x29, x30, [sp, #-32]!
  202f00:	910003fd 	mov	x29, sp
  202f04:	a90153f3 	stp	x19, x20, [sp, #16]
  202f08:	aa0003f3 	mov	x19, x0
  202f0c:	aa0103f4 	mov	x20, x1
  202f10:	f9401000 	ldr	x0, [x0, #32]
  202f14:	b5000060 	cbnz	x0, 202f20 <parse_gpt_entry+0x24>
  202f18:	f9401660 	ldr	x0, [x19, #40]
  202f1c:	b40004e0 	cbz	x0, 202fb8 <parse_gpt_entry+0xbc>
  202f20:	aa1403e0 	mov	x0, x20
  202f24:	d2800b01 	mov	x1, #0x58                  	// #88
  202f28:	97fff988 	bl	201548 <zeromem>
  202f2c:	9100da61 	add	x1, x19, #0x36
  202f30:	d2800060 	mov	x0, #0x3                   	// #3
  202f34:	38606822 	ldrb	w2, [x1, x0]
  202f38:	35000402 	cbnz	w2, 202fb8 <parse_gpt_entry+0xbc>
  202f3c:	91000800 	add	x0, x0, #0x2
  202f40:	f1012c1f 	cmp	x0, #0x4b
  202f44:	54ffff81 	b.ne	202f34 <parse_gpt_entry+0x38>  // b.any
  202f48:	91004282 	add	x2, x20, #0x10
  202f4c:	9100e263 	add	x3, x19, #0x38
  202f50:	d2800000 	mov	x0, #0x0                   	// #0
  202f54:	13017c04 	asr	w4, w0, #1
  202f58:	38606861 	ldrb	w1, [x3, x0]
  202f5c:	3824c841 	strb	w1, [x2, w4, sxtw]
  202f60:	34000081 	cbz	w1, 202f70 <parse_gpt_entry+0x74>
  202f64:	91000800 	add	x0, x0, #0x2
  202f68:	f101201f 	cmp	x0, #0x48
  202f6c:	54ffff41 	b.ne	202f54 <parse_gpt_entry+0x58>  // b.any
  202f70:	f9401261 	ldr	x1, [x19, #32]
  202f74:	d2800202 	mov	x2, #0x10                  	// #16
  202f78:	d377d820 	lsl	x0, x1, #9
  202f7c:	f9000280 	str	x0, [x20]
  202f80:	f9401660 	ldr	x0, [x19, #40]
  202f84:	91000400 	add	x0, x0, #0x1
  202f88:	cb010000 	sub	x0, x0, x1
  202f8c:	8b020261 	add	x1, x19, x2
  202f90:	d377d800 	lsl	x0, x0, #9
  202f94:	f9000680 	str	x0, [x20, #8]
  202f98:	9100d280 	add	x0, x20, #0x34
  202f9c:	94002304 	bl	20bbac <memcpy>
  202fa0:	aa1303e1 	mov	x1, x19
  202fa4:	91011280 	add	x0, x20, #0x44
  202fa8:	d2800202 	mov	x2, #0x10                  	// #16
  202fac:	94002300 	bl	20bbac <memcpy>
  202fb0:	52800000 	mov	w0, #0x0                   	// #0
  202fb4:	14000002 	b	202fbc <parse_gpt_entry+0xc0>
  202fb8:	128002a0 	mov	w0, #0xffffffea            	// #-22
  202fbc:	a94153f3 	ldp	x19, x20, [sp, #16]
  202fc0:	a8c27bfd 	ldp	x29, x30, [sp], #32
  202fc4:	d65f03c0 	ret

0000000000202fc8 <load_partition_table>:
  202fc8:	a9b07bfd 	stp	x29, x30, [sp, #-256]!
  202fcc:	910003fd 	mov	x29, sp
  202fd0:	910183e2 	add	x2, sp, #0x60
  202fd4:	910143e1 	add	x1, sp, #0x50
  202fd8:	a90153f3 	stp	x19, x20, [sp, #16]
  202fdc:	a9025bf5 	stp	x21, x22, [sp, #32]
  202fe0:	a90363f7 	stp	x23, x24, [sp, #48]
  202fe4:	f90023f9 	str	x25, [sp, #64]
  202fe8:	f90033ff 	str	xzr, [sp, #96]
  202fec:	94000872 	bl	2051b4 <plat_get_image_source>
  202ff0:	2a0003f3 	mov	w19, w0
  202ff4:	35000360 	cbnz	w0, 203060 <load_partition_table+0x98>
  202ff8:	f9402be0 	ldr	x0, [sp, #80]
  202ffc:	910163e2 	add	x2, sp, #0x58
  203000:	f94033e1 	ldr	x1, [sp, #96]
  203004:	97fffd18 	bl	202464 <io_open>
  203008:	2a0003f3 	mov	w19, w0
  20300c:	350002a0 	cbnz	w0, 203060 <load_partition_table+0x98>
  203010:	f9402ff4 	ldr	x20, [sp, #88]
  203014:	d2800002 	mov	x2, #0x0                   	// #0
  203018:	52800021 	mov	w1, #0x1                   	// #1
  20301c:	aa1403e0 	mov	x0, x20
  203020:	97fffd46 	bl	202538 <io_seek>
  203024:	2a0003f3 	mov	w19, w0
  203028:	350001c0 	cbnz	w0, 203060 <load_partition_table+0x98>
  20302c:	b0000095 	adrp	x21, 214000 <list+0x2550>
  203030:	9131dab5 	add	x21, x21, #0xc76
  203034:	910203e3 	add	x3, sp, #0x80
  203038:	aa1503e1 	mov	x1, x21
  20303c:	aa1403e0 	mov	x0, x20
  203040:	d2804002 	mov	x2, #0x200                 	// #512
  203044:	97fffd4d 	bl	202578 <io_read>
  203048:	2a0003f3 	mov	w19, w0
  20304c:	350000a0 	cbnz	w0, 203060 <load_partition_table+0x98>
  203050:	3947faa0 	ldrb	w0, [x21, #510]
  203054:	7101541f 	cmp	w0, #0x55
  203058:	54000120 	b.eq	20307c <load_partition_table+0xb4>  // b.none
  20305c:	12800033 	mov	w19, #0xfffffffe            	// #-2
  203060:	2a1303e0 	mov	w0, w19
  203064:	a94153f3 	ldp	x19, x20, [sp, #16]
  203068:	a9425bf5 	ldp	x21, x22, [sp, #32]
  20306c:	a94363f7 	ldp	x23, x24, [sp, #48]
  203070:	f94023f9 	ldr	x25, [sp, #64]
  203074:	a8d07bfd 	ldp	x29, x30, [sp], #256
  203078:	d65f03c0 	ret
  20307c:	3947fea0 	ldrb	w0, [x21, #511]
  203080:	7102a81f 	cmp	w0, #0xaa
  203084:	54fffec1 	b.ne	20305c <load_partition_table+0x94>  // b.any
  203088:	9106fab7 	add	x23, x21, #0x1be
  20308c:	9101c3e0 	add	x0, sp, #0x70
  203090:	aa1703e1 	mov	x1, x23
  203094:	d2800202 	mov	x2, #0x10                  	// #16
  203098:	940022c5 	bl	20bbac <memcpy>
  20309c:	d0000074 	adrp	x20, 211000 <__STACKS_START__+0x8c0>
  2030a0:	3941d3e0 	ldrb	w0, [sp, #116]
  2030a4:	912ac294 	add	x20, x20, #0xab0
  2030a8:	f9402ff8 	ldr	x24, [sp, #88]
  2030ac:	7103b81f 	cmp	w0, #0xee
  2030b0:	54000881 	b.ne	2031c0 <load_partition_table+0x1f8>  // b.any
  2030b4:	aa1803e0 	mov	x0, x24
  2030b8:	d2804002 	mov	x2, #0x200                 	// #512
  2030bc:	52800021 	mov	w1, #0x1                   	// #1
  2030c0:	97fffd1e 	bl	202538 <io_seek>
  2030c4:	35000380 	cbnz	w0, 203134 <load_partition_table+0x16c>
  2030c8:	9101a3e3 	add	x3, sp, #0x68
  2030cc:	910203e1 	add	x1, sp, #0x80
  2030d0:	aa1803e0 	mov	x0, x24
  2030d4:	d2800c02 	mov	x2, #0x60                  	// #96
  2030d8:	97fffd28 	bl	202578 <io_read>
  2030dc:	350002c0 	cbnz	w0, 203134 <load_partition_table+0x16c>
  2030e0:	f94037e0 	ldr	x0, [sp, #104]
  2030e4:	f101801f 	cmp	x0, #0x60
  2030e8:	54000261 	b.ne	203134 <load_partition_table+0x16c>  // b.any
  2030ec:	f0000041 	adrp	x1, 20e000 <mtk_pin_info_pu+0x36c>
  2030f0:	910203e0 	add	x0, sp, #0x80
  2030f4:	910eb821 	add	x1, x1, #0x3ae
  2030f8:	d2800102 	mov	x2, #0x8                   	// #8
  2030fc:	9400229f 	bl	20bb78 <memcmp>
  203100:	350001a0 	cbnz	w0, 203134 <load_partition_table+0x16c>
  203104:	b94093f5 	ldr	w21, [sp, #144]
  203108:	d2800b82 	mov	x2, #0x5c                  	// #92
  20310c:	910203e1 	add	x1, sp, #0x80
  203110:	b90093ff 	str	wzr, [sp, #144]
  203114:	97fffa84 	bl	201b24 <tf_crc32>
  203118:	2a0003e2 	mov	w2, w0
  20311c:	6b0002bf 	cmp	w21, w0
  203120:	54000380 	b.eq	203190 <load_partition_table+0x1c8>  // b.none
  203124:	f0000040 	adrp	x0, 20e000 <mtk_pin_info_pu+0x36c>
  203128:	2a1503e1 	mov	w1, w21
  20312c:	910edc00 	add	x0, x0, #0x3b7
  203130:	94000ef6 	bl	206d08 <tf_log>
  203134:	f9402fe0 	ldr	x0, [sp, #88]
  203138:	d2808002 	mov	x2, #0x400                 	// #1024
  20313c:	52800021 	mov	w1, #0x1                   	// #1
  203140:	aa1403f6 	mov	x22, x20
  203144:	52800015 	mov	w21, #0x0                   	// #0
  203148:	97fffcfc 	bl	202538 <io_seek>
  20314c:	f9402ff7 	ldr	x23, [sp, #88]
  203150:	b96c0280 	ldr	w0, [x20, #11264]
  203154:	6b0002bf 	cmp	w21, w0
  203158:	5400016a 	b.ge	203184 <load_partition_table+0x1bc>  // b.tcont
  20315c:	9101a3e3 	add	x3, sp, #0x68
  203160:	d2801002 	mov	x2, #0x80                  	// #128
  203164:	aa1703e0 	mov	x0, x23
  203168:	8b2263e1 	add	x1, sp, x2
  20316c:	97fffd03 	bl	202578 <io_read>
  203170:	aa1603e1 	mov	x1, x22
  203174:	910203e0 	add	x0, sp, #0x80
  203178:	910162d6 	add	x22, x22, #0x58
  20317c:	97ffff60 	bl	202efc <parse_gpt_entry>
  203180:	34000140 	cbz	w0, 2031a8 <load_partition_table+0x1e0>
  203184:	35000175 	cbnz	w21, 2031b0 <load_partition_table+0x1e8>
  203188:	128002b3 	mov	w19, #0xffffffea            	// #-22
  20318c:	1400000a 	b	2031b4 <load_partition_table+0x1ec>
  203190:	b940d3e0 	ldr	w0, [sp, #208]
  203194:	52801001 	mov	w1, #0x80                  	// #128
  203198:	7102041f 	cmp	w0, #0x81
  20319c:	1a81b000 	csel	w0, w0, w1, lt  // lt = tstop
  2031a0:	b92c0280 	str	w0, [x20, #11264]
  2031a4:	17ffffe4 	b	203134 <load_partition_table+0x16c>
  2031a8:	110006b5 	add	w21, w21, #0x1
  2031ac:	17ffffe9 	b	203150 <load_partition_table+0x188>
  2031b0:	b92c0295 	str	w21, [x20, #11264]
  2031b4:	f9402fe0 	ldr	x0, [sp, #88]
  2031b8:	97fffcf8 	bl	202598 <io_close>
  2031bc:	17ffffa9 	b	203060 <load_partition_table+0x98>
  2031c0:	aa1403f6 	mov	x22, x20
  2031c4:	52800080 	mov	w0, #0x4                   	// #4
  2031c8:	52800019 	mov	w25, #0x0                   	// #0
  2031cc:	b92c0280 	str	w0, [x20, #11264]
  2031d0:	aa1803e0 	mov	x0, x24
  2031d4:	d2800002 	mov	x2, #0x0                   	// #0
  2031d8:	52800021 	mov	w1, #0x1                   	// #1
  2031dc:	97fffcd7 	bl	202538 <io_seek>
  2031e0:	35000220 	cbnz	w0, 203224 <load_partition_table+0x25c>
  2031e4:	9101a3e3 	add	x3, sp, #0x68
  2031e8:	aa1503e1 	mov	x1, x21
  2031ec:	aa1803e0 	mov	x0, x24
  2031f0:	d2804002 	mov	x2, #0x200                 	// #512
  2031f4:	97fffce1 	bl	202578 <io_read>
  2031f8:	35000160 	cbnz	w0, 203224 <load_partition_table+0x25c>
  2031fc:	3947faa0 	ldrb	w0, [x21, #510]
  203200:	7101541f 	cmp	w0, #0x55
  203204:	54000101 	b.ne	203224 <load_partition_table+0x25c>  // b.any
  203208:	3947fea0 	ldrb	w0, [x21, #511]
  20320c:	7102a81f 	cmp	w0, #0xaa
  203210:	540000a1 	b.ne	203224 <load_partition_table+0x25c>  // b.any
  203214:	aa1703e1 	mov	x1, x23
  203218:	910203e0 	add	x0, sp, #0x80
  20321c:	d2800202 	mov	x2, #0x10                  	// #16
  203220:	94002263 	bl	20bbac <memcpy>
  203224:	b9408be0 	ldr	w0, [sp, #136]
  203228:	11000739 	add	w25, w25, #0x1
  20322c:	910042f7 	add	x23, x23, #0x10
  203230:	910162d6 	add	x22, x22, #0x58
  203234:	53175800 	lsl	w0, w0, #9
  203238:	f81a82c0 	stur	x0, [x22, #-88]
  20323c:	b9408fe0 	ldr	w0, [sp, #140]
  203240:	53175800 	lsl	w0, w0, #9
  203244:	f81b02c0 	stur	x0, [x22, #-80]
  203248:	394213e0 	ldrb	w0, [sp, #132]
  20324c:	381b82c0 	sturb	w0, [x22, #-72]
  203250:	b96c0280 	ldr	w0, [x20, #11264]
  203254:	6b00033f 	cmp	w25, w0
  203258:	54fffbcb 	b.lt	2031d0 <load_partition_table+0x208>  // b.tstop
  20325c:	17ffffd6 	b	2031b4 <load_partition_table+0x1ec>

0000000000203260 <get_partition_entry>:
  203260:	a9bc7bfd 	stp	x29, x30, [sp, #-64]!
  203264:	910003fd 	mov	x29, sp
  203268:	a90153f3 	stp	x19, x20, [sp, #16]
  20326c:	d0000073 	adrp	x19, 211000 <__STACKS_START__+0x8c0>
  203270:	912b0273 	add	x19, x19, #0xac0
  203274:	a9025bf5 	stp	x21, x22, [sp, #32]
  203278:	d0000076 	adrp	x22, 211000 <__STACKS_START__+0x8c0>
  20327c:	912ac2d6 	add	x22, x22, #0xab0
  203280:	a90363f7 	stp	x23, x24, [sp, #48]
  203284:	aa0003f7 	mov	x23, x0
  203288:	d2800015 	mov	x21, #0x0                   	// #0
  20328c:	d2800b18 	mov	x24, #0x58                  	// #88
  203290:	b96c02c0 	ldr	w0, [x22, #11264]
  203294:	6b15001f 	cmp	w0, w21
  203298:	5400006c 	b.gt	2032a4 <get_partition_entry+0x44>
  20329c:	d2800000 	mov	x0, #0x0                   	// #0
  2032a0:	14000009 	b	2032c4 <get_partition_entry+0x64>
  2032a4:	aa1303e1 	mov	x1, x19
  2032a8:	9b187eb4 	mul	x20, x21, x24
  2032ac:	aa1703e0 	mov	x0, x23
  2032b0:	910006b5 	add	x21, x21, #0x1
  2032b4:	91016273 	add	x19, x19, #0x58
  2032b8:	940023ca 	bl	20c1e0 <strcmp>
  2032bc:	35fffea0 	cbnz	w0, 203290 <get_partition_entry+0x30>
  2032c0:	8b160280 	add	x0, x20, x22
  2032c4:	a94153f3 	ldp	x19, x20, [sp, #16]
  2032c8:	a9425bf5 	ldp	x21, x22, [sp, #32]
  2032cc:	a94363f7 	ldp	x23, x24, [sp, #48]
  2032d0:	a8c47bfd 	ldp	x29, x30, [sp], #64
  2032d4:	d65f03c0 	ret

00000000002032d8 <partition_init>:
  2032d8:	17ffff3c 	b	202fc8 <load_partition_table>

00000000002032dc <xz_malloc>:
  2032dc:	a9bd7bfd 	stp	x29, x30, [sp, #-48]!
  2032e0:	aa0003e2 	mov	x2, x0
  2032e4:	910003fd 	mov	x29, sp
  2032e8:	a90153f3 	stp	x19, x20, [sp, #16]
  2032ec:	b0000094 	adrp	x20, 214000 <list+0x2550>
  2032f0:	f9435e93 	ldr	x19, [x20, #1720]
  2032f4:	f90013f5 	str	x21, [sp, #32]
  2032f8:	d1000673 	sub	x19, x19, #0x1
  2032fc:	b2400a73 	orr	x19, x19, #0x7
  203300:	91000673 	add	x19, x19, #0x1
  203304:	8b000275 	add	x21, x19, x0
  203308:	b0000080 	adrp	x0, 214000 <list+0x2550>
  20330c:	f9436000 	ldr	x0, [x0, #1728]
  203310:	eb15001f 	cmp	x0, x21
  203314:	54000143 	b.cc	20333c <xz_malloc+0x60>  // b.lo, b.ul, b.last
  203318:	aa1303e0 	mov	x0, x19
  20331c:	52800001 	mov	w1, #0x0                   	// #0
  203320:	94002238 	bl	20bc00 <memset>
  203324:	f9035e95 	str	x21, [x20, #1720]
  203328:	aa1303e0 	mov	x0, x19
  20332c:	a94153f3 	ldp	x19, x20, [sp, #16]
  203330:	f94013f5 	ldr	x21, [sp, #32]
  203334:	a8c37bfd 	ldp	x29, x30, [sp], #48
  203338:	d65f03c0 	ret
  20333c:	d2800013 	mov	x19, #0x0                   	// #0
  203340:	17fffffa 	b	203328 <xz_malloc+0x4c>

0000000000203344 <unxz>:
  203344:	a9b87bfd 	stp	x29, x30, [sp, #-128]!
  203348:	910003fd 	mov	x29, sp
  20334c:	f90023f9 	str	x25, [sp, #64]
  203350:	b0000099 	adrp	x25, 214000 <list+0x2550>
  203354:	a90153f3 	stp	x19, x20, [sp, #16]
  203358:	aa0003f4 	mov	x20, x0
  20335c:	3979db20 	ldrb	w0, [x25, #3702]
  203360:	a9025bf5 	stp	x21, x22, [sp, #32]
  203364:	aa0203f3 	mov	x19, x2
  203368:	aa0103f5 	mov	x21, x1
  20336c:	a90363f7 	stp	x23, x24, [sp, #48]
  203370:	aa0503f6 	mov	x22, x5
  203374:	aa0303f8 	mov	x24, x3
  203378:	aa0403f7 	mov	x23, x4
  20337c:	35000080 	cbnz	w0, 20338c <unxz+0x48>
  203380:	94000040 	bl	203480 <xz_crc32_init>
  203384:	52800020 	mov	w0, #0x1                   	// #1
  203388:	3939db20 	strb	w0, [x25, #3702]
  20338c:	b0000080 	adrp	x0, 214000 <list+0x2550>
  203390:	8b1602f6 	add	x22, x23, x22
  203394:	52800001 	mov	w1, #0x0                   	// #0
  203398:	f9036016 	str	x22, [x0, #1728]
  20339c:	b0000080 	adrp	x0, 214000 <list+0x2550>
  2033a0:	f9035c17 	str	x23, [x0, #1720]
  2033a4:	52800000 	mov	w0, #0x0                   	// #0
  2033a8:	94000714 	bl	204ff8 <xz_dec_init>
  2033ac:	aa0003f6 	mov	x22, x0
  2033b0:	b5000160 	cbnz	x0, 2033dc <unxz+0x98>
  2033b4:	f0000040 	adrp	x0, 20e000 <mtk_pin_info_pu+0x36c>
  2033b8:	910fb400 	add	x0, x0, #0x3ed
  2033bc:	94000e53 	bl	206d08 <tf_log>
  2033c0:	12800160 	mov	w0, #0xfffffff4            	// #-12
  2033c4:	a94153f3 	ldp	x19, x20, [sp, #16]
  2033c8:	a9425bf5 	ldp	x21, x22, [sp, #32]
  2033cc:	a94363f7 	ldp	x23, x24, [sp, #48]
  2033d0:	f94023f9 	ldr	x25, [sp, #64]
  2033d4:	a8c87bfd 	ldp	x29, x30, [sp], #128
  2033d8:	d65f03c0 	ret
  2033dc:	f9400281 	ldr	x1, [x20]
  2033e0:	a9057fe1 	stp	x1, xzr, [sp, #80]
  2033e4:	f9400261 	ldr	x1, [x19]
  2033e8:	f90037e1 	str	x1, [sp, #104]
  2033ec:	910143e1 	add	x1, sp, #0x50
  2033f0:	f90033f5 	str	x21, [sp, #96]
  2033f4:	a90763ff 	stp	xzr, x24, [sp, #112]
  2033f8:	94000540 	bl	2048f8 <xz_dec_run>
  2033fc:	2a0003e1 	mov	w1, w0
  203400:	7100141f 	cmp	w0, #0x5
  203404:	540001a1 	b.ne	203438 <unxz+0xf4>  // b.any
  203408:	f9400281 	ldr	x1, [x20]
  20340c:	aa1503e2 	mov	x2, x21
  203410:	f9400260 	ldr	x0, [x19]
  203414:	940021e6 	bl	20bbac <memcpy>
  203418:	f9400280 	ldr	x0, [x20]
  20341c:	8b150000 	add	x0, x0, x21
  203420:	f9000280 	str	x0, [x20]
  203424:	f9400261 	ldr	x1, [x19]
  203428:	8b150035 	add	x21, x1, x21
  20342c:	f9000275 	str	x21, [x19]
  203430:	52800000 	mov	w0, #0x0                   	// #0
  203434:	17ffffe4 	b	2033c4 <unxz+0x80>
  203438:	7100041f 	cmp	w0, #0x1
  20343c:	54000181 	b.ne	20346c <unxz+0x128>  // b.any
  203440:	aa1603e0 	mov	x0, x22
  203444:	94000706 	bl	20505c <xz_dec_end>
  203448:	f9400280 	ldr	x0, [x20]
  20344c:	f9402fe1 	ldr	x1, [sp, #88]
  203450:	8b010000 	add	x0, x0, x1
  203454:	f9000280 	str	x0, [x20]
  203458:	f9403be1 	ldr	x1, [sp, #112]
  20345c:	f9400260 	ldr	x0, [x19]
  203460:	8b010000 	add	x0, x0, x1
  203464:	f9000260 	str	x0, [x19]
  203468:	17fffff2 	b	203430 <unxz+0xec>
  20346c:	f0000040 	adrp	x0, 20e000 <mtk_pin_info_pu+0x36c>
  203470:	91102000 	add	x0, x0, #0x408
  203474:	94000e25 	bl	206d08 <tf_log>
  203478:	12800080 	mov	w0, #0xfffffffb            	// #-5
  20347c:	17ffffd2 	b	2033c4 <unxz+0x80>

0000000000203480 <xz_crc32_init>:
  203480:	52906405 	mov	w5, #0x8320                	// #33568
  203484:	b0000083 	adrp	x3, 214000 <list+0x2550>
  203488:	911ec063 	add	x3, x3, #0x7b0
  20348c:	d2800000 	mov	x0, #0x0                   	// #0
  203490:	72bdb705 	movk	w5, #0xedb8, lsl #16
  203494:	2a0003e1 	mov	w1, w0
  203498:	52800102 	mov	w2, #0x8                   	// #8
  20349c:	93400024 	sbfx	x4, x1, #0, #1
  2034a0:	71000442 	subs	w2, w2, #0x1
  2034a4:	0a050084 	and	w4, w4, w5
  2034a8:	4a410481 	eor	w1, w4, w1, lsr #1
  2034ac:	54ffff81 	b.ne	20349c <xz_crc32_init+0x1c>  // b.any
  2034b0:	b8207861 	str	w1, [x3, x0, lsl #2]
  2034b4:	91000400 	add	x0, x0, #0x1
  2034b8:	f104001f 	cmp	x0, #0x100
  2034bc:	54fffec1 	b.ne	203494 <xz_crc32_init+0x14>  // b.any
  2034c0:	d65f03c0 	ret

00000000002034c4 <xz_crc32>:
  2034c4:	b0000085 	adrp	x5, 214000 <list+0x2550>
  2034c8:	2a2203e2 	mvn	w2, w2
  2034cc:	911ec0a5 	add	x5, x5, #0x7b0
  2034d0:	d2800004 	mov	x4, #0x0                   	// #0
  2034d4:	eb04003f 	cmp	x1, x4
  2034d8:	54000061 	b.ne	2034e4 <xz_crc32+0x20>  // b.any
  2034dc:	2a2203e0 	mvn	w0, w2
  2034e0:	d65f03c0 	ret
  2034e4:	38646803 	ldrb	w3, [x0, x4]
  2034e8:	91000484 	add	x4, x4, #0x1
  2034ec:	ca030043 	eor	x3, x2, x3
  2034f0:	92401c63 	and	x3, x3, #0xff
  2034f4:	b86378a3 	ldr	w3, [x5, x3, lsl #2]
  2034f8:	4a422062 	eor	w2, w3, w2, lsr #8
  2034fc:	17fffff6 	b	2034d4 <xz_crc32+0x10>

0000000000203500 <dict_repeat>:
  203500:	f9400c03 	ldr	x3, [x0, #24]
  203504:	2a0203e6 	mov	w6, w2
  203508:	eb22407f 	cmp	x3, w2, uxtw
  20350c:	540004c9 	b.ls	2035a4 <dict_repeat+0xa4>  // b.plast
  203510:	b9403003 	ldr	w3, [x0, #48]
  203514:	6b02007f 	cmp	w3, w2
  203518:	54000469 	b.ls	2035a4 <dict_repeat+0xa4>  // b.plast
  20351c:	f9400805 	ldr	x5, [x0, #16]
  203520:	f9401002 	ldr	x2, [x0, #32]
  203524:	b9400023 	ldr	w3, [x1]
  203528:	cb050042 	sub	x2, x2, x5
  20352c:	2a0303e4 	mov	w4, w3
  203530:	eb23405f 	cmp	x2, w3, uxtw
  203534:	9a849042 	csel	x2, x2, x4, ls  // ls = plast
  203538:	2a0203e4 	mov	w4, w2
  20353c:	4b020062 	sub	w2, w3, w2
  203540:	b9000022 	str	w2, [x1]
  203544:	d10004a1 	sub	x1, x5, #0x1
  203548:	cb060021 	sub	x1, x1, x6
  20354c:	eb0500df 	cmp	x6, x5
  203550:	54000063 	b.cc	20355c <dict_repeat+0x5c>  // b.lo, b.ul, b.last
  203554:	f9401402 	ldr	x2, [x0, #40]
  203558:	8b020021 	add	x1, x1, x2
  20355c:	f9400803 	ldr	x3, [x0, #16]
  203560:	91000422 	add	x2, x1, #0x1
  203564:	f9400005 	ldr	x5, [x0]
  203568:	91000466 	add	x6, x3, #0x1
  20356c:	f9000806 	str	x6, [x0, #16]
  203570:	386168a1 	ldrb	w1, [x5, x1]
  203574:	382368a1 	strb	w1, [x5, x3]
  203578:	f9401401 	ldr	x1, [x0, #40]
  20357c:	eb02003f 	cmp	x1, x2
  203580:	9a9f1041 	csel	x1, x2, xzr, ne  // ne = any
  203584:	71000484 	subs	w4, w4, #0x1
  203588:	54fffea1 	b.ne	20355c <dict_repeat+0x5c>  // b.any
  20358c:	a9410801 	ldp	x1, x2, [x0, #16]
  203590:	eb01005f 	cmp	x2, x1
  203594:	54000042 	b.cs	20359c <dict_repeat+0x9c>  // b.hs, b.nlast
  203598:	f9000c01 	str	x1, [x0, #24]
  20359c:	52800020 	mov	w0, #0x1                   	// #1
  2035a0:	14000002 	b	2035a8 <dict_repeat+0xa8>
  2035a4:	52800000 	mov	w0, #0x0                   	// #0
  2035a8:	d65f03c0 	ret

00000000002035ac <lzma_len>:
  2035ac:	b9400003 	ldr	w3, [x0]
  2035b0:	12bfe004 	mov	w4, #0xffffff              	// #16777215
  2035b4:	6b04007f 	cmp	w3, w4
  2035b8:	54000168 	b.hi	2035e4 <lzma_len+0x38>  // b.pmore
  2035bc:	53185c63 	lsl	w3, w3, #8
  2035c0:	b9000003 	str	w3, [x0]
  2035c4:	f9400c03 	ldr	x3, [x0, #24]
  2035c8:	f9400805 	ldr	x5, [x0, #16]
  2035cc:	91000466 	add	x6, x3, #0x1
  2035d0:	f9000c06 	str	x6, [x0, #24]
  2035d4:	b9400404 	ldr	w4, [x0, #4]
  2035d8:	386368a3 	ldrb	w3, [x5, x3]
  2035dc:	0b042063 	add	w3, w3, w4, lsl #8
  2035e0:	b9000403 	str	w3, [x0, #4]
  2035e4:	b9400003 	ldr	w3, [x0]
  2035e8:	79400025 	ldrh	w5, [x1]
  2035ec:	530b7c64 	lsr	w4, w3, #11
  2035f0:	1b057c86 	mul	w6, w4, w5
  2035f4:	b9400404 	ldr	w4, [x0, #4]
  2035f8:	6b0400df 	cmp	w6, w4
  2035fc:	540005e9 	b.ls	2036b8 <lzma_len+0x10c>  // b.plast
  203600:	52810003 	mov	w3, #0x800                 	// #2048
  203604:	4b050063 	sub	w3, w3, w5
  203608:	b9000006 	str	w6, [x0]
  20360c:	0b8314a5 	add	w5, w5, w3, asr #5
  203610:	d2800083 	mov	x3, #0x4                   	// #4
  203614:	8b225062 	add	x2, x3, w2, uxtw #4
  203618:	79000025 	strh	w5, [x1]
  20361c:	8b020021 	add	x1, x1, x2
  203620:	52800042 	mov	w2, #0x2                   	// #2
  203624:	52800105 	mov	w5, #0x8                   	// #8
  203628:	b9009002 	str	w2, [x0, #144]
  20362c:	52800022 	mov	w2, #0x1                   	// #1
  203630:	12bfe009 	mov	w9, #0xffffff              	// #16777215
  203634:	5281000a 	mov	w10, #0x800                 	// #2048
  203638:	b9400003 	ldr	w3, [x0]
  20363c:	8b224428 	add	x8, x1, w2, uxtw #1
  203640:	6b09007f 	cmp	w3, w9
  203644:	54000168 	b.hi	203670 <lzma_len+0xc4>  // b.pmore
  203648:	53185c63 	lsl	w3, w3, #8
  20364c:	b9000003 	str	w3, [x0]
  203650:	f9400c03 	ldr	x3, [x0, #24]
  203654:	f9400806 	ldr	x6, [x0, #16]
  203658:	91000467 	add	x7, x3, #0x1
  20365c:	f9000c07 	str	x7, [x0, #24]
  203660:	b9400404 	ldr	w4, [x0, #4]
  203664:	386368c3 	ldrb	w3, [x6, x3]
  203668:	0b042063 	add	w3, w3, w4, lsl #8
  20366c:	b9000403 	str	w3, [x0, #4]
  203670:	29401807 	ldp	w7, w6, [x0]
  203674:	531f7842 	lsl	w2, w2, #1
  203678:	79400103 	ldrh	w3, [x8]
  20367c:	530b7ce4 	lsr	w4, w7, #11
  203680:	1b037c84 	mul	w4, w4, w3
  203684:	6b06009f 	cmp	w4, w6
  203688:	540006e9 	b.ls	203764 <lzma_len+0x1b8>  // b.plast
  20368c:	b9000004 	str	w4, [x0]
  203690:	4b030144 	sub	w4, w10, w3
  203694:	0b841463 	add	w3, w3, w4, asr #5
  203698:	79000103 	strh	w3, [x8]
  20369c:	6b0200bf 	cmp	w5, w2
  2036a0:	54fffcc8 	b.hi	203638 <lzma_len+0x8c>  // b.pmore
  2036a4:	b9409001 	ldr	w1, [x0, #144]
  2036a8:	4b050021 	sub	w1, w1, w5
  2036ac:	0b020022 	add	w2, w1, w2
  2036b0:	b9009002 	str	w2, [x0, #144]
  2036b4:	d65f03c0 	ret
  2036b8:	4b060063 	sub	w3, w3, w6
  2036bc:	4b060084 	sub	w4, w4, w6
  2036c0:	29001003 	stp	w3, w4, [x0]
  2036c4:	4b4514a5 	sub	w5, w5, w5, lsr #5
  2036c8:	79000025 	strh	w5, [x1]
  2036cc:	12bfe005 	mov	w5, #0xffffff              	// #16777215
  2036d0:	6b05007f 	cmp	w3, w5
  2036d4:	54000148 	b.hi	2036fc <lzma_len+0x150>  // b.pmore
  2036d8:	53185c63 	lsl	w3, w3, #8
  2036dc:	b9000003 	str	w3, [x0]
  2036e0:	f9400c03 	ldr	x3, [x0, #24]
  2036e4:	f9400805 	ldr	x5, [x0, #16]
  2036e8:	91000466 	add	x6, x3, #0x1
  2036ec:	f9000c06 	str	x6, [x0, #24]
  2036f0:	386368a3 	ldrb	w3, [x5, x3]
  2036f4:	0b042064 	add	w4, w3, w4, lsl #8
  2036f8:	b9000404 	str	w4, [x0, #4]
  2036fc:	29401406 	ldp	w6, w5, [x0]
  203700:	79400423 	ldrh	w3, [x1, #2]
  203704:	530b7cc4 	lsr	w4, w6, #11
  203708:	1b037c84 	mul	w4, w4, w3
  20370c:	6b05009f 	cmp	w4, w5
  203710:	54000169 	b.ls	20373c <lzma_len+0x190>  // b.plast
  203714:	d37c7c42 	ubfiz	x2, x2, #4, #32
  203718:	b9000004 	str	w4, [x0]
  20371c:	52810004 	mov	w4, #0x800                 	// #2048
  203720:	4b030084 	sub	w4, w4, w3
  203724:	91041042 	add	x2, x2, #0x104
  203728:	0b841463 	add	w3, w3, w4, asr #5
  20372c:	79000423 	strh	w3, [x1, #2]
  203730:	8b020021 	add	x1, x1, x2
  203734:	52800142 	mov	w2, #0xa                   	// #10
  203738:	17ffffbb 	b	203624 <lzma_len+0x78>
  20373c:	4b0400c6 	sub	w6, w6, w4
  203740:	4b0400a4 	sub	w4, w5, w4
  203744:	29001006 	stp	w6, w4, [x0]
  203748:	4b431463 	sub	w3, w3, w3, lsr #5
  20374c:	79000423 	strh	w3, [x1, #2]
  203750:	52800242 	mov	w2, #0x12                  	// #18
  203754:	91081021 	add	x1, x1, #0x204
  203758:	52802005 	mov	w5, #0x100                 	// #256
  20375c:	b9009002 	str	w2, [x0, #144]
  203760:	17ffffb3 	b	20362c <lzma_len+0x80>
  203764:	4b0400e7 	sub	w7, w7, w4
  203768:	4b0400c4 	sub	w4, w6, w4
  20376c:	29001007 	stp	w7, w4, [x0]
  203770:	4b431463 	sub	w3, w3, w3, lsr #5
  203774:	11000442 	add	w2, w2, #0x1
  203778:	79000103 	strh	w3, [x8]
  20377c:	17ffffc8 	b	20369c <lzma_len+0xf0>

0000000000203780 <lzma_main>:
  203780:	9100a00c 	add	x12, x0, #0x28
  203784:	a9bf7bfd 	stp	x29, x30, [sp, #-16]!
  203788:	aa0003eb 	mov	x11, x0
  20378c:	910003fd 	mov	x29, sp
  203790:	f9400981 	ldr	x1, [x12, #16]
  203794:	f9401180 	ldr	x0, [x12, #32]
  203798:	eb00003f 	cmp	x1, x0
  20379c:	540000e2 	b.cs	2037b8 <lzma_main+0x38>  // b.hs, b.nlast
  2037a0:	b9409160 	ldr	w0, [x11, #144]
  2037a4:	340000a0 	cbz	w0, 2037b8 <lzma_main+0x38>
  2037a8:	b9407d62 	ldr	w2, [x11, #124]
  2037ac:	91024161 	add	x1, x11, #0x90
  2037b0:	aa0c03e0 	mov	x0, x12
  2037b4:	97ffff53 	bl	203500 <dict_repeat>
  2037b8:	12bfe00d 	mov	w13, #0xffffff              	// #16777215
  2037bc:	5281000f 	mov	w15, #0x800                 	// #2048
  2037c0:	5280002e 	mov	w14, #0x1                   	// #1
  2037c4:	f9400983 	ldr	x3, [x12, #16]
  2037c8:	f9401181 	ldr	x1, [x12, #32]
  2037cc:	b9400160 	ldr	w0, [x11]
  2037d0:	eb01007f 	cmp	x3, x1
  2037d4:	54000082 	b.cs	2037e4 <lzma_main+0x64>  // b.hs, b.nlast
  2037d8:	a9418961 	ldp	x1, x2, [x11, #24]
  2037dc:	eb02003f 	cmp	x1, x2
  2037e0:	540001e9 	b.ls	20381c <lzma_main+0x9c>  // b.plast
  2037e4:	12bfe001 	mov	w1, #0xffffff              	// #16777215
  2037e8:	6b01001f 	cmp	w0, w1
  2037ec:	54000148 	b.hi	203814 <lzma_main+0x94>  // b.pmore
  2037f0:	a9410562 	ldp	x2, x1, [x11, #16]
  2037f4:	53185c00 	lsl	w0, w0, #8
  2037f8:	b9000160 	str	w0, [x11]
  2037fc:	b9400560 	ldr	w0, [x11, #4]
  203800:	91000423 	add	x3, x1, #0x1
  203804:	f9000d63 	str	x3, [x11, #24]
  203808:	38616841 	ldrb	w1, [x2, x1]
  20380c:	0b002020 	add	w0, w1, w0, lsl #8
  203810:	b9000560 	str	w0, [x11, #4]
  203814:	52800020 	mov	w0, #0x1                   	// #1
  203818:	140000f8 	b	203bf8 <lzma_main+0x478>
  20381c:	b9409d62 	ldr	w2, [x11, #156]
  203820:	b9408d64 	ldr	w4, [x11, #140]
  203824:	0a030042 	and	w2, w2, w3
  203828:	6b0d001f 	cmp	w0, w13
  20382c:	54000148 	b.hi	203854 <lzma_main+0xd4>  // b.pmore
  203830:	53185c00 	lsl	w0, w0, #8
  203834:	b9000160 	str	w0, [x11]
  203838:	f9400960 	ldr	x0, [x11, #16]
  20383c:	91000426 	add	x6, x1, #0x1
  203840:	f9000d66 	str	x6, [x11, #24]
  203844:	b9400565 	ldr	w5, [x11, #4]
  203848:	38616800 	ldrb	w0, [x0, x1]
  20384c:	0b052000 	add	w0, w0, w5, lsl #8
  203850:	b9000560 	str	w0, [x11, #4]
  203854:	d37c7c86 	ubfiz	x6, x4, #4, #32
  203858:	b9400160 	ldr	w0, [x11]
  20385c:	8b2240c6 	add	x6, x6, w2, uxtw
  203860:	2a0403e5 	mov	w5, w4
  203864:	8b060566 	add	x6, x11, x6, lsl #1
  203868:	530b7c01 	lsr	w1, w0, #11
  20386c:	794140c7 	ldrh	w7, [x6, #160]
  203870:	1b077c28 	mul	w8, w1, w7
  203874:	b9400561 	ldr	w1, [x11, #4]
  203878:	6b01011f 	cmp	w8, w1
  20387c:	54001109 	b.ls	203a9c <lzma_main+0x31c>  // b.plast
  203880:	4b0701e0 	sub	w0, w15, w7
  203884:	b9000168 	str	w8, [x11]
  203888:	d1000462 	sub	x2, x3, #0x1
  20388c:	0b8014e7 	add	w7, w7, w0, asr #5
  203890:	790140c7 	strh	w7, [x6, #160]
  203894:	b5000763 	cbnz	x3, 203980 <lzma_main+0x200>
  203898:	f9401580 	ldr	x0, [x12, #40]
  20389c:	d1000400 	sub	x0, x0, #0x1
  2038a0:	f9400d86 	ldr	x6, [x12, #24]
  2038a4:	f9400188 	ldr	x8, [x12]
  2038a8:	b4000706 	cbz	x6, 203988 <lzma_main+0x208>
  2038ac:	38606901 	ldrb	w1, [x8, x0]
  2038b0:	29528167 	ldp	w7, w0, [x11, #148]
  2038b4:	8a030000 	and	x0, x0, x3
  2038b8:	9ac72005 	lsl	x5, x0, x7
  2038bc:	52800100 	mov	w0, #0x8                   	// #8
  2038c0:	4b070000 	sub	w0, w0, w7
  2038c4:	1ac02420 	lsr	w0, w1, w0
  2038c8:	0b050000 	add	w0, w0, w5
  2038cc:	5280c001 	mov	w1, #0x600                 	// #1536
  2038d0:	9ba12c00 	umaddl	x0, w0, w1, x11
  2038d4:	913c3000 	add	x0, x0, #0xf0c
  2038d8:	7100189f 	cmp	w4, #0x6
  2038dc:	54000688 	b.hi	2039ac <lzma_main+0x22c>  // b.pmore
  2038e0:	52800021 	mov	w1, #0x1                   	// #1
  2038e4:	b9400162 	ldr	w2, [x11]
  2038e8:	d37f7c27 	ubfiz	x7, x1, #1, #32
  2038ec:	6b0d005f 	cmp	w2, w13
  2038f0:	54000168 	b.hi	20391c <lzma_main+0x19c>  // b.pmore
  2038f4:	53185c42 	lsl	w2, w2, #8
  2038f8:	b9000162 	str	w2, [x11]
  2038fc:	f9400d62 	ldr	x2, [x11, #24]
  203900:	f9400965 	ldr	x5, [x11, #16]
  203904:	91000446 	add	x6, x2, #0x1
  203908:	f9000d66 	str	x6, [x11, #24]
  20390c:	b9400564 	ldr	w4, [x11, #4]
  203910:	386268a2 	ldrb	w2, [x5, x2]
  203914:	0b042042 	add	w2, w2, w4, lsl #8
  203918:	b9000562 	str	w2, [x11, #4]
  20391c:	29401566 	ldp	w6, w5, [x11]
  203920:	531f7821 	lsl	w1, w1, #1
  203924:	78676802 	ldrh	w2, [x0, x7]
  203928:	530b7cc4 	lsr	w4, w6, #11
  20392c:	1b027c84 	mul	w4, w4, w2
  203930:	6b05009f 	cmp	w4, w5
  203934:	540002e9 	b.ls	203990 <lzma_main+0x210>  // b.plast
  203938:	b9000164 	str	w4, [x11]
  20393c:	4b0201e4 	sub	w4, w15, w2
  203940:	0b841442 	add	w2, w2, w4, asr #5
  203944:	78276802 	strh	w2, [x0, x7]
  203948:	7103fc3f 	cmp	w1, #0xff
  20394c:	54fffcc9 	b.ls	2038e4 <lzma_main+0x164>  // b.plast
  203950:	91000460 	add	x0, x3, #0x1
  203954:	f9000980 	str	x0, [x12, #16]
  203958:	38236901 	strb	w1, [x8, x3]
  20395c:	a9410580 	ldp	x0, x1, [x12, #16]
  203960:	eb00003f 	cmp	x1, x0
  203964:	54000042 	b.cs	20396c <lzma_main+0x1ec>  // b.hs, b.nlast
  203968:	f9000d80 	str	x0, [x12, #24]
  20396c:	b9408d60 	ldr	w0, [x11, #140]
  203970:	71000c1f 	cmp	w0, #0x3
  203974:	54000888 	b.hi	203a84 <lzma_main+0x304>  // b.pmore
  203978:	b9008d7f 	str	wzr, [x11, #140]
  20397c:	17ffff92 	b	2037c4 <lzma_main+0x44>
  203980:	aa0203e0 	mov	x0, x2
  203984:	17ffffc7 	b	2038a0 <lzma_main+0x120>
  203988:	52800001 	mov	w1, #0x0                   	// #0
  20398c:	17ffffc9 	b	2038b0 <lzma_main+0x130>
  203990:	4b0400c6 	sub	w6, w6, w4
  203994:	4b0400a4 	sub	w4, w5, w4
  203998:	29001166 	stp	w6, w4, [x11]
  20399c:	4b421442 	sub	w2, w2, w2, lsr #5
  2039a0:	11000421 	add	w1, w1, #0x1
  2039a4:	78276802 	strh	w2, [x0, x7]
  2039a8:	17ffffe8 	b	203948 <lzma_main+0x1c8>
  2039ac:	b9407d64 	ldr	w4, [x11, #124]
  2039b0:	cb040041 	sub	x1, x2, x4
  2039b4:	eb04007f 	cmp	x3, x4
  2039b8:	54000068 	b.hi	2039c4 <lzma_main+0x244>  // b.pmore
  2039bc:	f9401582 	ldr	x2, [x12, #40]
  2039c0:	8b020021 	add	x1, x1, x2
  2039c4:	b40004c6 	cbz	x6, 203a5c <lzma_main+0x2dc>
  2039c8:	3861690a 	ldrb	w10, [x8, x1]
  2039cc:	531f794a 	lsl	w10, w10, #1
  2039d0:	52802006 	mov	w6, #0x100                 	// #256
  2039d4:	52800021 	mov	w1, #0x1                   	// #1
  2039d8:	0a060150 	and	w16, w10, w6
  2039dc:	0b0100c2 	add	w2, w6, w1
  2039e0:	0b100042 	add	w2, w2, w16
  2039e4:	b9400164 	ldr	w4, [x11]
  2039e8:	531f794a 	lsl	w10, w10, #1
  2039ec:	d37ff842 	lsl	x2, x2, #1
  2039f0:	6b0d009f 	cmp	w4, w13
  2039f4:	54000168 	b.hi	203a20 <lzma_main+0x2a0>  // b.pmore
  2039f8:	53185c84 	lsl	w4, w4, #8
  2039fc:	b9000164 	str	w4, [x11]
  203a00:	f9400d64 	ldr	x4, [x11, #24]
  203a04:	f9400967 	ldr	x7, [x11, #16]
  203a08:	91000489 	add	x9, x4, #0x1
  203a0c:	f9000d69 	str	x9, [x11, #24]
  203a10:	b9400565 	ldr	w5, [x11, #4]
  203a14:	386468e4 	ldrb	w4, [x7, x4]
  203a18:	0b052084 	add	w4, w4, w5, lsl #8
  203a1c:	b9000564 	str	w4, [x11, #4]
  203a20:	29401d69 	ldp	w9, w7, [x11]
  203a24:	531f7821 	lsl	w1, w1, #1
  203a28:	78626804 	ldrh	w4, [x0, x2]
  203a2c:	530b7d25 	lsr	w5, w9, #11
  203a30:	1b047ca5 	mul	w5, w5, w4
  203a34:	6b0700bf 	cmp	w5, w7
  203a38:	54000169 	b.ls	203a64 <lzma_main+0x2e4>  // b.plast
  203a3c:	b9000165 	str	w5, [x11]
  203a40:	4b0401e5 	sub	w5, w15, w4
  203a44:	0a3000c6 	bic	w6, w6, w16
  203a48:	0b851484 	add	w4, w4, w5, asr #5
  203a4c:	78226804 	strh	w4, [x0, x2]
  203a50:	7103fc3f 	cmp	w1, #0xff
  203a54:	54fffc29 	b.ls	2039d8 <lzma_main+0x258>  // b.plast
  203a58:	17ffffbe 	b	203950 <lzma_main+0x1d0>
  203a5c:	5280000a 	mov	w10, #0x0                   	// #0
  203a60:	17ffffdb 	b	2039cc <lzma_main+0x24c>
  203a64:	4b050129 	sub	w9, w9, w5
  203a68:	4b0500e5 	sub	w5, w7, w5
  203a6c:	29001569 	stp	w9, w5, [x11]
  203a70:	4b441484 	sub	w4, w4, w4, lsr #5
  203a74:	11000421 	add	w1, w1, #0x1
  203a78:	2a1003e6 	mov	w6, w16
  203a7c:	78226804 	strh	w4, [x0, x2]
  203a80:	17fffff4 	b	203a50 <lzma_main+0x2d0>
  203a84:	51001802 	sub	w2, w0, #0x6
  203a88:	51000c01 	sub	w1, w0, #0x3
  203a8c:	7100281f 	cmp	w0, #0xa
  203a90:	1a823020 	csel	w0, w1, w2, cc  // cc = lo, ul, last
  203a94:	b9008d60 	str	w0, [x11, #140]
  203a98:	17ffff4b 	b	2037c4 <lzma_main+0x44>
  203a9c:	4b080000 	sub	w0, w0, w8
  203aa0:	4b080021 	sub	w1, w1, w8
  203aa4:	29000560 	stp	w0, w1, [x11]
  203aa8:	4b4714e7 	sub	w7, w7, w7, lsr #5
  203aac:	790140c7 	strh	w7, [x6, #160]
  203ab0:	6b0d001f 	cmp	w0, w13
  203ab4:	54000148 	b.hi	203adc <lzma_main+0x35c>  // b.pmore
  203ab8:	53185c00 	lsl	w0, w0, #8
  203abc:	b9000160 	str	w0, [x11]
  203ac0:	f9400d60 	ldr	x0, [x11, #24]
  203ac4:	f9400963 	ldr	x3, [x11, #16]
  203ac8:	91000407 	add	x7, x0, #0x1
  203acc:	f9000d67 	str	x7, [x11, #24]
  203ad0:	38606860 	ldrb	w0, [x3, x0]
  203ad4:	0b012001 	add	w1, w0, w1, lsl #8
  203ad8:	b9000561 	str	w1, [x11, #4]
  203adc:	8b050565 	add	x5, x11, x5, lsl #1
  203ae0:	b9400160 	ldr	w0, [x11]
  203ae4:	794440a3 	ldrh	w3, [x5, #544]
  203ae8:	530b7c01 	lsr	w1, w0, #11
  203aec:	1b037c27 	mul	w7, w1, w3
  203af0:	b9400561 	ldr	w1, [x11, #4]
  203af4:	6b0100ff 	cmp	w7, w1
  203af8:	54001909 	b.ls	203e18 <lzma_main+0x698>  // b.plast
  203afc:	4b0301e0 	sub	w0, w15, w3
  203b00:	71001c9f 	cmp	w4, #0x7
  203b04:	b9000167 	str	w7, [x11]
  203b08:	52800141 	mov	w1, #0xa                   	// #10
  203b0c:	0b801463 	add	w3, w3, w0, asr #5
  203b10:	528000e0 	mov	w0, #0x7                   	// #7
  203b14:	1a813000 	csel	w0, w0, w1, cc  // cc = lo, ul, last
  203b18:	790440a3 	strh	w3, [x5, #544]
  203b1c:	b9008d60 	str	w0, [x11, #140]
  203b20:	911c1161 	add	x1, x11, #0x704
  203b24:	b9408560 	ldr	w0, [x11, #132]
  203b28:	b9008960 	str	w0, [x11, #136]
  203b2c:	b9408160 	ldr	w0, [x11, #128]
  203b30:	b9008560 	str	w0, [x11, #132]
  203b34:	b9407d60 	ldr	w0, [x11, #124]
  203b38:	b9008160 	str	w0, [x11, #128]
  203b3c:	aa0b03e0 	mov	x0, x11
  203b40:	97fffe9b 	bl	2035ac <lzma_len>
  203b44:	b9409160 	ldr	w0, [x11, #144]
  203b48:	528000a1 	mov	w1, #0x5                   	// #5
  203b4c:	7100141f 	cmp	w0, #0x5
  203b50:	1a819001 	csel	w1, w0, w1, ls  // ls = plast
  203b54:	52800020 	mov	w0, #0x1                   	// #1
  203b58:	51000821 	sub	w1, w1, #0x2
  203b5c:	91002021 	add	x1, x1, #0x8
  203b60:	d379e021 	lsl	x1, x1, #7
  203b64:	b9400162 	ldr	w2, [x11]
  203b68:	8b204426 	add	x6, x1, w0, uxtw #1
  203b6c:	6b0d005f 	cmp	w2, w13
  203b70:	54000168 	b.hi	203b9c <lzma_main+0x41c>  // b.pmore
  203b74:	53185c42 	lsl	w2, w2, #8
  203b78:	b9000162 	str	w2, [x11]
  203b7c:	f9400d62 	ldr	x2, [x11, #24]
  203b80:	f9400964 	ldr	x4, [x11, #16]
  203b84:	91000445 	add	x5, x2, #0x1
  203b88:	f9000d65 	str	x5, [x11, #24]
  203b8c:	b9400563 	ldr	w3, [x11, #4]
  203b90:	38626882 	ldrb	w2, [x4, x2]
  203b94:	0b032042 	add	w2, w2, w3, lsl #8
  203b98:	b9000562 	str	w2, [x11, #4]
  203b9c:	29401165 	ldp	w5, w4, [x11]
  203ba0:	531f7800 	lsl	w0, w0, #1
  203ba4:	78666962 	ldrh	w2, [x11, x6]
  203ba8:	530b7ca3 	lsr	w3, w5, #11
  203bac:	1b027c63 	mul	w3, w3, w2
  203bb0:	6b04007f 	cmp	w3, w4
  203bb4:	54000269 	b.ls	203c00 <lzma_main+0x480>  // b.plast
  203bb8:	b9000163 	str	w3, [x11]
  203bbc:	4b0201e3 	sub	w3, w15, w2
  203bc0:	0b831442 	add	w2, w2, w3, asr #5
  203bc4:	78266962 	strh	w2, [x11, x6]
  203bc8:	7100fc1f 	cmp	w0, #0x3f
  203bcc:	54fffcc9 	b.ls	203b64 <lzma_main+0x3e4>  // b.plast
  203bd0:	51010000 	sub	w0, w0, #0x40
  203bd4:	71000c1f 	cmp	w0, #0x3
  203bd8:	54000228 	b.hi	203c1c <lzma_main+0x49c>  // b.pmore
  203bdc:	b9007d60 	str	w0, [x11, #124]
  203be0:	b9407d62 	ldr	w2, [x11, #124]
  203be4:	91024161 	add	x1, x11, #0x90
  203be8:	aa0c03e0 	mov	x0, x12
  203bec:	97fffe45 	bl	203500 <dict_repeat>
  203bf0:	72001c00 	ands	w0, w0, #0xff
  203bf4:	54ffde81 	b.ne	2037c4 <lzma_main+0x44>  // b.any
  203bf8:	a8c17bfd 	ldp	x29, x30, [sp], #16
  203bfc:	d65f03c0 	ret
  203c00:	4b0300a5 	sub	w5, w5, w3
  203c04:	4b030083 	sub	w3, w4, w3
  203c08:	29000d65 	stp	w5, w3, [x11]
  203c0c:	4b421442 	sub	w2, w2, w2, lsr #5
  203c10:	11000400 	add	w0, w0, #0x1
  203c14:	78266962 	strh	w2, [x11, x6]
  203c18:	17ffffec 	b	203bc8 <lzma_main+0x448>
  203c1c:	12000001 	and	w1, w0, #0x1
  203c20:	53017c02 	lsr	w2, w0, #1
  203c24:	11000821 	add	w1, w1, #0x2
  203c28:	7100341f 	cmp	w0, #0xd
  203c2c:	54000648 	b.hi	203cf4 <lzma_main+0x574>  // b.pmore
  203c30:	51000446 	sub	w6, w2, #0x1
  203c34:	91180167 	add	x7, x11, #0x600
  203c38:	52800009 	mov	w9, #0x0                   	// #0
  203c3c:	52800028 	mov	w8, #0x1                   	// #1
  203c40:	1ac62021 	lsl	w1, w1, w6
  203c44:	b9007d61 	str	w1, [x11, #124]
  203c48:	cb204020 	sub	x0, x1, w0, uxtw
  203c4c:	d37ff800 	lsl	x0, x0, #1
  203c50:	d1000800 	sub	x0, x0, #0x2
  203c54:	b9400161 	ldr	w1, [x11]
  203c58:	8b284405 	add	x5, x0, w8, uxtw #1
  203c5c:	6b0d003f 	cmp	w1, w13
  203c60:	54000168 	b.hi	203c8c <lzma_main+0x50c>  // b.pmore
  203c64:	53185c21 	lsl	w1, w1, #8
  203c68:	b9000161 	str	w1, [x11]
  203c6c:	f9400d61 	ldr	x1, [x11, #24]
  203c70:	f9400962 	ldr	x2, [x11, #16]
  203c74:	91000424 	add	x4, x1, #0x1
  203c78:	f9000d64 	str	x4, [x11, #24]
  203c7c:	b9400563 	ldr	w3, [x11, #4]
  203c80:	38616841 	ldrb	w1, [x2, x1]
  203c84:	0b032021 	add	w1, w1, w3, lsl #8
  203c88:	b9000561 	str	w1, [x11, #4]
  203c8c:	29400d64 	ldp	w4, w3, [x11]
  203c90:	531f7908 	lsl	w8, w8, #1
  203c94:	786568e1 	ldrh	w1, [x7, x5]
  203c98:	530b7c82 	lsr	w2, w4, #11
  203c9c:	1b017c42 	mul	w2, w2, w1
  203ca0:	6b03005f 	cmp	w2, w3
  203ca4:	54000129 	b.ls	203cc8 <lzma_main+0x548>  // b.plast
  203ca8:	4b0101e3 	sub	w3, w15, w1
  203cac:	b9000162 	str	w2, [x11]
  203cb0:	0b831421 	add	w1, w1, w3, asr #5
  203cb4:	782568e1 	strh	w1, [x7, x5]
  203cb8:	11000529 	add	w9, w9, #0x1
  203cbc:	6b0900df 	cmp	w6, w9
  203cc0:	54fffca8 	b.hi	203c54 <lzma_main+0x4d4>  // b.pmore
  203cc4:	17ffffc7 	b	203be0 <lzma_main+0x460>
  203cc8:	b9407d6a 	ldr	w10, [x11, #124]
  203ccc:	4b020084 	sub	w4, w4, w2
  203cd0:	4b020063 	sub	w3, w3, w2
  203cd4:	29000d64 	stp	w4, w3, [x11]
  203cd8:	4b411421 	sub	w1, w1, w1, lsr #5
  203cdc:	782568e1 	strh	w1, [x7, x5]
  203ce0:	11000508 	add	w8, w8, #0x1
  203ce4:	1ac921c1 	lsl	w1, w14, w9
  203ce8:	0b0a0021 	add	w1, w1, w10
  203cec:	b9007d61 	str	w1, [x11, #124]
  203cf0:	17fffff2 	b	203cb8 <lzma_main+0x538>
  203cf4:	51001440 	sub	w0, w2, #0x5
  203cf8:	b9007d61 	str	w1, [x11, #124]
  203cfc:	b9400161 	ldr	w1, [x11]
  203d00:	6b0d003f 	cmp	w1, w13
  203d04:	54000168 	b.hi	203d30 <lzma_main+0x5b0>  // b.pmore
  203d08:	53185c21 	lsl	w1, w1, #8
  203d0c:	b9000161 	str	w1, [x11]
  203d10:	f9400d61 	ldr	x1, [x11, #24]
  203d14:	f9400963 	ldr	x3, [x11, #16]
  203d18:	91000424 	add	x4, x1, #0x1
  203d1c:	f9000d64 	str	x4, [x11, #24]
  203d20:	b9400562 	ldr	w2, [x11, #4]
  203d24:	38616861 	ldrb	w1, [x3, x1]
  203d28:	0b022021 	add	w1, w1, w2, lsl #8
  203d2c:	b9000561 	str	w1, [x11, #4]
  203d30:	29400562 	ldp	w2, w1, [x11]
  203d34:	71000400 	subs	w0, w0, #0x1
  203d38:	53017c42 	lsr	w2, w2, #1
  203d3c:	b9000162 	str	w2, [x11]
  203d40:	4b020021 	sub	w1, w1, w2
  203d44:	0a817c42 	and	w2, w2, w1, asr #31
  203d48:	0b010042 	add	w2, w2, w1
  203d4c:	b9000562 	str	w2, [x11, #4]
  203d50:	b9407d62 	ldr	w2, [x11, #124]
  203d54:	531f7842 	lsl	w2, w2, #1
  203d58:	11000442 	add	w2, w2, #0x1
  203d5c:	0b817c41 	add	w1, w2, w1, asr #31
  203d60:	b9007d61 	str	w1, [x11, #124]
  203d64:	54fffcc1 	b.ne	203cfc <lzma_main+0x57c>  // b.any
  203d68:	911b9166 	add	x6, x11, #0x6e4
  203d6c:	531c6c21 	lsl	w1, w1, #4
  203d70:	52800023 	mov	w3, #0x1                   	// #1
  203d74:	b9007d61 	str	w1, [x11, #124]
  203d78:	b9400161 	ldr	w1, [x11]
  203d7c:	d37f7c67 	ubfiz	x7, x3, #1, #32
  203d80:	6b0d003f 	cmp	w1, w13
  203d84:	54000168 	b.hi	203db0 <lzma_main+0x630>  // b.pmore
  203d88:	53185c21 	lsl	w1, w1, #8
  203d8c:	b9000161 	str	w1, [x11]
  203d90:	f9400d61 	ldr	x1, [x11, #24]
  203d94:	f9400964 	ldr	x4, [x11, #16]
  203d98:	91000425 	add	x5, x1, #0x1
  203d9c:	f9000d65 	str	x5, [x11, #24]
  203da0:	b9400562 	ldr	w2, [x11, #4]
  203da4:	38616881 	ldrb	w1, [x4, x1]
  203da8:	0b022021 	add	w1, w1, w2, lsl #8
  203dac:	b9000561 	str	w1, [x11, #4]
  203db0:	29401165 	ldp	w5, w4, [x11]
  203db4:	531f7863 	lsl	w3, w3, #1
  203db8:	786768c1 	ldrh	w1, [x6, x7]
  203dbc:	530b7ca2 	lsr	w2, w5, #11
  203dc0:	1b017c42 	mul	w2, w2, w1
  203dc4:	6b04005f 	cmp	w2, w4
  203dc8:	54000129 	b.ls	203dec <lzma_main+0x66c>  // b.plast
  203dcc:	b9000162 	str	w2, [x11]
  203dd0:	4b0101e2 	sub	w2, w15, w1
  203dd4:	0b821421 	add	w1, w1, w2, asr #5
  203dd8:	782768c1 	strh	w1, [x6, x7]
  203ddc:	11000400 	add	w0, w0, #0x1
  203de0:	7100101f 	cmp	w0, #0x4
  203de4:	54fffca1 	b.ne	203d78 <lzma_main+0x5f8>  // b.any
  203de8:	17ffff7e 	b	203be0 <lzma_main+0x460>
  203dec:	b9407d68 	ldr	w8, [x11, #124]
  203df0:	4b0200a5 	sub	w5, w5, w2
  203df4:	4b020082 	sub	w2, w4, w2
  203df8:	29000965 	stp	w5, w2, [x11]
  203dfc:	4b411421 	sub	w1, w1, w1, lsr #5
  203e00:	782768c1 	strh	w1, [x6, x7]
  203e04:	11000463 	add	w3, w3, #0x1
  203e08:	1ac021c1 	lsl	w1, w14, w0
  203e0c:	0b080021 	add	w1, w1, w8
  203e10:	b9007d61 	str	w1, [x11, #124]
  203e14:	17fffff2 	b	203ddc <lzma_main+0x65c>
  203e18:	4b070000 	sub	w0, w0, w7
  203e1c:	4b070021 	sub	w1, w1, w7
  203e20:	29000560 	stp	w0, w1, [x11]
  203e24:	4b431463 	sub	w3, w3, w3, lsr #5
  203e28:	790440a3 	strh	w3, [x5, #544]
  203e2c:	6b0d001f 	cmp	w0, w13
  203e30:	54000148 	b.hi	203e58 <lzma_main+0x6d8>  // b.pmore
  203e34:	53185c00 	lsl	w0, w0, #8
  203e38:	b9000160 	str	w0, [x11]
  203e3c:	f9400d60 	ldr	x0, [x11, #24]
  203e40:	f9400963 	ldr	x3, [x11, #16]
  203e44:	91000407 	add	x7, x0, #0x1
  203e48:	f9000d67 	str	x7, [x11, #24]
  203e4c:	38606860 	ldrb	w0, [x3, x0]
  203e50:	0b012001 	add	w1, w0, w1, lsl #8
  203e54:	b9000561 	str	w1, [x11, #4]
  203e58:	b9400163 	ldr	w3, [x11]
  203e5c:	794470a7 	ldrh	w7, [x5, #568]
  203e60:	530b7c60 	lsr	w0, w3, #11
  203e64:	1b077c01 	mul	w1, w0, w7
  203e68:	b9400560 	ldr	w0, [x11, #4]
  203e6c:	6b00003f 	cmp	w1, w0
  203e70:	540002e9 	b.ls	203ecc <lzma_main+0x74c>  // b.plast
  203e74:	4b0701e3 	sub	w3, w15, w7
  203e78:	b9000161 	str	w1, [x11]
  203e7c:	0b8314e7 	add	w7, w7, w3, asr #5
  203e80:	790470a7 	strh	w7, [x5, #568]
  203e84:	6b0d003f 	cmp	w1, w13
  203e88:	540004e9 	b.ls	203f24 <lzma_main+0x7a4>  // b.plast
  203e8c:	29400d65 	ldp	w5, w3, [x11]
  203e90:	794500c0 	ldrh	w0, [x6, #640]
  203e94:	530b7ca1 	lsr	w1, w5, #11
  203e98:	1b007c21 	mul	w1, w1, w0
  203e9c:	6b03003f 	cmp	w1, w3
  203ea0:	54000569 	b.ls	203f4c <lzma_main+0x7cc>  // b.plast
  203ea4:	b9000161 	str	w1, [x11]
  203ea8:	4b0001e1 	sub	w1, w15, w0
  203eac:	71001c9f 	cmp	w4, #0x7
  203eb0:	0b811400 	add	w0, w0, w1, asr #5
  203eb4:	790500c0 	strh	w0, [x6, #640]
  203eb8:	52800161 	mov	w1, #0xb                   	// #11
  203ebc:	52800120 	mov	w0, #0x9                   	// #9
  203ec0:	1a813000 	csel	w0, w0, w1, cc  // cc = lo, ul, last
  203ec4:	2911b960 	stp	w0, w14, [x11, #140]
  203ec8:	17ffff46 	b	203be0 <lzma_main+0x460>
  203ecc:	4b010063 	sub	w3, w3, w1
  203ed0:	4b010000 	sub	w0, w0, w1
  203ed4:	29000163 	stp	w3, w0, [x11]
  203ed8:	4b4714e7 	sub	w7, w7, w7, lsr #5
  203edc:	790470a7 	strh	w7, [x5, #568]
  203ee0:	6b0d007f 	cmp	w3, w13
  203ee4:	54000509 	b.ls	203f84 <lzma_main+0x804>  // b.plast
  203ee8:	b9400160 	ldr	w0, [x11]
  203eec:	7944a0a3 	ldrh	w3, [x5, #592]
  203ef0:	b9408167 	ldr	w7, [x11, #128]
  203ef4:	530b7c01 	lsr	w1, w0, #11
  203ef8:	1b037c26 	mul	w6, w1, w3
  203efc:	b9400561 	ldr	w1, [x11, #4]
  203f00:	6b0100df 	cmp	w6, w1
  203f04:	54000549 	b.ls	203fac <lzma_main+0x82c>  // b.plast
  203f08:	4b0301e0 	sub	w0, w15, w3
  203f0c:	b9000166 	str	w6, [x11]
  203f10:	0b801463 	add	w3, w3, w0, asr #5
  203f14:	7904a0a3 	strh	w3, [x5, #592]
  203f18:	b9407d60 	ldr	w0, [x11, #124]
  203f1c:	290f8167 	stp	w7, w0, [x11, #124]
  203f20:	14000010 	b	203f60 <lzma_main+0x7e0>
  203f24:	53185c21 	lsl	w1, w1, #8
  203f28:	b9000161 	str	w1, [x11]
  203f2c:	f9400d61 	ldr	x1, [x11, #24]
  203f30:	f9400963 	ldr	x3, [x11, #16]
  203f34:	91000425 	add	x5, x1, #0x1
  203f38:	f9000d65 	str	x5, [x11, #24]
  203f3c:	38616861 	ldrb	w1, [x3, x1]
  203f40:	0b002020 	add	w0, w1, w0, lsl #8
  203f44:	b9000560 	str	w0, [x11, #4]
  203f48:	17ffffd1 	b	203e8c <lzma_main+0x70c>
  203f4c:	4b0100a5 	sub	w5, w5, w1
  203f50:	4b010061 	sub	w1, w3, w1
  203f54:	29000565 	stp	w5, w1, [x11]
  203f58:	4b401400 	sub	w0, w0, w0, lsr #5
  203f5c:	790500c0 	strh	w0, [x6, #640]
  203f60:	71001c9f 	cmp	w4, #0x7
  203f64:	52800161 	mov	w1, #0xb                   	// #11
  203f68:	52800100 	mov	w0, #0x8                   	// #8
  203f6c:	1a813000 	csel	w0, w0, w1, cc  // cc = lo, ul, last
  203f70:	b9008d60 	str	w0, [x11, #140]
  203f74:	912c2161 	add	x1, x11, #0xb08
  203f78:	aa0b03e0 	mov	x0, x11
  203f7c:	97fffd8c 	bl	2035ac <lzma_len>
  203f80:	17ffff18 	b	203be0 <lzma_main+0x460>
  203f84:	53185c63 	lsl	w3, w3, #8
  203f88:	b9000163 	str	w3, [x11]
  203f8c:	f9400d61 	ldr	x1, [x11, #24]
  203f90:	f9400963 	ldr	x3, [x11, #16]
  203f94:	91000426 	add	x6, x1, #0x1
  203f98:	f9000d66 	str	x6, [x11, #24]
  203f9c:	38616861 	ldrb	w1, [x3, x1]
  203fa0:	0b002020 	add	w0, w1, w0, lsl #8
  203fa4:	b9000560 	str	w0, [x11, #4]
  203fa8:	17ffffd0 	b	203ee8 <lzma_main+0x768>
  203fac:	4b060000 	sub	w0, w0, w6
  203fb0:	4b060021 	sub	w1, w1, w6
  203fb4:	29000560 	stp	w0, w1, [x11]
  203fb8:	4b431463 	sub	w3, w3, w3, lsr #5
  203fbc:	7904a0a3 	strh	w3, [x5, #592]
  203fc0:	6b0d001f 	cmp	w0, w13
  203fc4:	54000148 	b.hi	203fec <lzma_main+0x86c>  // b.pmore
  203fc8:	53185c00 	lsl	w0, w0, #8
  203fcc:	b9000160 	str	w0, [x11]
  203fd0:	f9400d60 	ldr	x0, [x11, #24]
  203fd4:	f9400963 	ldr	x3, [x11, #16]
  203fd8:	91000406 	add	x6, x0, #0x1
  203fdc:	f9000d66 	str	x6, [x11, #24]
  203fe0:	38606860 	ldrb	w0, [x3, x0]
  203fe4:	0b012001 	add	w1, w0, w1, lsl #8
  203fe8:	b9000561 	str	w1, [x11, #4]
  203fec:	29400d66 	ldp	w6, w3, [x11]
  203ff0:	7944d0a0 	ldrh	w0, [x5, #616]
  203ff4:	b9408568 	ldr	w8, [x11, #132]
  203ff8:	530b7cc1 	lsr	w1, w6, #11
  203ffc:	1b007c21 	mul	w1, w1, w0
  204000:	6b03003f 	cmp	w1, w3
  204004:	54000109 	b.ls	204024 <lzma_main+0x8a4>  // b.plast
  204008:	b9000161 	str	w1, [x11]
  20400c:	4b0001e1 	sub	w1, w15, w0
  204010:	0b811400 	add	w0, w0, w1, asr #5
  204014:	7904d0a0 	strh	w0, [x5, #616]
  204018:	b9008567 	str	w7, [x11, #132]
  20401c:	2a0803e7 	mov	w7, w8
  204020:	17ffffbe 	b	203f18 <lzma_main+0x798>
  204024:	4b0100c6 	sub	w6, w6, w1
  204028:	4b401400 	sub	w0, w0, w0, lsr #5
  20402c:	4b010061 	sub	w1, w3, w1
  204030:	29000566 	stp	w6, w1, [x11]
  204034:	7904d0a0 	strh	w0, [x5, #616]
  204038:	b9408960 	ldr	w0, [x11, #136]
  20403c:	b9008968 	str	w8, [x11, #136]
  204040:	2a0003e8 	mov	w8, w0
  204044:	17fffff5 	b	204018 <lzma_main+0x898>

0000000000204048 <xz_dec_lzma2_run>:
  204048:	a9ba7bfd 	stp	x29, x30, [sp, #-96]!
  20404c:	d28de203 	mov	x3, #0x6f10                	// #28432
  204050:	910003fd 	mov	x29, sp
  204054:	a90153f3 	stp	x19, x20, [sp, #16]
  204058:	aa0003f3 	mov	x19, x0
  20405c:	aa0103f4 	mov	x20, x1
  204060:	a9025bf5 	stp	x21, x22, [sp, #32]
  204064:	90000056 	adrp	x22, 20c000 <vprintf+0x2b8>
  204068:	8b030015 	add	x21, x0, x3
  20406c:	911042d6 	add	x22, x22, #0x410
  204070:	a90363f7 	stp	x23, x24, [sp, #48]
  204074:	d2800077 	mov	x23, #0x3                   	// #3
  204078:	f2c00117 	movk	x23, #0x8, lsl #32
  20407c:	a9046bf9 	stp	x25, x26, [sp, #64]
  204080:	f9002bfb 	str	x27, [sp, #80]
  204084:	a9408a80 	ldp	x0, x2, [x20, #8]
  204088:	b9406a61 	ldr	w1, [x19, #104]
  20408c:	eb02001f 	cmp	x0, x2
  204090:	54000bc3 	b.cc	204208 <xz_dec_lzma2_run+0x1c0>  // b.lo, b.ul, b.last
  204094:	71001c3f 	cmp	w1, #0x7
  204098:	540026a1 	b.ne	20456c <xz_dec_lzma2_run+0x524>  // b.any
  20409c:	a9420281 	ldp	x1, x0, [x20, #32]
  2040a0:	9100a279 	add	x25, x19, #0x28
  2040a4:	f9400b23 	ldr	x3, [x25, #16]
  2040a8:	cb010000 	sub	x0, x0, x1
  2040ac:	b9407261 	ldr	w1, [x19, #112]
  2040b0:	eb01001f 	cmp	x0, x1
  2040b4:	9a819000 	csel	x0, x0, x1, ls  // ls = plast
  2040b8:	f9401721 	ldr	x1, [x25, #40]
  2040bc:	cb030024 	sub	x4, x1, x3
  2040c0:	eb04001f 	cmp	x0, x4
  2040c4:	54000042 	b.cs	2040cc <xz_dec_lzma2_run+0x84>  // b.hs, b.nlast
  2040c8:	8b030001 	add	x1, x0, x3
  2040cc:	91401278 	add	x24, x19, #0x4, lsl #12
  2040d0:	b96f0f00 	ldr	w0, [x24, #12044]
  2040d4:	f9001321 	str	x1, [x25, #32]
  2040d8:	f9400681 	ldr	x1, [x20, #8]
  2040dc:	cb010044 	sub	x4, x2, x1
  2040e0:	b9407662 	ldr	w2, [x19, #116]
  2040e4:	35000040 	cbnz	w0, 2040ec <xz_dec_lzma2_run+0xa4>
  2040e8:	35002762 	cbnz	w2, 2045d4 <xz_dec_lzma2_run+0x58c>
  2040ec:	4b000042 	sub	w2, w2, w0
  2040f0:	52800543 	mov	w3, #0x2a                  	// #42
  2040f4:	4b000063 	sub	w3, w3, w0
  2040f8:	8b2042a0 	add	x0, x21, w0, uxtw
  2040fc:	6b03005f 	cmp	w2, w3
  204100:	1a83905a 	csel	w26, w2, w3, ls  // ls = plast
  204104:	1a839042 	csel	w2, w2, w3, ls  // ls = plast
  204108:	f9400283 	ldr	x3, [x20]
  20410c:	eb02009f 	cmp	x4, x2
  204110:	1a84235a 	csel	w26, w26, w4, cs  // cs = hs, nlast
  204114:	2a1a03fb 	mov	w27, w26
  204118:	8b010061 	add	x1, x3, x1
  20411c:	aa1b03e2 	mov	x2, x27
  204120:	94001ea3 	bl	20bbac <memcpy>
  204124:	b96f0f00 	ldr	w0, [x24, #12044]
  204128:	b9407662 	ldr	w2, [x19, #116]
  20412c:	0b000341 	add	w1, w26, w0
  204130:	6b02003f 	cmp	w1, w2
  204134:	54002321 	b.ne	204598 <xz_dec_lzma2_run+0x550>  // b.any
  204138:	8b204360 	add	x0, x27, w0, uxtw
  20413c:	d28007e2 	mov	x2, #0x3f                  	// #63
  204140:	52800001 	mov	w1, #0x0                   	// #0
  204144:	cb000042 	sub	x2, x2, x0
  204148:	8b0002a0 	add	x0, x21, x0
  20414c:	94001ead 	bl	20bc00 <memset>
  204150:	b96f0f00 	ldr	w0, [x24, #12044]
  204154:	0b000340 	add	w0, w26, w0
  204158:	f9001260 	str	x0, [x19, #32]
  20415c:	a9017e75 	stp	x21, xzr, [x19, #16]
  204160:	aa1303e0 	mov	x0, x19
  204164:	97fffd87 	bl	203780 <lzma_main>
  204168:	72001c1f 	tst	w0, #0xff
  20416c:	54000f60 	b.eq	204358 <xz_dec_lzma2_run+0x310>  // b.none
  204170:	b96f0f02 	ldr	w2, [x24, #12044]
  204174:	f9400e61 	ldr	x1, [x19, #24]
  204178:	0b02035a 	add	w26, w26, w2
  20417c:	eb1a003f 	cmp	x1, x26
  204180:	54000ec8 	b.hi	204358 <xz_dec_lzma2_run+0x310>  // b.pmore
  204184:	b9407660 	ldr	w0, [x19, #116]
  204188:	4b010000 	sub	w0, w0, w1
  20418c:	b9007660 	str	w0, [x19, #116]
  204190:	2a0203e0 	mov	w0, w2
  204194:	eb22403f 	cmp	x1, w2, uxtw
  204198:	54002142 	b.cs	2045c0 <xz_dec_lzma2_run+0x578>  // b.hs, b.nlast
  20419c:	4b010042 	sub	w2, w2, w1
  2041a0:	b92f0f02 	str	w2, [x24, #12044]
  2041a4:	8b0102a1 	add	x1, x21, x1
  2041a8:	aa1503e0 	mov	x0, x21
  2041ac:	94001e88 	bl	20bbcc <memmove>
  2041b0:	a9408321 	ldp	x1, x0, [x25, #8]
  2041b4:	cb010002 	sub	x2, x0, x1
  2041b8:	b9407261 	ldr	w1, [x19, #112]
  2041bc:	f9000720 	str	x0, [x25, #8]
  2041c0:	f9401280 	ldr	x0, [x20, #32]
  2041c4:	4b020021 	sub	w1, w1, w2
  2041c8:	8b000040 	add	x0, x2, x0
  2041cc:	f9001280 	str	x0, [x20, #32]
  2041d0:	b9007261 	str	w1, [x19, #112]
  2041d4:	35002541 	cbnz	w1, 20467c <xz_dec_lzma2_run+0x634>
  2041d8:	b9407660 	ldr	w0, [x19, #116]
  2041dc:	35000be0 	cbnz	w0, 204358 <xz_dec_lzma2_run+0x310>
  2041e0:	b9409260 	ldr	w0, [x19, #144]
  2041e4:	35000ba0 	cbnz	w0, 204358 <xz_dec_lzma2_run+0x310>
  2041e8:	b9400660 	ldr	w0, [x19, #4]
  2041ec:	35000b60 	cbnz	w0, 204358 <xz_dec_lzma2_run+0x310>
  2041f0:	b2407fe0 	mov	x0, #0xffffffff            	// #4294967295
  2041f4:	f9000260 	str	x0, [x19]
  2041f8:	528000a0 	mov	w0, #0x5                   	// #5
  2041fc:	b9000a60 	str	w0, [x19, #8]
  204200:	b9006a7f 	str	wzr, [x19, #104]
  204204:	17ffffa0 	b	204084 <xz_dec_lzma2_run+0x3c>
  204208:	7100203f 	cmp	w1, #0x8
  20420c:	54fff408 	b.hi	20408c <xz_dec_lzma2_run+0x44>  // b.pmore
  204210:	78615ac1 	ldrh	w1, [x22, w1, uxtw #1]
  204214:	10000063 	adr	x3, 204220 <xz_dec_lzma2_run+0x1d8>
  204218:	8b21a861 	add	x1, x3, w1, sxth #2
  20421c:	d61f0020 	br	x1
  204220:	9100a279 	add	x25, x19, #0x28
  204224:	b9407664 	ldr	w4, [x19, #116]
  204228:	a9409681 	ldp	x1, x5, [x20, #8]
  20422c:	34fffea4 	cbz	w4, 204200 <xz_dec_lzma2_run+0x1b8>
  204230:	eb05003f 	cmp	x1, x5
  204234:	540019c2 	b.cs	20456c <xz_dec_lzma2_run+0x524>  // b.hs, b.nlast
  204238:	a9420e82 	ldp	x2, x3, [x20, #32]
  20423c:	eb02007f 	cmp	x3, x2
  204240:	54001969 	b.ls	20456c <xz_dec_lzma2_run+0x524>  // b.plast
  204244:	f9400b20 	ldr	x0, [x25, #16]
  204248:	cb0100a5 	sub	x5, x5, x1
  20424c:	f9401738 	ldr	x24, [x25, #40]
  204250:	2a0403e6 	mov	w6, w4
  204254:	cb020063 	sub	x3, x3, x2
  204258:	cb000318 	sub	x24, x24, x0
  20425c:	eb24431f 	cmp	x24, w4, uxtw
  204260:	9a869318 	csel	x24, x24, x6, ls  // ls = plast
  204264:	eb05007f 	cmp	x3, x5
  204268:	9a859063 	csel	x3, x3, x5, ls  // ls = plast
  20426c:	eb03031f 	cmp	x24, x3
  204270:	9a839318 	csel	x24, x24, x3, ls  // ls = plast
  204274:	4b180084 	sub	w4, w4, w24
  204278:	aa1803e2 	mov	x2, x24
  20427c:	f9400323 	ldr	x3, [x25]
  204280:	b9007664 	str	w4, [x19, #116]
  204284:	f9400284 	ldr	x4, [x20]
  204288:	8b000060 	add	x0, x3, x0
  20428c:	8b010081 	add	x1, x4, x1
  204290:	94001e4f 	bl	20bbcc <memmove>
  204294:	a9410720 	ldp	x0, x1, [x25, #16]
  204298:	8b000300 	add	x0, x24, x0
  20429c:	f9000b20 	str	x0, [x25, #16]
  2042a0:	eb01001f 	cmp	x0, x1
  2042a4:	54000049 	b.ls	2042ac <xz_dec_lzma2_run+0x264>  // b.plast
  2042a8:	f9000f20 	str	x0, [x25, #24]
  2042ac:	f9000720 	str	x0, [x25, #8]
  2042b0:	f9401280 	ldr	x0, [x20, #32]
  2042b4:	8b180000 	add	x0, x0, x24
  2042b8:	f9001280 	str	x0, [x20, #32]
  2042bc:	f9400680 	ldr	x0, [x20, #8]
  2042c0:	8b180000 	add	x0, x0, x24
  2042c4:	f9000680 	str	x0, [x20, #8]
  2042c8:	17ffffd7 	b	204224 <xz_dec_lzma2_run+0x1dc>
  2042cc:	f9400281 	ldr	x1, [x20]
  2042d0:	91000402 	add	x2, x0, #0x1
  2042d4:	f9000682 	str	x2, [x20, #8]
  2042d8:	38606820 	ldrb	w0, [x1, x0]
  2042dc:	34001e60 	cbz	w0, 2046a8 <xz_dec_lzma2_run+0x660>
  2042e0:	71037c1f 	cmp	w0, #0xdf
  2042e4:	7a419804 	ccmp	w0, #0x1, #0x4, ls  // ls = plast
  2042e8:	54000341 	b.ne	204350 <xz_dec_lzma2_run+0x308>  // b.any
  2042ec:	52802001 	mov	w1, #0x100                 	// #256
  2042f0:	7900f261 	strh	w1, [x19, #120]
  2042f4:	9100a261 	add	x1, x19, #0x28
  2042f8:	b9403c22 	ldr	w2, [x1, #60]
  2042fc:	350000e2 	cbnz	w2, 204318 <xz_dec_lzma2_run+0x2d0>
  204300:	a9419283 	ldp	x3, x4, [x20, #24]
  204304:	f9401682 	ldr	x2, [x20, #40]
  204308:	8b040063 	add	x3, x3, x4
  20430c:	f9001663 	str	x3, [x19, #40]
  204310:	cb040042 	sub	x2, x2, x4
  204314:	f9001422 	str	x2, [x1, #40]
  204318:	a900fc3f 	stp	xzr, xzr, [x1, #8]
  20431c:	a901fc3f 	stp	xzr, xzr, [x1, #24]
  204320:	7101fc1f 	cmp	w0, #0x7f
  204324:	54000529 	b.ls	2043c8 <xz_dec_lzma2_run+0x380>  // b.plast
  204328:	53101001 	ubfiz	w1, w0, #16, #5
  20432c:	b9007261 	str	w1, [x19, #112]
  204330:	52800021 	mov	w1, #0x1                   	// #1
  204334:	b9006a61 	str	w1, [x19, #104]
  204338:	7102fc1f 	cmp	w0, #0xbf
  20433c:	540001e9 	b.ls	204378 <xz_dec_lzma2_run+0x330>  // b.plast
  204340:	528000a0 	mov	w0, #0x5                   	// #5
  204344:	b9006e60 	str	w0, [x19, #108]
  204348:	3901e67f 	strb	wzr, [x19, #121]
  20434c:	17ffff4e 	b	204084 <xz_dec_lzma2_run+0x3c>
  204350:	3941e261 	ldrb	w1, [x19, #120]
  204354:	34fffe61 	cbz	w1, 204320 <xz_dec_lzma2_run+0x2d8>
  204358:	528000e0 	mov	w0, #0x7                   	// #7
  20435c:	a94153f3 	ldp	x19, x20, [sp, #16]
  204360:	a9425bf5 	ldp	x21, x22, [sp, #32]
  204364:	a94363f7 	ldp	x23, x24, [sp, #48]
  204368:	a9446bf9 	ldp	x25, x26, [sp, #64]
  20436c:	f9402bfb 	ldr	x27, [sp, #80]
  204370:	a8c67bfd 	ldp	x29, x30, [sp], #96
  204374:	d65f03c0 	ret
  204378:	3941e661 	ldrb	w1, [x19, #121]
  20437c:	35fffee1 	cbnz	w1, 204358 <xz_dec_lzma2_run+0x310>
  204380:	528000c1 	mov	w1, #0x6                   	// #6
  204384:	b9006e61 	str	w1, [x19, #108]
  204388:	71027c1f 	cmp	w0, #0x9f
  20438c:	54ffe7c9 	b.ls	204084 <xz_dec_lzma2_run+0x3c>  // b.plast
  204390:	d28de182 	mov	x2, #0x6f0c                	// #28428
  204394:	91028260 	add	x0, x19, #0xa0
  204398:	8b020261 	add	x1, x19, x2
  20439c:	52808002 	mov	w2, #0x400                 	// #1024
  2043a0:	b9007e7f 	str	wzr, [x19, #124]
  2043a4:	a9087e7f 	stp	xzr, xzr, [x19, #128]
  2043a8:	78002402 	strh	w2, [x0], #2
  2043ac:	eb00003f 	cmp	x1, x0
  2043b0:	54ffffc1 	b.ne	2043a8 <xz_dec_lzma2_run+0x360>  // b.any
  2043b4:	b2407fe0 	mov	x0, #0xffffffff            	// #4294967295
  2043b8:	f9000260 	str	x0, [x19]
  2043bc:	528000a0 	mov	w0, #0x5                   	// #5
  2043c0:	b9000a60 	str	w0, [x19, #8]
  2043c4:	17ffff30 	b	204084 <xz_dec_lzma2_run+0x3c>
  2043c8:	7100081f 	cmp	w0, #0x2
  2043cc:	54fffc68 	b.hi	204358 <xz_dec_lzma2_run+0x310>  // b.pmore
  2043d0:	f9003677 	str	x23, [x19, #104]
  2043d4:	17ffff2c 	b	204084 <xz_dec_lzma2_run+0x3c>
  2043d8:	f9400281 	ldr	x1, [x20]
  2043dc:	91000402 	add	x2, x0, #0x1
  2043e0:	f9000682 	str	x2, [x20, #8]
  2043e4:	38606820 	ldrb	w0, [x1, x0]
  2043e8:	b9407261 	ldr	w1, [x19, #112]
  2043ec:	0b002020 	add	w0, w1, w0, lsl #8
  2043f0:	b9007260 	str	w0, [x19, #112]
  2043f4:	52800040 	mov	w0, #0x2                   	// #2
  2043f8:	b9006a60 	str	w0, [x19, #104]
  2043fc:	17ffff22 	b	204084 <xz_dec_lzma2_run+0x3c>
  204400:	f9400281 	ldr	x1, [x20]
  204404:	91000402 	add	x2, x0, #0x1
  204408:	f9000682 	str	x2, [x20, #8]
  20440c:	38606820 	ldrb	w0, [x1, x0]
  204410:	b9407261 	ldr	w1, [x19, #112]
  204414:	11000421 	add	w1, w1, #0x1
  204418:	0b010000 	add	w0, w0, w1
  20441c:	b9007260 	str	w0, [x19, #112]
  204420:	52800060 	mov	w0, #0x3                   	// #3
  204424:	17fffff5 	b	2043f8 <xz_dec_lzma2_run+0x3b0>
  204428:	f9400281 	ldr	x1, [x20]
  20442c:	91000402 	add	x2, x0, #0x1
  204430:	f9000682 	str	x2, [x20, #8]
  204434:	38606820 	ldrb	w0, [x1, x0]
  204438:	53185c00 	lsl	w0, w0, #8
  20443c:	b9007660 	str	w0, [x19, #116]
  204440:	52800080 	mov	w0, #0x4                   	// #4
  204444:	17ffffed 	b	2043f8 <xz_dec_lzma2_run+0x3b0>
  204448:	f9400281 	ldr	x1, [x20]
  20444c:	91000402 	add	x2, x0, #0x1
  204450:	f9000682 	str	x2, [x20, #8]
  204454:	38606820 	ldrb	w0, [x1, x0]
  204458:	b9407661 	ldr	w1, [x19, #116]
  20445c:	11000421 	add	w1, w1, #0x1
  204460:	0b010000 	add	w0, w0, w1
  204464:	b9007660 	str	w0, [x19, #116]
  204468:	b9406e60 	ldr	w0, [x19, #108]
  20446c:	17ffffe3 	b	2043f8 <xz_dec_lzma2_run+0x3b0>
  204470:	f9400281 	ldr	x1, [x20]
  204474:	91000403 	add	x3, x0, #0x1
  204478:	f9000683 	str	x3, [x20, #8]
  20447c:	38606820 	ldrb	w0, [x1, x0]
  204480:	7103801f 	cmp	w0, #0xe0
  204484:	54fff6a8 	b.hi	204358 <xz_dec_lzma2_run+0x310>  // b.pmore
  204488:	b9009e7f 	str	wzr, [x19, #156]
  20448c:	b9409e63 	ldr	w3, [x19, #156]
  204490:	7100b01f 	cmp	w0, #0x2c
  204494:	54000548 	b.hi	20453c <xz_dec_lzma2_run+0x4f4>  // b.pmore
  204498:	52800021 	mov	w1, #0x1                   	// #1
  20449c:	1ac32021 	lsl	w1, w1, w3
  2044a0:	51000421 	sub	w1, w1, #0x1
  2044a4:	2913067f 	stp	wzr, w1, [x19, #152]
  2044a8:	b9409a61 	ldr	w1, [x19, #152]
  2044ac:	7100201f 	cmp	w0, #0x8
  2044b0:	54000508 	b.hi	204550 <xz_dec_lzma2_run+0x508>  // b.pmore
  2044b4:	b9009660 	str	w0, [x19, #148]
  2044b8:	0b010000 	add	w0, w0, w1
  2044bc:	7100101f 	cmp	w0, #0x4
  2044c0:	54fff4c8 	b.hi	204358 <xz_dec_lzma2_run+0x310>  // b.pmore
  2044c4:	52800020 	mov	w0, #0x1                   	// #1
  2044c8:	52808003 	mov	w3, #0x400                 	// #1024
  2044cc:	1ac12000 	lsl	w0, w0, w1
  2044d0:	51000400 	sub	w0, w0, #0x1
  2044d4:	d28de181 	mov	x1, #0x6f0c                	// #28428
  2044d8:	8b010261 	add	x1, x19, x1
  2044dc:	b9009a60 	str	w0, [x19, #152]
  2044e0:	91028260 	add	x0, x19, #0xa0
  2044e4:	b9007e7f 	str	wzr, [x19, #124]
  2044e8:	a9087e7f 	stp	xzr, xzr, [x19, #128]
  2044ec:	78002403 	strh	w3, [x0], #2
  2044f0:	eb00003f 	cmp	x1, x0
  2044f4:	54ffffc1 	b.ne	2044ec <xz_dec_lzma2_run+0x4a4>  // b.any
  2044f8:	b2407fe0 	mov	x0, #0xffffffff            	// #4294967295
  2044fc:	f9000260 	str	x0, [x19]
  204500:	528000a0 	mov	w0, #0x5                   	// #5
  204504:	b9000a60 	str	w0, [x19, #8]
  204508:	528000c0 	mov	w0, #0x6                   	// #6
  20450c:	b9006a60 	str	w0, [x19, #104]
  204510:	b9407660 	ldr	w0, [x19, #116]
  204514:	7100101f 	cmp	w0, #0x4
  204518:	54fff209 	b.ls	204358 <xz_dec_lzma2_run+0x310>  // b.plast
  20451c:	b9400a61 	ldr	w1, [x19, #8]
  204520:	f9400683 	ldr	x3, [x20, #8]
  204524:	35000201 	cbnz	w1, 204564 <xz_dec_lzma2_run+0x51c>
  204528:	51001400 	sub	w0, w0, #0x5
  20452c:	b9007660 	str	w0, [x19, #116]
  204530:	528000e0 	mov	w0, #0x7                   	// #7
  204534:	b9006a60 	str	w0, [x19, #104]
  204538:	17fffed9 	b	20409c <xz_dec_lzma2_run+0x54>
  20453c:	5100b400 	sub	w0, w0, #0x2d
  204540:	11000461 	add	w1, w3, #0x1
  204544:	12001c00 	and	w0, w0, #0xff
  204548:	b9009e61 	str	w1, [x19, #156]
  20454c:	17ffffd0 	b	20448c <xz_dec_lzma2_run+0x444>
  204550:	51002400 	sub	w0, w0, #0x9
  204554:	11000421 	add	w1, w1, #0x1
  204558:	12001c00 	and	w0, w0, #0xff
  20455c:	b9009a61 	str	w1, [x19, #152]
  204560:	17ffffd2 	b	2044a8 <xz_dec_lzma2_run+0x460>
  204564:	eb03005f 	cmp	x2, x3
  204568:	54000061 	b.ne	204574 <xz_dec_lzma2_run+0x52c>  // b.any
  20456c:	52800000 	mov	w0, #0x0                   	// #0
  204570:	17ffff7b 	b	20435c <xz_dec_lzma2_run+0x314>
  204574:	f9400285 	ldr	x5, [x20]
  204578:	91000466 	add	x6, x3, #0x1
  20457c:	b9400664 	ldr	w4, [x19, #4]
  204580:	51000421 	sub	w1, w1, #0x1
  204584:	f9000686 	str	x6, [x20, #8]
  204588:	386368a3 	ldrb	w3, [x5, x3]
  20458c:	0b042063 	add	w3, w3, w4, lsl #8
  204590:	29008663 	stp	w3, w1, [x19, #4]
  204594:	17ffffe2 	b	20451c <xz_dec_lzma2_run+0x4d4>
  204598:	7100503f 	cmp	w1, #0x14
  20459c:	540000c8 	b.hi	2045b4 <xz_dec_lzma2_run+0x56c>  // b.pmore
  2045a0:	f9400680 	ldr	x0, [x20, #8]
  2045a4:	b92f0f01 	str	w1, [x24, #12044]
  2045a8:	8b1b0000 	add	x0, x0, x27
  2045ac:	f9000680 	str	x0, [x20, #8]
  2045b0:	17ffff00 	b	2041b0 <xz_dec_lzma2_run+0x168>
  2045b4:	51005421 	sub	w1, w1, #0x15
  2045b8:	f9001261 	str	x1, [x19, #32]
  2045bc:	17fffee8 	b	20415c <xz_dec_lzma2_run+0x114>
  2045c0:	f9400682 	ldr	x2, [x20, #8]
  2045c4:	8b020021 	add	x1, x1, x2
  2045c8:	cb000021 	sub	x1, x1, x0
  2045cc:	f9000681 	str	x1, [x20, #8]
  2045d0:	b92f0f1f 	str	wzr, [x24, #12044]
  2045d4:	a9408282 	ldp	x2, x0, [x20, #8]
  2045d8:	cb020003 	sub	x3, x0, x2
  2045dc:	f100507f 	cmp	x3, #0x14
  2045e0:	540002e9 	b.ls	20463c <xz_dec_lzma2_run+0x5f4>  // b.plast
  2045e4:	f9400281 	ldr	x1, [x20]
  2045e8:	a9010a61 	stp	x1, x2, [x19, #16]
  2045ec:	b9407661 	ldr	w1, [x19, #116]
  2045f0:	d1005400 	sub	x0, x0, #0x15
  2045f4:	11005424 	add	w4, w1, #0x15
  2045f8:	eb04007f 	cmp	x3, x4
  2045fc:	8b214041 	add	x1, x2, w1, uxtw
  204600:	9a813000 	csel	x0, x0, x1, cc  // cc = lo, ul, last
  204604:	f9001260 	str	x0, [x19, #32]
  204608:	aa1303e0 	mov	x0, x19
  20460c:	97fffc5d 	bl	203780 <lzma_main>
  204610:	72001c1f 	tst	w0, #0xff
  204614:	54ffea20 	b.eq	204358 <xz_dec_lzma2_run+0x310>  // b.none
  204618:	f9400680 	ldr	x0, [x20, #8]
  20461c:	f9400e62 	ldr	x2, [x19, #24]
  204620:	cb000041 	sub	x1, x2, x0
  204624:	b9407660 	ldr	w0, [x19, #116]
  204628:	eb20403f 	cmp	x1, w0, uxtw
  20462c:	54ffe968 	b.hi	204358 <xz_dec_lzma2_run+0x310>  // b.pmore
  204630:	4b010000 	sub	w0, w0, w1
  204634:	b9007660 	str	w0, [x19, #116]
  204638:	f9000682 	str	x2, [x20, #8]
  20463c:	a9408a80 	ldp	x0, x2, [x20, #8]
  204640:	cb000042 	sub	x2, x2, x0
  204644:	f100505f 	cmp	x2, #0x14
  204648:	54ffdb48 	b.hi	2041b0 <xz_dec_lzma2_run+0x168>  // b.pmore
  20464c:	b940767a 	ldr	w26, [x19, #116]
  204650:	f9400281 	ldr	x1, [x20]
  204654:	eb02035f 	cmp	x26, x2
  204658:	9a82935a 	csel	x26, x26, x2, ls  // ls = plast
  20465c:	8b000021 	add	x1, x1, x0
  204660:	aa1a03e2 	mov	x2, x26
  204664:	aa1503e0 	mov	x0, x21
  204668:	94001d51 	bl	20bbac <memcpy>
  20466c:	f9400680 	ldr	x0, [x20, #8]
  204670:	b92f0f1a 	str	w26, [x24, #12044]
  204674:	8b1a0000 	add	x0, x0, x26
  204678:	17ffffcd 	b	2045ac <xz_dec_lzma2_run+0x564>
  20467c:	f9401681 	ldr	x1, [x20, #40]
  204680:	eb00003f 	cmp	x1, x0
  204684:	54fff740 	b.eq	20456c <xz_dec_lzma2_run+0x524>  // b.none
  204688:	a9408281 	ldp	x1, x0, [x20, #8]
  20468c:	eb00003f 	cmp	x1, x0
  204690:	54ffcfa1 	b.ne	204084 <xz_dec_lzma2_run+0x3c>  // b.any
  204694:	b9407660 	ldr	w0, [x19, #116]
  204698:	b96f0f01 	ldr	w1, [x24, #12044]
  20469c:	6b00003f 	cmp	w1, w0
  2046a0:	54ffcf22 	b.cs	204084 <xz_dec_lzma2_run+0x3c>  // b.hs, b.nlast
  2046a4:	17ffffb2 	b	20456c <xz_dec_lzma2_run+0x524>
  2046a8:	52800020 	mov	w0, #0x1                   	// #1
  2046ac:	17ffff2c 	b	20435c <xz_dec_lzma2_run+0x314>

00000000002046b0 <xz_dec_lzma2_create>:
  2046b0:	a9be7bfd 	stp	x29, x30, [sp, #-32]!
  2046b4:	910003fd 	mov	x29, sp
  2046b8:	a90153f3 	stp	x19, x20, [sp, #16]
  2046bc:	2a0003f4 	mov	w20, w0
  2046c0:	2a0103f3 	mov	w19, w1
  2046c4:	d28dea00 	mov	x0, #0x6f50                	// #28496
  2046c8:	97fffb05 	bl	2032dc <xz_malloc>
  2046cc:	b4000060 	cbz	x0, 2046d8 <xz_dec_lzma2_create+0x28>
  2046d0:	b9005c13 	str	w19, [x0, #92]
  2046d4:	b9006414 	str	w20, [x0, #100]
  2046d8:	a94153f3 	ldp	x19, x20, [sp, #16]
  2046dc:	a8c27bfd 	ldp	x29, x30, [sp], #32
  2046e0:	d65f03c0 	ret

00000000002046e4 <xz_dec_lzma2_reset>:
  2046e4:	12001c21 	and	w1, w1, #0xff
  2046e8:	71009c3f 	cmp	w1, #0x27
  2046ec:	540001e8 	b.hi	204728 <xz_dec_lzma2_reset+0x44>  // b.pmore
  2046f0:	12000022 	and	w2, w1, #0x1
  2046f4:	53017c21 	lsr	w1, w1, #1
  2046f8:	11000842 	add	w2, w2, #0x2
  2046fc:	11002c21 	add	w1, w1, #0xb
  204700:	b900681f 	str	wzr, [x0, #104]
  204704:	1ac12041 	lsl	w1, w2, w1
  204708:	b9005801 	str	w1, [x0, #88]
  20470c:	52800021 	mov	w1, #0x1                   	// #1
  204710:	3901e001 	strb	w1, [x0, #120]
  204714:	b900901f 	str	wzr, [x0, #144]
  204718:	91401000 	add	x0, x0, #0x4, lsl #12
  20471c:	b92f0c1f 	str	wzr, [x0, #12044]
  204720:	52800000 	mov	w0, #0x0                   	// #0
  204724:	d65f03c0 	ret
  204728:	528000c0 	mov	w0, #0x6                   	// #6
  20472c:	17fffffe 	b	204724 <xz_dec_lzma2_reset+0x40>

0000000000204730 <xz_dec_lzma2_end>:
  204730:	d65f03c0 	ret

0000000000204734 <get_unaligned_le32>:
  204734:	39400401 	ldrb	w1, [x0, #1]
  204738:	39400002 	ldrb	w2, [x0]
  20473c:	aa012042 	orr	x2, x2, x1, lsl #8
  204740:	39400801 	ldrb	w1, [x0, #2]
  204744:	39400c00 	ldrb	w0, [x0, #3]
  204748:	aa014041 	orr	x1, x2, x1, lsl #16
  20474c:	2a006020 	orr	w0, w1, w0, lsl #24
  204750:	d65f03c0 	ret

0000000000204754 <dec_vli>:
  204754:	b9400404 	ldr	w4, [x0, #4]
  204758:	35000044 	cbnz	w4, 204760 <dec_vli+0xc>
  20475c:	f900041f 	str	xzr, [x0, #8]
  204760:	f9400044 	ldr	x4, [x2]
  204764:	eb03009f 	cmp	x4, x3
  204768:	54000063 	b.cc	204774 <dec_vli+0x20>  // b.lo, b.ul, b.last
  20476c:	52800000 	mov	w0, #0x0                   	// #0
  204770:	1400000e 	b	2047a8 <dec_vli+0x54>
  204774:	38646825 	ldrb	w5, [x1, x4]
  204778:	91000484 	add	x4, x4, #0x1
  20477c:	f9000044 	str	x4, [x2]
  204780:	b9400404 	ldr	w4, [x0, #4]
  204784:	924018a6 	and	x6, x5, #0x7f
  204788:	9ac420c7 	lsl	x7, x6, x4
  20478c:	f9400406 	ldr	x6, [x0, #8]
  204790:	aa0700c6 	orr	x6, x6, x7
  204794:	f9000406 	str	x6, [x0, #8]
  204798:	37380105 	tbnz	w5, #7, 2047b8 <dec_vli+0x64>
  20479c:	35000085 	cbnz	w5, 2047ac <dec_vli+0x58>
  2047a0:	34000064 	cbz	w4, 2047ac <dec_vli+0x58>
  2047a4:	528000e0 	mov	w0, #0x7                   	// #7
  2047a8:	d65f03c0 	ret
  2047ac:	b900041f 	str	wzr, [x0, #4]
  2047b0:	52800020 	mov	w0, #0x1                   	// #1
  2047b4:	17fffffd 	b	2047a8 <dec_vli+0x54>
  2047b8:	11001c84 	add	w4, w4, #0x7
  2047bc:	b9000404 	str	w4, [x0, #4]
  2047c0:	7100fc9f 	cmp	w4, #0x3f
  2047c4:	54fffce1 	b.ne	204760 <dec_vli+0xc>  // b.any
  2047c8:	17fffff7 	b	2047a4 <dec_vli+0x50>

00000000002047cc <index_update>:
  2047cc:	a9be7bfd 	stp	x29, x30, [sp, #-32]!
  2047d0:	910003fd 	mov	x29, sp
  2047d4:	f9400023 	ldr	x3, [x1]
  2047d8:	f9400422 	ldr	x2, [x1, #8]
  2047dc:	f9000bf3 	str	x19, [sp, #16]
  2047e0:	aa0003f3 	mov	x19, x0
  2047e4:	f9400800 	ldr	x0, [x0, #16]
  2047e8:	cb000041 	sub	x1, x2, x0
  2047ec:	8b000060 	add	x0, x3, x0
  2047f0:	f9404262 	ldr	x2, [x19, #128]
  2047f4:	8b010042 	add	x2, x2, x1
  2047f8:	f9004262 	str	x2, [x19, #128]
  2047fc:	b9402262 	ldr	w2, [x19, #32]
  204800:	97fffb31 	bl	2034c4 <xz_crc32>
  204804:	b9002260 	str	w0, [x19, #32]
  204808:	f9400bf3 	ldr	x19, [sp, #16]
  20480c:	a8c27bfd 	ldp	x29, x30, [sp], #32
  204810:	d65f03c0 	ret

0000000000204814 <fill_temp>:
  204814:	a9bd7bfd 	stp	x29, x30, [sp, #-48]!
  204818:	9102e003 	add	x3, x0, #0xb8
  20481c:	910003fd 	mov	x29, sp
  204820:	a90153f3 	stp	x19, x20, [sp, #16]
  204824:	aa0003f4 	mov	x20, x0
  204828:	f9405400 	ldr	x0, [x0, #168]
  20482c:	f9405a93 	ldr	x19, [x20, #176]
  204830:	f90013f5 	str	x21, [sp, #32]
  204834:	aa0103f5 	mov	x21, x1
  204838:	f9400421 	ldr	x1, [x1, #8]
  20483c:	cb000273 	sub	x19, x19, x0
  204840:	f9400aa2 	ldr	x2, [x21, #16]
  204844:	8b000060 	add	x0, x3, x0
  204848:	f94002a4 	ldr	x4, [x21]
  20484c:	cb010042 	sub	x2, x2, x1
  204850:	eb02027f 	cmp	x19, x2
  204854:	9a829273 	csel	x19, x19, x2, ls  // ls = plast
  204858:	8b010081 	add	x1, x4, x1
  20485c:	aa1303e2 	mov	x2, x19
  204860:	94001cd3 	bl	20bbac <memcpy>
  204864:	f94006a0 	ldr	x0, [x21, #8]
  204868:	f9405682 	ldr	x2, [x20, #168]
  20486c:	8b130000 	add	x0, x0, x19
  204870:	f90006a0 	str	x0, [x21, #8]
  204874:	f9405a80 	ldr	x0, [x20, #176]
  204878:	8b020273 	add	x19, x19, x2
  20487c:	f9005693 	str	x19, [x20, #168]
  204880:	eb00027f 	cmp	x19, x0
  204884:	540000e1 	b.ne	2048a0 <fill_temp+0x8c>  // b.any
  204888:	52800020 	mov	w0, #0x1                   	// #1
  20488c:	f900569f 	str	xzr, [x20, #168]
  204890:	a94153f3 	ldp	x19, x20, [sp, #16]
  204894:	f94013f5 	ldr	x21, [sp, #32]
  204898:	a8c37bfd 	ldp	x29, x30, [sp], #48
  20489c:	d65f03c0 	ret
  2048a0:	52800000 	mov	w0, #0x0                   	// #0
  2048a4:	17fffffb 	b	204890 <fill_temp+0x7c>

00000000002048a8 <xz_dec_reset>:
  2048a8:	a9be7bfd 	stp	x29, x30, [sp, #-32]!
  2048ac:	d2800602 	mov	x2, #0x30                  	// #48
  2048b0:	52800001 	mov	w1, #0x0                   	// #0
  2048b4:	910003fd 	mov	x29, sp
  2048b8:	f9000bf3 	str	x19, [sp, #16]
  2048bc:	aa0003f3 	mov	x19, x0
  2048c0:	3900b01f 	strb	wzr, [x0, #44]
  2048c4:	91012000 	add	x0, x0, #0x48
  2048c8:	f900027f 	str	xzr, [x19]
  2048cc:	b900227f 	str	wzr, [x19, #32]
  2048d0:	94001ccc 	bl	20bc00 <memset>
  2048d4:	9101e260 	add	x0, x19, #0x78
  2048d8:	d2800602 	mov	x2, #0x30                  	// #48
  2048dc:	52800001 	mov	w1, #0x0                   	// #0
  2048e0:	94001cc8 	bl	20bc00 <memset>
  2048e4:	d2800180 	mov	x0, #0xc                   	// #12
  2048e8:	a90a827f 	stp	xzr, x0, [x19, #168]
  2048ec:	f9400bf3 	ldr	x19, [sp, #16]
  2048f0:	a8c27bfd 	ldp	x29, x30, [sp], #32
  2048f4:	d65f03c0 	ret

00000000002048f8 <xz_dec_run>:
  2048f8:	a9ba7bfd 	stp	x29, x30, [sp, #-96]!
  2048fc:	910003fd 	mov	x29, sp
  204900:	a90153f3 	stp	x19, x20, [sp, #16]
  204904:	aa0103f4 	mov	x20, x1
  204908:	b9402801 	ldr	w1, [x0, #40]
  20490c:	a9025bf5 	stp	x21, x22, [sp, #32]
  204910:	aa0003f3 	mov	x19, x0
  204914:	a90363f7 	stp	x23, x24, [sp, #48]
  204918:	a9046bf9 	stp	x25, x26, [sp, #64]
  20491c:	f9002bfb 	str	x27, [sp, #80]
  204920:	35000041 	cbnz	w1, 204928 <xz_dec_run+0x30>
  204924:	97ffffe1 	bl	2048a8 <xz_dec_reset>
  204928:	90000057 	adrp	x23, 20c000 <vprintf+0x2b8>
  20492c:	d0000058 	adrp	x24, 20e000 <mtk_pin_info_pu+0x36c>
  204930:	911092f7 	add	x23, x23, #0x424
  204934:	9110b718 	add	x24, x24, #0x42d
  204938:	f9400696 	ldr	x22, [x20, #8]
  20493c:	5280003a 	mov	w26, #0x1                   	// #1
  204940:	528000bb 	mov	w27, #0x5                   	// #5
  204944:	f9401299 	ldr	x25, [x20, #32]
  204948:	f9000a76 	str	x22, [x19, #16]
  20494c:	b9400260 	ldr	w0, [x19]
  204950:	7100241f 	cmp	w0, #0x9
  204954:	54ffffe8 	b.hi	204950 <xz_dec_run+0x58>  // b.pmore
  204958:	78605ae0 	ldrh	w0, [x23, w0, uxtw #1]
  20495c:	10000061 	adr	x1, 204968 <xz_dec_run+0x70>
  204960:	8b20a820 	add	x0, x1, w0, sxth #2
  204964:	d61f0000 	br	x0
  204968:	91002297 	add	x23, x20, #0x8
  20496c:	9102427a 	add	x26, x19, #0x90
  204970:	52800058 	mov	w24, #0x2                   	// #2
  204974:	f9400281 	ldr	x1, [x20]
  204978:	aa1703e2 	mov	x2, x23
  20497c:	f9400a83 	ldr	x3, [x20, #16]
  204980:	aa1303e0 	mov	x0, x19
  204984:	97ffff74 	bl	204754 <dec_vli>
  204988:	2a0003f5 	mov	w21, w0
  20498c:	7100041f 	cmp	w0, #0x1
  204990:	54002080 	b.eq	204da0 <xz_dec_run+0x4a8>  // b.none
  204994:	aa1403e1 	mov	x1, x20
  204998:	aa1303e0 	mov	x0, x19
  20499c:	97ffff8c 	bl	2047cc <index_update>
  2049a0:	14000018 	b	204a00 <xz_dec_run+0x108>
  2049a4:	aa1403e1 	mov	x1, x20
  2049a8:	aa1303e0 	mov	x0, x19
  2049ac:	97ffff9a 	bl	204814 <fill_temp>
  2049b0:	72001c1f 	tst	w0, #0xff
  2049b4:	54000061 	b.ne	2049c0 <xz_dec_run+0xc8>  // b.any
  2049b8:	52800015 	mov	w21, #0x0                   	// #0
  2049bc:	14000011 	b	204a00 <xz_dec_run+0x108>
  2049c0:	aa1303e0 	mov	x0, x19
  2049c4:	aa1803e1 	mov	x1, x24
  2049c8:	d28000c2 	mov	x2, #0x6                   	// #6
  2049cc:	b80b841a 	str	w26, [x0], #184
  2049d0:	94001c6a 	bl	20bb78 <memcmp>
  2049d4:	35002da0 	cbnz	w0, 204f88 <xz_dec_run+0x690>
  2049d8:	52800002 	mov	w2, #0x0                   	// #0
  2049dc:	d2800041 	mov	x1, #0x2                   	// #2
  2049e0:	9102fa60 	add	x0, x19, #0xbe
  2049e4:	97fffab8 	bl	2034c4 <xz_crc32>
  2049e8:	2a0003e3 	mov	w3, w0
  2049ec:	91030260 	add	x0, x19, #0xc0
  2049f0:	97ffff51 	bl	204734 <get_unaligned_le32>
  2049f4:	6b00007f 	cmp	w3, w0
  2049f8:	54000180 	b.eq	204a28 <xz_dec_run+0x130>  // b.none
  2049fc:	528000f5 	mov	w21, #0x7                   	// #7
  204a00:	b9402a60 	ldr	w0, [x19, #40]
  204a04:	35002da0 	cbnz	w0, 204fb8 <xz_dec_run+0x6c0>
  204a08:	35002c55 	cbnz	w21, 204f90 <xz_dec_run+0x698>
  204a0c:	a9408281 	ldp	x1, x0, [x20, #8]
  204a10:	eb00003f 	cmp	x1, x0
  204a14:	1a9f07f5 	cset	w21, ne  // ne = any
  204a18:	11001eb5 	add	w21, w21, #0x7
  204a1c:	f9000696 	str	x22, [x20, #8]
  204a20:	f9001299 	str	x25, [x20, #32]
  204a24:	1400015d 	b	204f98 <xz_dec_run+0x6a0>
  204a28:	3942fa60 	ldrb	w0, [x19, #190]
  204a2c:	34000060 	cbz	w0, 204a38 <xz_dec_run+0x140>
  204a30:	528000d5 	mov	w21, #0x6                   	// #6
  204a34:	17fffff3 	b	204a00 <xz_dec_run+0x108>
  204a38:	3942fe60 	ldrb	w0, [x19, #191]
  204a3c:	b9002660 	str	w0, [x19, #36]
  204a40:	7100041f 	cmp	w0, #0x1
  204a44:	54ffff68 	b.hi	204a30 <xz_dec_run+0x138>  // b.pmore
  204a48:	a9408281 	ldp	x1, x0, [x20, #8]
  204a4c:	eb00003f 	cmp	x1, x0
  204a50:	54fffb40 	b.eq	2049b8 <xz_dec_run+0xc0>  // b.none
  204a54:	f9400280 	ldr	x0, [x20]
  204a58:	38616800 	ldrb	w0, [x0, x1]
  204a5c:	350000e0 	cbnz	w0, 204a78 <xz_dec_run+0x180>
  204a60:	91000420 	add	x0, x1, #0x1
  204a64:	f9000680 	str	x0, [x20, #8]
  204a68:	528000c0 	mov	w0, #0x6                   	// #6
  204a6c:	b9000260 	str	w0, [x19]
  204a70:	f9000a61 	str	x1, [x19, #16]
  204a74:	17ffffb6 	b	20494c <xz_dec_run+0x54>
  204a78:	11000400 	add	w0, w0, #0x1
  204a7c:	531e7400 	lsl	w0, w0, #2
  204a80:	b9004260 	str	w0, [x19, #64]
  204a84:	a90a827f 	stp	xzr, x0, [x19, #168]
  204a88:	52800040 	mov	w0, #0x2                   	// #2
  204a8c:	b9000260 	str	w0, [x19]
  204a90:	aa1403e1 	mov	x1, x20
  204a94:	aa1303e0 	mov	x0, x19
  204a98:	97ffff5f 	bl	204814 <fill_temp>
  204a9c:	72001c1f 	tst	w0, #0xff
  204aa0:	54fff8c0 	b.eq	2049b8 <xz_dec_run+0xc0>  // b.none
  204aa4:	f9405a61 	ldr	x1, [x19, #176]
  204aa8:	9102e275 	add	x21, x19, #0xb8
  204aac:	aa1503e0 	mov	x0, x21
  204ab0:	52800002 	mov	w2, #0x0                   	// #0
  204ab4:	d1001021 	sub	x1, x1, #0x4
  204ab8:	f9005a61 	str	x1, [x19, #176]
  204abc:	97fffa82 	bl	2034c4 <xz_crc32>
  204ac0:	2a0003e4 	mov	w4, w0
  204ac4:	f9405a63 	ldr	x3, [x19, #176]
  204ac8:	8b0302a0 	add	x0, x21, x3
  204acc:	97ffff1a 	bl	204734 <get_unaligned_le32>
  204ad0:	6b00009f 	cmp	w4, w0
  204ad4:	54fff941 	b.ne	2049fc <xz_dec_run+0x104>  // b.any
  204ad8:	d2800040 	mov	x0, #0x2                   	// #2
  204adc:	f9005660 	str	x0, [x19, #168]
  204ae0:	3942e660 	ldrb	w0, [x19, #185]
  204ae4:	f240141f 	tst	x0, #0x3f
  204ae8:	54fffa41 	b.ne	204a30 <xz_dec_run+0x138>  // b.any
  204aec:	36301300 	tbz	w0, #6, 204d4c <xz_dec_run+0x454>
  204af0:	9102a262 	add	x2, x19, #0xa8
  204af4:	aa1503e1 	mov	x1, x21
  204af8:	aa1303e0 	mov	x0, x19
  204afc:	97ffff16 	bl	204754 <dec_vli>
  204b00:	7100041f 	cmp	w0, #0x1
  204b04:	54fff7c1 	b.ne	2049fc <xz_dec_run+0x104>  // b.any
  204b08:	f9400660 	ldr	x0, [x19, #8]
  204b0c:	f9001a60 	str	x0, [x19, #48]
  204b10:	39c2e660 	ldrsb	w0, [x19, #185]
  204b14:	36f81200 	tbz	w0, #31, 204d54 <xz_dec_run+0x45c>
  204b18:	f9405a63 	ldr	x3, [x19, #176]
  204b1c:	9102a262 	add	x2, x19, #0xa8
  204b20:	aa1503e1 	mov	x1, x21
  204b24:	aa1303e0 	mov	x0, x19
  204b28:	97ffff0b 	bl	204754 <dec_vli>
  204b2c:	7100041f 	cmp	w0, #0x1
  204b30:	54fff661 	b.ne	2049fc <xz_dec_run+0x104>  // b.any
  204b34:	f9400660 	ldr	x0, [x19, #8]
  204b38:	f9001e60 	str	x0, [x19, #56]
  204b3c:	f9405660 	ldr	x0, [x19, #168]
  204b40:	f9405a63 	ldr	x3, [x19, #176]
  204b44:	cb000061 	sub	x1, x3, x0
  204b48:	f100043f 	cmp	x1, #0x1
  204b4c:	54fff589 	b.ls	2049fc <xz_dec_run+0x104>  // b.plast
  204b50:	8b000261 	add	x1, x19, x0
  204b54:	91000402 	add	x2, x0, #0x1
  204b58:	f9005662 	str	x2, [x19, #168]
  204b5c:	3942e021 	ldrb	w1, [x1, #184]
  204b60:	7100843f 	cmp	w1, #0x21
  204b64:	54fff661 	b.ne	204a30 <xz_dec_run+0x138>  // b.any
  204b68:	8b020262 	add	x2, x19, x2
  204b6c:	91000801 	add	x1, x0, #0x2
  204b70:	f9005661 	str	x1, [x19, #168]
  204b74:	3942e042 	ldrb	w2, [x2, #184]
  204b78:	7100045f 	cmp	w2, #0x1
  204b7c:	54fff5a1 	b.ne	204a30 <xz_dec_run+0x138>  // b.any
  204b80:	eb01007f 	cmp	x3, x1
  204b84:	54fff3c0 	b.eq	2049fc <xz_dec_run+0x104>  // b.none
  204b88:	8b010261 	add	x1, x19, x1
  204b8c:	91000c00 	add	x0, x0, #0x3
  204b90:	f9005660 	str	x0, [x19, #168]
  204b94:	f9425e60 	ldr	x0, [x19, #1208]
  204b98:	3942e021 	ldrb	w1, [x1, #184]
  204b9c:	97fffed2 	bl	2046e4 <xz_dec_lzma2_reset>
  204ba0:	2a0003f5 	mov	w21, w0
  204ba4:	35fff2e0 	cbnz	w0, 204a00 <xz_dec_run+0x108>
  204ba8:	f9405a61 	ldr	x1, [x19, #176]
  204bac:	f9405660 	ldr	x0, [x19, #168]
  204bb0:	eb01001f 	cmp	x0, x1
  204bb4:	54000d43 	b.cc	204d5c <xz_dec_run+0x464>  // b.lo, b.ul, b.last
  204bb8:	52800060 	mov	w0, #0x3                   	// #3
  204bbc:	b9000260 	str	w0, [x19]
  204bc0:	a904fe7f 	stp	xzr, xzr, [x19, #72]
  204bc4:	f900567f 	str	xzr, [x19, #168]
  204bc8:	f9400680 	ldr	x0, [x20, #8]
  204bcc:	f9000a60 	str	x0, [x19, #16]
  204bd0:	f9401280 	ldr	x0, [x20, #32]
  204bd4:	f9000e60 	str	x0, [x19, #24]
  204bd8:	f9425e60 	ldr	x0, [x19, #1208]
  204bdc:	aa1403e1 	mov	x1, x20
  204be0:	97fffd1a 	bl	204048 <xz_dec_lzma2_run>
  204be4:	2a0003f5 	mov	w21, w0
  204be8:	a9448e62 	ldp	x2, x3, [x19, #72]
  204bec:	f9400680 	ldr	x0, [x20, #8]
  204bf0:	f9401281 	ldr	x1, [x20, #32]
  204bf4:	8b000042 	add	x2, x2, x0
  204bf8:	f9400a60 	ldr	x0, [x19, #16]
  204bfc:	f9401a64 	ldr	x4, [x19, #48]
  204c00:	cb000042 	sub	x2, x2, x0
  204c04:	f9400e60 	ldr	x0, [x19, #24]
  204c08:	cb000021 	sub	x1, x1, x0
  204c0c:	8b030023 	add	x3, x1, x3
  204c10:	a9048e62 	stp	x2, x3, [x19, #72]
  204c14:	eb04005f 	cmp	x2, x4
  204c18:	54ffef28 	b.hi	2049fc <xz_dec_run+0x104>  // b.pmore
  204c1c:	f9401e62 	ldr	x2, [x19, #56]
  204c20:	eb02007f 	cmp	x3, x2
  204c24:	54ffeec8 	b.hi	2049fc <xz_dec_run+0x104>  // b.pmore
  204c28:	b9402662 	ldr	w2, [x19, #36]
  204c2c:	7100045f 	cmp	w2, #0x1
  204c30:	540000c1 	b.ne	204c48 <xz_dec_run+0x350>  // b.any
  204c34:	b9402262 	ldr	w2, [x19, #32]
  204c38:	f9400e83 	ldr	x3, [x20, #24]
  204c3c:	8b000060 	add	x0, x3, x0
  204c40:	97fffa21 	bl	2034c4 <xz_crc32>
  204c44:	b9002260 	str	w0, [x19, #32]
  204c48:	710006bf 	cmp	w21, #0x1
  204c4c:	54ffeda1 	b.ne	204a00 <xz_dec_run+0x108>  // b.any
  204c50:	f9401a60 	ldr	x0, [x19, #48]
  204c54:	b100041f 	cmn	x0, #0x1
  204c58:	54000080 	b.eq	204c68 <xz_dec_run+0x370>  // b.none
  204c5c:	f9402661 	ldr	x1, [x19, #72]
  204c60:	eb01001f 	cmp	x0, x1
  204c64:	54ffecc1 	b.ne	2049fc <xz_dec_run+0x104>  // b.any
  204c68:	f9401e60 	ldr	x0, [x19, #56]
  204c6c:	f9402a62 	ldr	x2, [x19, #80]
  204c70:	b100041f 	cmn	x0, #0x1
  204c74:	54000060 	b.eq	204c80 <xz_dec_run+0x388>  // b.none
  204c78:	eb02001f 	cmp	x0, x2
  204c7c:	54ffec01 	b.ne	2049fc <xz_dec_run+0x104>  // b.any
  204c80:	f9402661 	ldr	x1, [x19, #72]
  204c84:	f9403260 	ldr	x0, [x19, #96]
  204c88:	b9402663 	ldr	w3, [x19, #36]
  204c8c:	8b010000 	add	x0, x0, x1
  204c90:	b9404261 	ldr	w1, [x19, #64]
  204c94:	7100047f 	cmp	w3, #0x1
  204c98:	8b010000 	add	x0, x0, x1
  204c9c:	91001001 	add	x1, x0, #0x4
  204ca0:	9a800020 	csel	x0, x1, x0, eq  // eq = none
  204ca4:	f9003260 	str	x0, [x19, #96]
  204ca8:	f9403660 	ldr	x0, [x19, #104]
  204cac:	d2800301 	mov	x1, #0x18                  	// #24
  204cb0:	8b020000 	add	x0, x0, x2
  204cb4:	b9407262 	ldr	w2, [x19, #112]
  204cb8:	f9003660 	str	x0, [x19, #104]
  204cbc:	91018260 	add	x0, x19, #0x60
  204cc0:	97fffa01 	bl	2034c4 <xz_crc32>
  204cc4:	b9007260 	str	w0, [x19, #112]
  204cc8:	f9402e60 	ldr	x0, [x19, #88]
  204ccc:	91000400 	add	x0, x0, #0x1
  204cd0:	f9002e60 	str	x0, [x19, #88]
  204cd4:	52800080 	mov	w0, #0x4                   	// #4
  204cd8:	b9000260 	str	w0, [x19]
  204cdc:	f9402660 	ldr	x0, [x19, #72]
  204ce0:	f240041f 	tst	x0, #0x3
  204ce4:	54000481 	b.ne	204d74 <xz_dec_run+0x47c>  // b.any
  204ce8:	b900027b 	str	w27, [x19]
  204cec:	b9402660 	ldr	w0, [x19, #36]
  204cf0:	7100041f 	cmp	w0, #0x1
  204cf4:	54000281 	b.ne	204d44 <xz_dec_run+0x44c>  // b.any
  204cf8:	f9400a83 	ldr	x3, [x20, #16]
  204cfc:	f9400682 	ldr	x2, [x20, #8]
  204d00:	eb03005f 	cmp	x2, x3
  204d04:	54ffe5a0 	b.eq	2049b8 <xz_dec_run+0xc0>  // b.none
  204d08:	f9400284 	ldr	x4, [x20]
  204d0c:	91000445 	add	x5, x2, #0x1
  204d10:	b9400660 	ldr	w0, [x19, #4]
  204d14:	b9402261 	ldr	w1, [x19, #32]
  204d18:	f9000685 	str	x5, [x20, #8]
  204d1c:	38626882 	ldrb	w2, [x4, x2]
  204d20:	1ac02421 	lsr	w1, w1, w0
  204d24:	6b21005f 	cmp	w2, w1, uxtb
  204d28:	54ffe6a1 	b.ne	2049fc <xz_dec_run+0x104>  // b.any
  204d2c:	11002000 	add	w0, w0, #0x8
  204d30:	b9000660 	str	w0, [x19, #4]
  204d34:	71007c1f 	cmp	w0, #0x1f
  204d38:	54fffe29 	b.ls	204cfc <xz_dec_run+0x404>  // b.plast
  204d3c:	b900067f 	str	wzr, [x19, #4]
  204d40:	b900227f 	str	wzr, [x19, #32]
  204d44:	b900027a 	str	w26, [x19]
  204d48:	17ffff01 	b	20494c <xz_dec_run+0x54>
  204d4c:	92800000 	mov	x0, #0xffffffffffffffff    	// #-1
  204d50:	17ffff6f 	b	204b0c <xz_dec_run+0x214>
  204d54:	92800000 	mov	x0, #0xffffffffffffffff    	// #-1
  204d58:	17ffff78 	b	204b38 <xz_dec_run+0x240>
  204d5c:	91000402 	add	x2, x0, #0x1
  204d60:	8b000260 	add	x0, x19, x0
  204d64:	f9005662 	str	x2, [x19, #168]
  204d68:	3942e000 	ldrb	w0, [x0, #184]
  204d6c:	34fff200 	cbz	w0, 204bac <xz_dec_run+0x2b4>
  204d70:	17ffff30 	b	204a30 <xz_dec_run+0x138>
  204d74:	a9408a81 	ldp	x1, x2, [x20, #8]
  204d78:	eb02003f 	cmp	x1, x2
  204d7c:	54ffe1e0 	b.eq	2049b8 <xz_dec_run+0xc0>  // b.none
  204d80:	f9400282 	ldr	x2, [x20]
  204d84:	91000423 	add	x3, x1, #0x1
  204d88:	f9000683 	str	x3, [x20, #8]
  204d8c:	38616841 	ldrb	w1, [x2, x1]
  204d90:	35ffe361 	cbnz	w1, 2049fc <xz_dec_run+0x104>
  204d94:	91000400 	add	x0, x0, #0x1
  204d98:	f9002660 	str	x0, [x19, #72]
  204d9c:	17ffffd0 	b	204cdc <xz_dec_run+0x3e4>
  204da0:	b9407a60 	ldr	w0, [x19, #120]
  204da4:	7100041f 	cmp	w0, #0x1
  204da8:	54000160 	b.eq	204dd4 <xz_dec_run+0x4dc>  // b.none
  204dac:	7100081f 	cmp	w0, #0x2
  204db0:	540002a0 	b.eq	204e04 <xz_dec_run+0x50c>  // b.none
  204db4:	350001a0 	cbnz	w0, 204de8 <xz_dec_run+0x4f0>
  204db8:	f9400660 	ldr	x0, [x19, #8]
  204dbc:	f9004660 	str	x0, [x19, #136]
  204dc0:	f9402e61 	ldr	x1, [x19, #88]
  204dc4:	eb01001f 	cmp	x0, x1
  204dc8:	54ffe1a1 	b.ne	2049fc <xz_dec_run+0x104>  // b.any
  204dcc:	b9007a75 	str	w21, [x19, #120]
  204dd0:	14000006 	b	204de8 <xz_dec_run+0x4f0>
  204dd4:	f9400661 	ldr	x1, [x19, #8]
  204dd8:	b9007a78 	str	w24, [x19, #120]
  204ddc:	f9404a60 	ldr	x0, [x19, #144]
  204de0:	8b010000 	add	x0, x0, x1
  204de4:	f9004a60 	str	x0, [x19, #144]
  204de8:	f9404660 	ldr	x0, [x19, #136]
  204dec:	b5ffdc40 	cbnz	x0, 204974 <xz_dec_run+0x7c>
  204df0:	528000e0 	mov	w0, #0x7                   	// #7
  204df4:	b9000260 	str	w0, [x19]
  204df8:	f9400a62 	ldr	x2, [x19, #16]
  204dfc:	f9404263 	ldr	x3, [x19, #128]
  204e00:	1400001a 	b	204e68 <xz_dec_run+0x570>
  204e04:	f9400661 	ldr	x1, [x19, #8]
  204e08:	f9404e60 	ldr	x0, [x19, #152]
  204e0c:	b940a262 	ldr	w2, [x19, #160]
  204e10:	8b010000 	add	x0, x0, x1
  204e14:	f9004e60 	str	x0, [x19, #152]
  204e18:	d2800301 	mov	x1, #0x18                  	// #24
  204e1c:	aa1a03e0 	mov	x0, x26
  204e20:	97fff9a9 	bl	2034c4 <xz_crc32>
  204e24:	b900a260 	str	w0, [x19, #160]
  204e28:	f9404660 	ldr	x0, [x19, #136]
  204e2c:	d1000400 	sub	x0, x0, #0x1
  204e30:	f9004660 	str	x0, [x19, #136]
  204e34:	17ffffe6 	b	204dcc <xz_dec_run+0x4d4>
  204e38:	f9400a81 	ldr	x1, [x20, #16]
  204e3c:	eb00003f 	cmp	x1, x0
  204e40:	540000a1 	b.ne	204e54 <xz_dec_run+0x55c>  // b.any
  204e44:	aa1403e1 	mov	x1, x20
  204e48:	aa1303e0 	mov	x0, x19
  204e4c:	97fffe60 	bl	2047cc <index_update>
  204e50:	17fffeda 	b	2049b8 <xz_dec_run+0xc0>
  204e54:	f9400281 	ldr	x1, [x20]
  204e58:	91000404 	add	x4, x0, #0x1
  204e5c:	f9000684 	str	x4, [x20, #8]
  204e60:	38606820 	ldrb	w0, [x1, x0]
  204e64:	35ffdcc0 	cbnz	w0, 2049fc <xz_dec_run+0x104>
  204e68:	f9400680 	ldr	x0, [x20, #8]
  204e6c:	8b030001 	add	x1, x0, x3
  204e70:	cb020021 	sub	x1, x1, x2
  204e74:	f240043f 	tst	x1, #0x3
  204e78:	54fffe01 	b.ne	204e38 <xz_dec_run+0x540>  // b.any
  204e7c:	aa1403e1 	mov	x1, x20
  204e80:	aa1303e0 	mov	x0, x19
  204e84:	97fffe52 	bl	2047cc <index_update>
  204e88:	91024261 	add	x1, x19, #0x90
  204e8c:	91018260 	add	x0, x19, #0x60
  204e90:	d2800302 	mov	x2, #0x18                  	// #24
  204e94:	94001b39 	bl	20bb78 <memcmp>
  204e98:	35ffdb20 	cbnz	w0, 2049fc <xz_dec_run+0x104>
  204e9c:	52800100 	mov	w0, #0x8                   	// #8
  204ea0:	b9000260 	str	w0, [x19]
  204ea4:	f9400a83 	ldr	x3, [x20, #16]
  204ea8:	f9400682 	ldr	x2, [x20, #8]
  204eac:	eb03005f 	cmp	x2, x3
  204eb0:	54ffd840 	b.eq	2049b8 <xz_dec_run+0xc0>  // b.none
  204eb4:	f9400284 	ldr	x4, [x20]
  204eb8:	91000445 	add	x5, x2, #0x1
  204ebc:	b9400660 	ldr	w0, [x19, #4]
  204ec0:	b9402261 	ldr	w1, [x19, #32]
  204ec4:	f9000685 	str	x5, [x20, #8]
  204ec8:	38626882 	ldrb	w2, [x4, x2]
  204ecc:	1ac02421 	lsr	w1, w1, w0
  204ed0:	6b21005f 	cmp	w2, w1, uxtb
  204ed4:	54ffd941 	b.ne	2049fc <xz_dec_run+0x104>  // b.any
  204ed8:	11002000 	add	w0, w0, #0x8
  204edc:	b9000660 	str	w0, [x19, #4]
  204ee0:	71007c1f 	cmp	w0, #0x1f
  204ee4:	54fffe29 	b.ls	204ea8 <xz_dec_run+0x5b0>  // b.plast
  204ee8:	d2800180 	mov	x0, #0xc                   	// #12
  204eec:	b900227f 	str	wzr, [x19, #32]
  204ef0:	f9005a60 	str	x0, [x19, #176]
  204ef4:	d2800120 	mov	x0, #0x9                   	// #9
  204ef8:	f9000260 	str	x0, [x19]
  204efc:	aa1403e1 	mov	x1, x20
  204f00:	aa1303e0 	mov	x0, x19
  204f04:	97fffe44 	bl	204814 <fill_temp>
  204f08:	72001c1f 	tst	w0, #0xff
  204f0c:	54ffd560 	b.eq	2049b8 <xz_dec_run+0xc0>  // b.none
  204f10:	d0000041 	adrp	x1, 20e000 <mtk_pin_info_pu+0x36c>
  204f14:	91030a60 	add	x0, x19, #0xc2
  204f18:	9110cc21 	add	x1, x1, #0x433
  204f1c:	d2800042 	mov	x2, #0x2                   	// #2
  204f20:	94001b16 	bl	20bb78 <memcmp>
  204f24:	35ffd6c0 	cbnz	w0, 2049fc <xz_dec_run+0x104>
  204f28:	9102f275 	add	x21, x19, #0xbc
  204f2c:	52800002 	mov	w2, #0x0                   	// #0
  204f30:	d28000c1 	mov	x1, #0x6                   	// #6
  204f34:	aa1503e0 	mov	x0, x21
  204f38:	97fff963 	bl	2034c4 <xz_crc32>
  204f3c:	2a0003e3 	mov	w3, w0
  204f40:	9102e260 	add	x0, x19, #0xb8
  204f44:	97fffdfc 	bl	204734 <get_unaligned_le32>
  204f48:	6b00007f 	cmp	w3, w0
  204f4c:	54ffd581 	b.ne	2049fc <xz_dec_run+0x104>  // b.any
  204f50:	aa1503e0 	mov	x0, x21
  204f54:	97fffdf8 	bl	204734 <get_unaligned_le32>
  204f58:	f9404261 	ldr	x1, [x19, #128]
  204f5c:	2a0003e0 	mov	w0, w0
  204f60:	eb41081f 	cmp	x0, x1, lsr #2
  204f64:	54ffd4c1 	b.ne	2049fc <xz_dec_run+0x104>  // b.any
  204f68:	39430260 	ldrb	w0, [x19, #192]
  204f6c:	35ffd480 	cbnz	w0, 2049fc <xz_dec_run+0x104>
  204f70:	39430661 	ldrb	w1, [x19, #193]
  204f74:	b9402660 	ldr	w0, [x19, #36]
  204f78:	6b00003f 	cmp	w1, w0
  204f7c:	54ffd401 	b.ne	2049fc <xz_dec_run+0x104>  // b.any
  204f80:	52800035 	mov	w21, #0x1                   	// #1
  204f84:	17fffe9f 	b	204a00 <xz_dec_run+0x108>
  204f88:	528000b5 	mov	w21, #0x5                   	// #5
  204f8c:	17fffe9d 	b	204a00 <xz_dec_run+0x108>
  204f90:	710006bf 	cmp	w21, #0x1
  204f94:	54ffd441 	b.ne	204a1c <xz_dec_run+0x124>  // b.any
  204f98:	2a1503e0 	mov	w0, w21
  204f9c:	a94153f3 	ldp	x19, x20, [sp, #16]
  204fa0:	a9425bf5 	ldp	x21, x22, [sp, #32]
  204fa4:	a94363f7 	ldp	x23, x24, [sp, #48]
  204fa8:	a9446bf9 	ldp	x25, x26, [sp, #64]
  204fac:	f9402bfb 	ldr	x27, [sp, #80]
  204fb0:	a8c67bfd 	ldp	x29, x30, [sp], #96
  204fb4:	d65f03c0 	ret
  204fb8:	350001d5 	cbnz	w21, 204ff0 <xz_dec_run+0x6f8>
  204fbc:	f9400680 	ldr	x0, [x20, #8]
  204fc0:	eb16001f 	cmp	x0, x22
  204fc4:	54000161 	b.ne	204ff0 <xz_dec_run+0x6f8>  // b.any
  204fc8:	f9401280 	ldr	x0, [x20, #32]
  204fcc:	eb19001f 	cmp	x0, x25
  204fd0:	54000101 	b.ne	204ff0 <xz_dec_run+0x6f8>  // b.any
  204fd4:	3940b260 	ldrb	w0, [x19, #44]
  204fd8:	52800115 	mov	w21, #0x8                   	// #8
  204fdc:	7100001f 	cmp	w0, #0x0
  204fe0:	52800020 	mov	w0, #0x1                   	// #1
  204fe4:	1a9503f5 	csel	w21, wzr, w21, eq  // eq = none
  204fe8:	3900b260 	strb	w0, [x19, #44]
  204fec:	17ffffeb 	b	204f98 <xz_dec_run+0x6a0>
  204ff0:	3900b27f 	strb	wzr, [x19, #44]
  204ff4:	17ffffe9 	b	204f98 <xz_dec_run+0x6a0>

0000000000204ff8 <xz_dec_init>:
  204ff8:	a9bd7bfd 	stp	x29, x30, [sp, #-48]!
  204ffc:	910003fd 	mov	x29, sp
  205000:	a90153f3 	stp	x19, x20, [sp, #16]
  205004:	2a0003f4 	mov	w20, w0
  205008:	d2809800 	mov	x0, #0x4c0                 	// #1216
  20500c:	f90013f5 	str	x21, [sp, #32]
  205010:	2a0103f5 	mov	w21, w1
  205014:	97fff8b2 	bl	2032dc <xz_malloc>
  205018:	b50000e0 	cbnz	x0, 205034 <xz_dec_init+0x3c>
  20501c:	d2800013 	mov	x19, #0x0                   	// #0
  205020:	aa1303e0 	mov	x0, x19
  205024:	a94153f3 	ldp	x19, x20, [sp, #16]
  205028:	f94013f5 	ldr	x21, [sp, #32]
  20502c:	a8c37bfd 	ldp	x29, x30, [sp], #48
  205030:	d65f03c0 	ret
  205034:	aa0003f3 	mov	x19, x0
  205038:	2a1503e1 	mov	w1, w21
  20503c:	2a1403e0 	mov	w0, w20
  205040:	b9002a74 	str	w20, [x19, #40]
  205044:	97fffd9b 	bl	2046b0 <xz_dec_lzma2_create>
  205048:	f9025e60 	str	x0, [x19, #1208]
  20504c:	b4fffe80 	cbz	x0, 20501c <xz_dec_init+0x24>
  205050:	aa1303e0 	mov	x0, x19
  205054:	97fffe15 	bl	2048a8 <xz_dec_reset>
  205058:	17fffff2 	b	205020 <xz_dec_init+0x28>

000000000020505c <xz_dec_end>:
  20505c:	b4000060 	cbz	x0, 205068 <xz_dec_end+0xc>
  205060:	f9425c00 	ldr	x0, [x0, #1208]
  205064:	17fffdb3 	b	204730 <xz_dec_lzma2_end>
  205068:	d65f03c0 	ret

000000000020506c <mtk_mmc_gpt_image_setup>:
  20506c:	a9bc7bfd 	stp	x29, x30, [sp, #-64]!
  205070:	910003fd 	mov	x29, sp
  205074:	a90153f3 	stp	x19, x20, [sp, #16]
  205078:	aa0003f4 	mov	x20, x0
  20507c:	aa0103f3 	mov	x19, x1
  205080:	f90013f5 	str	x21, [sp, #32]
  205084:	940002ce 	bl	205bbc <mtk_plat_mmc_setup>
  205088:	35000200 	cbnz	w0, 2050c8 <mtk_mmc_gpt_image_setup+0x5c>
  20508c:	9100e3e0 	add	x0, sp, #0x38
  205090:	97fff3cd 	bl	201fc4 <register_io_dev_block>
  205094:	350001a0 	cbnz	w0, 2050c8 <mtk_mmc_gpt_image_setup+0x5c>
  205098:	f9401fe0 	ldr	x0, [sp, #56]
  20509c:	f0000075 	adrp	x21, 214000 <list+0x2550>
  2050a0:	f0000041 	adrp	x1, 210000 <__RO_END__>
  2050a4:	911b62a2 	add	x2, x21, #0x6d8
  2050a8:	91000021 	add	x1, x1, #0x0
  2050ac:	97fff4da 	bl	202414 <io_dev_open>
  2050b0:	350000c0 	cbnz	w0, 2050c8 <mtk_mmc_gpt_image_setup+0x5c>
  2050b4:	f9436ea1 	ldr	x1, [x21, #1752]
  2050b8:	f9000281 	str	x1, [x20]
  2050bc:	f0000021 	adrp	x1, 20c000 <vprintf+0x2b8>
  2050c0:	910ac021 	add	x1, x1, #0x2b0
  2050c4:	f9000261 	str	x1, [x19]
  2050c8:	a94153f3 	ldp	x19, x20, [sp, #16]
  2050cc:	f94013f5 	ldr	x21, [sp, #32]
  2050d0:	a8c47bfd 	ldp	x29, x30, [sp], #64
  2050d4:	d65f03c0 	ret

00000000002050d8 <mtk_fip_image_setup>:
  2050d8:	a9be7bfd 	stp	x29, x30, [sp, #-32]!
  2050dc:	910003fd 	mov	x29, sp
  2050e0:	a90153f3 	stp	x19, x20, [sp, #16]
  2050e4:	aa0003f4 	mov	x20, x0
  2050e8:	aa0103f3 	mov	x19, x1
  2050ec:	52800380 	mov	w0, #0x1c                  	// #28
  2050f0:	97fff87a 	bl	2032d8 <partition_init>
  2050f4:	b0000040 	adrp	x0, 20e000 <mtk_pin_info_pu+0x36c>
  2050f8:	9110d800 	add	x0, x0, #0x436
  2050fc:	97fff859 	bl	203260 <get_partition_entry>
  205100:	b5000100 	cbnz	x0, 205120 <mtk_fip_image_setup+0x48>
  205104:	b0000040 	adrp	x0, 20e000 <mtk_pin_info_pu+0x36c>
  205108:	9110e800 	add	x0, x0, #0x43a
  20510c:	940006ff 	bl	206d08 <tf_log>
  205110:	12800020 	mov	w0, #0xfffffffe            	// #-2
  205114:	a94153f3 	ldp	x19, x20, [sp, #16]
  205118:	a8c27bfd 	ldp	x29, x30, [sp], #32
  20511c:	d65f03c0 	ret
  205120:	a9400003 	ldp	x3, x0, [x0]
  205124:	f0000062 	adrp	x2, 214000 <list+0x2550>
  205128:	911b2041 	add	x1, x2, #0x6c8
  20512c:	f9036443 	str	x3, [x2, #1736]
  205130:	f9000420 	str	x0, [x1, #8]
  205134:	f0000060 	adrp	x0, 214000 <list+0x2550>
  205138:	f9436c00 	ldr	x0, [x0, #1752]
  20513c:	f9000280 	str	x0, [x20]
  205140:	52800000 	mov	w0, #0x0                   	// #0
  205144:	f9000261 	str	x1, [x19]
  205148:	17fffff3 	b	205114 <mtk_fip_image_setup+0x3c>

000000000020514c <check_gpt_dev>:
  20514c:	f0000060 	adrp	x0, 214000 <list+0x2550>
  205150:	d2800001 	mov	x1, #0x0                   	// #0
  205154:	f9439400 	ldr	x0, [x0, #1832]
  205158:	17fff4b5 	b	20242c <io_dev_init>

000000000020515c <check_boot_dev>:
  20515c:	f0000060 	adrp	x0, 214000 <list+0x2550>
  205160:	d2800001 	mov	x1, #0x0                   	// #0
  205164:	f9437000 	ldr	x0, [x0, #1760]
  205168:	17fff4b1 	b	20242c <io_dev_init>

000000000020516c <check_fip>:
  20516c:	a9be7bfd 	stp	x29, x30, [sp, #-32]!
  205170:	f0000060 	adrp	x0, 214000 <list+0x2550>
  205174:	d2800001 	mov	x1, #0x0                   	// #0
  205178:	910003fd 	mov	x29, sp
  20517c:	f9438c00 	ldr	x0, [x0, #1816]
  205180:	f9000bf3 	str	x19, [sp, #16]
  205184:	f0000073 	adrp	x19, 214000 <list+0x2550>
  205188:	911c8262 	add	x2, x19, #0x720
  20518c:	97fff4a2 	bl	202414 <io_dev_open>
  205190:	350000c0 	cbnz	w0, 2051a8 <check_fip+0x3c>
  205194:	f9439260 	ldr	x0, [x19, #1824]
  205198:	d2800001 	mov	x1, #0x0                   	// #0
  20519c:	f9400bf3 	ldr	x19, [sp, #16]
  2051a0:	a8c27bfd 	ldp	x29, x30, [sp], #32
  2051a4:	17fff4a2 	b	20242c <io_dev_init>
  2051a8:	f9400bf3 	ldr	x19, [sp, #16]
  2051ac:	a8c27bfd 	ldp	x29, x30, [sp], #32
  2051b0:	d65f03c0 	ret

00000000002051b4 <plat_get_image_source>:
  2051b4:	a9bc7bfd 	stp	x29, x30, [sp, #-64]!
  2051b8:	2a0003e0 	mov	w0, w0
  2051bc:	910003fd 	mov	x29, sp
  2051c0:	a90153f3 	stp	x19, x20, [sp, #16]
  2051c4:	d2800313 	mov	x19, #0x18                  	// #24
  2051c8:	f0000054 	adrp	x20, 210000 <__RO_END__>
  2051cc:	9b137c13 	mul	x19, x0, x19
  2051d0:	91068294 	add	x20, x20, #0x1a0
  2051d4:	f9001bf7 	str	x23, [sp, #48]
  2051d8:	8b130297 	add	x23, x20, x19
  2051dc:	a9025bf5 	stp	x21, x22, [sp, #32]
  2051e0:	aa0103f5 	mov	x21, x1
  2051e4:	aa0203f6 	mov	x22, x2
  2051e8:	a94086e0 	ldp	x0, x1, [x23, #8]
  2051ec:	d63f0020 	blr	x1
  2051f0:	f94006e0 	ldr	x0, [x23, #8]
  2051f4:	f9401bf7 	ldr	x23, [sp, #48]
  2051f8:	f90002c0 	str	x0, [x22]
  2051fc:	f8736a80 	ldr	x0, [x20, x19]
  205200:	a94153f3 	ldp	x19, x20, [sp, #16]
  205204:	f9400000 	ldr	x0, [x0]
  205208:	f90002a0 	str	x0, [x21]
  20520c:	52800000 	mov	w0, #0x0                   	// #0
  205210:	a9425bf5 	ldp	x21, x22, [sp, #32]
  205214:	a8c47bfd 	ldp	x29, x30, [sp], #64
  205218:	d65f03c0 	ret

000000000020521c <bl2_plat_preload_setup>:
  20521c:	d0ffffe2 	adrp	x2, 203000 <load_partition_table+0x38>
  205220:	52a00801 	mov	w1, #0x400000              	// #4194304
  205224:	910d1042 	add	x2, x2, #0x344
  205228:	d2a81000 	mov	x0, #0x40800000            	// #1082130432
  20522c:	17fff1fe 	b	201a24 <image_decompress_init>

0000000000205230 <bl2_plat_handle_pre_image_load>:
  205230:	a9bf7bfd 	stp	x29, x30, [sp, #-16]!
  205234:	910003fd 	mov	x29, sp
  205238:	97fff19c 	bl	2018a8 <get_bl_mem_params_node>
  20523c:	b40000c0 	cbz	x0, 205254 <bl2_plat_handle_pre_image_load+0x24>
  205240:	91002000 	add	x0, x0, #0x8
  205244:	97fff1ff 	bl	201a40 <image_decompress_prepare>
  205248:	52800000 	mov	w0, #0x0                   	// #0
  20524c:	a8c17bfd 	ldp	x29, x30, [sp], #16
  205250:	d65f03c0 	ret
  205254:	12800240 	mov	w0, #0xffffffed            	// #-19
  205258:	17fffffd 	b	20524c <bl2_plat_handle_pre_image_load+0x1c>

000000000020525c <bl2_plat_handle_post_image_load>:
  20525c:	a9bf7bfd 	stp	x29, x30, [sp, #-16]!
  205260:	910003fd 	mov	x29, sp
  205264:	97fff191 	bl	2018a8 <get_bl_mem_params_node>
  205268:	b40000c0 	cbz	x0, 205280 <bl2_plat_handle_post_image_load+0x24>
  20526c:	b9400c01 	ldr	w1, [x0, #12]
  205270:	91002000 	add	x0, x0, #0x8
  205274:	370800c1 	tbnz	w1, #1, 20528c <bl2_plat_handle_post_image_load+0x30>
  205278:	a8c17bfd 	ldp	x29, x30, [sp], #16
  20527c:	17fff200 	b	201a7c <image_decompress>
  205280:	12800240 	mov	w0, #0xffffffed            	// #-19
  205284:	a8c17bfd 	ldp	x29, x30, [sp], #16
  205288:	d65f03c0 	ret
  20528c:	52800000 	mov	w0, #0x0                   	// #0
  205290:	17fffffd 	b	205284 <bl2_plat_handle_post_image_load+0x28>

0000000000205294 <plat_get_bl_image_load_info>:
  205294:	17fff191 	b	2018d8 <get_bl_load_info_from_mem_params_desc>

0000000000205298 <plat_get_next_bl_params>:
  205298:	17fff1ad 	b	20194c <get_next_bl_params_from_mem_params_desc>

000000000020529c <plat_flush_next_bl_params>:
  20529c:	17fff169 	b	201840 <flush_bl_params_desc>

00000000002052a0 <platform_mem_init>:
  2052a0:	d65f03c0 	ret

00000000002052a4 <bl2_el3_early_platform_setup>:
  2052a4:	52984002 	mov	w2, #0xc200                	// #49664
  2052a8:	528f0801 	mov	w1, #0x7840                	// #30784
  2052ac:	d2840000 	mov	x0, #0x2000                	// #8192
  2052b0:	f0000064 	adrp	x4, 214000 <list+0x2550>
  2052b4:	52800023 	mov	w3, #0x1                   	// #1
  2052b8:	911ba084 	add	x4, x4, #0x6e8
  2052bc:	72a00022 	movk	w2, #0x1, lsl #16
  2052c0:	72a02fa1 	movk	w1, #0x17d, lsl #16
  2052c4:	f2a22000 	movk	x0, #0x1100, lsl #16
  2052c8:	17fff03f 	b	2013c4 <console_hsuart_register>

00000000002052cc <bl2_platform_setup>:
  2052cc:	a9be7bfd 	stp	x29, x30, [sp, #-32]!
  2052d0:	910003fd 	mov	x29, sp
  2052d4:	f9000bf3 	str	x19, [sp, #16]
  2052d8:	f0000033 	adrp	x19, 20c000 <vprintf+0x2b8>
  2052dc:	910be273 	add	x19, x19, #0x2f8
  2052e0:	f9400260 	ldr	x0, [x19]
  2052e4:	b50002e0 	cbnz	x0, 205340 <bl2_platform_setup+0x74>
  2052e8:	f0000053 	adrp	x19, 210000 <__RO_END__>
  2052ec:	91068273 	add	x19, x19, #0x1a0
  2052f0:	f0000060 	adrp	x0, 214000 <list+0x2550>
  2052f4:	910aa261 	add	x1, x19, #0x2a8
  2052f8:	911ca000 	add	x0, x0, #0x728
  2052fc:	97ffff5c 	bl	20506c <mtk_mmc_gpt_image_setup>
  205300:	35000140 	cbnz	w0, 205328 <bl2_platform_setup+0x5c>
  205304:	f0000060 	adrp	x0, 214000 <list+0x2550>
  205308:	91002261 	add	x1, x19, #0x8
  20530c:	911b8000 	add	x0, x0, #0x6e0
  205310:	97ffff72 	bl	2050d8 <mtk_fip_image_setup>
  205314:	350000a0 	cbnz	w0, 205328 <bl2_platform_setup+0x5c>
  205318:	f0000060 	adrp	x0, 214000 <list+0x2550>
  20531c:	911c6000 	add	x0, x0, #0x718
  205320:	97fff414 	bl	202370 <register_io_dev_fip>
  205324:	34000140 	cbz	w0, 20534c <bl2_platform_setup+0x80>
  205328:	2a0003e1 	mov	w1, w0
  20532c:	b0000040 	adrp	x0, 20e000 <mtk_pin_info_pu+0x36c>
  205330:	91115800 	add	x0, x0, #0x456
  205334:	94000675 	bl	206d08 <tf_log>
  205338:	940006e2 	bl	206ec0 <console_flush>
  20533c:	97fff05b 	bl	2014a8 <el3_panic>
  205340:	91002273 	add	x19, x19, #0x8
  205344:	d63f0000 	blr	x0
  205348:	17ffffe6 	b	2052e0 <bl2_platform_setup+0x14>
  20534c:	f9400bf3 	ldr	x19, [sp, #16]
  205350:	a8c27bfd 	ldp	x29, x30, [sp], #32
  205354:	d65f03c0 	ret

0000000000205358 <msdc_card_busy>:
  205358:	f0000060 	adrp	x0, 214000 <list+0x2550>
  20535c:	f9439800 	ldr	x0, [x0, #1840]
  205360:	b9400800 	ldr	w0, [x0, #8]
  205364:	d2700000 	eor	x0, x0, #0x10000
  205368:	53104000 	ubfx	w0, w0, #16, #1
  20536c:	d65f03c0 	ret

0000000000205370 <mtk_mmc_prepare>:
  205370:	f0000060 	adrp	x0, 214000 <list+0x2550>
  205374:	f903b802 	str	x2, [x0, #1904]
  205378:	f0000040 	adrp	x0, 210000 <__RO_END__>
  20537c:	b9446001 	ldr	w1, [x0, #1120]
  205380:	f0000060 	adrp	x0, 214000 <list+0x2550>
  205384:	340001a1 	cbz	w1, 2053b8 <mtk_mmc_prepare+0x48>
  205388:	b90bb401 	str	w1, [x0, #2996]
  20538c:	b94bb401 	ldr	w1, [x0, #2996]
  205390:	d1000420 	sub	x0, x1, #0x1
  205394:	8b020002 	add	x2, x0, x2
  205398:	f0000060 	adrp	x0, 214000 <list+0x2550>
  20539c:	9ac10842 	udiv	x2, x2, x1
  2053a0:	52800021 	mov	w1, #0x1                   	// #1
  2053a4:	b90bb002 	str	w2, [x0, #2992]
  2053a8:	f0000060 	adrp	x0, 214000 <list+0x2550>
  2053ac:	3939dc01 	strb	w1, [x0, #3703]
  2053b0:	52800000 	mov	w0, #0x0                   	// #0
  2053b4:	d65f03c0 	ret
  2053b8:	f108005f 	cmp	x2, #0x200
  2053bc:	52804001 	mov	w1, #0x200                 	// #512
  2053c0:	1a813041 	csel	w1, w2, w1, cc  // cc = lo, ul, last
  2053c4:	17fffff1 	b	205388 <mtk_mmc_prepare+0x18>

00000000002053c8 <mtk_mmc_write>:
  2053c8:	12800000 	mov	w0, #0xffffffff            	// #-1
  2053cc:	d65f03c0 	ret

00000000002053d0 <mtk_mmc_read>:
  2053d0:	a9bf7bfd 	stp	x29, x30, [sp, #-16]!
  2053d4:	f0000064 	adrp	x4, 214000 <list+0x2550>
  2053d8:	aa0103e0 	mov	x0, x1
  2053dc:	910003fd 	mov	x29, sp
  2053e0:	f0000061 	adrp	x1, 214000 <list+0x2550>
  2053e4:	f943b88d 	ldr	x13, [x4, #1904]
  2053e8:	3939dc3f 	strb	wzr, [x1, #3703]
  2053ec:	eb0201bf 	cmp	x13, x2
  2053f0:	540000e2 	b.cs	20540c <mtk_mmc_read+0x3c>  // b.hs, b.nlast
  2053f4:	b0000040 	adrp	x0, 20e000 <mtk_pin_info_pu+0x36c>
  2053f8:	9112d800 	add	x0, x0, #0x4b6
  2053fc:	94000643 	bl	206d08 <tf_log>
  205400:	128002a0 	mov	w0, #0xffffffea            	// #-22
  205404:	a8c17bfd 	ldp	x29, x30, [sp], #16
  205408:	d65f03c0 	ret
  20540c:	f0000066 	adrp	x6, 214000 <list+0x2550>
  205410:	aa0203e3 	mov	x3, x2
  205414:	529a0007 	mov	w7, #0xd000                	// #53248
  205418:	d280100e 	mov	x14, #0x80                  	// #128
  20541c:	f94398c5 	ldr	x5, [x6, #1840]
  205420:	911cc0c6 	add	x6, x6, #0x730
  205424:	9280006f 	mov	x15, #0xfffffffffffffffc    	// #-4
  205428:	b94034a1 	ldr	w1, [x5, #52]
  20542c:	b94038a2 	ldr	w2, [x5, #56]
  205430:	12001421 	and	w1, w1, #0x3f
  205434:	b9000ca7 	str	w7, [x5, #12]
  205438:	52800005 	mov	w5, #0x0                   	// #0
  20543c:	f94000c9 	ldr	x9, [x6]
  205440:	b9400d27 	ldr	w7, [x9, #12]
  205444:	b9000d27 	str	w7, [x9, #12]
  205448:	36780107 	tbz	w7, #15, 205468 <mtk_mmc_read+0x98>
  20544c:	34000045 	cbz	w5, 205454 <mtk_mmc_read+0x84>
  205450:	f903b88d 	str	x13, [x4, #1904]
  205454:	b0000040 	adrp	x0, 20e000 <mtk_pin_info_pu+0x36c>
  205458:	91138c00 	add	x0, x0, #0x4e3
  20545c:	9400062b 	bl	206d08 <tf_log>
  205460:	12800080 	mov	w0, #0xfffffffb            	// #-5
  205464:	17ffffe8 	b	205404 <mtk_mmc_read+0x34>
  205468:	36700107 	tbz	w7, #14, 205488 <mtk_mmc_read+0xb8>
  20546c:	34000045 	cbz	w5, 205474 <mtk_mmc_read+0xa4>
  205470:	f903b88d 	str	x13, [x4, #1904]
  205474:	b0000040 	adrp	x0, 20e000 <mtk_pin_info_pu+0x36c>
  205478:	91149800 	add	x0, x0, #0x526
  20547c:	94000623 	bl	206d08 <tf_log>
  205480:	12800760 	mov	w0, #0xffffffc4            	// #-60
  205484:	17ffffe0 	b	205404 <mtk_mmc_read+0x34>
  205488:	b9401529 	ldr	w9, [x9, #20]
  20548c:	f102007f 	cmp	x3, #0x80
  205490:	9a8e9068 	csel	x8, x3, x14, ls  // ls = plast
  205494:	6b29011f 	cmp	w8, w9, uxtb
  205498:	54000288 	b.hi	2054e8 <mtk_mmc_read+0x118>  // b.pmore
  20549c:	8b080005 	add	x5, x0, x8
  2054a0:	cb0000aa 	sub	x10, x5, x0
  2054a4:	f2400409 	ands	x9, x0, #0x3
  2054a8:	f94000cc 	ldr	x12, [x6]
  2054ac:	540002a1 	b.ne	205500 <mtk_mmc_read+0x130>  // b.any
  2054b0:	d280000b 	mov	x11, #0x0                   	// #0
  2054b4:	cb0b0150 	sub	x16, x10, x11
  2054b8:	f1000e1f 	cmp	x16, #0x3
  2054bc:	54000288 	b.hi	20550c <mtk_mmc_read+0x13c>  // b.pmore
  2054c0:	d342fd4b 	lsr	x11, x10, #2
  2054c4:	927ef54c 	and	x12, x10, #0xfffffffffffffffc
  2054c8:	8b0c0000 	add	x0, x0, x12
  2054cc:	9b0f296a 	madd	x10, x11, x15, x10
  2054d0:	eb09015f 	cmp	x10, x9
  2054d4:	54000241 	b.ne	20551c <mtk_mmc_read+0x14c>  // b.any
  2054d8:	cb080063 	sub	x3, x3, x8
  2054dc:	cb0801ad 	sub	x13, x13, x8
  2054e0:	aa0503e0 	mov	x0, x5
  2054e4:	52800025 	mov	w5, #0x1                   	// #1
  2054e8:	37600247 	tbnz	w7, #12, 205530 <mtk_mmc_read+0x160>
  2054ec:	b5fffa83 	cbnz	x3, 20543c <mtk_mmc_read+0x6c>
  2054f0:	34000045 	cbz	w5, 2054f8 <mtk_mmc_read+0x128>
  2054f4:	f903b88d 	str	x13, [x4, #1904]
  2054f8:	52800000 	mov	w0, #0x0                   	// #0
  2054fc:	17ffffc2 	b	205404 <mtk_mmc_read+0x34>
  205500:	39407189 	ldrb	w9, [x12, #28]
  205504:	38001409 	strb	w9, [x0], #1
  205508:	17ffffe6 	b	2054a0 <mtk_mmc_read+0xd0>
  20550c:	b9401d90 	ldr	w16, [x12, #28]
  205510:	b82b6810 	str	w16, [x0, x11]
  205514:	9100116b 	add	x11, x11, #0x4
  205518:	17ffffe7 	b	2054b4 <mtk_mmc_read+0xe4>
  20551c:	f94000cb 	ldr	x11, [x6]
  205520:	3940716b 	ldrb	w11, [x11, #28]
  205524:	3829680b 	strb	w11, [x0, x9]
  205528:	91000529 	add	x9, x9, #0x1
  20552c:	17ffffe9 	b	2054d0 <mtk_mmc_read+0x100>
  205530:	34000045 	cbz	w5, 205538 <mtk_mmc_read+0x168>
  205534:	f903b88d 	str	x13, [x4, #1904]
  205538:	b4fffe03 	cbz	x3, 2054f8 <mtk_mmc_read+0x128>
  20553c:	b0000040 	adrp	x0, 20e000 <mtk_pin_info_pu+0x36c>
  205540:	91159c00 	add	x0, x0, #0x567
  205544:	940005f1 	bl	206d08 <tf_log>
  205548:	17ffffc6 	b	205460 <mtk_mmc_read+0x90>

000000000020554c <msdc_ops_set_ios>:
  20554c:	f0000065 	adrp	x5, 214000 <list+0x2550>
  205550:	f94398a2 	ldr	x2, [x5, #1840]
  205554:	b9403043 	ldr	w3, [x2, #48]
  205558:	120e7463 	and	w3, w3, #0xfffcffff
  20555c:	7100043f 	cmp	w1, #0x1
  205560:	540001e0 	b.eq	20559c <msdc_ops_set_ios+0x50>  // b.none
  205564:	7100083f 	cmp	w1, #0x2
  205568:	540001e0 	b.eq	2055a4 <msdc_ops_set_ios+0x58>  // b.none
  20556c:	911cc0a5 	add	x5, x5, #0x730
  205570:	b9003043 	str	w3, [x2, #48]
  205574:	b9401ca1 	ldr	w1, [x5, #28]
  205578:	6b00003f 	cmp	w1, w0
  20557c:	540000c0 	b.eq	205594 <msdc_ops_set_ios+0x48>  // b.none
  205580:	35000160 	cbnz	w0, 2055ac <msdc_ops_set_ios+0x60>
  205584:	b9001cbf 	str	wzr, [x5, #28]
  205588:	b9400040 	ldr	w0, [x2]
  20558c:	121e7800 	and	w0, w0, #0xfffffffd
  205590:	b9000040 	str	w0, [x2]
  205594:	52800000 	mov	w0, #0x0                   	// #0
  205598:	d65f03c0 	ret
  20559c:	32100063 	orr	w3, w3, #0x10000
  2055a0:	17fffff3 	b	20556c <msdc_ops_set_ios+0x20>
  2055a4:	320f0063 	orr	w3, w3, #0x20000
  2055a8:	17fffff1 	b	20556c <msdc_ops_set_ios+0x20>
  2055ac:	f94008a1 	ldr	x1, [x5, #16]
  2055b0:	39400026 	ldrb	w6, [x1]
  2055b4:	b9400041 	ldr	w1, [x2]
  2055b8:	710020df 	cmp	w6, #0x8
  2055bc:	54000221 	b.ne	205600 <msdc_ops_set_ios+0xb4>  // b.any
  2055c0:	120d7821 	and	w1, w1, #0xfffbffff
  2055c4:	b9000041 	str	w1, [x2]
  2055c8:	b94018a1 	ldr	w1, [x5, #24]
  2055cc:	6b01001f 	cmp	w0, w1
  2055d0:	540001c2 	b.cs	205608 <msdc_ops_set_ios+0xbc>  // b.hs, b.nlast
  2055d4:	53017c23 	lsr	w3, w1, #1
  2055d8:	6b03001f 	cmp	w0, w3
  2055dc:	54000782 	b.cs	2056cc <msdc_ops_set_ios+0x180>  // b.hs, b.nlast
  2055e0:	51000424 	sub	w4, w1, #0x1
  2055e4:	531e7403 	lsl	w3, w0, #2
  2055e8:	0b000884 	add	w4, w4, w0, lsl #2
  2055ec:	53027c21 	lsr	w1, w1, #2
  2055f0:	1ac30883 	udiv	w3, w4, w3
  2055f4:	1ac30821 	udiv	w1, w1, w3
  2055f8:	52800004 	mov	w4, #0x0                   	// #0
  2055fc:	14000005 	b	205610 <msdc_ops_set_ios+0xc4>
  205600:	12097821 	and	w1, w1, #0xffbfffff
  205604:	17fffff0 	b	2055c4 <msdc_ops_set_ios+0x78>
  205608:	52800003 	mov	w3, #0x0                   	// #0
  20560c:	52800024 	mov	w4, #0x1                   	// #1
  205610:	b9400047 	ldr	w7, [x2]
  205614:	121e78e7 	and	w7, w7, #0xfffffffd
  205618:	b9000047 	str	w7, [x2]
  20561c:	b9400047 	ldr	w7, [x2]
  205620:	710020df 	cmp	w6, #0x8
  205624:	540005a1 	b.ne	2056d8 <msdc_ops_set_ios+0x18c>  // b.any
  205628:	120e54e7 	and	w7, w7, #0xfffc00ff
  20562c:	7103fc7f 	cmp	w3, #0xff
  205630:	2a0440e4 	orr	w4, w7, w4, lsl #16
  205634:	52801fe7 	mov	w7, #0xff                  	// #255
  205638:	1a879063 	csel	w3, w3, w7, ls  // ls = plast
  20563c:	2a032083 	orr	w3, w4, w3, lsl #8
  205640:	b9000043 	str	w3, [x2]
  205644:	b9400043 	ldr	w3, [x2]
  205648:	363fffe3 	tbz	w3, #7, 205644 <msdc_ops_set_ios+0xf8>
  20564c:	290384a0 	stp	w0, w1, [x5, #28]
  205650:	34000341 	cbz	w1, 2056b8 <msdc_ops_set_ios+0x16c>
  205654:	52994000 	mov	w0, #0xca00                	// #51712
  205658:	12bffe03 	mov	w3, #0xfffff               	// #1048575
  20565c:	72a77340 	movk	w0, #0x3b9a, lsl #16
  205660:	1ac10800 	udiv	w0, w0, w1
  205664:	b94024a1 	ldr	w1, [x5, #36]
  205668:	51000421 	sub	w1, w1, #0x1
  20566c:	0b000021 	add	w1, w1, w0
  205670:	1ac00821 	udiv	w1, w1, w0
  205674:	b94028a0 	ldr	w0, [x5, #40]
  205678:	0b030000 	add	w0, w0, w3
  20567c:	0b000021 	add	w1, w1, w0
  205680:	b9400040 	ldr	w0, [x2]
  205684:	53147c21 	lsr	w1, w1, #20
  205688:	710020df 	cmp	w6, #0x8
  20568c:	54000301 	b.ne	2056ec <msdc_ops_set_ios+0x1a0>  // b.any
  205690:	d3504400 	ubfx	x0, x0, #16, #2
  205694:	7100041f 	cmp	w0, #0x1
  205698:	54000049 	b.ls	2056a0 <msdc_ops_set_ios+0x154>  // b.plast
  20569c:	531f7821 	lsl	w1, w1, #1
  2056a0:	7100003f 	cmp	w1, #0x0
  2056a4:	52801fe0 	mov	w0, #0xff                  	// #255
  2056a8:	1a9f1421 	csinc	w1, w1, wzr, ne  // ne = any
  2056ac:	51000421 	sub	w1, w1, #0x1
  2056b0:	7103fc3f 	cmp	w1, #0xff
  2056b4:	1a809021 	csel	w1, w1, w0, ls  // ls = plast
  2056b8:	b9403040 	ldr	w0, [x2, #48]
  2056bc:	12005c00 	and	w0, w0, #0xffffff
  2056c0:	2a016001 	orr	w1, w0, w1, lsl #24
  2056c4:	b9003041 	str	w1, [x2, #48]
  2056c8:	17ffffb3 	b	205594 <msdc_ops_set_ios+0x48>
  2056cc:	2a0303e1 	mov	w1, w3
  2056d0:	52800003 	mov	w3, #0x0                   	// #0
  2056d4:	17ffffc9 	b	2055f8 <msdc_ops_set_ios+0xac>
  2056d8:	120a44e7 	and	w7, w7, #0xffc000ff
  2056dc:	713ffc7f 	cmp	w3, #0xfff
  2056e0:	2a0450e4 	orr	w4, w7, w4, lsl #20
  2056e4:	5281ffe7 	mov	w7, #0xfff                 	// #4095
  2056e8:	17ffffd4 	b	205638 <msdc_ops_set_ios+0xec>
  2056ec:	d3545400 	ubfx	x0, x0, #20, #2
  2056f0:	17ffffe9 	b	205694 <msdc_ops_set_ios+0x148>

00000000002056f4 <msdc_reset_hw.constprop.0>:
  2056f4:	f0000060 	adrp	x0, 214000 <list+0x2550>
  2056f8:	f9439800 	ldr	x0, [x0, #1840]
  2056fc:	b9400001 	ldr	w1, [x0]
  205700:	321e0021 	orr	w1, w1, #0x4
  205704:	b9000001 	str	w1, [x0]
  205708:	b9400001 	ldr	w1, [x0]
  20570c:	3717ffe1 	tbnz	w1, #2, 205708 <msdc_reset_hw.constprop.0+0x14>
  205710:	d65f03c0 	ret

0000000000205714 <msdc_init_hw>:
  205714:	f0000063 	adrp	x3, 214000 <list+0x2550>
  205718:	911cc064 	add	x4, x3, #0x730
  20571c:	a9bf7bfd 	stp	x29, x30, [sp, #-16]!
  205720:	910003fd 	mov	x29, sp
  205724:	f9400881 	ldr	x1, [x4, #16]
  205728:	f9439860 	ldr	x0, [x3, #1840]
  20572c:	39400425 	ldrb	w5, [x1, #1]
  205730:	9103c002 	add	x2, x0, #0xf0
  205734:	9103b001 	add	x1, x0, #0xec
  205738:	710000bf 	cmp	w5, #0x0
  20573c:	9a811042 	csel	x2, x2, x1, ne  // ne = any
  205740:	b9400001 	ldr	w1, [x0]
  205744:	32000021 	orr	w1, w1, #0x1
  205748:	b9000001 	str	w1, [x0]
  20574c:	b9400001 	ldr	w1, [x0]
  205750:	321d0021 	orr	w1, w1, #0x8
  205754:	b9000001 	str	w1, [x0]
  205758:	97ffffe7 	bl	2056f4 <msdc_reset_hw.constprop.0>
  20575c:	f9439860 	ldr	x0, [x3, #1840]
  205760:	b9400c01 	ldr	w1, [x0, #12]
  205764:	b9000c01 	str	w1, [x0, #12]
  205768:	529ae001 	mov	w1, #0xd700                	// #55040
  20576c:	b9001001 	str	w1, [x0, #16]
  205770:	f9400481 	ldr	x1, [x4, #8]
  205774:	b900005f 	str	wzr, [x2]
  205778:	b4000061 	cbz	x1, 205784 <msdc_init_hw+0x70>
  20577c:	b900003f 	str	wzr, [x1]
  205780:	b900043f 	str	wzr, [x1, #4]
  205784:	f9400883 	ldr	x3, [x4, #16]
  205788:	39401c65 	ldrb	w5, [x3, #7]
  20578c:	b900041f 	str	wzr, [x0, #4]
  205790:	34000a25 	cbz	w5, 2058d4 <msdc_init_hw+0x1c0>
  205794:	b9400405 	ldr	w5, [x0, #4]
  205798:	321f00a5 	orr	w5, w5, #0x2
  20579c:	b9000405 	str	w5, [x0, #4]
  2057a0:	528008c5 	mov	w5, #0x46                  	// #70
  2057a4:	72a80785 	movk	w5, #0x403c, lsl #16
  2057a8:	b900b005 	str	w5, [x0, #176]
  2057ac:	1297eec5 	mov	w5, #0xffff4089            	// #-49015
  2057b0:	b900b405 	str	w5, [x0, #180]
  2057b4:	39401465 	ldrb	w5, [x3, #5]
  2057b8:	34000165 	cbz	w5, 2057e4 <msdc_init_hw+0xd0>
  2057bc:	b9422805 	ldr	w5, [x0, #552]
  2057c0:	120778a5 	and	w5, w5, #0xfeffffff
  2057c4:	b9022805 	str	w5, [x0, #552]
  2057c8:	b9422805 	ldr	w5, [x0, #552]
  2057cc:	120678a5 	and	w5, w5, #0xfdffffff
  2057d0:	b9022805 	str	w5, [x0, #552]
  2057d4:	b940b405 	ldr	w5, [x0, #180]
  2057d8:	12146ca5 	and	w5, w5, #0xfffff0ff
  2057dc:	321804a5 	orr	w5, w5, #0x300
  2057e0:	b900b405 	str	w5, [x0, #180]
  2057e4:	39401065 	ldrb	w5, [x3, #4]
  2057e8:	34000085 	cbz	w5, 2057f8 <msdc_init_hw+0xe4>
  2057ec:	b940b405 	ldr	w5, [x0, #180]
  2057f0:	121878a5 	and	w5, w5, #0xffffff7f
  2057f4:	b900b405 	str	w5, [x0, #180]
  2057f8:	b9420805 	ldr	w5, [x0, #520]
  2057fc:	321c00a5 	orr	w5, w5, #0x10
  205800:	b9020805 	str	w5, [x0, #520]
  205804:	39400865 	ldrb	w5, [x3, #2]
  205808:	34000205 	cbz	w5, 205848 <msdc_init_hw+0x134>
  20580c:	b940b805 	ldr	w5, [x0, #184]
  205810:	321e04a5 	orr	w5, w5, #0xc
  205814:	b900b805 	str	w5, [x0, #184]
  205818:	39401865 	ldrb	w5, [x3, #6]
  20581c:	340006a5 	cbz	w5, 2058f0 <msdc_init_hw+0x1dc>
  205820:	b4000601 	cbz	x1, 2058e0 <msdc_init_hw+0x1cc>
  205824:	b9400025 	ldr	w5, [x1]
  205828:	321100a5 	orr	w5, w5, #0x8000
  20582c:	b9000025 	str	w5, [x1]
  205830:	b940b805 	ldr	w5, [x0, #184]
  205834:	121078a5 	and	w5, w5, #0xffff7fff
  205838:	b900b805 	str	w5, [x0, #184]
  20583c:	b940b805 	ldr	w5, [x0, #184]
  205840:	120378a5 	and	w5, w5, #0xefffffff
  205844:	b900b805 	str	w5, [x0, #184]
  205848:	39400c65 	ldrb	w5, [x3, #3]
  20584c:	34000705 	cbz	w5, 20592c <msdc_init_hw+0x218>
  205850:	b4000621 	cbz	x1, 205914 <msdc_init_hw+0x200>
  205854:	b9400022 	ldr	w2, [x1]
  205858:	32130042 	orr	w2, w2, #0x2000
  20585c:	b9000022 	str	w2, [x1]
  205860:	b9400022 	ldr	w2, [x1]
  205864:	12117842 	and	w2, w2, #0xffffbfff
  205868:	b9000022 	str	w2, [x1]
  20586c:	b9400422 	ldr	w2, [x1, #4]
  205870:	32150042 	orr	w2, w2, #0x800
  205874:	b9000422 	str	w2, [x1, #4]
  205878:	b940b002 	ldr	w2, [x0, #176]
  20587c:	b9400861 	ldr	w1, [x3, #8]
  205880:	12167042 	and	w2, w2, #0xfffffc7f
  205884:	2a011c41 	orr	w1, w2, w1, lsl #7
  205888:	b900b001 	str	w1, [x0, #176]
  20588c:	b9403001 	ldr	w1, [x0, #48]
  205890:	320d0021 	orr	w1, w1, #0x80000
  205894:	b9003001 	str	w1, [x0, #48]
  205898:	b9403001 	ldr	w1, [x0, #48]
  20589c:	120b7821 	and	w1, w1, #0xffefffff
  2058a0:	b9003001 	str	w1, [x0, #48]
  2058a4:	b9403001 	ldr	w1, [x0, #48]
  2058a8:	12005c21 	and	w1, w1, #0xffffff
  2058ac:	32080421 	orr	w1, w1, #0x3000000
  2058b0:	b9003001 	str	w1, [x0, #48]
  2058b4:	b9400401 	ldr	w1, [x0, #4]
  2058b8:	b940ec00 	ldr	w0, [x0, #236]
  2058bc:	29068081 	stp	w1, w0, [x4, #52]
  2058c0:	52800001 	mov	w1, #0x0                   	// #0
  2058c4:	52884800 	mov	w0, #0x4240                	// #16960
  2058c8:	a8c17bfd 	ldp	x29, x30, [sp], #16
  2058cc:	72a001e0 	movk	w0, #0xf, lsl #16
  2058d0:	17ffff1f 	b	20554c <msdc_ops_set_ios>
  2058d4:	b9400405 	ldr	w5, [x0, #4]
  2058d8:	121e78a5 	and	w5, w5, #0xfffffffd
  2058dc:	17ffffb0 	b	20579c <msdc_init_hw+0x88>
  2058e0:	b9406405 	ldr	w5, [x0, #100]
  2058e4:	320c00a5 	orr	w5, w5, #0x100000
  2058e8:	b9006405 	str	w5, [x0, #100]
  2058ec:	17ffffd1 	b	205830 <msdc_init_hw+0x11c>
  2058f0:	b940b805 	ldr	w5, [x0, #184]
  2058f4:	120d70a5 	and	w5, w5, #0xfff8ffff
  2058f8:	320f00a5 	orr	w5, w5, #0x20000
  2058fc:	b900b805 	str	w5, [x0, #184]
  205900:	b940b805 	ldr	w5, [x0, #184]
  205904:	120070a5 	and	w5, w5, #0x1fffffff
  205908:	320200a5 	orr	w5, w5, #0x40000000
  20590c:	b900b805 	str	w5, [x0, #184]
  205910:	17ffffc8 	b	205830 <msdc_init_hw+0x11c>
  205914:	b9400041 	ldr	w1, [x2]
  205918:	52840005 	mov	w5, #0x2000                	// #8192
  20591c:	72a00405 	movk	w5, #0x20, lsl #16
  205920:	2a050021 	orr	w1, w1, w5
  205924:	b9000041 	str	w1, [x2]
  205928:	17ffffd4 	b	205878 <msdc_init_hw+0x164>
  20592c:	b9400041 	ldr	w1, [x2]
  205930:	32110021 	orr	w1, w1, #0x8000
  205934:	b9000041 	str	w1, [x2]
  205938:	17ffffd5 	b	20588c <msdc_init_hw+0x178>

000000000020593c <mtk_mmc_send_cmd>:
  20593c:	f0000061 	adrp	x1, 214000 <list+0x2550>
  205940:	aa0003e3 	mov	x3, x0
  205944:	f9439820 	ldr	x0, [x1, #1840]
  205948:	b9403c02 	ldr	w2, [x0, #60]
  20594c:	121f0047 	and	w7, w2, #0x2
  205950:	370fffc2 	tbnz	w2, #1, 205948 <mtk_mmc_send_cmd+0xc>
  205954:	911cc021 	add	x1, x1, #0x730
  205958:	b9402c22 	ldr	w2, [x1, #44]
  20595c:	7100745f 	cmp	w2, #0x1d
  205960:	540000a1 	b.ne	205974 <mtk_mmc_send_cmd+0x38>  // b.any
  205964:	b9403022 	ldr	w2, [x1, #48]
  205968:	34000062 	cbz	w2, 205974 <mtk_mmc_send_cmd+0x38>
  20596c:	b9400802 	ldr	w2, [x0, #8]
  205970:	3687ffe2 	tbz	w2, #16, 20596c <mtk_mmc_send_cmd+0x30>
  205974:	b9401402 	ldr	w2, [x0, #20]
  205978:	32010042 	orr	w2, w2, #0x80000000
  20597c:	b9001402 	str	w2, [x0, #20]
  205980:	b9401402 	ldr	w2, [x0, #20]
  205984:	37ffffe2 	tbnz	w2, #31, 205980 <mtk_mmc_send_cmd+0x44>
  205988:	b9400862 	ldr	w2, [x3, #8]
  20598c:	2905fc22 	stp	w2, wzr, [x1, #44]
  205990:	b9400861 	ldr	w1, [x3, #8]
  205994:	b9400062 	ldr	w2, [x3]
  205998:	51000421 	sub	w1, w1, #0x1
  20599c:	7100703f 	cmp	w1, #0x1c
  2059a0:	54000268 	b.hi	2059ec <mtk_mmc_send_cmd+0xb0>  // b.pmore
  2059a4:	b0000044 	adrp	x4, 20e000 <mtk_pin_info_pu+0x36c>
  2059a8:	9118b084 	add	x4, x4, #0x62c
  2059ac:	38614885 	ldrb	w5, [x4, w1, uxtw]
  2059b0:	f0000061 	adrp	x1, 214000 <list+0x2550>
  2059b4:	3979dc26 	ldrb	w6, [x1, #3703]
  2059b8:	7100645f 	cmp	w2, #0x19
  2059bc:	54000248 	b.hi	205a04 <mtk_mmc_send_cmd+0xc8>  // b.pmore
  2059c0:	7100145f 	cmp	w2, #0x5
  2059c4:	54000a49 	b.ls	205b0c <mtk_mmc_send_cmd+0x1d0>  // b.plast
  2059c8:	51001844 	sub	w4, w2, #0x6
  2059cc:	71004c9f 	cmp	w4, #0x13
  2059d0:	540009e8 	b.hi	205b0c <mtk_mmc_send_cmd+0x1d0>  // b.pmore
  2059d4:	f0000021 	adrp	x1, 20c000 <vprintf+0x2b8>
  2059d8:	9110e021 	add	x1, x1, #0x438
  2059dc:	38644821 	ldrb	w1, [x1, w4, uxtw]
  2059e0:	10000064 	adr	x4, 2059ec <mtk_mmc_send_cmd+0xb0>
  2059e4:	8b218881 	add	x1, x4, w1, sxtb #2
  2059e8:	d61f0020 	br	x1
  2059ec:	52800005 	mov	w5, #0x0                   	// #0
  2059f0:	17fffff0 	b	2059b0 <mtk_mmc_send_cmd+0x74>
  2059f4:	52800041 	mov	w1, #0x2                   	// #2
  2059f8:	350001a6 	cbnz	w6, 205a2c <mtk_mmc_send_cmd+0xf0>
  2059fc:	52800004 	mov	w4, #0x0                   	// #0
  205a00:	14000015 	b	205a54 <mtk_mmc_send_cmd+0x118>
  205a04:	7100cc5f 	cmp	w2, #0x33
  205a08:	1a9f17e1 	cset	w1, eq  // eq = none
  205a0c:	17fffffb 	b	2059f8 <mtk_mmc_send_cmd+0xbc>
  205a10:	52800021 	mov	w1, #0x1                   	// #1
  205a14:	17fffff9 	b	2059f8 <mtk_mmc_send_cmd+0xbc>
  205a18:	340007e6 	cbz	w6, 205b14 <mtk_mmc_send_cmd+0x1d8>
  205a1c:	f0000061 	adrp	x1, 214000 <list+0x2550>
  205a20:	f943b821 	ldr	x1, [x1, #1904]
  205a24:	f100003f 	cmp	x1, #0x0
  205a28:	1a9f07e1 	cset	w1, ne  // ne = any
  205a2c:	f0000064 	adrp	x4, 214000 <list+0x2550>
  205a30:	f943b884 	ldr	x4, [x4, #1904]
  205a34:	b4fffe44 	cbz	x4, 2059fc <mtk_mmc_send_cmd+0xc0>
  205a38:	f0000064 	adrp	x4, 214000 <list+0x2550>
  205a3c:	b94bb084 	ldr	w4, [x4, #2992]
  205a40:	7100089f 	cmp	w4, #0x2
  205a44:	52800044 	mov	w4, #0x2                   	// #2
  205a48:	1a843021 	csel	w1, w1, w4, cc  // cc = lo, ul, last
  205a4c:	f0000064 	adrp	x4, 214000 <list+0x2550>
  205a50:	b94bb484 	ldr	w4, [x4, #2996]
  205a54:	53102c84 	ubfiz	w4, w4, #16, #12
  205a58:	2a012c81 	orr	w1, w4, w1, lsl #11
  205a5c:	12001444 	and	w4, w2, #0x3f
  205a60:	2a051c85 	orr	w5, w4, w5, lsl #7
  205a64:	2a050021 	orr	w1, w1, w5
  205a68:	7100305f 	cmp	w2, #0xc
  205a6c:	54000041 	b.ne	205a74 <mtk_mmc_send_cmd+0x138>  // b.any
  205a70:	32120021 	orr	w1, w1, #0x4000
  205a74:	340000c6 	cbz	w6, 205a8c <mtk_mmc_send_cmd+0x150>
  205a78:	f0000062 	adrp	x2, 214000 <list+0x2550>
  205a7c:	f943b842 	ldr	x2, [x2, #1904]
  205a80:	b4000062 	cbz	x2, 205a8c <mtk_mmc_send_cmd+0x150>
  205a84:	f0000062 	adrp	x2, 214000 <list+0x2550>
  205a88:	b94bb047 	ldr	w7, [x2, #2992]
  205a8c:	5280e002 	mov	w2, #0x700                 	// #1792
  205a90:	b9000c02 	str	w2, [x0, #12]
  205a94:	b9005007 	str	w7, [x0, #80]
  205a98:	b9400462 	ldr	w2, [x3, #4]
  205a9c:	b9003802 	str	w2, [x0, #56]
  205aa0:	b9003401 	str	w1, [x0, #52]
  205aa4:	b9400c04 	ldr	w4, [x0, #12]
  205aa8:	7218089f 	tst	w4, #0x700
  205aac:	54ffffc0 	b.eq	205aa4 <mtk_mmc_send_cmd+0x168>  // b.none
  205ab0:	b9400861 	ldr	w1, [x3, #8]
  205ab4:	36000141 	tbz	w1, #0, 205adc <mtk_mmc_send_cmd+0x1a0>
  205ab8:	36080321 	tbz	w1, #1, 205b1c <mtk_mmc_send_cmd+0x1e0>
  205abc:	b9404c01 	ldr	w1, [x0, #76]
  205ac0:	b9000c61 	str	w1, [x3, #12]
  205ac4:	b9404801 	ldr	w1, [x0, #72]
  205ac8:	b9001061 	str	w1, [x3, #16]
  205acc:	b9404401 	ldr	w1, [x0, #68]
  205ad0:	b9001461 	str	w1, [x3, #20]
  205ad4:	b9404000 	ldr	w0, [x0, #64]
  205ad8:	b9001860 	str	w0, [x3, #24]
  205adc:	374003e4 	tbnz	w4, #8, 205b58 <mtk_mmc_send_cmd+0x21c>
  205ae0:	a9bf7bfd 	stp	x29, x30, [sp, #-16]!
  205ae4:	910003fd 	mov	x29, sp
  205ae8:	97ffff03 	bl	2056f4 <msdc_reset_hw.constprop.0>
  205aec:	364801e4 	tbz	w4, #9, 205b28 <mtk_mmc_send_cmd+0x1ec>
  205af0:	29400861 	ldp	w1, w2, [x3]
  205af4:	b0000040 	adrp	x0, 20e000 <mtk_pin_info_pu+0x36c>
  205af8:	91161800 	add	x0, x0, #0x586
  205afc:	94000483 	bl	206d08 <tf_log>
  205b00:	12800760 	mov	w0, #0xffffffc4            	// #-60
  205b04:	a8c17bfd 	ldp	x29, x30, [sp], #16
  205b08:	d65f03c0 	ret
  205b0c:	52800001 	mov	w1, #0x0                   	// #0
  205b10:	17ffffba 	b	2059f8 <mtk_mmc_send_cmd+0xbc>
  205b14:	52800001 	mov	w1, #0x0                   	// #0
  205b18:	17ffffb9 	b	2059fc <mtk_mmc_send_cmd+0xc0>
  205b1c:	b9404000 	ldr	w0, [x0, #64]
  205b20:	b9000c60 	str	w0, [x3, #12]
  205b24:	17ffffee 	b	205adc <mtk_mmc_send_cmd+0x1a0>
  205b28:	29400861 	ldp	w1, w2, [x3]
  205b2c:	365000c4 	tbz	w4, #10, 205b44 <mtk_mmc_send_cmd+0x208>
  205b30:	b0000040 	adrp	x0, 20e000 <mtk_pin_info_pu+0x36c>
  205b34:	9116e800 	add	x0, x0, #0x5ba
  205b38:	94000474 	bl	206d08 <tf_log>
  205b3c:	12800080 	mov	w0, #0xfffffffb            	// #-5
  205b40:	17fffff1 	b	205b04 <mtk_mmc_send_cmd+0x1c8>
  205b44:	b0000040 	adrp	x0, 20e000 <mtk_pin_info_pu+0x36c>
  205b48:	9117b800 	add	x0, x0, #0x5ee
  205b4c:	9400046f 	bl	206d08 <tf_log>
  205b50:	528002c0 	mov	w0, #0x16                  	// #22
  205b54:	17ffffec 	b	205b04 <mtk_mmc_send_cmd+0x1c8>
  205b58:	52800000 	mov	w0, #0x0                   	// #0
  205b5c:	d65f03c0 	ret

0000000000205b60 <mtk_mmc_init>:
  205b60:	f0000067 	adrp	x7, 214000 <list+0x2550>
  205b64:	911cc0e6 	add	x6, x7, #0x730
  205b68:	f90398e0 	str	x0, [x7, #1840]
  205b6c:	529c2000 	mov	w0, #0xe100                	// #57600
  205b70:	72a0bea0 	movk	w0, #0x5f5, lsl #16
  205b74:	b90024c0 	str	w0, [x6, #36]
  205b78:	52a00600 	mov	w0, #0x300000              	// #3145728
  205b7c:	b90028c0 	str	w0, [x6, #40]
  205b80:	f0000040 	adrp	x0, 210000 <__RO_END__>
  205b84:	91116000 	add	x0, x0, #0x458
  205b88:	a90088c1 	stp	x1, x2, [x6, #8]
  205b8c:	528f0801 	mov	w1, #0x7840                	// #30784
  205b90:	2a0503e2 	mov	w2, w5
  205b94:	72a02fa1 	movk	w1, #0x17d, lsl #16
  205b98:	b9001404 	str	w4, [x0, #20]
  205b9c:	aa0003e4 	mov	x4, x0
  205ba0:	f0000020 	adrp	x0, 20c000 <vprintf+0x2b8>
  205ba4:	910b0000 	add	x0, x0, #0x2c0
  205ba8:	b90018c3 	str	w3, [x6, #24]
  205bac:	52800003 	mov	w3, #0x0                   	// #0
  205bb0:	17fff355 	b	202904 <mmc_init>

0000000000205bb4 <plat_get_syscnt_freq2>:
  205bb4:	d53be000 	mrs	x0, cntfrq_el0
  205bb8:	d65f03c0 	ret

0000000000205bbc <mtk_plat_mmc_setup>:
  205bbc:	a9be7bfd 	stp	x29, x30, [sp, #-32]!
  205bc0:	910003fd 	mov	x29, sp
  205bc4:	a90153f3 	stp	x19, x20, [sp, #16]
  205bc8:	f0000034 	adrp	x20, 20c000 <vprintf+0x2b8>
  205bcc:	91113294 	add	x20, x20, #0x44c
  205bd0:	d2800013 	mov	x19, #0x0                   	// #0
  205bd4:	b8737a80 	ldr	w0, [x20, x19, lsl #2]
  205bd8:	52800041 	mov	w1, #0x2                   	// #2
  205bdc:	91000673 	add	x19, x19, #0x1
  205be0:	94000083 	bl	205dec <mtk_set_pin_mode>
  205be4:	f1001a7f 	cmp	x19, #0x6
  205be8:	54ffff61 	b.ne	205bd4 <mtk_plat_mmc_setup+0x18>  // b.any
  205bec:	528d8003 	mov	w3, #0x6c00                	// #27648
  205bf0:	52800025 	mov	w5, #0x1                   	// #1
  205bf4:	72a05b83 	movk	w3, #0x2dc, lsl #16
  205bf8:	2a0503e4 	mov	w4, w5
  205bfc:	d2800001 	mov	x1, #0x0                   	// #0
  205c00:	d2a22480 	mov	x0, #0x11240000            	// #287571968
  205c04:	f0000022 	adrp	x2, 20c000 <vprintf+0x2b8>
  205c08:	91119042 	add	x2, x2, #0x464
  205c0c:	97ffffd5 	bl	205b60 <mtk_mmc_init>
  205c10:	52800000 	mov	w0, #0x0                   	// #0
  205c14:	a94153f3 	ldp	x19, x20, [sp, #16]
  205c18:	a8c27bfd 	ldp	x29, x30, [sp], #32
  205c1c:	d65f03c0 	ret

0000000000205c20 <mtk_print_cpu>:
  205c20:	528ec441 	mov	w1, #0x7622                	// #30242
  205c24:	b0000040 	adrp	x0, 20e000 <mtk_pin_info_pu+0x36c>
  205c28:	91192400 	add	x0, x0, #0x649
  205c2c:	14000437 	b	206d08 <tf_log>

0000000000205c30 <mtk_wdt_init>:
  205c30:	a9bf7bfd 	stp	x29, x30, [sp, #-16]!
  205c34:	910003fd 	mov	x29, sp
  205c38:	940003c6 	bl	206b50 <mtk_wdt_print_status>
  205c3c:	a8c17bfd 	ldp	x29, x30, [sp], #16
  205c40:	52800000 	mov	w0, #0x0                   	// #0
  205c44:	140003af 	b	206b00 <mtk_wdt_control>

0000000000205c48 <bl2_el3_plat_arch_setup>:
  205c48:	d65f03c0 	ret

0000000000205c4c <plat_is_my_cpu_primary>:
  205c4c:	52800020 	mov	w0, #0x1                   	// #1
  205c50:	d65f03c0 	ret

0000000000205c54 <mtk_set_pin_value.constprop.0>:
  205c54:	91135043 	add	x3, x2, #0x4d4
  205c58:	b9400044 	ldr	w4, [x2]
  205c5c:	6b04001f 	cmp	w0, w4
  205c60:	540000e0 	b.eq	205c7c <mtk_set_pin_value.constprop.0+0x28>  // b.none
  205c64:	91003042 	add	x2, x2, #0xc
  205c68:	eb02007f 	cmp	x3, x2
  205c6c:	54ffff61 	b.ne	205c58 <mtk_set_pin_value.constprop.0+0x4>  // b.any
  205c70:	d2800000 	mov	x0, #0x0                   	// #0
  205c74:	b9400400 	ldr	w0, [x0, #4]
  205c78:	d4207d00 	brk	#0x3e8
  205c7c:	39402043 	ldrb	w3, [x2, #8]
  205c80:	b9400440 	ldr	w0, [x2, #4]
  205c84:	d2800022 	mov	x2, #0x1                   	// #1
  205c88:	9ac32042 	lsl	x2, x2, x3
  205c8c:	340000c1 	cbz	w1, 205ca4 <mtk_set_pin_value.constprop.0+0x50>
  205c90:	52820081 	mov	w1, #0x1004                	// #4100
  205c94:	72a20421 	movk	w1, #0x1021, lsl #16
  205c98:	0b010000 	add	w0, w0, w1
  205c9c:	b9000002 	str	w2, [x0]
  205ca0:	d65f03c0 	ret
  205ca4:	52820101 	mov	w1, #0x1008                	// #4104
  205ca8:	17fffffb 	b	205c94 <mtk_set_pin_value.constprop.0+0x40>

0000000000205cac <mtk_set_pin_out>:
  205cac:	f0000022 	adrp	x2, 20c000 <vprintf+0x2b8>
  205cb0:	91251042 	add	x2, x2, #0x944
  205cb4:	17ffffe8 	b	205c54 <mtk_set_pin_value.constprop.0>

0000000000205cb8 <mtk_set_pin_pull>:
  205cb8:	a9bf7bfd 	stp	x29, x30, [sp, #-16]!
  205cbc:	90000046 	adrp	x6, 20d000 <mtk_pin_info_dir+0x1e8>
  205cc0:	90000047 	adrp	x7, 20d000 <mtk_pin_info_dir+0x1e8>
  205cc4:	910003fd 	mov	x29, sp
  205cc8:	2a0003e5 	mov	w5, w0
  205ccc:	7100043f 	cmp	w1, #0x1
  205cd0:	911f00c6 	add	x6, x6, #0x7c0
  205cd4:	913250e7 	add	x7, x7, #0xc94
  205cd8:	54000121 	b.ne	205cfc <mtk_set_pin_pull+0x44>  // b.any
  205cdc:	aa0603e2 	mov	x2, x6
  205ce0:	52800001 	mov	w1, #0x0                   	// #0
  205ce4:	97ffffdc 	bl	205c54 <mtk_set_pin_value.constprop.0>
  205ce8:	aa0703e2 	mov	x2, x7
  205cec:	a8c17bfd 	ldp	x29, x30, [sp], #16
  205cf0:	2a0503e0 	mov	w0, w5
  205cf4:	52800021 	mov	w1, #0x1                   	// #1
  205cf8:	17ffffd7 	b	205c54 <mtk_set_pin_value.constprop.0>
  205cfc:	aa0703e2 	mov	x2, x7
  205d00:	52800001 	mov	w1, #0x0                   	// #0
  205d04:	97ffffd4 	bl	205c54 <mtk_set_pin_value.constprop.0>
  205d08:	aa0603e2 	mov	x2, x6
  205d0c:	17fffff8 	b	205cec <mtk_set_pin_pull+0x34>

0000000000205d10 <mtk_set_pin_dir>:
  205d10:	f0000022 	adrp	x2, 20c000 <vprintf+0x2b8>
  205d14:	91386042 	add	x2, x2, #0xe18
  205d18:	17ffffcf 	b	205c54 <mtk_set_pin_value.constprop.0>

0000000000205d1c <mtk_get_pin_value.constprop.0>:
  205d1c:	91135022 	add	x2, x1, #0x4d4
  205d20:	b9400023 	ldr	w3, [x1]
  205d24:	6b03001f 	cmp	w0, w3
  205d28:	540000e0 	b.eq	205d44 <mtk_get_pin_value.constprop.0+0x28>  // b.none
  205d2c:	91003021 	add	x1, x1, #0xc
  205d30:	eb01005f 	cmp	x2, x1
  205d34:	54ffff61 	b.ne	205d20 <mtk_get_pin_value.constprop.0+0x4>  // b.any
  205d38:	d2800000 	mov	x0, #0x0                   	// #0
  205d3c:	b9400400 	ldr	w0, [x0, #4]
  205d40:	d4207d00 	brk	#0x3e8
  205d44:	b9400420 	ldr	w0, [x1, #4]
  205d48:	52820002 	mov	w2, #0x1000                	// #4096
  205d4c:	72a20422 	movk	w2, #0x1021, lsl #16
  205d50:	39402423 	ldrb	w3, [x1, #9]
  205d54:	0b020000 	add	w0, w0, w2
  205d58:	39402021 	ldrb	w1, [x1, #8]
  205d5c:	b9400002 	ldr	w2, [x0]
  205d60:	52800020 	mov	w0, #0x1                   	// #1
  205d64:	1ac32000 	lsl	w0, w0, w3
  205d68:	51000400 	sub	w0, w0, #0x1
  205d6c:	1ac12441 	lsr	w1, w2, w1
  205d70:	0a010000 	and	w0, w0, w1
  205d74:	d65f03c0 	ret

0000000000205d78 <mtk_get_pin_in>:
  205d78:	f0000021 	adrp	x1, 20c000 <vprintf+0x2b8>
  205d7c:	9111c021 	add	x1, x1, #0x470
  205d80:	17ffffe7 	b	205d1c <mtk_get_pin_value.constprop.0>

0000000000205d84 <mtk_get_pin_pull>:
  205d84:	a9bf7bfd 	stp	x29, x30, [sp, #-16]!
  205d88:	2a0003e5 	mov	w5, w0
  205d8c:	90000041 	adrp	x1, 20d000 <mtk_pin_info_dir+0x1e8>
  205d90:	910003fd 	mov	x29, sp
  205d94:	91325021 	add	x1, x1, #0xc94
  205d98:	97ffffe1 	bl	205d1c <mtk_get_pin_value.constprop.0>
  205d9c:	2a0003e4 	mov	w4, w0
  205da0:	90000041 	adrp	x1, 20d000 <mtk_pin_info_dir+0x1e8>
  205da4:	2a0503e0 	mov	w0, w5
  205da8:	911f0021 	add	x1, x1, #0x7c0
  205dac:	97ffffdc 	bl	205d1c <mtk_get_pin_value.constprop.0>
  205db0:	2a040400 	orr	w0, w0, w4, lsl #1
  205db4:	7100081f 	cmp	w0, #0x2
  205db8:	540000c0 	b.eq	205dd0 <mtk_get_pin_pull+0x4c>  // b.none
  205dbc:	7100041f 	cmp	w0, #0x1
  205dc0:	540000c1 	b.ne	205dd8 <mtk_get_pin_pull+0x54>  // b.any
  205dc4:	52800000 	mov	w0, #0x0                   	// #0
  205dc8:	a8c17bfd 	ldp	x29, x30, [sp], #16
  205dcc:	d65f03c0 	ret
  205dd0:	52800020 	mov	w0, #0x1                   	// #1
  205dd4:	17fffffd 	b	205dc8 <mtk_get_pin_pull+0x44>
  205dd8:	12800000 	mov	w0, #0xffffffff            	// #-1
  205ddc:	17fffffb 	b	205dc8 <mtk_get_pin_pull+0x44>

0000000000205de0 <mtk_get_pin_dir>:
  205de0:	f0000021 	adrp	x1, 20c000 <vprintf+0x2b8>
  205de4:	91386021 	add	x1, x1, #0xe18
  205de8:	17ffffcd 	b	205d1c <mtk_get_pin_value.constprop.0>

0000000000205dec <mtk_set_pin_mode>:
  205dec:	90000043 	adrp	x3, 20d000 <mtk_pin_info_dir+0x1e8>
  205df0:	910bb063 	add	x3, x3, #0x2ec
  205df4:	52800002 	mov	w2, #0x0                   	// #0
  205df8:	b9400064 	ldr	w4, [x3]
  205dfc:	6b04001f 	cmp	w0, w4
  205e00:	54000100 	b.eq	205e20 <mtk_set_pin_mode+0x34>  // b.none
  205e04:	11000442 	add	w2, w2, #0x1
  205e08:	91003063 	add	x3, x3, #0xc
  205e0c:	71019c5f 	cmp	w2, #0x67
  205e10:	54ffff41 	b.ne	205df8 <mtk_set_pin_mode+0xc>  // b.any
  205e14:	d2800000 	mov	x0, #0x0                   	// #0
  205e18:	39402400 	ldrb	w0, [x0, #9]
  205e1c:	d4207d00 	brk	#0x3e8
  205e20:	b9400464 	ldr	w4, [x3, #4]
  205e24:	52820000 	mov	w0, #0x1000                	// #4096
  205e28:	39402065 	ldrb	w5, [x3, #8]
  205e2c:	72a20420 	movk	w0, #0x1021, lsl #16
  205e30:	39402463 	ldrb	w3, [x3, #9]
  205e34:	0b000084 	add	w4, w4, w0
  205e38:	52800022 	mov	w2, #0x1                   	// #1
  205e3c:	b9400080 	ldr	w0, [x4]
  205e40:	1ac32042 	lsl	w2, w2, w3
  205e44:	51000442 	sub	w2, w2, #0x1
  205e48:	1ac52042 	lsl	w2, w2, w5
  205e4c:	0a220002 	bic	w2, w0, w2
  205e50:	12001c20 	and	w0, w1, #0xff
  205e54:	1ac52000 	lsl	w0, w0, w5
  205e58:	2a020000 	orr	w0, w0, w2
  205e5c:	b9000080 	str	w0, [x4]
  205e60:	d65f03c0 	ret

0000000000205e64 <mtk_pin_init>:
  205e64:	f0000020 	adrp	x0, 20c000 <vprintf+0x2b8>
  205e68:	910d2000 	add	x0, x0, #0x348
  205e6c:	17ffef74 	b	201c3c <gpio_init>

0000000000205e70 <mtk_pll_init>:
  205e70:	d28d0580 	mov	x0, #0x682c                	// #26668
  205e74:	f2a20400 	movk	x0, #0x1020, lsl #16
  205e78:	b9400000 	ldr	w0, [x0]
  205e7c:	72000400 	ands	w0, w0, #0x3
  205e80:	54003620 	b.eq	206544 <mtk_pll_init+0x6d4>  // b.none
  205e84:	2a0003e0 	mov	w0, w0
  205e88:	b0000041 	adrp	x1, 20e000 <mtk_pin_info_pu+0x36c>
  205e8c:	9105a021 	add	x1, x1, #0x168
  205e90:	b8607820 	ldr	w0, [x1, x0, lsl #2]
  205e94:	340001a0 	cbz	w0, 205ec8 <mtk_pll_init+0x58>
  205e98:	d2807081 	mov	x1, #0x384                 	// #900
  205e9c:	f2a20001 	movk	x1, #0x1000, lsl #16
  205ea0:	b9400022 	ldr	w2, [x1]
  205ea4:	37380122 	tbnz	w2, #7, 205ec8 <mtk_pll_init+0x58>
  205ea8:	5280fa02 	mov	w2, #0x7d0                 	// #2000
  205eac:	1b027c00 	mul	w0, w0, w2
  205eb0:	34000080 	cbz	w0, 205ec0 <mtk_pll_init+0x50>
  205eb4:	b9400022 	ldr	w2, [x1]
  205eb8:	51000400 	sub	w0, w0, #0x1
  205ebc:	363fffa2 	tbz	w2, #7, 205eb0 <mtk_pll_init+0x40>
  205ec0:	b9400020 	ldr	w0, [x1]
  205ec4:	36383720 	tbz	w0, #7, 2065a8 <mtk_pll_init+0x738>
  205ec8:	a9ba7bfd 	stp	x29, x30, [sp, #-96]!
  205ecc:	d280c800 	mov	x0, #0x640                 	// #1600
  205ed0:	f2a20400 	movk	x0, #0x1020, lsl #16
  205ed4:	910003fd 	mov	x29, sp
  205ed8:	a90153f3 	stp	x19, x20, [sp, #16]
  205edc:	52800241 	mov	w1, #0x12                  	// #18
  205ee0:	d2926a94 	mov	x20, #0x9354                	// #37716
  205ee4:	a9025bf5 	stp	x21, x22, [sp, #32]
  205ee8:	d2926216 	mov	x22, #0x9310                	// #37648
  205eec:	f2a20416 	movk	x22, #0x1020, lsl #16
  205ef0:	a90363f7 	stp	x23, x24, [sp, #48]
  205ef4:	d2926618 	mov	x24, #0x9330                	// #37680
  205ef8:	f2a20418 	movk	x24, #0x1020, lsl #16
  205efc:	a9046bf9 	stp	x25, x26, [sp, #64]
  205f00:	d292439a 	mov	x26, #0x921c                	// #37404
  205f04:	f2a2041a 	movk	x26, #0x1020, lsl #16
  205f08:	f9002bfb 	str	x27, [sp, #80]
  205f0c:	d292419b 	mov	x27, #0x920c                	// #37388
  205f10:	b9000001 	str	w1, [x0]
  205f14:	d2920400 	mov	x0, #0x9020                	// #36896
  205f18:	f2a20400 	movk	x0, #0x1020, lsl #16
  205f1c:	5280a021 	mov	w1, #0x501                 	// #1281
  205f20:	72b31281 	movk	w1, #0x9894, lsl #16
  205f24:	f2a2041b 	movk	x27, #0x1020, lsl #16
  205f28:	b9000001 	str	w1, [x0]
  205f2c:	320d83e1 	mov	w1, #0x80008               	// #524296
  205f30:	b9000c01 	str	w1, [x0, #12]
  205f34:	d2924401 	mov	x1, #0x9220                	// #37408
  205f38:	f2a20401 	movk	x1, #0x1020, lsl #16
  205f3c:	b81f801f 	stur	wzr, [x0, #-8]
  205f40:	d2924599 	mov	x25, #0x922c                	// #37420
  205f44:	d2926817 	mov	x23, #0x9340                	// #37696
  205f48:	b9400020 	ldr	w0, [x1]
  205f4c:	f2a20419 	movk	x25, #0x1020, lsl #16
  205f50:	f2a20417 	movk	x23, #0x1020, lsl #16
  205f54:	d2926415 	mov	x21, #0x9320                	// #37664
  205f58:	32050000 	orr	w0, w0, #0x8000000
  205f5c:	b9000020 	str	w0, [x1]
  205f60:	f2a20415 	movk	x21, #0x1020, lsl #16
  205f64:	f2a20414 	movk	x20, #0x1020, lsl #16
  205f68:	b9400360 	ldr	w0, [x27]
  205f6c:	d2926d13 	mov	x19, #0x9368                	// #37736
  205f70:	f2a20413 	movk	x19, #0x1020, lsl #16
  205f74:	32000000 	orr	w0, w0, #0x1
  205f78:	b9000360 	str	w0, [x27]
  205f7c:	b9400340 	ldr	w0, [x26]
  205f80:	32000000 	orr	w0, w0, #0x1
  205f84:	b9000340 	str	w0, [x26]
  205f88:	b9400320 	ldr	w0, [x25]
  205f8c:	32000000 	orr	w0, w0, #0x1
  205f90:	b9000320 	str	w0, [x25]
  205f94:	b9400300 	ldr	w0, [x24]
  205f98:	32000000 	orr	w0, w0, #0x1
  205f9c:	b9000300 	str	w0, [x24]
  205fa0:	b94002e0 	ldr	w0, [x23]
  205fa4:	32000000 	orr	w0, w0, #0x1
  205fa8:	b90002e0 	str	w0, [x23]
  205fac:	b94002c0 	ldr	w0, [x22]
  205fb0:	32000000 	orr	w0, w0, #0x1
  205fb4:	b90002c0 	str	w0, [x22]
  205fb8:	b94002a0 	ldr	w0, [x21]
  205fbc:	32000000 	orr	w0, w0, #0x1
  205fc0:	b90002a0 	str	w0, [x21]
  205fc4:	b9400280 	ldr	w0, [x20]
  205fc8:	32000000 	orr	w0, w0, #0x1
  205fcc:	b9000280 	str	w0, [x20]
  205fd0:	b9400260 	ldr	w0, [x19]
  205fd4:	32000000 	orr	w0, w0, #0x1
  205fd8:	b9000260 	str	w0, [x19]
  205fdc:	52800020 	mov	w0, #0x1                   	// #1
  205fe0:	97ffeedb 	bl	201b4c <udelay>
  205fe4:	b9400360 	ldr	w0, [x27]
  205fe8:	d2924082 	mov	x2, #0x9204                	// #37380
  205fec:	d2924281 	mov	x1, #0x9214                	// #37396
  205ff0:	f2a20402 	movk	x2, #0x1020, lsl #16
  205ff4:	121e7800 	and	w0, w0, #0xfffffffd
  205ff8:	b9000360 	str	w0, [x27]
  205ffc:	f2a20401 	movk	x1, #0x1020, lsl #16
  206000:	b9400340 	ldr	w0, [x26]
  206004:	121e7800 	and	w0, w0, #0xfffffffd
  206008:	b9000340 	str	w0, [x26]
  20600c:	b9400320 	ldr	w0, [x25]
  206010:	121e7800 	and	w0, w0, #0xfffffffd
  206014:	b9000320 	str	w0, [x25]
  206018:	b9400300 	ldr	w0, [x24]
  20601c:	121e7800 	and	w0, w0, #0xfffffffd
  206020:	b9000300 	str	w0, [x24]
  206024:	b94002e0 	ldr	w0, [x23]
  206028:	121e7800 	and	w0, w0, #0xfffffffd
  20602c:	b90002e0 	str	w0, [x23]
  206030:	b94002c0 	ldr	w0, [x22]
  206034:	121e7800 	and	w0, w0, #0xfffffffd
  206038:	b90002c0 	str	w0, [x22]
  20603c:	b94002a0 	ldr	w0, [x21]
  206040:	121e7800 	and	w0, w0, #0xfffffffd
  206044:	b90002a0 	str	w0, [x21]
  206048:	b9400280 	ldr	w0, [x20]
  20604c:	121e7800 	and	w0, w0, #0xfffffffd
  206050:	b9000280 	str	w0, [x20]
  206054:	b9400260 	ldr	w0, [x19]
  206058:	121e7800 	and	w0, w0, #0xfffffffd
  20605c:	b9000260 	str	w0, [x19]
  206060:	d2840c00 	mov	x0, #0x2060                	// #8288
  206064:	f2a20420 	movk	x0, #0x1021, lsl #16
  206068:	b9400003 	ldr	w3, [x0]
  20606c:	d2924480 	mov	x0, #0x9224                	// #37412
  206070:	f2a20400 	movk	x0, #0x1020, lsl #16
  206074:	370826c3 	tbnz	w3, #1, 20654c <mtk_pll_init+0x6dc>
  206078:	52900003 	mov	w3, #0x8000                	// #32768
  20607c:	72b001a3 	movk	w3, #0x800d, lsl #16
  206080:	b9000043 	str	w3, [x2]
  206084:	52866662 	mov	w2, #0x3333                	// #13107
  206088:	72b00162 	movk	w2, #0x800b, lsl #16
  20608c:	b9000022 	str	w2, [x1]
  206090:	52b00301 	mov	w1, #0x80180000            	// #-2145910784
  206094:	b9000001 	str	w1, [x0]
  206098:	52930e61 	mov	w1, #0x9873                	// #39027
  20609c:	52900002 	mov	w2, #0x8000                	// #32768
  2060a0:	72b5e5e1 	movk	w1, #0xaf2f, lsl #16
  2060a4:	b9010401 	str	w1, [x0, #260]
  2060a8:	52839561 	mov	w1, #0x1cab                	// #7339
  2060ac:	72b001c2 	movk	w2, #0x800e, lsl #16
  2060b0:	72b56b41 	movk	w1, #0xab5a, lsl #16
  2060b4:	b9011401 	str	w1, [x0, #276]
  2060b8:	52b00141 	mov	w1, #0x800a0000            	// #-2146828288
  2060bc:	b900e001 	str	w1, [x0, #224]
  2060c0:	d2926301 	mov	x1, #0x9318                	// #37656
  2060c4:	52b001a0 	mov	w0, #0x800d0000            	// #-2146631680
  2060c8:	f2a20401 	movk	x1, #0x1020, lsl #16
  2060cc:	b9000020 	str	w0, [x1]
  2060d0:	b9003022 	str	w2, [x1, #48]
  2060d4:	d2924003 	mov	x3, #0x9200                	// #37376
  2060d8:	b9004420 	str	w0, [x1, #68]
  2060dc:	d2926481 	mov	x1, #0x9324                	// #37668
  2060e0:	f2a20401 	movk	x1, #0x1020, lsl #16
  2060e4:	f2a20403 	movk	x3, #0x1020, lsl #16
  2060e8:	d2924214 	mov	x20, #0x9210                	// #37392
  2060ec:	d2924413 	mov	x19, #0x9220                	// #37408
  2060f0:	b9400020 	ldr	w0, [x1]
  2060f4:	f2a20414 	movk	x20, #0x1020, lsl #16
  2060f8:	f2a20413 	movk	x19, #0x1020, lsl #16
  2060fc:	d286c297 	mov	x23, #0x3614                	// #13844
  206100:	321f0400 	orr	w0, w0, #0x6
  206104:	b9000020 	str	w0, [x1]
  206108:	d2926680 	mov	x0, #0x9334                	// #37684
  20610c:	f2a20437 	movk	x23, #0x1021, lsl #16
  206110:	f2a20400 	movk	x0, #0x1020, lsl #16
  206114:	d286c416 	mov	x22, #0x3620                	// #13856
  206118:	f2a20436 	movk	x22, #0x1021, lsl #16
  20611c:	d286c595 	mov	x21, #0x362c                	// #13868
  206120:	b9400002 	ldr	w2, [x0]
  206124:	f2a20435 	movk	x21, #0x1021, lsl #16
  206128:	d286c098 	mov	x24, #0x3604                	// #13828
  20612c:	d286c199 	mov	x25, #0x360c                	// #13836
  206130:	321f0442 	orr	w2, w2, #0x6
  206134:	b9000002 	str	w2, [x0]
  206138:	f2a20438 	movk	x24, #0x1021, lsl #16
  20613c:	f2a20439 	movk	x25, #0x1021, lsl #16
  206140:	b9400062 	ldr	w2, [x3]
  206144:	d286c21a 	mov	x26, #0x3610                	// #13840
  206148:	f2a2043a 	movk	x26, #0x1021, lsl #16
  20614c:	52a2051b 	mov	w27, #0x10280000            	// #271056896
  206150:	32000042 	orr	w2, w2, #0x1
  206154:	b9000062 	str	w2, [x3]
  206158:	b9400282 	ldr	w2, [x20]
  20615c:	32000042 	orr	w2, w2, #0x1
  206160:	b9000282 	str	w2, [x20]
  206164:	b9400262 	ldr	w2, [x19]
  206168:	32000042 	orr	w2, w2, #0x1
  20616c:	b9000262 	str	w2, [x19]
  206170:	b9400022 	ldr	w2, [x1]
  206174:	32000042 	orr	w2, w2, #0x1
  206178:	b9000022 	str	w2, [x1]
  20617c:	b9400001 	ldr	w1, [x0]
  206180:	32000021 	orr	w1, w1, #0x1
  206184:	b9000001 	str	w1, [x0]
  206188:	d2926001 	mov	x1, #0x9300                	// #37632
  20618c:	f2a20401 	movk	x1, #0x1020, lsl #16
  206190:	b9400020 	ldr	w0, [x1]
  206194:	32000000 	orr	w0, w0, #0x1
  206198:	b9000020 	str	w0, [x1]
  20619c:	b9401420 	ldr	w0, [x1, #20]
  2061a0:	32000000 	orr	w0, w0, #0x1
  2061a4:	b9001420 	str	w0, [x1, #20]
  2061a8:	b9404420 	ldr	w0, [x1, #68]
  2061ac:	32000000 	orr	w0, w0, #0x1
  2061b0:	b9004420 	str	w0, [x1, #68]
  2061b4:	b9405820 	ldr	w0, [x1, #88]
  2061b8:	32000000 	orr	w0, w0, #0x1
  2061bc:	b9005820 	str	w0, [x1, #88]
  2061c0:	52800280 	mov	w0, #0x14                  	// #20
  2061c4:	97ffee62 	bl	201b4c <udelay>
  2061c8:	b9400280 	ldr	w0, [x20]
  2061cc:	d2800201 	mov	x1, #0x10                  	// #16
  2061d0:	f2a20001 	movk	x1, #0x1000, lsl #16
  2061d4:	529fd002 	mov	w2, #0xfe80                	// #65152
  2061d8:	32080000 	orr	w0, w0, #0x1000000
  2061dc:	b9000280 	str	w0, [x20]
  2061e0:	72bfd002 	movk	w2, #0xfe80, lsl #16
  2061e4:	d286c914 	mov	x20, #0x3648                	// #13896
  2061e8:	b9400260 	ldr	w0, [x19]
  2061ec:	f2a20434 	movk	x20, #0x1021, lsl #16
  2061f0:	32080000 	orr	w0, w0, #0x1000000
  2061f4:	b9000260 	str	w0, [x19]
  2061f8:	52880013 	mov	w19, #0x4000                	// #16384
  2061fc:	b9400020 	ldr	w0, [x1]
  206200:	72a00833 	movk	w19, #0x41, lsl #16
  206204:	32000000 	orr	w0, w0, #0x1
  206208:	b9000020 	str	w0, [x1]
  20620c:	b9404420 	ldr	w0, [x1, #68]
  206210:	0a020000 	and	w0, w0, w2
  206214:	529e1f02 	mov	w2, #0xf0f8                	// #61688
  206218:	32088000 	orr	w0, w0, #0x1000100
  20621c:	b9004420 	str	w0, [x1, #68]
  206220:	72bc1c02 	movk	w2, #0xe0e0, lsl #16
  206224:	b9404820 	ldr	w0, [x1, #72]
  206228:	0a020000 	and	w0, w0, w2
  20622c:	52a20202 	mov	w2, #0x10100000            	// #269484032
  206230:	2a020000 	orr	w0, w0, w2
  206234:	b9004820 	str	w0, [x1, #72]
  206238:	52806062 	mov	w2, #0x303                 	// #771
  20623c:	b9404020 	ldr	w0, [x1, #64]
  206240:	2a020000 	orr	w0, w0, w2
  206244:	b9004020 	str	w0, [x1, #64]
  206248:	d2a22441 	mov	x1, #0x11220000            	// #287440896
  20624c:	b9400020 	ldr	w0, [x1]
  206250:	32030000 	orr	w0, w0, #0x20000000
  206254:	b9000020 	str	w0, [x1]
  206258:	d2800101 	mov	x1, #0x8                   	// #8
  20625c:	f2a20001 	movk	x1, #0x1000, lsl #16
  206260:	b9400020 	ldr	w0, [x1]
  206264:	121b6800 	and	w0, w0, #0xffffffe0
  206268:	b9000020 	str	w0, [x1]
  20626c:	d2a20001 	mov	x1, #0x10000000            	// #268435456
  206270:	b9400020 	ldr	w0, [x1]
  206274:	321e0000 	orr	w0, w0, #0x4
  206278:	b9000020 	str	w0, [x1]
  20627c:	d2800800 	mov	x0, #0x40                  	// #64
  206280:	52802021 	mov	w1, #0x101                 	// #257
  206284:	f2a20420 	movk	x0, #0x1021, lsl #16
  206288:	72a04021 	movk	w1, #0x201, lsl #16
  20628c:	b9000001 	str	w1, [x0]
  206290:	1141c021 	add	w1, w1, #0x70, lsl #12
  206294:	b9001001 	str	w1, [x0, #16]
  206298:	52802001 	mov	w1, #0x100                 	// #256
  20629c:	72a02021 	movk	w1, #0x101, lsl #16
  2062a0:	b9002001 	str	w1, [x0, #32]
  2062a4:	52804041 	mov	w1, #0x202                 	// #514
  2062a8:	72a00021 	movk	w1, #0x1, lsl #16
  2062ac:	b9003001 	str	w1, [x0, #48]
  2062b0:	52802041 	mov	w1, #0x102                 	// #258
  2062b4:	72a020a1 	movk	w1, #0x105, lsl #16
  2062b8:	b9004001 	str	w1, [x0, #64]
  2062bc:	d2801201 	mov	x1, #0x90                  	// #144
  2062c0:	3200c3e0 	mov	w0, #0x1010101             	// #16843009
  2062c4:	f2a20421 	movk	x1, #0x1021, lsl #16
  2062c8:	b9000020 	str	w0, [x1]
  2062cc:	b9001020 	str	w0, [x1, #16]
  2062d0:	d2801600 	mov	x0, #0xb0                  	// #176
  2062d4:	f2a20420 	movk	x0, #0x1021, lsl #16
  2062d8:	52804061 	mov	w1, #0x203                 	// #515
  2062dc:	72a00021 	movk	w1, #0x1, lsl #16
  2062e0:	b9000001 	str	w1, [x0]
  2062e4:	52801081 	mov	w1, #0x84                  	// #132
  2062e8:	b9007001 	str	w1, [x0, #112]
  2062ec:	320783e1 	mov	w1, #0x2000200             	// #33554944
  2062f0:	b9007801 	str	w1, [x0, #120]
  2062f4:	d2804001 	mov	x1, #0x200                 	// #512
  2062f8:	f2a20421 	movk	x1, #0x1021, lsl #16
  2062fc:	52800220 	mov	w0, #0x11                  	// #17
  206300:	b9000020 	str	w0, [x1]
  206304:	b9000420 	str	w0, [x1, #4]
  206308:	d28c0000 	mov	x0, #0x6000                	// #24576
  20630c:	f2a20000 	movk	x0, #0x1000, lsl #16
  206310:	52800021 	mov	w1, #0x1                   	// #1
  206314:	72a162c1 	movk	w1, #0xb16, lsl #16
  206318:	b9000001 	str	w1, [x0]
  20631c:	52800001 	mov	w1, #0x0                   	// #0
  206320:	52800020 	mov	w0, #0x1                   	// #1
  206324:	940001c1 	bl	206a28 <mtcmos_non_cpu_ctrl>
  206328:	52800021 	mov	w1, #0x1                   	// #1
  20632c:	2a0103e0 	mov	w0, w1
  206330:	940001be 	bl	206a28 <mtcmos_non_cpu_ctrl>
  206334:	52800041 	mov	w1, #0x2                   	// #2
  206338:	52800020 	mov	w0, #0x1                   	// #1
  20633c:	940001bb 	bl	206a28 <mtcmos_non_cpu_ctrl>
  206340:	d2800881 	mov	x1, #0x44                  	// #68
  206344:	12800000 	mov	w0, #0xffffffff            	// #-1
  206348:	f2a20001 	movk	x1, #0x1000, lsl #16
  20634c:	52800122 	mov	w2, #0x9                   	// #9
  206350:	b9000020 	str	w0, [x1]
  206354:	d2840201 	mov	x1, #0x2010                	// #8208
  206358:	f2a20001 	movk	x1, #0x1000, lsl #16
  20635c:	b9000020 	str	w0, [x1]
  206360:	b9000420 	str	w0, [x1, #4]
  206364:	d2920901 	mov	x1, #0x9048                	// #36936
  206368:	f2a20401 	movk	x1, #0x1020, lsl #16
  20636c:	b9400020 	ldr	w0, [x1]
  206370:	321c0000 	orr	w0, w0, #0x10
  206374:	b9000020 	str	w0, [x1]
  206378:	d2860181 	mov	x1, #0x300c                	// #12300
  20637c:	f2a20421 	movk	x1, #0x1021, lsl #16
  206380:	b9400020 	ldr	w0, [x1]
  206384:	320a0400 	orr	w0, w0, #0xc00000
  206388:	b9000020 	str	w0, [x1]
  20638c:	d2880f81 	mov	x1, #0x407c                	// #16508
  206390:	f2a20421 	movk	x1, #0x1021, lsl #16
  206394:	d1400421 	sub	x1, x1, #0x1, lsl #12
  206398:	b9500020 	ldr	w0, [x1, #4096]
  20639c:	32000000 	orr	w0, w0, #0x1
  2063a0:	b9100020 	str	w0, [x1, #4096]
  2063a4:	b9400020 	ldr	w0, [x1]
  2063a8:	32000000 	orr	w0, w0, #0x1
  2063ac:	b9000020 	str	w0, [x1]
  2063b0:	d2861980 	mov	x0, #0x30cc                	// #12492
  2063b4:	52800181 	mov	w1, #0xc                   	// #12
  2063b8:	f2a20420 	movk	x0, #0x1021, lsl #16
  2063bc:	b9000001 	str	w1, [x0]
  2063c0:	52830320 	mov	w0, #0x1819                	// #6169
  2063c4:	d286c981 	mov	x1, #0x364c                	// #13900
  2063c8:	72a04000 	movk	w0, #0x200, lsl #16
  2063cc:	f2a20421 	movk	x1, #0x1021, lsl #16
  2063d0:	b9000280 	str	w0, [x20]
  2063d4:	b9400020 	ldr	w0, [x1]
  2063d8:	2a020000 	orr	w0, w0, w2
  2063dc:	b9000020 	str	w0, [x1]
  2063e0:	d286c000 	mov	x0, #0x3600                	// #13824
  2063e4:	52b80001 	mov	w1, #0xc0000000            	// #-1073741824
  2063e8:	f2a20420 	movk	x0, #0x1021, lsl #16
  2063ec:	d286c382 	mov	x2, #0x361c                	// #13852
  2063f0:	f2a20422 	movk	x2, #0x1021, lsl #16
  2063f4:	b9000001 	str	w1, [x0]
  2063f8:	52a09201 	mov	w1, #0x4900000             	// #76546048
  2063fc:	b90002e1 	str	w1, [x23]
  206400:	b90002c1 	str	w1, [x22]
  206404:	b90002a1 	str	w1, [x21]
  206408:	52a00501 	mov	w1, #0x280000              	// #2621440
  20640c:	b9000301 	str	w1, [x24]
  206410:	52a09481 	mov	w1, #0x4a40000             	// #77856768
  206414:	b900033f 	str	wzr, [x25]
  206418:	b9000341 	str	w1, [x26]
  20641c:	d286c301 	mov	x1, #0x3618                	// #13848
  206420:	f2a20421 	movk	x1, #0x1021, lsl #16
  206424:	b90002f3 	str	w19, [x23]
  206428:	b900003f 	str	wzr, [x1]
  20642c:	52828001 	mov	w1, #0x1400                	// #5120
  206430:	b9000041 	str	w1, [x2]
  206434:	b90002d3 	str	w19, [x22]
  206438:	b900085f 	str	wzr, [x2, #8]
  20643c:	b9000c41 	str	w1, [x2, #12]
  206440:	b90002b3 	str	w19, [x21]
  206444:	b900145f 	str	wzr, [x2, #20]
  206448:	b9001841 	str	w1, [x2, #24]
  20644c:	52817a01 	mov	w1, #0xbd0                 	// #3024
  206450:	72ba17a1 	movk	w1, #0xd0bd, lsl #16
  206454:	b9000001 	str	w1, [x0]
  206458:	b9400001 	ldr	w1, [x0]
  20645c:	12007821 	and	w1, w1, #0x7fffffff
  206460:	b9000001 	str	w1, [x0]
  206464:	52800040 	mov	w0, #0x2                   	// #2
  206468:	97ffedb9 	bl	201b4c <udelay>
  20646c:	52801800 	mov	w0, #0xc0                  	// #192
  206470:	b9000320 	str	w0, [x25]
  206474:	52807d00 	mov	w0, #0x3e8                 	// #1000
  206478:	97ffedb5 	bl	201b4c <udelay>
  20647c:	b900031b 	str	w27, [x24]
  206480:	52800280 	mov	w0, #0x14                  	// #20
  206484:	97ffedb2 	bl	201b4c <udelay>
  206488:	52801800 	mov	w0, #0xc0                  	// #192
  20648c:	72a80000 	movk	w0, #0x4000, lsl #16
  206490:	b9000320 	str	w0, [x25]
  206494:	52800040 	mov	w0, #0x2                   	// #2
  206498:	97ffedad 	bl	201b4c <udelay>
  20649c:	b900031b 	str	w27, [x24]
  2064a0:	52a094a0 	mov	w0, #0x4a50000             	// #77922304
  2064a4:	b9000340 	str	w0, [x26]
  2064a8:	528002e0 	mov	w0, #0x17                  	// #23
  2064ac:	97ffeda8 	bl	201b4c <udelay>
  2064b0:	52880020 	mov	w0, #0x4001                	// #16385
  2064b4:	72a00820 	movk	w0, #0x41, lsl #16
  2064b8:	b90002e0 	str	w0, [x23]
  2064bc:	b90002d3 	str	w19, [x22]
  2064c0:	b90002a0 	str	w0, [x21]
  2064c4:	528002e0 	mov	w0, #0x17                  	// #23
  2064c8:	97ffeda1 	bl	201b4c <udelay>
  2064cc:	d286c801 	mov	x1, #0x3640                	// #13888
  2064d0:	52888802 	mov	w2, #0x4440                	// #17472
  2064d4:	f2a20421 	movk	x1, #0x1021, lsl #16
  2064d8:	72bffe82 	movk	w2, #0xfff4, lsl #16
  2064dc:	a9425bf5 	ldp	x21, x22, [sp, #32]
  2064e0:	b9400020 	ldr	w0, [x1]
  2064e4:	a94363f7 	ldp	x23, x24, [sp, #48]
  2064e8:	321c0000 	orr	w0, w0, #0x10
  2064ec:	a9446bf9 	ldp	x25, x26, [sp, #64]
  2064f0:	f9402bfb 	ldr	x27, [sp, #80]
  2064f4:	b9000020 	str	w0, [x1]
  2064f8:	52800321 	mov	w1, #0x19                  	// #25
  2064fc:	b9400280 	ldr	w0, [x20]
  206500:	32070000 	orr	w0, w0, #0x2000000
  206504:	b9000280 	str	w0, [x20]
  206508:	d286ca00 	mov	x0, #0x3650                	// #13904
  20650c:	f2a20420 	movk	x0, #0x1021, lsl #16
  206510:	a94153f3 	ldp	x19, x20, [sp, #16]
  206514:	b9000001 	str	w1, [x0]
  206518:	d2920181 	mov	x1, #0x900c                	// #36876
  20651c:	f2a20401 	movk	x1, #0x1020, lsl #16
  206520:	b9400020 	ldr	w0, [x1]
  206524:	0a020000 	and	w0, w0, w2
  206528:	b9000020 	str	w0, [x1]
  20652c:	12800162 	mov	w2, #0xfffffff4            	// #-12
  206530:	b9400420 	ldr	w0, [x1, #4]
  206534:	0a020000 	and	w0, w0, w2
  206538:	b9000420 	str	w0, [x1, #4]
  20653c:	a8c67bfd 	ldp	x29, x30, [sp], #96
  206540:	d65f03c0 	ret
  206544:	528003c0 	mov	w0, #0x1e                  	// #30
  206548:	17fffe54 	b	205e98 <mtk_pll_init+0x28>
  20654c:	529c0003 	mov	w3, #0xe000                	// #57344
  206550:	72b00203 	movk	w3, #0x8010, lsl #16
  206554:	b9000043 	str	w3, [x2]
  206558:	52b001c2 	mov	w2, #0x800e0000            	// #-2146566144
  20655c:	b9000022 	str	w2, [x1]
  206560:	52b003c1 	mov	w1, #0x801e0000            	// #-2145517568
  206564:	b9000001 	str	w1, [x0]
  206568:	d2926500 	mov	x0, #0x9328                	// #37672
  20656c:	52b76001 	mov	w1, #0xbb000000            	// #-1157627904
  206570:	f2a20400 	movk	x0, #0x1020, lsl #16
  206574:	11410842 	add	w2, w2, #0x42, lsl #12
  206578:	b9000001 	str	w1, [x0]
  20657c:	52b6c001 	mov	w1, #0xb6000000            	// #-1241513984
  206580:	b9001001 	str	w1, [x0, #16]
  206584:	52900001 	mov	w1, #0x8000                	// #32768
  206588:	72b00181 	movk	w1, #0x800c, lsl #16
  20658c:	b81dc001 	stur	w1, [x0, #-36]
  206590:	d2926301 	mov	x1, #0x9318                	// #37656
  206594:	52880000 	mov	w0, #0x4000                	// #16384
  206598:	f2a20401 	movk	x1, #0x1020, lsl #16
  20659c:	72b00200 	movk	w0, #0x8010, lsl #16
  2065a0:	b9000020 	str	w0, [x1]
  2065a4:	17fffecb 	b	2060d0 <mtk_pll_init+0x260>
  2065a8:	d65f03c0 	ret

00000000002065ac <pmic_config_interface>:
  2065ac:	a9bc7bfd 	stp	x29, x30, [sp, #-64]!
  2065b0:	910003fd 	mov	x29, sp
  2065b4:	a90153f3 	stp	x19, x20, [sp, #16]
  2065b8:	2a0203f3 	mov	w19, w2
  2065bc:	2a0103f4 	mov	w20, w1
  2065c0:	9100f3e1 	add	x1, sp, #0x3c
  2065c4:	a9025bf5 	stp	x21, x22, [sp, #32]
  2065c8:	2a0303f5 	mov	w21, w3
  2065cc:	2a0003f6 	mov	w22, w0
  2065d0:	9400005c 	bl	206740 <pwrap_read>
  2065d4:	b9403fe1 	ldr	w1, [sp, #60]
  2065d8:	1ad52273 	lsl	w19, w19, w21
  2065dc:	2a1603e0 	mov	w0, w22
  2065e0:	0a330033 	bic	w19, w1, w19
  2065e4:	1ad52281 	lsl	w1, w20, w21
  2065e8:	2a010261 	orr	w1, w19, w1
  2065ec:	b9003fe1 	str	w1, [sp, #60]
  2065f0:	9400008d 	bl	206824 <pwrap_write>
  2065f4:	a94153f3 	ldp	x19, x20, [sp, #16]
  2065f8:	a9425bf5 	ldp	x21, x22, [sp, #32]
  2065fc:	a8c47bfd 	ldp	x29, x30, [sp], #64
  206600:	d65f03c0 	ret

0000000000206604 <mtk_pmic_init>:
  206604:	a9be7bfd 	stp	x29, x30, [sp, #-32]!
  206608:	52800f00 	mov	w0, #0x78                  	// #120
  20660c:	910003fd 	mov	x29, sp
  206610:	910073e1 	add	x1, sp, #0x1c
  206614:	9400004b 	bl	206740 <pwrap_read>
  206618:	52800023 	mov	w3, #0x1                   	// #1
  20661c:	52801fc2 	mov	w2, #0xfe                  	// #254
  206620:	52800e41 	mov	w1, #0x72                  	// #114
  206624:	52800a80 	mov	w0, #0x54                  	// #84
  206628:	97ffffe1 	bl	2065ac <pmic_config_interface>
  20662c:	528001a3 	mov	w3, #0xd                   	// #13
  206630:	528000e2 	mov	w2, #0x7                   	// #7
  206634:	52800021 	mov	w1, #0x1                   	// #1
  206638:	52800380 	mov	w0, #0x1c                  	// #28
  20663c:	97ffffdc 	bl	2065ac <pmic_config_interface>
  206640:	52800022 	mov	w2, #0x1                   	// #1
  206644:	528001e3 	mov	w3, #0xf                   	// #15
  206648:	2a0203e1 	mov	w1, w2
  20664c:	52800500 	mov	w0, #0x28                  	// #40
  206650:	97ffffd7 	bl	2065ac <pmic_config_interface>
  206654:	52800003 	mov	w3, #0x0                   	// #0
  206658:	12800002 	mov	w2, #0xffffffff            	// #-1
  20665c:	52802341 	mov	w1, #0x11a                 	// #282
  206660:	52802080 	mov	w0, #0x104                 	// #260
  206664:	97ffffd2 	bl	2065ac <pmic_config_interface>
  206668:	910073e1 	add	x1, sp, #0x1c
  20666c:	52802340 	mov	w0, #0x11a                 	// #282
  206670:	94000034 	bl	206740 <pwrap_read>
  206674:	b9401fe1 	ldr	w1, [sp, #28]
  206678:	52800063 	mov	w3, #0x3                   	// #3
  20667c:	528001e2 	mov	w2, #0xf                   	// #15
  206680:	52800500 	mov	w0, #0x28                  	// #40
  206684:	d3493021 	ubfx	x1, x1, #9, #4
  206688:	97ffffc9 	bl	2065ac <pmic_config_interface>
  20668c:	910073e1 	add	x1, sp, #0x1c
  206690:	52802340 	mov	w0, #0x11a                 	// #282
  206694:	9400002b 	bl	206740 <pwrap_read>
  206698:	b9401fe1 	ldr	w1, [sp, #28]
  20669c:	a8c27bfd 	ldp	x29, x30, [sp], #32
  2066a0:	52800023 	mov	w3, #0x1                   	// #1
  2066a4:	d3482021 	ubfx	x1, x1, #8, #1
  2066a8:	2a0303e2 	mov	w2, w3
  2066ac:	52804060 	mov	w0, #0x203                 	// #515
  2066b0:	17ffffbf 	b	2065ac <pmic_config_interface>

00000000002066b4 <wait_for_state_idle.constprop.0>:
  2066b4:	a9bd7bfd 	stp	x29, x30, [sp, #-48]!
  2066b8:	910003fd 	mov	x29, sp
  2066bc:	a90153f3 	stp	x19, x20, [sp, #16]
  2066c0:	d2821494 	mov	x20, #0x10a4                	// #4260
  2066c4:	90000053 	adrp	x19, 20e000 <mtk_pin_info_pu+0x36c>
  2066c8:	9119e273 	add	x19, x19, #0x678
  2066cc:	a9025bf5 	stp	x21, x22, [sp, #32]
  2066d0:	d2821515 	mov	x21, #0x10a8                	// #4264
  2066d4:	f2a20014 	movk	x20, #0x1000, lsl #16
  2066d8:	f2a20015 	movk	x21, #0x1000, lsl #16
  2066dc:	52800036 	mov	w22, #0x1                   	// #1
  2066e0:	b9400281 	ldr	w1, [x20]
  2066e4:	d3504821 	ubfx	x1, x1, #16, #3
  2066e8:	7100103f 	cmp	w1, #0x4
  2066ec:	540001a0 	b.eq	206720 <wait_for_state_idle.constprop.0+0x6c>  // b.none
  2066f0:	7100183f 	cmp	w1, #0x6
  2066f4:	540000c0 	b.eq	20670c <wait_for_state_idle.constprop.0+0x58>  // b.none
  2066f8:	7100083f 	cmp	w1, #0x2
  2066fc:	54000161 	b.ne	206728 <wait_for_state_idle.constprop.0+0x74>  // b.any
  206700:	90000040 	adrp	x0, 20e000 <mtk_pin_info_pu+0x36c>
  206704:	911a5000 	add	x0, x0, #0x694
  206708:	14000004 	b	206718 <wait_for_state_idle.constprop.0+0x64>
  20670c:	90000040 	adrp	x0, 20e000 <mtk_pin_info_pu+0x36c>
  206710:	91195400 	add	x0, x0, #0x655
  206714:	b90002b6 	str	w22, [x21]
  206718:	9400017c 	bl	206d08 <tf_log>
  20671c:	17fffff1 	b	2066e0 <wait_for_state_idle.constprop.0+0x2c>
  206720:	aa1303e0 	mov	x0, x19
  206724:	17fffffd 	b	206718 <wait_for_state_idle.constprop.0+0x64>
  206728:	35fffdc1 	cbnz	w1, 2066e0 <wait_for_state_idle.constprop.0+0x2c>
  20672c:	52800000 	mov	w0, #0x0                   	// #0
  206730:	a94153f3 	ldp	x19, x20, [sp, #16]
  206734:	a9425bf5 	ldp	x21, x22, [sp, #32]
  206738:	a8c37bfd 	ldp	x29, x30, [sp], #48
  20673c:	d65f03c0 	ret

0000000000206740 <pwrap_read>:
  206740:	a9bd7bfd 	stp	x29, x30, [sp, #-48]!
  206744:	910003fd 	mov	x29, sp
  206748:	a90153f3 	stp	x19, x20, [sp, #16]
  20674c:	aa0103f4 	mov	x20, x1
  206750:	f90013f5 	str	x21, [sp, #32]
  206754:	53103c15 	lsl	w21, w0, #16
  206758:	b900003f 	str	wzr, [x1]
  20675c:	97ffffd6 	bl	2066b4 <wait_for_state_idle.constprop.0>
  206760:	350003a0 	cbnz	w0, 2067d4 <pwrap_read+0x94>
  206764:	d2821400 	mov	x0, #0x10a0                	// #4256
  206768:	d2821482 	mov	x2, #0x10a4                	// #4260
  20676c:	f2a20000 	movk	x0, #0x1000, lsl #16
  206770:	f2a20002 	movk	x2, #0x1000, lsl #16
  206774:	b9000015 	str	w21, [x0]
  206778:	b9400040 	ldr	w0, [x2]
  20677c:	d3504801 	ubfx	x1, x0, #16, #3
  206780:	7100183f 	cmp	w1, #0x6
  206784:	54ffffa1 	b.ne	206778 <pwrap_read+0x38>  // b.any
  206788:	b9400281 	ldr	w1, [x20]
  20678c:	0b202020 	add	w0, w1, w0, uxth
  206790:	b9000280 	str	w0, [x20]
  206794:	d2821500 	mov	x0, #0x10a8                	// #4264
  206798:	52800021 	mov	w1, #0x1                   	// #1
  20679c:	f2a20000 	movk	x0, #0x1000, lsl #16
  2067a0:	b9000001 	str	w1, [x0]
  2067a4:	97ffffc4 	bl	2066b4 <wait_for_state_idle.constprop.0>
  2067a8:	2a0003f3 	mov	w19, w0
  2067ac:	34000180 	cbz	w0, 2067dc <pwrap_read+0x9c>
  2067b0:	90000040 	adrp	x0, 20e000 <mtk_pin_info_pu+0x36c>
  2067b4:	2a1303e1 	mov	w1, w19
  2067b8:	911ab800 	add	x0, x0, #0x6ae
  2067bc:	94000153 	bl	206d08 <tf_log>
  2067c0:	2a1303e0 	mov	w0, w19
  2067c4:	a94153f3 	ldp	x19, x20, [sp, #16]
  2067c8:	f94013f5 	ldr	x21, [sp, #32]
  2067cc:	a8c37bfd 	ldp	x29, x30, [sp], #48
  2067d0:	d65f03c0 	ret
  2067d4:	2a0003f3 	mov	w19, w0
  2067d8:	17fffff6 	b	2067b0 <pwrap_read+0x70>
  2067dc:	d2821400 	mov	x0, #0x10a0                	// #4256
  2067e0:	d2821482 	mov	x2, #0x10a4                	// #4260
  2067e4:	f2a20000 	movk	x0, #0x1000, lsl #16
  2067e8:	320202b5 	orr	w21, w21, #0x40000000
  2067ec:	f2a20002 	movk	x2, #0x1000, lsl #16
  2067f0:	b9000015 	str	w21, [x0]
  2067f4:	b9400040 	ldr	w0, [x2]
  2067f8:	d3504801 	ubfx	x1, x0, #16, #3
  2067fc:	7100183f 	cmp	w1, #0x6
  206800:	54ffffa1 	b.ne	2067f4 <pwrap_read+0xb4>  // b.any
  206804:	b9400281 	ldr	w1, [x20]
  206808:	0b004020 	add	w0, w1, w0, lsl #16
  20680c:	b9000280 	str	w0, [x20]
  206810:	d2821500 	mov	x0, #0x10a8                	// #4264
  206814:	52800021 	mov	w1, #0x1                   	// #1
  206818:	f2a20000 	movk	x0, #0x1000, lsl #16
  20681c:	b9000001 	str	w1, [x0]
  206820:	17ffffe8 	b	2067c0 <pwrap_read+0x80>

0000000000206824 <pwrap_write>:
  206824:	a9bb7bfd 	stp	x29, x30, [sp, #-80]!
  206828:	910003fd 	mov	x29, sp
  20682c:	a90153f3 	stp	x19, x20, [sp, #16]
  206830:	2a0103f4 	mov	w20, w1
  206834:	a9025bf5 	stp	x21, x22, [sp, #32]
  206838:	2a0003f5 	mov	w21, w0
  20683c:	f9001bf7 	str	x23, [sp, #48]
  206840:	97ffff9d 	bl	2066b4 <wait_for_state_idle.constprop.0>
  206844:	350002e0 	cbnz	w0, 2068a0 <pwrap_write+0x7c>
  206848:	d2821416 	mov	x22, #0x10a0                	// #4256
  20684c:	12003e80 	and	w0, w20, #0xffff
  206850:	f2a20016 	movk	x22, #0x1000, lsl #16
  206854:	2a154000 	orr	w0, w0, w21, lsl #16
  206858:	32010000 	orr	w0, w0, #0x80000000
  20685c:	910133e1 	add	x1, sp, #0x4c
  206860:	b90002c0 	str	w0, [x22]
  206864:	2a1503e0 	mov	w0, w21
  206868:	53103eb7 	lsl	w23, w21, #16
  20686c:	97ffffb5 	bl	206740 <pwrap_read>
  206870:	97ffff91 	bl	2066b4 <wait_for_state_idle.constprop.0>
  206874:	2a0003f3 	mov	w19, w0
  206878:	35000160 	cbnz	w0, 2068a4 <pwrap_write+0x80>
  20687c:	2a5442f4 	orr	w20, w23, w20, lsr #16
  206880:	32020694 	orr	w20, w20, #0xc0000000
  206884:	b90002d4 	str	w20, [x22]
  206888:	2a1303e0 	mov	w0, w19
  20688c:	a94153f3 	ldp	x19, x20, [sp, #16]
  206890:	a9425bf5 	ldp	x21, x22, [sp, #32]
  206894:	f9401bf7 	ldr	x23, [sp, #48]
  206898:	a8c57bfd 	ldp	x29, x30, [sp], #80
  20689c:	d65f03c0 	ret
  2068a0:	2a0003f3 	mov	w19, w0
  2068a4:	2a1303e1 	mov	w1, w19
  2068a8:	90000040 	adrp	x0, 20e000 <mtk_pin_info_pu+0x36c>
  2068ac:	911ab800 	add	x0, x0, #0x6ae
  2068b0:	94000116 	bl	206d08 <tf_log>
  2068b4:	17fffff5 	b	206888 <pwrap_write+0x64>

00000000002068b8 <mtk_pwrap_init>:
  2068b8:	d2800601 	mov	x1, #0x30                  	// #48
  2068bc:	52801000 	mov	w0, #0x80                  	// #128
  2068c0:	f2a20001 	movk	x1, #0x1000, lsl #16
  2068c4:	52801fe2 	mov	w2, #0xff                  	// #255
  2068c8:	b9000020 	str	w0, [x1]
  2068cc:	b9000420 	str	w0, [x1, #4]
  2068d0:	d2823080 	mov	x0, #0x1184                	// #4484
  2068d4:	f2a20000 	movk	x0, #0x1000, lsl #16
  2068d8:	52800061 	mov	w1, #0x3                   	// #3
  2068dc:	b9000001 	str	w1, [x0]
  2068e0:	d2820081 	mov	x1, #0x1004                	// #4100
  2068e4:	f2a20001 	movk	x1, #0x1000, lsl #16
  2068e8:	b900041f 	str	wzr, [x0, #4]
  2068ec:	52800020 	mov	w0, #0x1                   	// #1
  2068f0:	b9000020 	str	w0, [x1]
  2068f4:	b9005022 	str	w2, [x1, #80]
  2068f8:	528001e2 	mov	w2, #0xf                   	// #15
  2068fc:	b9009420 	str	w0, [x1, #148]
  206900:	b9006c20 	str	w0, [x1, #108]
  206904:	b9008020 	str	w0, [x1, #128]
  206908:	b900243f 	str	wzr, [x1, #36]
  20690c:	b900d422 	str	w2, [x1, #212]
  206910:	12800002 	mov	w2, #0xffffffff            	// #-1
  206914:	b900d822 	str	w2, [x1, #216]
  206918:	12b00002 	mov	w2, #0x7fffffff            	// #2147483647
  20691c:	b900cc20 	str	w0, [x1, #204]
  206920:	b900a822 	str	w2, [x1, #168]
  206924:	b9007020 	str	w0, [x1, #112]
  206928:	b9008420 	str	w0, [x1, #132]
  20692c:	b9009820 	str	w0, [x1, #152]
  206930:	d2824880 	mov	x0, #0x1244                	// #4676
  206934:	f2a20000 	movk	x0, #0x1000, lsl #16
  206938:	52a10001 	mov	w1, #0x8000000             	// #134217728
  20693c:	b9000001 	str	w1, [x0]
  206940:	d65f03c0 	ret

0000000000206944 <mtcmos_power_on.constprop.0>:
  206944:	b9400401 	ldr	w1, [x0, #4]
  206948:	528c0002 	mov	w2, #0x6000                	// #24576
  20694c:	72a20002 	movk	w2, #0x1000, lsl #16
  206950:	52800023 	mov	w3, #0x1                   	// #1
  206954:	0b020021 	add	w1, w1, w2
  206958:	d28c0002 	mov	x2, #0x6000                	// #24576
  20695c:	f2a20002 	movk	x2, #0x1000, lsl #16
  206960:	b9400c04 	ldr	w4, [x0, #12]
  206964:	93407c21 	sxtw	x1, w1
  206968:	72a162c3 	movk	w3, #0xb16, lsl #16
  20696c:	b9000043 	str	w3, [x2]
  206970:	d28cc187 	mov	x7, #0x660c                	// #26124
  206974:	d28cc206 	mov	x6, #0x6610                	// #26128
  206978:	f2a20007 	movk	x7, #0x1000, lsl #16
  20697c:	b9400022 	ldr	w2, [x1]
  206980:	f2a20006 	movk	x6, #0x1000, lsl #16
  206984:	321e0043 	orr	w3, w2, #0x4
  206988:	b9000023 	str	w3, [x1]
  20698c:	321e0443 	orr	w3, w2, #0xc
  206990:	b9000023 	str	w3, [x1]
  206994:	b9400003 	ldr	w3, [x0]
  206998:	b94000e5 	ldr	w5, [x7]
  20699c:	6a0300bf 	tst	w5, w3
  2069a0:	54ffffc0 	b.eq	206998 <mtcmos_power_on.constprop.0+0x54>  // b.none
  2069a4:	b94000c5 	ldr	w5, [x6]
  2069a8:	6a05007f 	tst	w3, w5
  2069ac:	54ffff60 	b.eq	206998 <mtcmos_power_on.constprop.0+0x54>  // b.none
  2069b0:	121b7843 	and	w3, w2, #0xffffffef
  2069b4:	321e0463 	orr	w3, w3, #0xc
  2069b8:	b9000023 	str	w3, [x1]
  2069bc:	12800243 	mov	w3, #0xffffffed            	// #-19
  2069c0:	0a030042 	and	w2, w2, w3
  2069c4:	321e0443 	orr	w3, w2, #0xc
  2069c8:	b9000023 	str	w3, [x1]
  2069cc:	528001a3 	mov	w3, #0xd                   	// #13
  2069d0:	2a030042 	orr	w2, w2, w3
  2069d4:	b9000022 	str	w2, [x1]
  2069d8:	b9400803 	ldr	w3, [x0, #8]
  2069dc:	0a230042 	bic	w2, w2, w3
  2069e0:	b9000022 	str	w2, [x1]
  2069e4:	b9400022 	ldr	w2, [x1]
  2069e8:	6a02009f 	tst	w4, w2
  2069ec:	54ffffc1 	b.ne	2069e4 <mtcmos_power_on.constprop.0+0xa0>  // b.any
  2069f0:	b9401001 	ldr	w1, [x0, #16]
  2069f4:	34000161 	cbz	w1, 206a20 <mtcmos_power_on.constprop.0+0xdc>
  2069f8:	d2804402 	mov	x2, #0x220                 	// #544
  2069fc:	f2a20002 	movk	x2, #0x1000, lsl #16
  206a00:	91002042 	add	x2, x2, #0x8
  206a04:	b85f8043 	ldur	w3, [x2, #-8]
  206a08:	0a210061 	bic	w1, w3, w1
  206a0c:	b81f8041 	stur	w1, [x2, #-8]
  206a10:	b9401000 	ldr	w0, [x0, #16]
  206a14:	b9400041 	ldr	w1, [x2]
  206a18:	6a00003f 	tst	w1, w0
  206a1c:	54ffffc1 	b.ne	206a14 <mtcmos_power_on.constprop.0+0xd0>  // b.any
  206a20:	52800000 	mov	w0, #0x0                   	// #0
  206a24:	d65f03c0 	ret

0000000000206a28 <mtcmos_non_cpu_ctrl>:
  206a28:	7100043f 	cmp	w1, #0x1
  206a2c:	540000e0 	b.eq	206a48 <mtcmos_non_cpu_ctrl+0x20>  // b.none
  206a30:	7100083f 	cmp	w1, #0x2
  206a34:	54000120 	b.eq	206a58 <mtcmos_non_cpu_ctrl+0x30>  // b.none
  206a38:	35000181 	cbnz	w1, 206a68 <mtcmos_non_cpu_ctrl+0x40>
  206a3c:	d0000040 	adrp	x0, 210000 <__RO_END__>
  206a40:	9111d000 	add	x0, x0, #0x474
  206a44:	17ffffc0 	b	206944 <mtcmos_power_on.constprop.0>
  206a48:	d0000040 	adrp	x0, 210000 <__RO_END__>
  206a4c:	9111d000 	add	x0, x0, #0x474
  206a50:	91005000 	add	x0, x0, #0x14
  206a54:	17fffffc 	b	206a44 <mtcmos_non_cpu_ctrl+0x1c>
  206a58:	d0000040 	adrp	x0, 210000 <__RO_END__>
  206a5c:	9111d000 	add	x0, x0, #0x474
  206a60:	9100a000 	add	x0, x0, #0x28
  206a64:	17fffff8 	b	206a44 <mtcmos_non_cpu_ctrl+0x1c>
  206a68:	12800000 	mov	w0, #0xffffffff            	// #-1
  206a6c:	d65f03c0 	ret

0000000000206a70 <plat_mt_cpuxgpt_init>:
  206a70:	d280ce81 	mov	x1, #0x674                 	// #1652
  206a74:	d280ce00 	mov	x0, #0x670                 	// #1648
  206a78:	f2a20401 	movk	x1, #0x1020, lsl #16
  206a7c:	f2a20400 	movk	x0, #0x1020, lsl #16
  206a80:	52804002 	mov	w2, #0x200                 	// #512
  206a84:	b900003f 	str	wzr, [x1]
  206a88:	b9000002 	str	w2, [x0]
  206a8c:	52800182 	mov	w2, #0xc                   	// #12
  206a90:	b9000022 	str	w2, [x1]
  206a94:	52800102 	mov	w2, #0x8                   	// #8
  206a98:	b900001f 	str	wzr, [x0]
  206a9c:	b9000022 	str	w2, [x1]
  206aa0:	528f0801 	mov	w1, #0x7840                	// #30784
  206aa4:	b900001f 	str	wzr, [x0]
  206aa8:	d2840c00 	mov	x0, #0x2060                	// #8288
  206aac:	f2a20420 	movk	x0, #0x1021, lsl #16
  206ab0:	72a02fa1 	movk	w1, #0x17d, lsl #16
  206ab4:	b9400000 	ldr	w0, [x0]
  206ab8:	f27f001f 	tst	x0, #0x2
  206abc:	528b4000 	mov	w0, #0x5a00                	// #23040
  206ac0:	72a04c40 	movk	w0, #0x262, lsl #16
  206ac4:	1a811000 	csel	w0, w0, w1, ne  // ne = any
  206ac8:	53017c00 	lsr	w0, w0, #1
  206acc:	d51be000 	msr	cntfrq_el0, x0
  206ad0:	d65f03c0 	ret

0000000000206ad4 <wdt_read>:
  206ad4:	d2840001 	mov	x1, #0x2000                	// #8192
  206ad8:	f2a20421 	movk	x1, #0x1021, lsl #16
  206adc:	b8616800 	ldr	w0, [x0, x1]
  206ae0:	d65f03c0 	ret

0000000000206ae4 <wdt_rmw>:
  206ae4:	d2840003 	mov	x3, #0x2000                	// #8192
  206ae8:	f2a20423 	movk	x3, #0x1021, lsl #16
  206aec:	b8636804 	ldr	w4, [x0, x3]
  206af0:	0a210081 	bic	w1, w4, w1
  206af4:	2a020021 	orr	w1, w1, w2
  206af8:	b8236801 	str	w1, [x0, x3]
  206afc:	d65f03c0 	ret

0000000000206b00 <mtk_wdt_control>:
  206b00:	d2840002 	mov	x2, #0x2000                	// #8192
  206b04:	72001c1f 	tst	w0, #0xff
  206b08:	f2a20422 	movk	x2, #0x1021, lsl #16
  206b0c:	b9400041 	ldr	w1, [x2]
  206b10:	12000020 	and	w0, w1, #0x1
  206b14:	54000100 	b.eq	206b34 <mtk_wdt_control+0x34>  // b.none
  206b18:	34000080 	cbz	w0, 206b28 <mtk_wdt_control+0x28>
  206b1c:	90000040 	adrp	x0, 20e000 <mtk_pin_info_pu+0x36c>
  206b20:	911b2800 	add	x0, x0, #0x6ca
  206b24:	14000079 	b	206d08 <tf_log>
  206b28:	90000040 	adrp	x0, 20e000 <mtk_pin_info_pu+0x36c>
  206b2c:	911b9000 	add	x0, x0, #0x6e4
  206b30:	17fffffd 	b	206b24 <mtk_wdt_control+0x24>
  206b34:	340000c0 	cbz	w0, 206b4c <mtk_wdt_control+0x4c>
  206b38:	52a44000 	mov	w0, #0x22000000            	// #570425344
  206b3c:	b9000040 	str	w0, [x2]
  206b40:	90000040 	adrp	x0, 20e000 <mtk_pin_info_pu+0x36c>
  206b44:	911bdc00 	add	x0, x0, #0x6f7
  206b48:	17fffff7 	b	206b24 <mtk_wdt_control+0x24>
  206b4c:	d65f03c0 	ret

0000000000206b50 <mtk_wdt_print_status>:
  206b50:	a9bc7bfd 	stp	x29, x30, [sp, #-64]!
  206b54:	d2840180 	mov	x0, #0x200c                	// #8204
  206b58:	f2a20420 	movk	x0, #0x1021, lsl #16
  206b5c:	910003fd 	mov	x29, sp
  206b60:	a9025bf5 	stp	x21, x22, [sp, #32]
  206b64:	b9400016 	ldr	w22, [x0]
  206b68:	a90153f3 	stp	x19, x20, [sp, #16]
  206b6c:	a90363f7 	stp	x23, x24, [sp, #48]
  206b70:	35000116 	cbnz	w22, 206b90 <mtk_wdt_print_status+0x40>
  206b74:	a94153f3 	ldp	x19, x20, [sp, #16]
  206b78:	90000040 	adrp	x0, 20e000 <mtk_pin_info_pu+0x36c>
  206b7c:	a9425bf5 	ldp	x21, x22, [sp, #32]
  206b80:	911c1c00 	add	x0, x0, #0x707
  206b84:	a94363f7 	ldp	x23, x24, [sp, #48]
  206b88:	a8c47bfd 	ldp	x29, x30, [sp], #64
  206b8c:	1400005f 	b	206d08 <tf_log>
  206b90:	2a1603e1 	mov	w1, w22
  206b94:	d0000033 	adrp	x19, 20c000 <vprintf+0x2b8>
  206b98:	90000054 	adrp	x20, 20e000 <mtk_pin_info_pu+0x36c>
  206b9c:	90000055 	adrp	x21, 20e000 <mtk_pin_info_pu+0x36c>
  206ba0:	910e2273 	add	x19, x19, #0x388
  206ba4:	2a1603f6 	mov	w22, w22
  206ba8:	911c9a94 	add	x20, x20, #0x726
  206bac:	911ca2b5 	add	x21, x21, #0x728
  206bb0:	528000d7 	mov	w23, #0x6                   	// #6
  206bb4:	52800018 	mov	w24, #0x0                   	// #0
  206bb8:	90000040 	adrp	x0, 20e000 <mtk_pin_info_pu+0x36c>
  206bbc:	911c6000 	add	x0, x0, #0x718
  206bc0:	94000052 	bl	206d08 <tf_log>
  206bc4:	b9400260 	ldr	w0, [x19]
  206bc8:	9ac026c0 	lsr	x0, x22, x0
  206bcc:	360000c0 	tbz	w0, #0, 206be4 <mtk_wdt_print_status+0x94>
  206bd0:	f9400661 	ldr	x1, [x19, #8]
  206bd4:	350001d8 	cbnz	w24, 206c0c <mtk_wdt_print_status+0xbc>
  206bd8:	52800038 	mov	w24, #0x1                   	// #1
  206bdc:	aa1503e0 	mov	x0, x21
  206be0:	9400156b 	bl	20c18c <printf>
  206be4:	91004273 	add	x19, x19, #0x10
  206be8:	710006f7 	subs	w23, w23, #0x1
  206bec:	54fffec1 	b.ne	206bc4 <mtk_wdt_print_status+0x74>  // b.any
  206bf0:	a94153f3 	ldp	x19, x20, [sp, #16]
  206bf4:	90000040 	adrp	x0, 20e000 <mtk_pin_info_pu+0x36c>
  206bf8:	a9425bf5 	ldp	x21, x22, [sp, #32]
  206bfc:	91279400 	add	x0, x0, #0x9e5
  206c00:	a94363f7 	ldp	x23, x24, [sp, #48]
  206c04:	a8c47bfd 	ldp	x29, x30, [sp], #64
  206c08:	14001561 	b	20c18c <printf>
  206c0c:	aa1403e0 	mov	x0, x20
  206c10:	9400155f 	bl	20c18c <printf>
  206c14:	17fffff4 	b	206be4 <mtk_wdt_print_status+0x94>

0000000000206c18 <load_auth_image>:
  206c18:	a9ba7bfd 	stp	x29, x30, [sp, #-96]!
  206c1c:	910003fd 	mov	x29, sp
  206c20:	a90153f3 	stp	x19, x20, [sp, #16]
  206c24:	aa0103f4 	mov	x20, x1
  206c28:	a9025bf5 	stp	x21, x22, [sp, #32]
  206c2c:	2a0003f5 	mov	w21, w0
  206c30:	910123e2 	add	x2, sp, #0x48
  206c34:	9100e3e1 	add	x1, sp, #0x38
  206c38:	2a1503e0 	mov	w0, w21
  206c3c:	f9400696 	ldr	x22, [x20, #8]
  206c40:	97fff95d 	bl	2051b4 <plat_get_image_source>
  206c44:	2a0003f3 	mov	w19, w0
  206c48:	35000400 	cbnz	w0, 206cc8 <load_auth_image+0xb0>
  206c4c:	f9401fe0 	ldr	x0, [sp, #56]
  206c50:	910103e2 	add	x2, sp, #0x40
  206c54:	f94027e1 	ldr	x1, [sp, #72]
  206c58:	97ffee03 	bl	202464 <io_open>
  206c5c:	2a0003f3 	mov	w19, w0
  206c60:	35000340 	cbnz	w0, 206cc8 <load_auth_image+0xb0>
  206c64:	f94023e0 	ldr	x0, [sp, #64]
  206c68:	910143e1 	add	x1, sp, #0x50
  206c6c:	97ffee3b 	bl	202558 <io_size>
  206c70:	350003a0 	cbnz	w0, 206ce4 <load_auth_image+0xcc>
  206c74:	f9402be2 	ldr	x2, [sp, #80]
  206c78:	b40001c2 	cbz	x2, 206cb0 <load_auth_image+0x98>
  206c7c:	b9401680 	ldr	w0, [x20, #20]
  206c80:	eb00005f 	cmp	x2, x0
  206c84:	54000348 	b.hi	206cec <load_auth_image+0xd4>  // b.pmore
  206c88:	f94023e0 	ldr	x0, [sp, #64]
  206c8c:	b9001282 	str	w2, [x20, #16]
  206c90:	910163e3 	add	x3, sp, #0x58
  206c94:	aa1603e1 	mov	x1, x22
  206c98:	97ffee38 	bl	202578 <io_read>
  206c9c:	2a0003f3 	mov	w19, w0
  206ca0:	350000a0 	cbnz	w0, 206cb4 <load_auth_image+0x9c>
  206ca4:	a94507e0 	ldp	x0, x1, [sp, #80]
  206ca8:	eb00003f 	cmp	x1, x0
  206cac:	54000043 	b.cc	206cb4 <load_auth_image+0x9c>  // b.lo, b.ul, b.last
  206cb0:	52800013 	mov	w19, #0x0                   	// #0
  206cb4:	f94023e0 	ldr	x0, [sp, #64]
  206cb8:	97ffee38 	bl	202598 <io_close>
  206cbc:	f9401fe0 	ldr	x0, [sp, #56]
  206cc0:	97ffede2 	bl	202448 <io_dev_close>
  206cc4:	34000193 	cbz	w19, 206cf4 <load_auth_image+0xdc>
  206cc8:	94000096 	bl	206f20 <plat_try_next_boot_source>
  206ccc:	35fffb20 	cbnz	w0, 206c30 <load_auth_image+0x18>
  206cd0:	2a1303e0 	mov	w0, w19
  206cd4:	a94153f3 	ldp	x19, x20, [sp, #16]
  206cd8:	a9425bf5 	ldp	x21, x22, [sp, #32]
  206cdc:	a8c67bfd 	ldp	x29, x30, [sp], #96
  206ce0:	d65f03c0 	ret
  206ce4:	2a0003f3 	mov	w19, w0
  206ce8:	17fffff3 	b	206cb4 <load_auth_image+0x9c>
  206cec:	12800353 	mov	w19, #0xffffffe5            	// #-27
  206cf0:	17fffff1 	b	206cb4 <load_auth_image+0x9c>
  206cf4:	b9401281 	ldr	w1, [x20, #16]
  206cf8:	f9400680 	ldr	x0, [x20, #8]
  206cfc:	97ffe9f7 	bl	2014d8 <flush_dcache_range>
  206d00:	17fffff4 	b	206cd0 <load_auth_image+0xb8>

0000000000206d04 <print_entry_point_info>:
  206d04:	d65f03c0 	ret

0000000000206d08 <tf_log>:
  206d08:	a9b67bfd 	stp	x29, x30, [sp, #-160]!
  206d0c:	910003fd 	mov	x29, sp
  206d10:	a90153f3 	stp	x19, x20, [sp, #16]
  206d14:	aa0003f4 	mov	x20, x0
  206d18:	a9068be1 	stp	x1, x2, [sp, #104]
  206d1c:	d0000041 	adrp	x1, 210000 <__RO_END__>
  206d20:	a90793e3 	stp	x3, x4, [sp, #120]
  206d24:	b944b021 	ldr	w1, [x1, #1200]
  206d28:	a9089be5 	stp	x5, x6, [sp, #136]
  206d2c:	f9004fe7 	str	x7, [sp, #152]
  206d30:	39400000 	ldrb	w0, [x0]
  206d34:	6b00003f 	cmp	w1, w0
  206d38:	54000263 	b.cc	206d84 <tf_log+0x7c>  // b.lo, b.ul, b.last
  206d3c:	9400007b 	bl	206f28 <plat_log_get_prefix>
  206d40:	aa0003f3 	mov	x19, x0
  206d44:	39400260 	ldrb	w0, [x19]
  206d48:	35000240 	cbnz	w0, 206d90 <tf_log+0x88>
  206d4c:	910283e0 	add	x0, sp, #0xa0
  206d50:	a90403e0 	stp	x0, x0, [sp, #64]
  206d54:	910183e0 	add	x0, sp, #0x60
  206d58:	f9002be0 	str	x0, [sp, #80]
  206d5c:	128006e0 	mov	w0, #0xffffffc8            	// #-56
  206d60:	b9005be0 	str	w0, [sp, #88]
  206d64:	b9005fff 	str	wzr, [sp, #92]
  206d68:	a94407e0 	ldp	x0, x1, [sp, #64]
  206d6c:	a90207e0 	stp	x0, x1, [sp, #32]
  206d70:	a94507e0 	ldp	x0, x1, [sp, #80]
  206d74:	a90307e0 	stp	x0, x1, [sp, #48]
  206d78:	910083e1 	add	x1, sp, #0x20
  206d7c:	91000680 	add	x0, x20, #0x1
  206d80:	940013f2 	bl	20bd48 <vprintf>
  206d84:	a94153f3 	ldp	x19, x20, [sp, #16]
  206d88:	a8ca7bfd 	ldp	x29, x30, [sp], #160
  206d8c:	d65f03c0 	ret
  206d90:	91000673 	add	x19, x19, #0x1
  206d94:	94000041 	bl	206e98 <putchar>
  206d98:	17ffffeb 	b	206d44 <tf_log+0x3c>

0000000000206d9c <console_is_registered>:
  206d9c:	d0000061 	adrp	x1, 214000 <list+0x2550>
  206da0:	f943bc21 	ldr	x1, [x1, #1912]
  206da4:	b5000061 	cbnz	x1, 206db0 <console_is_registered+0x14>
  206da8:	52800000 	mov	w0, #0x0                   	// #0
  206dac:	d65f03c0 	ret
  206db0:	eb00003f 	cmp	x1, x0
  206db4:	54000060 	b.eq	206dc0 <console_is_registered+0x24>  // b.none
  206db8:	f9400021 	ldr	x1, [x1]
  206dbc:	17fffffa 	b	206da4 <console_is_registered+0x8>
  206dc0:	52800020 	mov	w0, #0x1                   	// #1
  206dc4:	17fffffa 	b	206dac <console_is_registered+0x10>

0000000000206dc8 <console_register>:
  206dc8:	a9bf7bfd 	stp	x29, x30, [sp, #-16]!
  206dcc:	aa0003e2 	mov	x2, x0
  206dd0:	910003fd 	mov	x29, sp
  206dd4:	97fffff2 	bl	206d9c <console_is_registered>
  206dd8:	7100041f 	cmp	w0, #0x1
  206ddc:	540000a0 	b.eq	206df0 <console_register+0x28>  // b.none
  206de0:	d0000060 	adrp	x0, 214000 <list+0x2550>
  206de4:	f943bc01 	ldr	x1, [x0, #1912]
  206de8:	f9000041 	str	x1, [x2]
  206dec:	f903bc02 	str	x2, [x0, #1912]
  206df0:	52800020 	mov	w0, #0x1                   	// #1
  206df4:	a8c17bfd 	ldp	x29, x30, [sp], #16
  206df8:	d65f03c0 	ret

0000000000206dfc <console_putc>:
  206dfc:	a9bd7bfd 	stp	x29, x30, [sp, #-48]!
  206e00:	910003fd 	mov	x29, sp
  206e04:	a9025bf5 	stp	x21, x22, [sp, #32]
  206e08:	2a0003f5 	mov	w21, w0
  206e0c:	d0000060 	adrp	x0, 214000 <list+0x2550>
  206e10:	a90153f3 	stp	x19, x20, [sp, #16]
  206e14:	d0000056 	adrp	x22, 210000 <__RO_END__>
  206e18:	911c32d6 	add	x22, x22, #0x70c
  206e1c:	f943bc13 	ldr	x19, [x0, #1912]
  206e20:	12800ff4 	mov	w20, #0xffffff80            	// #-128
  206e24:	b50000d3 	cbnz	x19, 206e3c <console_putc+0x40>
  206e28:	2a1403e0 	mov	w0, w20
  206e2c:	a94153f3 	ldp	x19, x20, [sp, #16]
  206e30:	a9425bf5 	ldp	x21, x22, [sp, #32]
  206e34:	a8c37bfd 	ldp	x29, x30, [sp], #48
  206e38:	d65f03c0 	ret
  206e3c:	f9400660 	ldr	x0, [x19, #8]
  206e40:	394002c1 	ldrb	w1, [x22]
  206e44:	ea00003f 	tst	x1, x0
  206e48:	54000180 	b.eq	206e78 <console_putc+0x7c>  // b.none
  206e4c:	f9400a62 	ldr	x2, [x19, #16]
  206e50:	b4000142 	cbz	x2, 206e78 <console_putc+0x7c>
  206e54:	71002abf 	cmp	w21, #0xa
  206e58:	54000140 	b.eq	206e80 <console_putc+0x84>  // b.none
  206e5c:	f9400a62 	ldr	x2, [x19, #16]
  206e60:	aa1303e1 	mov	x1, x19
  206e64:	2a1503e0 	mov	w0, w21
  206e68:	d63f0040 	blr	x2
  206e6c:	3102029f 	cmn	w20, #0x80
  206e70:	7a401280 	ccmp	w20, w0, #0x0, ne  // ne = any
  206e74:	1a80d294 	csel	w20, w20, w0, le
  206e78:	f9400273 	ldr	x19, [x19]
  206e7c:	17ffffea 	b	206e24 <console_putc+0x28>
  206e80:	3647fee0 	tbz	w0, #8, 206e5c <console_putc+0x60>
  206e84:	aa1303e1 	mov	x1, x19
  206e88:	528001a0 	mov	w0, #0xd                   	// #13
  206e8c:	d63f0040 	blr	x2
  206e90:	36fffe60 	tbz	w0, #31, 206e5c <console_putc+0x60>
  206e94:	17fffff6 	b	206e6c <console_putc+0x70>

0000000000206e98 <putchar>:
  206e98:	a9be7bfd 	stp	x29, x30, [sp, #-32]!
  206e9c:	910003fd 	mov	x29, sp
  206ea0:	f9000bf3 	str	x19, [sp, #16]
  206ea4:	2a0003f3 	mov	w19, w0
  206ea8:	97ffffd5 	bl	206dfc <console_putc>
  206eac:	7100001f 	cmp	w0, #0x0
  206eb0:	5a9f0260 	csinv	w0, w19, wzr, eq  // eq = none
  206eb4:	f9400bf3 	ldr	x19, [sp, #16]
  206eb8:	a8c27bfd 	ldp	x29, x30, [sp], #32
  206ebc:	d65f03c0 	ret

0000000000206ec0 <console_flush>:
  206ec0:	a9be7bfd 	stp	x29, x30, [sp, #-32]!
  206ec4:	d0000060 	adrp	x0, 214000 <list+0x2550>
  206ec8:	910003fd 	mov	x29, sp
  206ecc:	a90153f3 	stp	x19, x20, [sp, #16]
  206ed0:	d0000054 	adrp	x20, 210000 <__RO_END__>
  206ed4:	911c3294 	add	x20, x20, #0x70c
  206ed8:	f943bc13 	ldr	x19, [x0, #1912]
  206edc:	b5000093 	cbnz	x19, 206eec <console_flush+0x2c>
  206ee0:	a94153f3 	ldp	x19, x20, [sp, #16]
  206ee4:	a8c27bfd 	ldp	x29, x30, [sp], #32
  206ee8:	d65f03c0 	ret
  206eec:	f9400660 	ldr	x0, [x19, #8]
  206ef0:	39400281 	ldrb	w1, [x20]
  206ef4:	ea00003f 	tst	x1, x0
  206ef8:	540000a0 	b.eq	206f0c <console_flush+0x4c>  // b.none
  206efc:	f9401261 	ldr	x1, [x19, #32]
  206f00:	b4000061 	cbz	x1, 206f0c <console_flush+0x4c>
  206f04:	aa1303e0 	mov	x0, x19
  206f08:	d63f0020 	blr	x1
  206f0c:	f9400273 	ldr	x19, [x19]
  206f10:	17fffff3 	b	206edc <console_flush+0x1c>

0000000000206f14 <bl2_el3_plat_prepare_exit>:
  206f14:	d65f03c0 	ret

0000000000206f18 <plat_error_handler>:
  206f18:	d503207f 	wfi
  206f1c:	17ffffff 	b	206f18 <plat_error_handler>

0000000000206f20 <plat_try_next_boot_source>:
  206f20:	52800000 	mov	w0, #0x0                   	// #0
  206f24:	d65f03c0 	ret

0000000000206f28 <plat_log_get_prefix>:
  206f28:	7100c81f 	cmp	w0, #0x32
  206f2c:	52800641 	mov	w1, #0x32                  	// #50
  206f30:	1a819000 	csel	w0, w0, w1, ls  // ls = plast
  206f34:	52800141 	mov	w1, #0xa                   	// #10
  206f38:	6b01001f 	cmp	w0, w1
  206f3c:	1a812000 	csel	w0, w0, w1, cs  // cs = hs, nlast
  206f40:	1ac10800 	udiv	w0, w0, w1
  206f44:	d0000021 	adrp	x1, 20c000 <vprintf+0x2b8>
  206f48:	910fa021 	add	x1, x1, #0x3e8
  206f4c:	51000400 	sub	w0, w0, #0x1
  206f50:	f8607820 	ldr	x0, [x1, x0, lsl #3]
  206f54:	d65f03c0 	ret

0000000000206f58 <dram_reg_write>:
  206f58:	52880002 	mov	w2, #0x4000                	// #16384
  206f5c:	72a20422 	movk	w2, #0x1021, lsl #16
  206f60:	0b020002 	add	w2, w0, w2
  206f64:	b9000041 	str	w1, [x2]
  206f68:	52860002 	mov	w2, #0x3000                	// #12288
  206f6c:	72a20422 	movk	w2, #0x1021, lsl #16
  206f70:	0b020002 	add	w2, w0, w2
  206f74:	b9000041 	str	w1, [x2]
  206f78:	529c0002 	mov	w2, #0xe000                	// #57344
  206f7c:	72a20402 	movk	w2, #0x1020, lsl #16
  206f80:	0b020000 	add	w0, w0, w2
  206f84:	b9000001 	str	w1, [x0]
  206f88:	d65f03c0 	ret

0000000000206f8c <dram_reg_read>:
  206f8c:	52880002 	mov	w2, #0x4000                	// #16384
  206f90:	529c0003 	mov	w3, #0xe000                	// #57344
  206f94:	72a20422 	movk	w2, #0x1021, lsl #16
  206f98:	0b020002 	add	w2, w0, w2
  206f9c:	72a20403 	movk	w3, #0x1020, lsl #16
  206fa0:	b9400044 	ldr	w4, [x2]
  206fa4:	52860002 	mov	w2, #0x3000                	// #12288
  206fa8:	72a20422 	movk	w2, #0x1021, lsl #16
  206fac:	0b020002 	add	w2, w0, w2
  206fb0:	0b030000 	add	w0, w0, w3
  206fb4:	b9400042 	ldr	w2, [x2]
  206fb8:	b9400003 	ldr	w3, [x0]
  206fbc:	2a040040 	orr	w0, w2, w4
  206fc0:	2a030000 	orr	w0, w0, w3
  206fc4:	b9000020 	str	w0, [x1]
  206fc8:	d65f03c0 	ret

0000000000206fcc <dramc_phy_reset>:
  206fcc:	d2800180 	mov	x0, #0xc                   	// #12
  206fd0:	a9bb7bfd 	stp	x29, x30, [sp, #-80]!
  206fd4:	f2a10000 	movk	x0, #0x800, lsl #16
  206fd8:	910003fd 	mov	x29, sp
  206fdc:	b9400000 	ldr	w0, [x0]
  206fe0:	a90153f3 	stp	x19, x20, [sp, #16]
  206fe4:	a9025bf5 	stp	x21, x22, [sp, #32]
  206fe8:	a90363f7 	stp	x23, x24, [sp, #48]
  206fec:	350003e0 	cbnz	w0, 207068 <dramc_phy_reset+0x9c>
  206ff0:	910133e1 	add	x1, sp, #0x4c
  206ff4:	52801c80 	mov	w0, #0xe4                  	// #228
  206ff8:	97ffffe5 	bl	206f8c <dram_reg_read>
  206ffc:	b9404fe0 	ldr	w0, [sp, #76]
  207000:	d2881c81 	mov	x1, #0x40e4                	// #16612
  207004:	f2a20421 	movk	x1, #0x1021, lsl #16
  207008:	321e0000 	orr	w0, w0, #0x4
  20700c:	b9004fe0 	str	w0, [sp, #76]
  207010:	b9000020 	str	w0, [x1]
  207014:	d2861c81 	mov	x1, #0x30e4                	// #12516
  207018:	f2a20421 	movk	x1, #0x1021, lsl #16
  20701c:	b9000020 	str	w0, [x1]
  207020:	d29c1c81 	mov	x1, #0xe0e4                	// #57572
  207024:	f2a20401 	movk	x1, #0x1020, lsl #16
  207028:	b9000020 	str	w0, [x1]
  20702c:	910133e1 	add	x1, sp, #0x4c
  207030:	52800080 	mov	w0, #0x4                   	// #4
  207034:	97ffffd6 	bl	206f8c <dram_reg_read>
  207038:	b9404fe0 	ldr	w0, [sp, #76]
  20703c:	d2880081 	mov	x1, #0x4004                	// #16388
  207040:	f2a20421 	movk	x1, #0x1021, lsl #16
  207044:	32060000 	orr	w0, w0, #0x4000000
  207048:	b9004fe0 	str	w0, [sp, #76]
  20704c:	b9000020 	str	w0, [x1]
  207050:	d2860081 	mov	x1, #0x3004                	// #12292
  207054:	f2a20421 	movk	x1, #0x1021, lsl #16
  207058:	b9000020 	str	w0, [x1]
  20705c:	d29c0081 	mov	x1, #0xe004                	// #57348
  207060:	f2a20401 	movk	x1, #0x1020, lsl #16
  207064:	b9000020 	str	w0, [x1]
  207068:	910133e1 	add	x1, sp, #0x4c
  20706c:	52801e00 	mov	w0, #0xf0                  	// #240
  207070:	97ffffc7 	bl	206f8c <dram_reg_read>
  207074:	d2881e18 	mov	x24, #0x40f0                	// #16624
  207078:	b9404fe0 	ldr	w0, [sp, #76]
  20707c:	f2a20438 	movk	x24, #0x1021, lsl #16
  207080:	d2861e17 	mov	x23, #0x30f0                	// #12528
  207084:	d29c1e16 	mov	x22, #0xe0f0                	// #57584
  207088:	32040000 	orr	w0, w0, #0x10000000
  20708c:	f2a20437 	movk	x23, #0x1021, lsl #16
  207090:	b9004fe0 	str	w0, [sp, #76]
  207094:	f2a20416 	movk	x22, #0x1020, lsl #16
  207098:	b9000300 	str	w0, [x24]
  20709c:	910133e1 	add	x1, sp, #0x4c
  2070a0:	b90002e0 	str	w0, [x23]
  2070a4:	d2881e95 	mov	x21, #0x40f4                	// #16628
  2070a8:	b90002c0 	str	w0, [x22]
  2070ac:	52801e80 	mov	w0, #0xf4                  	// #244
  2070b0:	f2a20435 	movk	x21, #0x1021, lsl #16
  2070b4:	d2861e94 	mov	x20, #0x30f4                	// #12532
  2070b8:	97ffffb5 	bl	206f8c <dram_reg_read>
  2070bc:	f2a20434 	movk	x20, #0x1021, lsl #16
  2070c0:	b9404fe0 	ldr	w0, [sp, #76]
  2070c4:	d29c1e93 	mov	x19, #0xe0f4                	// #57588
  2070c8:	f2a20413 	movk	x19, #0x1020, lsl #16
  2070cc:	32070000 	orr	w0, w0, #0x2000000
  2070d0:	b9004fe0 	str	w0, [sp, #76]
  2070d4:	b90002a0 	str	w0, [x21]
  2070d8:	b9000280 	str	w0, [x20]
  2070dc:	b9000260 	str	w0, [x19]
  2070e0:	52800020 	mov	w0, #0x1                   	// #1
  2070e4:	97ffea9a 	bl	201b4c <udelay>
  2070e8:	910133e1 	add	x1, sp, #0x4c
  2070ec:	52801e00 	mov	w0, #0xf0                  	// #240
  2070f0:	97ffffa7 	bl	206f8c <dram_reg_read>
  2070f4:	b9404fe0 	ldr	w0, [sp, #76]
  2070f8:	910133e1 	add	x1, sp, #0x4c
  2070fc:	12037800 	and	w0, w0, #0xefffffff
  207100:	b9004fe0 	str	w0, [sp, #76]
  207104:	b9000300 	str	w0, [x24]
  207108:	b90002e0 	str	w0, [x23]
  20710c:	b90002c0 	str	w0, [x22]
  207110:	52801e80 	mov	w0, #0xf4                  	// #244
  207114:	97ffff9e 	bl	206f8c <dram_reg_read>
  207118:	b9404fe0 	ldr	w0, [sp, #76]
  20711c:	12067800 	and	w0, w0, #0xfdffffff
  207120:	b9004fe0 	str	w0, [sp, #76]
  207124:	b90002a0 	str	w0, [x21]
  207128:	b9000280 	str	w0, [x20]
  20712c:	b9000260 	str	w0, [x19]
  207130:	d2800180 	mov	x0, #0xc                   	// #12
  207134:	f2a10000 	movk	x0, #0x800, lsl #16
  207138:	b9400000 	ldr	w0, [x0]
  20713c:	350003c0 	cbnz	w0, 2071b4 <dramc_phy_reset+0x1e8>
  207140:	910133e1 	add	x1, sp, #0x4c
  207144:	52800080 	mov	w0, #0x4                   	// #4
  207148:	97ffff91 	bl	206f8c <dram_reg_read>
  20714c:	b9404fe0 	ldr	w0, [sp, #76]
  207150:	d2880081 	mov	x1, #0x4004                	// #16388
  207154:	f2a20421 	movk	x1, #0x1021, lsl #16
  207158:	12057800 	and	w0, w0, #0xfbffffff
  20715c:	b9004fe0 	str	w0, [sp, #76]
  207160:	b9000020 	str	w0, [x1]
  207164:	d2860081 	mov	x1, #0x3004                	// #12292
  207168:	f2a20421 	movk	x1, #0x1021, lsl #16
  20716c:	b9000020 	str	w0, [x1]
  207170:	d29c0081 	mov	x1, #0xe004                	// #57348
  207174:	f2a20401 	movk	x1, #0x1020, lsl #16
  207178:	b9000020 	str	w0, [x1]
  20717c:	910133e1 	add	x1, sp, #0x4c
  207180:	52801c80 	mov	w0, #0xe4                  	// #228
  207184:	97ffff82 	bl	206f8c <dram_reg_read>
  207188:	d2881c81 	mov	x1, #0x40e4                	// #16612
  20718c:	b9404fe0 	ldr	w0, [sp, #76]
  207190:	f2a20421 	movk	x1, #0x1021, lsl #16
  207194:	121d7800 	and	w0, w0, #0xfffffffb
  207198:	b9000020 	str	w0, [x1]
  20719c:	d2861c81 	mov	x1, #0x30e4                	// #12516
  2071a0:	f2a20421 	movk	x1, #0x1021, lsl #16
  2071a4:	b9000020 	str	w0, [x1]
  2071a8:	d29c1c81 	mov	x1, #0xe0e4                	// #57572
  2071ac:	f2a20401 	movk	x1, #0x1020, lsl #16
  2071b0:	b9000020 	str	w0, [x1]
  2071b4:	a94153f3 	ldp	x19, x20, [sp, #16]
  2071b8:	a9425bf5 	ldp	x21, x22, [sp, #32]
  2071bc:	a94363f7 	ldp	x23, x24, [sp, #48]
  2071c0:	a8c57bfd 	ldp	x29, x30, [sp], #80
  2071c4:	d65f03c0 	ret

00000000002071c8 <dle_factor_handler>:
  2071c8:	12001c25 	and	w5, w1, #0xff
  2071cc:	a9be7bfd 	stp	x29, x30, [sp, #-32]!
  2071d0:	52801000 	mov	w0, #0x80                  	// #128
  2071d4:	910003fd 	mov	x29, sp
  2071d8:	910073e1 	add	x1, sp, #0x1c
  2071dc:	97ffff6c 	bl	206f8c <dram_reg_read>
  2071e0:	b9401fe0 	ldr	w0, [sp, #28]
  2071e4:	d2881008 	mov	x8, #0x4080                	// #16512
  2071e8:	f2a20428 	movk	x8, #0x1021, lsl #16
  2071ec:	d2861007 	mov	x7, #0x3080                	// #12416
  2071f0:	f2a20427 	movk	x7, #0x1021, lsl #16
  2071f4:	d29c1006 	mov	x6, #0xe080                	// #57472
  2071f8:	331010a0 	bfi	w0, w5, #16, #5
  2071fc:	b9001fe0 	str	w0, [sp, #28]
  207200:	71001cbf 	cmp	w5, #0x7
  207204:	f2a20406 	movk	x6, #0x1020, lsl #16
  207208:	510010a9 	sub	w9, w5, #0x4
  20720c:	b9000100 	str	w0, [x8]
  207210:	1a9f8129 	csel	w9, w9, wzr, hi  // hi = pmore
  207214:	b90000e0 	str	w0, [x7]
  207218:	b90000c0 	str	w0, [x6]
  20721c:	910073e1 	add	x1, sp, #0x1c
  207220:	52801000 	mov	w0, #0x80                  	// #128
  207224:	97ffff5a 	bl	206f8c <dram_reg_read>
  207228:	710008bf 	cmp	w5, #0x2
  20722c:	b9401fe0 	ldr	w0, [sp, #28]
  207230:	910073e1 	add	x1, sp, #0x1c
  207234:	33181120 	bfi	w0, w9, #8, #5
  207238:	b9001fe0 	str	w0, [sp, #28]
  20723c:	b9000100 	str	w0, [x8]
  207240:	b90000e0 	str	w0, [x7]
  207244:	b90000c0 	str	w0, [x6]
  207248:	52801000 	mov	w0, #0x80                  	// #128
  20724c:	54000149 	b.ls	207274 <dle_factor_handler+0xac>  // b.plast
  207250:	97ffff4f 	bl	206f8c <dram_reg_read>
  207254:	51000ca5 	sub	w5, w5, #0x3
  207258:	b9401fe0 	ldr	w0, [sp, #28]
  20725c:	330010a0 	bfxil	w0, w5, #0, #5
  207260:	b9000100 	str	w0, [x8]
  207264:	b90000e0 	str	w0, [x7]
  207268:	b90000c0 	str	w0, [x6]
  20726c:	a8c27bfd 	ldp	x29, x30, [sp], #32
  207270:	d65f03c0 	ret
  207274:	97ffff46 	bl	206f8c <dram_reg_read>
  207278:	b9401fe0 	ldr	w0, [sp, #28]
  20727c:	121b6800 	and	w0, w0, #0xffffffe0
  207280:	17fffff8 	b	207260 <dle_factor_handler+0x98>

0000000000207284 <do_calib>:
  207284:	a9ae7bfd 	stp	x29, x30, [sp, #-288]!
  207288:	910003fd 	mov	x29, sp
  20728c:	a90153f3 	stp	x19, x20, [sp, #16]
  207290:	aa0003f3 	mov	x19, x0
  207294:	a9025bf5 	stp	x21, x22, [sp, #32]
  207298:	a90363f7 	stp	x23, x24, [sp, #48]
  20729c:	a9046bf9 	stp	x25, x26, [sp, #64]
  2072a0:	f9002bfb 	str	x27, [sp, #80]
  2072a4:	940006cd 	bl	208dd8 <dramc_rxdqs_gating_cal>
  2072a8:	b5000293 	cbnz	x19, 2072f8 <do_calib+0x74>
  2072ac:	f0000034 	adrp	x20, 20e000 <mtk_pin_info_pu+0x36c>
  2072b0:	911faa94 	add	x20, x20, #0x7ea
  2072b4:	aa1403e0 	mov	x0, x20
  2072b8:	97fffe94 	bl	206d08 <tf_log>
  2072bc:	aa1403e0 	mov	x0, x20
  2072c0:	97fffe92 	bl	206d08 <tf_log>
  2072c4:	b90077ff 	str	wzr, [sp, #116]
  2072c8:	f9003fff 	str	xzr, [sp, #120]
  2072cc:	b50052d3 	cbnz	x19, 207d24 <do_calib+0xaa0>
  2072d0:	f0000020 	adrp	x0, 20e000 <mtk_pin_info_pu+0x36c>
  2072d4:	91243400 	add	x0, x0, #0x90d
  2072d8:	97fffe8c 	bl	206d08 <tf_log>
  2072dc:	a94153f3 	ldp	x19, x20, [sp, #16]
  2072e0:	a9425bf5 	ldp	x21, x22, [sp, #32]
  2072e4:	a94363f7 	ldp	x23, x24, [sp, #48]
  2072e8:	a9446bf9 	ldp	x25, x26, [sp, #64]
  2072ec:	f9402bfb 	ldr	x27, [sp, #80]
  2072f0:	a8d27bfd 	ldp	x29, x30, [sp], #288
  2072f4:	d65f03c0 	ret
  2072f8:	d2880300 	mov	x0, #0x4018                	// #16408
  2072fc:	910203e4 	add	x4, sp, #0x80
  207300:	f2a20420 	movk	x0, #0x1021, lsl #16
  207304:	d2800146 	mov	x6, #0xa                   	// #10
  207308:	12802001 	mov	w1, #0xfffffeff            	// #-257
  20730c:	b900001f 	str	wzr, [x0]
  207310:	d2860300 	mov	x0, #0x3018                	// #12312
  207314:	f2a20420 	movk	x0, #0x1021, lsl #16
  207318:	b900001f 	str	wzr, [x0]
  20731c:	d29c0300 	mov	x0, #0xe018                	// #57368
  207320:	f2a20400 	movk	x0, #0x1020, lsl #16
  207324:	b900001f 	str	wzr, [x0]
  207328:	52800000 	mov	w0, #0x0                   	// #0
  20732c:	b9400e65 	ldr	w5, [x19, #12]
  207330:	6b05001f 	cmp	w0, w5
  207334:	540000e3 	b.cc	207350 <do_calib+0xcc>  // b.lo, b.ul, b.last
  207338:	910203f6 	add	x22, sp, #0x80
  20733c:	52800014 	mov	w20, #0x0                   	// #0
  207340:	12800015 	mov	w21, #0xffffffff            	// #-1
  207344:	52800037 	mov	w23, #0x1                   	// #1
  207348:	52800003 	mov	w3, #0x0                   	// #0
  20734c:	14000010 	b	20738c <do_calib+0x108>
  207350:	93407c02 	sxtw	x2, w0
  207354:	11000400 	add	w0, w0, #0x1
  207358:	12001c00 	and	w0, w0, #0xff
  20735c:	9b067c42 	mul	x2, x2, x6
  207360:	8b020083 	add	x3, x4, x2
  207364:	78226881 	strh	w1, [x4, x2]
  207368:	79000461 	strh	w1, [x3, #2]
  20736c:	79000861 	strh	w1, [x3, #4]
  207370:	79000c61 	strh	w1, [x3, #6]
  207374:	17ffffef 	b	207330 <do_calib+0xac>
  207378:	11084060 	add	w0, w3, #0x210
  20737c:	2a1403e1 	mov	w1, w20
  207380:	97fffef6 	bl	206f58 <dram_reg_write>
  207384:	11001063 	add	w3, w3, #0x4
  207388:	12001c63 	and	w3, w3, #0xff
  20738c:	b9400e60 	ldr	w0, [x19, #12]
  207390:	6b00007f 	cmp	w3, w0
  207394:	54ffff23 	b.cc	207378 <do_calib+0xf4>  // b.lo, b.ul, b.last
  207398:	b9401a64 	ldr	w4, [x19, #24]
  20739c:	7100049f 	cmp	w4, #0x1
  2073a0:	54000181 	b.ne	2073d0 <do_calib+0x14c>  // b.any
  2073a4:	39408261 	ldrb	w1, [x19, #32]
  2073a8:	52800007 	mov	w7, #0x0                   	// #0
  2073ac:	29420e62 	ldp	w2, w3, [x19, #16]
  2073b0:	7100043f 	cmp	w1, #0x1
  2073b4:	52800006 	mov	w6, #0x0                   	// #0
  2073b8:	52800005 	mov	w5, #0x0                   	// #0
  2073bc:	540002a1 	b.ne	207410 <do_calib+0x18c>  // b.any
  2073c0:	2a0103e4 	mov	w4, w1
  2073c4:	aa1303e0 	mov	x0, x19
  2073c8:	940005b5 	bl	208a9c <dramc_engine2>
  2073cc:	14000027 	b	207468 <do_calib+0x1e4>
  2073d0:	350000c4 	cbnz	w4, 2073e8 <do_calib+0x164>
  2073d4:	52800007 	mov	w7, #0x0                   	// #0
  2073d8:	52800006 	mov	w6, #0x0                   	// #0
  2073dc:	52800005 	mov	w5, #0x0                   	// #0
  2073e0:	29420e62 	ldp	w2, w3, [x19, #16]
  2073e4:	1400000b 	b	207410 <do_calib+0x18c>
  2073e8:	7100149f 	cmp	w4, #0x5
  2073ec:	54000161 	b.ne	207418 <do_calib+0x194>  // b.any
  2073f0:	39408261 	ldrb	w1, [x19, #32]
  2073f4:	52800007 	mov	w7, #0x0                   	// #0
  2073f8:	29420e62 	ldp	w2, w3, [x19, #16]
  2073fc:	7100043f 	cmp	w1, #0x1
  207400:	52800006 	mov	w6, #0x0                   	// #0
  207404:	52800005 	mov	w5, #0x0                   	// #0
  207408:	52800044 	mov	w4, #0x2                   	// #2
  20740c:	54fffdc0 	b.eq	2073c4 <do_calib+0x140>  // b.none
  207410:	52800001 	mov	w1, #0x0                   	// #0
  207414:	17ffffec 	b	2073c4 <do_calib+0x140>
  207418:	7100189f 	cmp	w4, #0x6
  20741c:	540004a1 	b.ne	2074b0 <do_calib+0x22c>  // b.any
  207420:	29420e62 	ldp	w2, w3, [x19, #16]
  207424:	52800007 	mov	w7, #0x0                   	// #0
  207428:	52800006 	mov	w6, #0x0                   	// #0
  20742c:	52800005 	mov	w5, #0x0                   	// #0
  207430:	52800024 	mov	w4, #0x1                   	// #1
  207434:	52800001 	mov	w1, #0x0                   	// #0
  207438:	aa1303e0 	mov	x0, x19
  20743c:	94000598 	bl	208a9c <dramc_engine2>
  207440:	29420e62 	ldp	w2, w3, [x19, #16]
  207444:	2a0003f8 	mov	w24, w0
  207448:	52800007 	mov	w7, #0x0                   	// #0
  20744c:	aa1303e0 	mov	x0, x19
  207450:	52800006 	mov	w6, #0x0                   	// #0
  207454:	52800005 	mov	w5, #0x0                   	// #0
  207458:	52800044 	mov	w4, #0x2                   	// #2
  20745c:	52800001 	mov	w1, #0x0                   	// #0
  207460:	9400058f 	bl	208a9c <dramc_engine2>
  207464:	2a000300 	orr	w0, w24, w0
  207468:	b9400e6e 	ldr	w14, [x19, #12]
  20746c:	910207e8 	add	x8, sp, #0x81
  207470:	13001eac 	sxtb	w12, w21
  207474:	910217e9 	add	x9, sp, #0x85
  207478:	910213ea 	add	x10, sp, #0x84
  20747c:	12001e8b 	and	w11, w20, #0xff
  207480:	5280000f 	mov	w15, #0x0                   	// #0
  207484:	d2800147 	mov	x7, #0xa                   	// #10
  207488:	1280200d 	mov	w13, #0xfffffeff            	// #-257
  20748c:	6b0e01ff 	cmp	w15, w14
  207490:	54000203 	b.cc	2074d0 <do_calib+0x24c>  // b.lo, b.ul, b.last
  207494:	110006b5 	add	w21, w21, #0x1
  207498:	3200c3e0 	mov	w0, #0x1010101             	// #16843009
  20749c:	71003ebf 	cmp	w21, #0xf
  2074a0:	0b000294 	add	w20, w20, w0
  2074a4:	54fff521 	b.ne	207348 <do_calib+0xc4>  // b.any
  2074a8:	52800003 	mov	w3, #0x0                   	// #0
  2074ac:	1400003d 	b	2075a0 <do_calib+0x31c>
  2074b0:	f0000020 	adrp	x0, 20e000 <mtk_pin_info_pu+0x36c>
  2074b4:	91200400 	add	x0, x0, #0x801
  2074b8:	97fffe14 	bl	206d08 <tf_log>
  2074bc:	52800007 	mov	w7, #0x0                   	// #0
  2074c0:	52800006 	mov	w6, #0x0                   	// #0
  2074c4:	52800005 	mov	w5, #0x0                   	// #0
  2074c8:	52800024 	mov	w4, #0x1                   	// #1
  2074cc:	17ffffc5 	b	2073e0 <do_calib+0x15c>
  2074d0:	93407de1 	sxtw	x1, w15
  2074d4:	1acf22e4 	lsl	w4, w23, w15
  2074d8:	6a00009f 	tst	w4, w0
  2074dc:	9b077c22 	mul	x2, x1, x7
  2074e0:	38e26ac3 	ldrsb	w3, [x22, x2]
  2074e4:	54000321 	b.ne	207548 <do_calib+0x2c4>  // b.any
  2074e8:	3100047f 	cmn	w3, #0x1
  2074ec:	54000041 	b.ne	2074f4 <do_calib+0x270>  // b.any
  2074f0:	38226ad4 	strb	w20, [x22, x2]
  2074f4:	9b077c22 	mul	x2, x1, x7
  2074f8:	38e26903 	ldrsb	w3, [x8, x2]
  2074fc:	3100087f 	cmn	w3, #0x2
  207500:	540001e1 	b.ne	20753c <do_calib+0x2b8>  // b.any
  207504:	71003d7f 	cmp	w11, #0xf
  207508:	540001a1 	b.ne	20753c <do_calib+0x2b8>  // b.any
  20750c:	3822690b 	strb	w11, [x8, x2]
  207510:	38e26ac4 	ldrsb	w4, [x22, x2]
  207514:	38e26923 	ldrsb	w3, [x9, x2]
  207518:	38e26946 	ldrsb	w6, [x10, x2]
  20751c:	4b040165 	sub	w5, w11, w4
  207520:	4b060063 	sub	w3, w3, w6
  207524:	6b0300bf 	cmp	w5, w3
  207528:	5400006d 	b.le	207534 <do_calib+0x2b0>
  20752c:	3822692b 	strb	w11, [x9, x2]
  207530:	38226944 	strb	w4, [x10, x2]
  207534:	9b077c22 	mul	x2, x1, x7
  207538:	78226acd 	strh	w13, [x22, x2]
  20753c:	110005e1 	add	w1, w15, #0x1
  207540:	12001c2f 	and	w15, w1, #0xff
  207544:	17ffffd2 	b	20748c <do_calib+0x208>
  207548:	3100047f 	cmn	w3, #0x1
  20754c:	54ffff80 	b.eq	20753c <do_calib+0x2b8>  // b.none
  207550:	38e26904 	ldrsb	w4, [x8, x2]
  207554:	3100089f 	cmn	w4, #0x2
  207558:	54ffff21 	b.ne	20753c <do_calib+0x2b8>  // b.any
  20755c:	3822690c 	strb	w12, [x8, x2]
  207560:	4b0302a5 	sub	w5, w21, w3
  207564:	38e26924 	ldrsb	w4, [x9, x2]
  207568:	38e26946 	ldrsb	w6, [x10, x2]
  20756c:	4b060084 	sub	w4, w4, w6
  207570:	6b0400bf 	cmp	w5, w4
  207574:	5400006d 	b.le	207580 <do_calib+0x2fc>
  207578:	3822692c 	strb	w12, [x9, x2]
  20757c:	38226943 	strb	w3, [x10, x2]
  207580:	9b077c21 	mul	x1, x1, x7
  207584:	78216acd 	strh	w13, [x22, x1]
  207588:	17ffffed 	b	20753c <do_calib+0x2b8>
  20758c:	11084060 	add	w0, w3, #0x210
  207590:	52800001 	mov	w1, #0x0                   	// #0
  207594:	97fffe71 	bl	206f58 <dram_reg_write>
  207598:	11001063 	add	w3, w3, #0x4
  20759c:	12001c63 	and	w3, w3, #0xff
  2075a0:	b9400e60 	ldr	w0, [x19, #12]
  2075a4:	6b00007f 	cmp	w3, w0
  2075a8:	54ffff23 	b.cc	20758c <do_calib+0x308>  // b.lo, b.ul, b.last
  2075ac:	52800034 	mov	w20, #0x1                   	// #1
  2075b0:	91020bf5 	add	x21, sp, #0x82
  2075b4:	2a1403f6 	mov	w22, w20
  2075b8:	b9400e62 	ldr	w2, [x19, #12]
  2075bc:	52800001 	mov	w1, #0x0                   	// #0
  2075c0:	52800000 	mov	w0, #0x0                   	// #0
  2075c4:	53037c42 	lsr	w2, w2, #3
  2075c8:	14000006 	b	2075e0 <do_calib+0x35c>
  2075cc:	531d7003 	lsl	w3, w0, #3
  2075d0:	11000400 	add	w0, w0, #0x1
  2075d4:	12001c00 	and	w0, w0, #0xff
  2075d8:	1ac32283 	lsl	w3, w20, w3
  2075dc:	0b030021 	add	w1, w1, w3
  2075e0:	6b02001f 	cmp	w0, w2
  2075e4:	54ffff43 	b.cc	2075cc <do_calib+0x348>  // b.lo, b.ul, b.last
  2075e8:	d2880300 	mov	x0, #0x4018                	// #16408
  2075ec:	f2a20420 	movk	x0, #0x1021, lsl #16
  2075f0:	b9000001 	str	w1, [x0]
  2075f4:	d2860300 	mov	x0, #0x3018                	// #12312
  2075f8:	f2a20420 	movk	x0, #0x1021, lsl #16
  2075fc:	b9000001 	str	w1, [x0]
  207600:	d29c0300 	mov	x0, #0xe018                	// #57368
  207604:	f2a20400 	movk	x0, #0x1020, lsl #16
  207608:	b9000001 	str	w1, [x0]
  20760c:	b9401a64 	ldr	w4, [x19, #24]
  207610:	7100049f 	cmp	w4, #0x1
  207614:	54000181 	b.ne	207644 <do_calib+0x3c0>  // b.any
  207618:	39408261 	ldrb	w1, [x19, #32]
  20761c:	52800007 	mov	w7, #0x0                   	// #0
  207620:	29420e62 	ldp	w2, w3, [x19, #16]
  207624:	7100043f 	cmp	w1, #0x1
  207628:	52800006 	mov	w6, #0x0                   	// #0
  20762c:	52800005 	mov	w5, #0x0                   	// #0
  207630:	540002a1 	b.ne	207684 <do_calib+0x400>  // b.any
  207634:	2a0103e4 	mov	w4, w1
  207638:	aa1303e0 	mov	x0, x19
  20763c:	94000518 	bl	208a9c <dramc_engine2>
  207640:	14000027 	b	2076dc <do_calib+0x458>
  207644:	350000c4 	cbnz	w4, 20765c <do_calib+0x3d8>
  207648:	52800007 	mov	w7, #0x0                   	// #0
  20764c:	52800006 	mov	w6, #0x0                   	// #0
  207650:	52800005 	mov	w5, #0x0                   	// #0
  207654:	29420e62 	ldp	w2, w3, [x19, #16]
  207658:	1400000b 	b	207684 <do_calib+0x400>
  20765c:	7100149f 	cmp	w4, #0x5
  207660:	54000161 	b.ne	20768c <do_calib+0x408>  // b.any
  207664:	39408261 	ldrb	w1, [x19, #32]
  207668:	52800007 	mov	w7, #0x0                   	// #0
  20766c:	29420e62 	ldp	w2, w3, [x19, #16]
  207670:	7100043f 	cmp	w1, #0x1
  207674:	52800006 	mov	w6, #0x0                   	// #0
  207678:	52800005 	mov	w5, #0x0                   	// #0
  20767c:	52800044 	mov	w4, #0x2                   	// #2
  207680:	54fffdc0 	b.eq	207638 <do_calib+0x3b4>  // b.none
  207684:	52800001 	mov	w1, #0x0                   	// #0
  207688:	17ffffec 	b	207638 <do_calib+0x3b4>
  20768c:	7100189f 	cmp	w4, #0x6
  207690:	540011c1 	b.ne	2078c8 <do_calib+0x644>  // b.any
  207694:	29420e62 	ldp	w2, w3, [x19, #16]
  207698:	52800007 	mov	w7, #0x0                   	// #0
  20769c:	52800006 	mov	w6, #0x0                   	// #0
  2076a0:	52800005 	mov	w5, #0x0                   	// #0
  2076a4:	52800024 	mov	w4, #0x1                   	// #1
  2076a8:	52800001 	mov	w1, #0x0                   	// #0
  2076ac:	aa1303e0 	mov	x0, x19
  2076b0:	940004fb 	bl	208a9c <dramc_engine2>
  2076b4:	29420e62 	ldp	w2, w3, [x19, #16]
  2076b8:	2a0003f7 	mov	w23, w0
  2076bc:	52800007 	mov	w7, #0x0                   	// #0
  2076c0:	aa1303e0 	mov	x0, x19
  2076c4:	52800006 	mov	w6, #0x0                   	// #0
  2076c8:	52800005 	mov	w5, #0x0                   	// #0
  2076cc:	52800044 	mov	w4, #0x2                   	// #2
  2076d0:	52800001 	mov	w1, #0x0                   	// #0
  2076d4:	940004f2 	bl	208a9c <dramc_engine2>
  2076d8:	2a0002e0 	orr	w0, w23, w0
  2076dc:	5100068d 	sub	w13, w20, #0x1
  2076e0:	b9400e6b 	ldr	w11, [x19, #12]
  2076e4:	91020fe9 	add	x9, sp, #0x83
  2076e8:	91021fea 	add	x10, sp, #0x87
  2076ec:	13001dae 	sxtb	w14, w13
  2076f0:	91021bec 	add	x12, sp, #0x86
  2076f4:	52800007 	mov	w7, #0x0                   	// #0
  2076f8:	d2800148 	mov	x8, #0xa                   	// #10
  2076fc:	1280200f 	mov	w15, #0xfffffeff            	// #-257
  207700:	6b0b00ff 	cmp	w7, w11
  207704:	54000f23 	b.cc	2078e8 <do_calib+0x664>  // b.lo, b.ul, b.last
  207708:	11000694 	add	w20, w20, #0x1
  20770c:	7101029f 	cmp	w20, #0x40
  207710:	54fff541 	b.ne	2075b8 <do_calib+0x334>  // b.any
  207714:	b0000068 	adrp	x8, 214000 <list+0x2550>
  207718:	d280014f 	mov	x15, #0xa                   	// #10
  20771c:	53037d6e 	lsr	w14, w11, #3
  207720:	9101e3e7 	add	x7, sp, #0x78
  207724:	91021bf1 	add	x17, sp, #0x86
  207728:	91021ff2 	add	x18, sp, #0x87
  20772c:	910213f4 	add	x20, sp, #0x84
  207730:	910217f5 	add	x21, sp, #0x85
  207734:	910223e9 	add	x9, sp, #0x88
  207738:	910227ea 	add	x10, sp, #0x89
  20773c:	2a0f03f6 	mov	w22, w15
  207740:	7918e91f 	strh	wzr, [x8, #3188]
  207744:	528000e5 	mov	w5, #0x7                   	// #7
  207748:	52800018 	mov	w24, #0x0                   	// #0
  20774c:	5280000c 	mov	w12, #0x0                   	// #0
  207750:	d2800003 	mov	x3, #0x0                   	// #0
  207754:	52800050 	mov	w16, #0x2                   	// #2
  207758:	528001f7 	mov	w23, #0xf                   	// #15
  20775c:	6b0e007f 	cmp	w3, w14
  207760:	54001263 	b.cc	2079ac <do_calib+0x728>  // b.lo, b.ul, b.last
  207764:	34000058 	cbz	w24, 20776c <do_calib+0x4e8>
  207768:	7918e90c 	strh	w12, [x8, #3188]
  20776c:	52800000 	mov	w0, #0x0                   	// #0
  207770:	6b00017f 	cmp	w11, w0
  207774:	54001be8 	b.hi	207af0 <do_calib+0x86c>  // b.pmore
  207778:	9101e3e3 	add	x3, sp, #0x78
  20777c:	52800000 	mov	w0, #0x0                   	// #0
  207780:	52800001 	mov	w1, #0x0                   	// #0
  207784:	6b0101df 	cmp	w14, w1
  207788:	54001ba8 	b.hi	207afc <do_calib+0x878>  // b.pmore
  20778c:	d2880301 	mov	x1, #0x4018                	// #16408
  207790:	910223e5 	add	x5, sp, #0x88
  207794:	f2a20421 	movk	x1, #0x1021, lsl #16
  207798:	52800003 	mov	w3, #0x0                   	// #0
  20779c:	d2800144 	mov	x4, #0xa                   	// #10
  2077a0:	b9000020 	str	w0, [x1]
  2077a4:	d2860301 	mov	x1, #0x3018                	// #12312
  2077a8:	f2a20421 	movk	x1, #0x1021, lsl #16
  2077ac:	b9000020 	str	w0, [x1]
  2077b0:	d29c0301 	mov	x1, #0xe018                	// #57368
  2077b4:	f2a20401 	movk	x1, #0x1020, lsl #16
  2077b8:	b9000020 	str	w0, [x1]
  2077bc:	d2880381 	mov	x1, #0x401c                	// #16412
  2077c0:	f2a20421 	movk	x1, #0x1021, lsl #16
  2077c4:	b9000020 	str	w0, [x1]
  2077c8:	d2860381 	mov	x1, #0x301c                	// #12316
  2077cc:	f2a20421 	movk	x1, #0x1021, lsl #16
  2077d0:	b9000020 	str	w0, [x1]
  2077d4:	d29c0381 	mov	x1, #0xe01c                	// #57372
  2077d8:	f2a20401 	movk	x1, #0x1020, lsl #16
  2077dc:	b9000020 	str	w0, [x1]
  2077e0:	b9400e60 	ldr	w0, [x19, #12]
  2077e4:	6b00007f 	cmp	w3, w0
  2077e8:	54001983 	b.cc	207b18 <do_calib+0x894>  // b.lo, b.ul, b.last
  2077ec:	aa1303e0 	mov	x0, x19
  2077f0:	97fffdf7 	bl	206fcc <dramc_phy_reset>
  2077f4:	910203e1 	add	x1, sp, #0x80
  2077f8:	52801b00 	mov	w0, #0xd8                  	// #216
  2077fc:	97fffde4 	bl	206f8c <dram_reg_read>
  207800:	52800115 	mov	w21, #0x8                   	// #8
  207804:	b94083e0 	ldr	w0, [sp, #128]
  207808:	12818201 	mov	w1, #0xfffff3ef            	// #-3089
  20780c:	f0000039 	adrp	x25, 20e000 <mtk_pin_info_pu+0x36c>
  207810:	5280fffb 	mov	w27, #0x7ff                 	// #2047
  207814:	1214741a 	and	w26, w0, #0xfffff3ff
  207818:	0a010000 	and	w0, w0, w1
  20781c:	d2881b01 	mov	x1, #0x40d8                	// #16600
  207820:	b90083e0 	str	w0, [sp, #128]
  207824:	f2a20421 	movk	x1, #0x1021, lsl #16
  207828:	91217f39 	add	x25, x25, #0x85f
  20782c:	52801ff6 	mov	w22, #0xff                  	// #255
  207830:	52800017 	mov	w23, #0x0                   	// #0
  207834:	b9000020 	str	w0, [x1]
  207838:	d2861b01 	mov	x1, #0x30d8                	// #12504
  20783c:	f2a20421 	movk	x1, #0x1021, lsl #16
  207840:	52800018 	mov	w24, #0x0                   	// #0
  207844:	72b5401b 	movk	w27, #0xaa00, lsl #16
  207848:	b9000020 	str	w0, [x1]
  20784c:	d29c1b01 	mov	x1, #0xe0d8                	// #57560
  207850:	f2a20401 	movk	x1, #0x1020, lsl #16
  207854:	b9000020 	str	w0, [x1]
  207858:	9101e3e1 	add	x1, sp, #0x78
  20785c:	52801000 	mov	w0, #0x80                  	// #128
  207860:	97fffdcb 	bl	206f8c <dram_reg_read>
  207864:	52801000 	mov	w0, #0x80                  	// #128
  207868:	910203e1 	add	x1, sp, #0x80
  20786c:	97fffdc8 	bl	206f8c <dram_reg_read>
  207870:	b94083e0 	ldr	w0, [sp, #128]
  207874:	121b0800 	and	w0, w0, #0xe0
  207878:	7103801f 	cmp	w0, #0xe0
  20787c:	52800080 	mov	w0, #0x4                   	// #4
  207880:	1a8002b5 	csel	w21, w21, w0, eq  // eq = none
  207884:	2a1503e1 	mov	w1, w21
  207888:	aa1303e0 	mov	x0, x19
  20788c:	97fffe4f 	bl	2071c8 <dle_factor_handler>
  207890:	b9401a64 	ldr	w4, [x19, #24]
  207894:	7100049f 	cmp	w4, #0x1
  207898:	54001701 	b.ne	207b78 <do_calib+0x8f4>  // b.any
  20789c:	39408261 	ldrb	w1, [x19, #32]
  2078a0:	52800007 	mov	w7, #0x0                   	// #0
  2078a4:	29420e62 	ldp	w2, w3, [x19, #16]
  2078a8:	7100043f 	cmp	w1, #0x1
  2078ac:	52800006 	mov	w6, #0x0                   	// #0
  2078b0:	52800005 	mov	w5, #0x0                   	// #0
  2078b4:	54001821 	b.ne	207bb8 <do_calib+0x934>  // b.any
  2078b8:	2a0103e4 	mov	w4, w1
  2078bc:	aa1303e0 	mov	x0, x19
  2078c0:	94000477 	bl	208a9c <dramc_engine2>
  2078c4:	140000d3 	b	207c10 <do_calib+0x98c>
  2078c8:	f0000020 	adrp	x0, 20e000 <mtk_pin_info_pu+0x36c>
  2078cc:	9120f400 	add	x0, x0, #0x83d
  2078d0:	97fffd0e 	bl	206d08 <tf_log>
  2078d4:	52800007 	mov	w7, #0x0                   	// #0
  2078d8:	52800006 	mov	w6, #0x0                   	// #0
  2078dc:	52800005 	mov	w5, #0x0                   	// #0
  2078e0:	52800024 	mov	w4, #0x1                   	// #1
  2078e4:	17ffff5c 	b	207654 <do_calib+0x3d0>
  2078e8:	93407ce5 	sxtw	x5, w7
  2078ec:	1ac722c3 	lsl	w3, w22, w7
  2078f0:	6a00007f 	tst	w3, w0
  2078f4:	9b087ca1 	mul	x1, x5, x8
  2078f8:	38e16aa2 	ldrsb	w2, [x21, x1]
  2078fc:	54000341 	b.ne	207964 <do_calib+0x6e0>  // b.any
  207900:	3100045f 	cmn	w2, #0x1
  207904:	54000041 	b.ne	20790c <do_calib+0x688>  // b.any
  207908:	38216ab4 	strb	w20, [x21, x1]
  20790c:	9b087ca1 	mul	x1, x5, x8
  207910:	38e16922 	ldrsb	w2, [x9, x1]
  207914:	3100085f 	cmn	w2, #0x2
  207918:	54000201 	b.ne	207958 <do_calib+0x6d4>  // b.any
  20791c:	7100fe9f 	cmp	w20, #0x3f
  207920:	540001c1 	b.ne	207958 <do_calib+0x6d4>  // b.any
  207924:	38216934 	strb	w20, [x9, x1]
  207928:	38e16aa3 	ldrsb	w3, [x21, x1]
  20792c:	38e16942 	ldrsb	w2, [x10, x1]
  207930:	38e16986 	ldrsb	w6, [x12, x1]
  207934:	4b030284 	sub	w4, w20, w3
  207938:	4b060042 	sub	w2, w2, w6
  20793c:	6b02009f 	cmp	w4, w2
  207940:	5400006d 	b.le	20794c <do_calib+0x6c8>
  207944:	38216954 	strb	w20, [x10, x1]
  207948:	38216983 	strb	w3, [x12, x1]
  20794c:	910203e1 	add	x1, sp, #0x80
  207950:	9b0804a5 	madd	x5, x5, x8, x1
  207954:	790004af 	strh	w15, [x5, #2]
  207958:	110004e1 	add	w1, w7, #0x1
  20795c:	12001c27 	and	w7, w1, #0xff
  207960:	17ffff68 	b	207700 <do_calib+0x47c>
  207964:	3100045f 	cmn	w2, #0x1
  207968:	54ffff80 	b.eq	207958 <do_calib+0x6d4>  // b.none
  20796c:	38e16923 	ldrsb	w3, [x9, x1]
  207970:	3100087f 	cmn	w3, #0x2
  207974:	54ffff21 	b.ne	207958 <do_calib+0x6d4>  // b.any
  207978:	3821692e 	strb	w14, [x9, x1]
  20797c:	4b0201a4 	sub	w4, w13, w2
  207980:	38e16943 	ldrsb	w3, [x10, x1]
  207984:	38e16986 	ldrsb	w6, [x12, x1]
  207988:	4b060063 	sub	w3, w3, w6
  20798c:	6b03009f 	cmp	w4, w3
  207990:	5400006d 	b.le	20799c <do_calib+0x718>
  207994:	3821694e 	strb	w14, [x10, x1]
  207998:	38216982 	strb	w2, [x12, x1]
  20799c:	910203e1 	add	x1, sp, #0x80
  2079a0:	9b0804a1 	madd	x1, x5, x8, x1
  2079a4:	7900042f 	strh	w15, [x1, #2]
  2079a8:	17ffffec 	b	207958 <do_calib+0x6d4>
  2079ac:	531d1064 	ubfiz	w4, w3, #3, #5
  2079b0:	1100046d 	add	w13, w3, #0x1
  2079b4:	12001dad 	and	w13, w13, #0xff
  2079b8:	2a0403e6 	mov	w6, w4
  2079bc:	382368ff 	strb	wzr, [x7, x3]
  2079c0:	6b0600bf 	cmp	w5, w6
  2079c4:	54000122 	b.cs	2079e8 <do_calib+0x764>  // b.hs, b.nlast
  2079c8:	910203e0 	add	x0, sp, #0x80
  2079cc:	9bb60082 	umaddl	x2, w4, w22, x0
  2079d0:	6b0400bf 	cmp	w5, w4
  2079d4:	54000702 	b.cs	207ab4 <do_calib+0x830>  // b.hs, b.nlast
  2079d8:	110020a5 	add	w5, w5, #0x8
  2079dc:	93407da3 	sxtw	x3, w13
  2079e0:	12001ca5 	and	w5, w5, #0xff
  2079e4:	17ffff5e 	b	20775c <do_calib+0x4d8>
  2079e8:	93407cc2 	sxtw	x2, w6
  2079ec:	9b0f7c42 	mul	x2, x2, x15
  2079f0:	38626a58 	ldrb	w24, [x18, x2]
  2079f4:	38626aa1 	ldrb	w1, [x21, x2]
  2079f8:	38626a39 	ldrb	w25, [x17, x2]
  2079fc:	11000718 	add	w24, w24, #0x1
  207a00:	38626a9b 	ldrb	w27, [x20, x2]
  207a04:	11000421 	add	w1, w1, #0x1
  207a08:	4b190318 	sub	w24, w24, w25
  207a0c:	4b1b0021 	sub	w1, w1, w27
  207a10:	12001f1a 	and	w26, w24, #0xff
  207a14:	12001c20 	and	w0, w1, #0xff
  207a18:	0b380018 	add	w24, w0, w24, uxtb
  207a1c:	6b00035f 	cmp	w26, w0
  207a20:	0b18018c 	add	w12, w12, w24
  207a24:	12003d8c 	and	w12, w12, #0xffff
  207a28:	540002c9 	b.ls	207a80 <do_calib+0x7fc>  // b.plast
  207a2c:	3822693f 	strb	wzr, [x9, x2]
  207a30:	386368e1 	ldrb	w1, [x7, x3]
  207a34:	34000180 	cbz	w0, 207a64 <do_calib+0x7e0>
  207a38:	4b000340 	sub	w0, w26, w0
  207a3c:	1ad00c00 	sdiv	w0, w0, w16
  207a40:	12001c00 	and	w0, w0, #0xff
  207a44:	38226940 	strb	w0, [x10, x2]
  207a48:	6b00003f 	cmp	w1, w0
  207a4c:	54000042 	b.cs	207a54 <do_calib+0x7d0>  // b.hs, b.nlast
  207a50:	382368e0 	strb	w0, [x7, x3]
  207a54:	110004c6 	add	w6, w6, #0x1
  207a58:	52800038 	mov	w24, #0x1                   	// #1
  207a5c:	12001cc6 	and	w6, w6, #0xff
  207a60:	17ffffd8 	b	2079c0 <do_calib+0x73c>
  207a64:	0b5a0720 	add	w0, w25, w26, lsr #1
  207a68:	12001c19 	and	w25, w0, #0xff
  207a6c:	38226959 	strb	w25, [x10, x2]
  207a70:	6b19003f 	cmp	w1, w25
  207a74:	54ffff02 	b.cs	207a54 <do_calib+0x7d0>  // b.hs, b.nlast
  207a78:	382368f9 	strb	w25, [x7, x3]
  207a7c:	17fffff6 	b	207a54 <do_calib+0x7d0>
  207a80:	54000122 	b.cs	207aa4 <do_calib+0x820>  // b.hs, b.nlast
  207a84:	3822695f 	strb	wzr, [x10, x2]
  207a88:	340000ba 	cbz	w26, 207a9c <do_calib+0x818>
  207a8c:	4b1a0000 	sub	w0, w0, w26
  207a90:	1ad00c00 	sdiv	w0, w0, w16
  207a94:	38226920 	strb	w0, [x9, x2]
  207a98:	17ffffef 	b	207a54 <do_calib+0x7d0>
  207a9c:	0b400760 	add	w0, w27, w0, lsr #1
  207aa0:	17fffffd 	b	207a94 <do_calib+0x810>
  207aa4:	910203e0 	add	x0, sp, #0x80
  207aa8:	8b020002 	add	x2, x0, x2
  207aac:	7900105f 	strh	wzr, [x2, #8]
  207ab0:	17ffffe9 	b	207a54 <do_calib+0x7d0>
  207ab4:	39402446 	ldrb	w6, [x2, #9]
  207ab8:	386368e1 	ldrb	w1, [x7, x3]
  207abc:	6b0100df 	cmp	w6, w1
  207ac0:	54000102 	b.cs	207ae0 <do_calib+0x85c>  // b.hs, b.nlast
  207ac4:	39402040 	ldrb	w0, [x2, #8]
  207ac8:	0b000020 	add	w0, w1, w0
  207acc:	4b060000 	sub	w0, w0, w6
  207ad0:	12001c01 	and	w1, w0, #0xff
  207ad4:	71003c3f 	cmp	w1, #0xf
  207ad8:	1a979000 	csel	w0, w0, w23, ls  // ls = plast
  207adc:	39002040 	strb	w0, [x2, #8]
  207ae0:	11000484 	add	w4, w4, #0x1
  207ae4:	91002842 	add	x2, x2, #0xa
  207ae8:	12001c84 	and	w4, w4, #0xff
  207aec:	17ffffb9 	b	2079d0 <do_calib+0x74c>
  207af0:	11001000 	add	w0, w0, #0x4
  207af4:	12001c00 	and	w0, w0, #0xff
  207af8:	17ffff1e 	b	207770 <do_calib+0x4ec>
  207afc:	3861c862 	ldrb	w2, [x3, w1, sxtw]
  207b00:	531d7024 	lsl	w4, w1, #3
  207b04:	11000421 	add	w1, w1, #0x1
  207b08:	12001c21 	and	w1, w1, #0xff
  207b0c:	1ac42042 	lsl	w2, w2, w4
  207b10:	0b020000 	add	w0, w0, w2
  207b14:	17ffff1c 	b	207784 <do_calib+0x500>
  207b18:	11000460 	add	w0, w3, #0x1
  207b1c:	93407c62 	sxtw	x2, w3
  207b20:	93407c00 	sxtw	x0, w0
  207b24:	9b047c42 	mul	x2, x2, x4
  207b28:	9b047c00 	mul	x0, x0, x4
  207b2c:	386268a2 	ldrb	w2, [x5, x2]
  207b30:	386068a1 	ldrb	w1, [x5, x0]
  207b34:	11000860 	add	w0, w3, #0x2
  207b38:	93407c00 	sxtw	x0, w0
  207b3c:	9b047c00 	mul	x0, x0, x4
  207b40:	386068a0 	ldrb	w0, [x5, x0]
  207b44:	53103c00 	lsl	w0, w0, #16
  207b48:	0b012001 	add	w1, w0, w1, lsl #8
  207b4c:	11000c60 	add	w0, w3, #0x3
  207b50:	93407c00 	sxtw	x0, w0
  207b54:	9b047c00 	mul	x0, x0, x4
  207b58:	386068a0 	ldrb	w0, [x5, x0]
  207b5c:	0b006040 	add	w0, w2, w0, lsl #24
  207b60:	0b000021 	add	w1, w1, w0
  207b64:	11084060 	add	w0, w3, #0x210
  207b68:	97fffcfc 	bl	206f58 <dram_reg_write>
  207b6c:	11001063 	add	w3, w3, #0x4
  207b70:	12001c63 	and	w3, w3, #0xff
  207b74:	17ffff1b 	b	2077e0 <do_calib+0x55c>
  207b78:	350000c4 	cbnz	w4, 207b90 <do_calib+0x90c>
  207b7c:	52800007 	mov	w7, #0x0                   	// #0
  207b80:	52800006 	mov	w6, #0x0                   	// #0
  207b84:	52800005 	mov	w5, #0x0                   	// #0
  207b88:	29420e62 	ldp	w2, w3, [x19, #16]
  207b8c:	1400000b 	b	207bb8 <do_calib+0x934>
  207b90:	7100149f 	cmp	w4, #0x5
  207b94:	54000161 	b.ne	207bc0 <do_calib+0x93c>  // b.any
  207b98:	39408261 	ldrb	w1, [x19, #32]
  207b9c:	52800007 	mov	w7, #0x0                   	// #0
  207ba0:	29420e62 	ldp	w2, w3, [x19, #16]
  207ba4:	7100043f 	cmp	w1, #0x1
  207ba8:	52800006 	mov	w6, #0x0                   	// #0
  207bac:	52800005 	mov	w5, #0x0                   	// #0
  207bb0:	52800044 	mov	w4, #0x2                   	// #2
  207bb4:	54ffe840 	b.eq	2078bc <do_calib+0x638>  // b.none
  207bb8:	52800001 	mov	w1, #0x0                   	// #0
  207bbc:	17ffff40 	b	2078bc <do_calib+0x638>
  207bc0:	7100189f 	cmp	w4, #0x6
  207bc4:	540006c1 	b.ne	207c9c <do_calib+0xa18>  // b.any
  207bc8:	29420e62 	ldp	w2, w3, [x19, #16]
  207bcc:	52800007 	mov	w7, #0x0                   	// #0
  207bd0:	52800006 	mov	w6, #0x0                   	// #0
  207bd4:	52800005 	mov	w5, #0x0                   	// #0
  207bd8:	52800024 	mov	w4, #0x1                   	// #1
  207bdc:	52800001 	mov	w1, #0x0                   	// #0
  207be0:	aa1303e0 	mov	x0, x19
  207be4:	940003ae 	bl	208a9c <dramc_engine2>
  207be8:	29420e62 	ldp	w2, w3, [x19, #16]
  207bec:	2a0003f4 	mov	w20, w0
  207bf0:	52800007 	mov	w7, #0x0                   	// #0
  207bf4:	aa1303e0 	mov	x0, x19
  207bf8:	52800006 	mov	w6, #0x0                   	// #0
  207bfc:	52800005 	mov	w5, #0x0                   	// #0
  207c00:	52800044 	mov	w4, #0x2                   	// #2
  207c04:	52800001 	mov	w1, #0x0                   	// #0
  207c08:	940003a5 	bl	208a9c <dramc_engine2>
  207c0c:	2a000280 	orr	w0, w20, w0
  207c10:	350006a0 	cbnz	w0, 207ce4 <do_calib+0xa60>
  207c14:	34000658 	cbz	w24, 207cdc <do_calib+0xa58>
  207c18:	7100071f 	cmp	w24, #0x1
  207c1c:	54000081 	b.ne	207c2c <do_calib+0x9a8>  // b.any
  207c20:	110006f7 	add	w23, w23, #0x1
  207c24:	52800038 	mov	w24, #0x1                   	// #1
  207c28:	12001ef7 	and	w23, w23, #0xff
  207c2c:	110006b5 	add	w21, w21, #0x1
  207c30:	aa1303e0 	mov	x0, x19
  207c34:	12001eb5 	and	w21, w21, #0xff
  207c38:	97fffce5 	bl	206fcc <dramc_phy_reset>
  207c3c:	71005abf 	cmp	w21, #0x16
  207c40:	54ffe221 	b.ne	207884 <do_calib+0x600>  // b.any
  207c44:	35000597 	cbnz	w23, 207cf4 <do_calib+0xa70>
  207c48:	f0000020 	adrp	x0, 20e000 <mtk_pin_info_pu+0x36c>
  207c4c:	91226800 	add	x0, x0, #0x89a
  207c50:	97fffc2e 	bl	206d08 <tf_log>
  207c54:	52800201 	mov	w1, #0x10                  	// #16
  207c58:	aa1303e0 	mov	x0, x19
  207c5c:	97fffd5b 	bl	2071c8 <dle_factor_handler>
  207c60:	f0000020 	adrp	x0, 20e000 <mtk_pin_info_pu+0x36c>
  207c64:	91232800 	add	x0, x0, #0x8ca
  207c68:	97fffc28 	bl	206d08 <tf_log>
  207c6c:	52808200 	mov	w0, #0x410                 	// #1040
  207c70:	2a00035a 	orr	w26, w26, w0
  207c74:	d2881b00 	mov	x0, #0x40d8                	// #16600
  207c78:	f2a20420 	movk	x0, #0x1021, lsl #16
  207c7c:	b900001a 	str	w26, [x0]
  207c80:	d2861b00 	mov	x0, #0x30d8                	// #12504
  207c84:	f2a20420 	movk	x0, #0x1021, lsl #16
  207c88:	b900001a 	str	w26, [x0]
  207c8c:	d29c1b00 	mov	x0, #0xe0d8                	// #57560
  207c90:	f2a20400 	movk	x0, #0x1020, lsl #16
  207c94:	b900001a 	str	w26, [x0]
  207c98:	17fffd8b 	b	2072c4 <do_calib+0x40>
  207c9c:	7100089f 	cmp	w4, #0x2
  207ca0:	54000101 	b.ne	207cc0 <do_calib+0xa3c>  // b.any
  207ca4:	2a1b03e2 	mov	w2, w27
  207ca8:	aa1303e0 	mov	x0, x19
  207cac:	52800004 	mov	w4, #0x0                   	// #0
  207cb0:	52800003 	mov	w3, #0x0                   	// #0
  207cb4:	52aaa001 	mov	w1, #0x55000000            	// #1426063360
  207cb8:	940002cf 	bl	2087f4 <dramc_engine1>
  207cbc:	17ffffd5 	b	207c10 <do_calib+0x98c>
  207cc0:	aa1903e0 	mov	x0, x25
  207cc4:	97fffc11 	bl	206d08 <tf_log>
  207cc8:	52800007 	mov	w7, #0x0                   	// #0
  207ccc:	52800006 	mov	w6, #0x0                   	// #0
  207cd0:	52800005 	mov	w5, #0x0                   	// #0
  207cd4:	52800024 	mov	w4, #0x1                   	// #1
  207cd8:	17ffffac 	b	207b88 <do_calib+0x904>
  207cdc:	2a1503f6 	mov	w22, w21
  207ce0:	17ffffd0 	b	207c20 <do_calib+0x99c>
  207ce4:	7100071f 	cmp	w24, #0x1
  207ce8:	52801fe0 	mov	w0, #0xff                  	// #255
  207cec:	1a801318 	csel	w24, w24, w0, ne  // ne = any
  207cf0:	17ffffcf 	b	207c2c <do_calib+0x9a8>
  207cf4:	710006ff 	cmp	w23, #0x1
  207cf8:	54000101 	b.ne	207d18 <do_calib+0xa94>  // b.any
  207cfc:	f0000020 	adrp	x0, 20e000 <mtk_pin_info_pu+0x36c>
  207d00:	9123e000 	add	x0, x0, #0x8f8
  207d04:	97fffc01 	bl	206d08 <tf_log>
  207d08:	2a1603e1 	mov	w1, w22
  207d0c:	aa1303e0 	mov	x0, x19
  207d10:	97fffd2e 	bl	2071c8 <dle_factor_handler>
  207d14:	17ffffd6 	b	207c6c <do_calib+0x9e8>
  207d18:	110006d6 	add	w22, w22, #0x1
  207d1c:	12001ed6 	and	w22, w22, #0xff
  207d20:	17fffffa 	b	207d08 <do_calib+0xa84>
  207d24:	aa1303e0 	mov	x0, x19
  207d28:	97fffca9 	bl	206fcc <dramc_phy_reset>
  207d2c:	52800003 	mov	w3, #0x0                   	// #0
  207d30:	b9400e60 	ldr	w0, [x19, #12]
  207d34:	6b400c7f 	cmp	w3, w0, lsr #3
  207d38:	54000823 	b.cc	207e3c <do_calib+0xbb8>  // b.lo, b.ul, b.last
  207d3c:	9101d3e1 	add	x1, sp, #0x74
  207d40:	7100401f 	cmp	w0, #0x10
  207d44:	540008a1 	b.ne	207e58 <do_calib+0xbd4>  // b.any
  207d48:	97fffc91 	bl	206f8c <dram_reg_read>
  207d4c:	b94077e0 	ldr	w0, [sp, #116]
  207d50:	12185c00 	and	w0, w0, #0xffffff00
  207d54:	b9400e61 	ldr	w1, [x19, #12]
  207d58:	b90077e0 	str	w0, [sp, #116]
  207d5c:	52800000 	mov	w0, #0x0                   	// #0
  207d60:	53037c21 	lsr	w1, w1, #3
  207d64:	6b01001f 	cmp	w0, w1
  207d68:	54000823 	b.cc	207e6c <do_calib+0xbe8>  // b.lo, b.ul, b.last
  207d6c:	d2880201 	mov	x1, #0x4010                	// #16400
  207d70:	b94077e0 	ldr	w0, [sp, #116]
  207d74:	f2a20421 	movk	x1, #0x1021, lsl #16
  207d78:	910203e4 	add	x4, sp, #0x80
  207d7c:	d2800146 	mov	x6, #0xa                   	// #10
  207d80:	b9000020 	str	w0, [x1]
  207d84:	d2860201 	mov	x1, #0x3010                	// #12304
  207d88:	f2a20421 	movk	x1, #0x1021, lsl #16
  207d8c:	b9000020 	str	w0, [x1]
  207d90:	d29c0201 	mov	x1, #0xe010                	// #57360
  207d94:	f2a20401 	movk	x1, #0x1020, lsl #16
  207d98:	b9000020 	str	w0, [x1]
  207d9c:	52800000 	mov	w0, #0x0                   	// #0
  207da0:	12802001 	mov	w1, #0xfffffeff            	// #-257
  207da4:	b9400e65 	ldr	w5, [x19, #12]
  207da8:	6b05001f 	cmp	w0, w5
  207dac:	54000663 	b.cc	207e78 <do_calib+0xbf4>  // b.lo, b.ul, b.last
  207db0:	52800038 	mov	w24, #0x1                   	// #1
  207db4:	91020bf5 	add	x21, sp, #0x82
  207db8:	2a1803f6 	mov	w22, w24
  207dbc:	91020ff4 	add	x20, sp, #0x83
  207dc0:	b9400e62 	ldr	w2, [x19, #12]
  207dc4:	52800003 	mov	w3, #0x0                   	// #0
  207dc8:	52800001 	mov	w1, #0x0                   	// #0
  207dcc:	52800000 	mov	w0, #0x0                   	// #0
  207dd0:	b90077ff 	str	wzr, [sp, #116]
  207dd4:	53037c42 	lsr	w2, w2, #3
  207dd8:	6b02001f 	cmp	w0, w2
  207ddc:	54000623 	b.cc	207ea0 <do_calib+0xc1c>  // b.lo, b.ul, b.last
  207de0:	34000043 	cbz	w3, 207de8 <do_calib+0xb64>
  207de4:	b90077e1 	str	w1, [sp, #116]
  207de8:	d2880281 	mov	x1, #0x4014                	// #16404
  207dec:	b94077e0 	ldr	w0, [sp, #116]
  207df0:	f2a20421 	movk	x1, #0x1021, lsl #16
  207df4:	b9000020 	str	w0, [x1]
  207df8:	d2860281 	mov	x1, #0x3014                	// #12308
  207dfc:	f2a20421 	movk	x1, #0x1021, lsl #16
  207e00:	b9000020 	str	w0, [x1]
  207e04:	d29c0281 	mov	x1, #0xe014                	// #57364
  207e08:	f2a20401 	movk	x1, #0x1020, lsl #16
  207e0c:	b9000020 	str	w0, [x1]
  207e10:	b9401a64 	ldr	w4, [x19, #24]
  207e14:	7100049f 	cmp	w4, #0x1
  207e18:	54000521 	b.ne	207ebc <do_calib+0xc38>  // b.any
  207e1c:	52800007 	mov	w7, #0x0                   	// #0
  207e20:	52800006 	mov	w6, #0x0                   	// #0
  207e24:	52800005 	mov	w5, #0x0                   	// #0
  207e28:	29420e62 	ldp	w2, w3, [x19, #16]
  207e2c:	aa1303e0 	mov	x0, x19
  207e30:	52800001 	mov	w1, #0x0                   	// #0
  207e34:	9400031a 	bl	208a9c <dramc_engine2>
  207e38:	1400003d 	b	207f2c <do_calib+0xca8>
  207e3c:	b94077e1 	ldr	w1, [sp, #116]
  207e40:	11020060 	add	w0, w3, #0x80
  207e44:	531e7400 	lsl	w0, w0, #2
  207e48:	97fffc44 	bl	206f58 <dram_reg_write>
  207e4c:	11000463 	add	w3, w3, #0x1
  207e50:	12001c63 	and	w3, w3, #0xff
  207e54:	17ffffb7 	b	207d30 <do_calib+0xaac>
  207e58:	52800200 	mov	w0, #0x10                  	// #16
  207e5c:	97fffc4c 	bl	206f8c <dram_reg_read>
  207e60:	b94077e0 	ldr	w0, [sp, #116]
  207e64:	12103c00 	and	w0, w0, #0xffff0000
  207e68:	17ffffbb 	b	207d54 <do_calib+0xad0>
  207e6c:	11000400 	add	w0, w0, #0x1
  207e70:	12001c00 	and	w0, w0, #0xff
  207e74:	17ffffbc 	b	207d64 <do_calib+0xae0>
  207e78:	93407c02 	sxtw	x2, w0
  207e7c:	11000400 	add	w0, w0, #0x1
  207e80:	12001c00 	and	w0, w0, #0xff
  207e84:	9b067c42 	mul	x2, x2, x6
  207e88:	8b020083 	add	x3, x4, x2
  207e8c:	78226881 	strh	w1, [x4, x2]
  207e90:	79000461 	strh	w1, [x3, #2]
  207e94:	79000861 	strh	w1, [x3, #4]
  207e98:	79000c61 	strh	w1, [x3, #6]
  207e9c:	17ffffc3 	b	207da8 <do_calib+0xb24>
  207ea0:	531e7403 	lsl	w3, w0, #2
  207ea4:	11000400 	add	w0, w0, #0x1
  207ea8:	12001c00 	and	w0, w0, #0xff
  207eac:	1ac32303 	lsl	w3, w24, w3
  207eb0:	0b030021 	add	w1, w1, w3
  207eb4:	52800023 	mov	w3, #0x1                   	// #1
  207eb8:	17ffffc8 	b	207dd8 <do_calib+0xb54>
  207ebc:	34fffb04 	cbz	w4, 207e1c <do_calib+0xb98>
  207ec0:	7100149f 	cmp	w4, #0x5
  207ec4:	540000c1 	b.ne	207edc <do_calib+0xc58>  // b.any
  207ec8:	52800007 	mov	w7, #0x0                   	// #0
  207ecc:	52800006 	mov	w6, #0x0                   	// #0
  207ed0:	52800005 	mov	w5, #0x0                   	// #0
  207ed4:	52800044 	mov	w4, #0x2                   	// #2
  207ed8:	17ffffd4 	b	207e28 <do_calib+0xba4>
  207edc:	7100189f 	cmp	w4, #0x6
  207ee0:	54000c21 	b.ne	208064 <do_calib+0xde0>  // b.any
  207ee4:	29420e62 	ldp	w2, w3, [x19, #16]
  207ee8:	52800007 	mov	w7, #0x0                   	// #0
  207eec:	52800006 	mov	w6, #0x0                   	// #0
  207ef0:	52800005 	mov	w5, #0x0                   	// #0
  207ef4:	52800024 	mov	w4, #0x1                   	// #1
  207ef8:	52800001 	mov	w1, #0x0                   	// #0
  207efc:	aa1303e0 	mov	x0, x19
  207f00:	940002e7 	bl	208a9c <dramc_engine2>
  207f04:	29420e62 	ldp	w2, w3, [x19, #16]
  207f08:	2a0003f7 	mov	w23, w0
  207f0c:	52800007 	mov	w7, #0x0                   	// #0
  207f10:	aa1303e0 	mov	x0, x19
  207f14:	52800006 	mov	w6, #0x0                   	// #0
  207f18:	52800005 	mov	w5, #0x0                   	// #0
  207f1c:	52800044 	mov	w4, #0x2                   	// #2
  207f20:	52800001 	mov	w1, #0x0                   	// #0
  207f24:	940002de 	bl	208a9c <dramc_engine2>
  207f28:	2a0002e0 	orr	w0, w23, w0
  207f2c:	5100070c 	sub	w12, w24, #0x1
  207f30:	b9400e68 	ldr	w8, [x19, #12]
  207f34:	91021fea 	add	x10, sp, #0x87
  207f38:	91021beb 	add	x11, sp, #0x86
  207f3c:	13001d8d 	sxtb	w13, w12
  207f40:	52800007 	mov	w7, #0x0                   	// #0
  207f44:	d2800149 	mov	x9, #0xa                   	// #10
  207f48:	1280200e 	mov	w14, #0xfffffeff            	// #-257
  207f4c:	6b0800ff 	cmp	w7, w8
  207f50:	540009a3 	b.cc	208084 <do_calib+0xe00>  // b.lo, b.ul, b.last
  207f54:	11000718 	add	w24, w24, #0x1
  207f58:	7100431f 	cmp	w24, #0x10
  207f5c:	54fff321 	b.ne	207dc0 <do_calib+0xb3c>  // b.any
  207f60:	53037d01 	lsr	w1, w8, #3
  207f64:	52800000 	mov	w0, #0x0                   	// #0
  207f68:	6b01001f 	cmp	w0, w1
  207f6c:	54000ee3 	b.cc	208148 <do_calib+0xec4>  // b.lo, b.ul, b.last
  207f70:	d2880280 	mov	x0, #0x4014                	// #16404
  207f74:	d2880216 	mov	x22, #0x4010                	// #16400
  207f78:	f2a20420 	movk	x0, #0x1021, lsl #16
  207f7c:	910203f5 	add	x21, sp, #0x80
  207f80:	52800014 	mov	w20, #0x0                   	// #0
  207f84:	52800037 	mov	w23, #0x1                   	// #1
  207f88:	b900001f 	str	wzr, [x0]
  207f8c:	d2860280 	mov	x0, #0x3014                	// #12308
  207f90:	f2a20420 	movk	x0, #0x1021, lsl #16
  207f94:	f2a20436 	movk	x22, #0x1021, lsl #16
  207f98:	b900001f 	str	wzr, [x0]
  207f9c:	d29c0280 	mov	x0, #0xe014                	// #57364
  207fa0:	f2a20400 	movk	x0, #0x1020, lsl #16
  207fa4:	b900001f 	str	wzr, [x0]
  207fa8:	52800000 	mov	w0, #0x0                   	// #0
  207fac:	52800001 	mov	w1, #0x0                   	// #0
  207fb0:	1ac02282 	lsl	w2, w20, w0
  207fb4:	11001000 	add	w0, w0, #0x4
  207fb8:	0b020021 	add	w1, w1, w2
  207fbc:	7100801f 	cmp	w0, #0x20
  207fc0:	54ffff81 	b.ne	207fb0 <do_calib+0xd2c>  // b.any
  207fc4:	52800003 	mov	w3, #0x0                   	// #0
  207fc8:	b90077e1 	str	w1, [sp, #116]
  207fcc:	b9400e60 	ldr	w0, [x19, #12]
  207fd0:	6b400c7f 	cmp	w3, w0, lsr #3
  207fd4:	54000c03 	b.cc	208154 <do_calib+0xed0>  // b.lo, b.ul, b.last
  207fd8:	9101d3e1 	add	x1, sp, #0x74
  207fdc:	7100401f 	cmp	w0, #0x10
  207fe0:	54000c81 	b.ne	208170 <do_calib+0xeec>  // b.any
  207fe4:	97fffbea 	bl	206f8c <dram_reg_read>
  207fe8:	b94077e0 	ldr	w0, [sp, #116]
  207fec:	12185c00 	and	w0, w0, #0xffffff00
  207ff0:	b9400e62 	ldr	w2, [x19, #12]
  207ff4:	52800003 	mov	w3, #0x0                   	// #0
  207ff8:	b90077e0 	str	w0, [sp, #116]
  207ffc:	52800000 	mov	w0, #0x0                   	// #0
  208000:	b94077e1 	ldr	w1, [sp, #116]
  208004:	53037c42 	lsr	w2, w2, #3
  208008:	6b02001f 	cmp	w0, w2
  20800c:	54000bc3 	b.cc	208184 <do_calib+0xf00>  // b.lo, b.ul, b.last
  208010:	34000043 	cbz	w3, 208018 <do_calib+0xd94>
  208014:	b90077e1 	str	w1, [sp, #116]
  208018:	d2860201 	mov	x1, #0x3010                	// #12304
  20801c:	b94077e0 	ldr	w0, [sp, #116]
  208020:	f2a20421 	movk	x1, #0x1021, lsl #16
  208024:	b90002c0 	str	w0, [x22]
  208028:	b9000020 	str	w0, [x1]
  20802c:	d29c0201 	mov	x1, #0xe010                	// #57360
  208030:	f2a20401 	movk	x1, #0x1020, lsl #16
  208034:	b9000020 	str	w0, [x1]
  208038:	b9401a64 	ldr	w4, [x19, #24]
  20803c:	7100049f 	cmp	w4, #0x1
  208040:	54000b01 	b.ne	2081a0 <do_calib+0xf1c>  // b.any
  208044:	52800007 	mov	w7, #0x0                   	// #0
  208048:	52800006 	mov	w6, #0x0                   	// #0
  20804c:	52800005 	mov	w5, #0x0                   	// #0
  208050:	29420e62 	ldp	w2, w3, [x19, #16]
  208054:	aa1303e0 	mov	x0, x19
  208058:	52800001 	mov	w1, #0x0                   	// #0
  20805c:	94000290 	bl	208a9c <dramc_engine2>
  208060:	1400006c 	b	208210 <do_calib+0xf8c>
  208064:	d0000020 	adrp	x0, 20e000 <mtk_pin_info_pu+0x36c>
  208068:	91200400 	add	x0, x0, #0x801
  20806c:	97fffb27 	bl	206d08 <tf_log>
  208070:	52800007 	mov	w7, #0x0                   	// #0
  208074:	52800006 	mov	w6, #0x0                   	// #0
  208078:	52800005 	mov	w5, #0x0                   	// #0
  20807c:	52800024 	mov	w4, #0x1                   	// #1
  208080:	17ffff6a 	b	207e28 <do_calib+0xba4>
  208084:	93407ce5 	sxtw	x5, w7
  208088:	1ac722c3 	lsl	w3, w22, w7
  20808c:	6a00007f 	tst	w3, w0
  208090:	9b097ca1 	mul	x1, x5, x9
  208094:	38e16aa2 	ldrsb	w2, [x21, x1]
  208098:	54000341 	b.ne	208100 <do_calib+0xe7c>  // b.any
  20809c:	3100045f 	cmn	w2, #0x1
  2080a0:	54000041 	b.ne	2080a8 <do_calib+0xe24>  // b.any
  2080a4:	38216ab8 	strb	w24, [x21, x1]
  2080a8:	9b097ca1 	mul	x1, x5, x9
  2080ac:	38e16a82 	ldrsb	w2, [x20, x1]
  2080b0:	3100085f 	cmn	w2, #0x2
  2080b4:	54000201 	b.ne	2080f4 <do_calib+0xe70>  // b.any
  2080b8:	71003f1f 	cmp	w24, #0xf
  2080bc:	540001c1 	b.ne	2080f4 <do_calib+0xe70>  // b.any
  2080c0:	38216a98 	strb	w24, [x20, x1]
  2080c4:	38e16aa3 	ldrsb	w3, [x21, x1]
  2080c8:	38e16942 	ldrsb	w2, [x10, x1]
  2080cc:	38e16966 	ldrsb	w6, [x11, x1]
  2080d0:	4b030304 	sub	w4, w24, w3
  2080d4:	4b060042 	sub	w2, w2, w6
  2080d8:	6b02009f 	cmp	w4, w2
  2080dc:	5400006d 	b.le	2080e8 <do_calib+0xe64>
  2080e0:	38216958 	strb	w24, [x10, x1]
  2080e4:	38216963 	strb	w3, [x11, x1]
  2080e8:	910203e1 	add	x1, sp, #0x80
  2080ec:	9b0904a5 	madd	x5, x5, x9, x1
  2080f0:	790004ae 	strh	w14, [x5, #2]
  2080f4:	110004e2 	add	w2, w7, #0x1
  2080f8:	12001c47 	and	w7, w2, #0xff
  2080fc:	17ffff94 	b	207f4c <do_calib+0xcc8>
  208100:	3100045f 	cmn	w2, #0x1
  208104:	54ffff80 	b.eq	2080f4 <do_calib+0xe70>  // b.none
  208108:	38e16a83 	ldrsb	w3, [x20, x1]
  20810c:	3100087f 	cmn	w3, #0x2
  208110:	54ffff21 	b.ne	2080f4 <do_calib+0xe70>  // b.any
  208114:	38216a8d 	strb	w13, [x20, x1]
  208118:	4b020184 	sub	w4, w12, w2
  20811c:	38e16943 	ldrsb	w3, [x10, x1]
  208120:	38e16966 	ldrsb	w6, [x11, x1]
  208124:	4b060063 	sub	w3, w3, w6
  208128:	6b03009f 	cmp	w4, w3
  20812c:	5400006d 	b.le	208138 <do_calib+0xeb4>
  208130:	3821694d 	strb	w13, [x10, x1]
  208134:	38216962 	strb	w2, [x11, x1]
  208138:	910203e1 	add	x1, sp, #0x80
  20813c:	9b0904a1 	madd	x1, x5, x9, x1
  208140:	7900042e 	strh	w14, [x1, #2]
  208144:	17ffffec 	b	2080f4 <do_calib+0xe70>
  208148:	11000400 	add	w0, w0, #0x1
  20814c:	12001c00 	and	w0, w0, #0xff
  208150:	17ffff86 	b	207f68 <do_calib+0xce4>
  208154:	b94077e1 	ldr	w1, [sp, #116]
  208158:	11020060 	add	w0, w3, #0x80
  20815c:	531e7400 	lsl	w0, w0, #2
  208160:	97fffb7e 	bl	206f58 <dram_reg_write>
  208164:	11000463 	add	w3, w3, #0x1
  208168:	12001c63 	and	w3, w3, #0xff
  20816c:	17ffff98 	b	207fcc <do_calib+0xd48>
  208170:	52800200 	mov	w0, #0x10                  	// #16
  208174:	97fffb86 	bl	206f8c <dram_reg_read>
  208178:	b94077e0 	ldr	w0, [sp, #116]
  20817c:	12103c00 	and	w0, w0, #0xffff0000
  208180:	17ffff9c 	b	207ff0 <do_calib+0xd6c>
  208184:	531e7403 	lsl	w3, w0, #2
  208188:	11000400 	add	w0, w0, #0x1
  20818c:	12001c00 	and	w0, w0, #0xff
  208190:	1ac32283 	lsl	w3, w20, w3
  208194:	0b030021 	add	w1, w1, w3
  208198:	52800023 	mov	w3, #0x1                   	// #1
  20819c:	17ffff9b 	b	208008 <do_calib+0xd84>
  2081a0:	34fff524 	cbz	w4, 208044 <do_calib+0xdc0>
  2081a4:	7100149f 	cmp	w4, #0x5
  2081a8:	540000c1 	b.ne	2081c0 <do_calib+0xf3c>  // b.any
  2081ac:	52800007 	mov	w7, #0x0                   	// #0
  2081b0:	52800006 	mov	w6, #0x0                   	// #0
  2081b4:	52800005 	mov	w5, #0x0                   	// #0
  2081b8:	52800044 	mov	w4, #0x2                   	// #2
  2081bc:	17ffffa5 	b	208050 <do_calib+0xdcc>
  2081c0:	7100189f 	cmp	w4, #0x6
  2081c4:	54000e41 	b.ne	20838c <do_calib+0x1108>  // b.any
  2081c8:	29420e62 	ldp	w2, w3, [x19, #16]
  2081cc:	52800007 	mov	w7, #0x0                   	// #0
  2081d0:	52800006 	mov	w6, #0x0                   	// #0
  2081d4:	52800005 	mov	w5, #0x0                   	// #0
  2081d8:	52800024 	mov	w4, #0x1                   	// #1
  2081dc:	52800001 	mov	w1, #0x0                   	// #0
  2081e0:	aa1303e0 	mov	x0, x19
  2081e4:	9400022e 	bl	208a9c <dramc_engine2>
  2081e8:	29420e62 	ldp	w2, w3, [x19, #16]
  2081ec:	2a0003f8 	mov	w24, w0
  2081f0:	52800007 	mov	w7, #0x0                   	// #0
  2081f4:	aa1303e0 	mov	x0, x19
  2081f8:	52800006 	mov	w6, #0x0                   	// #0
  2081fc:	52800005 	mov	w5, #0x0                   	// #0
  208200:	52800044 	mov	w4, #0x2                   	// #2
  208204:	52800001 	mov	w1, #0x0                   	// #0
  208208:	94000225 	bl	208a9c <dramc_engine2>
  20820c:	2a000300 	orr	w0, w24, w0
  208210:	5100068c 	sub	w12, w20, #0x1
  208214:	b9400e6a 	ldr	w10, [x19, #12]
  208218:	910207e8 	add	x8, sp, #0x81
  20821c:	910217e9 	add	x9, sp, #0x85
  208220:	13001d8d 	sxtb	w13, w12
  208224:	910213eb 	add	x11, sp, #0x84
  208228:	5280000f 	mov	w15, #0x0                   	// #0
  20822c:	d2800147 	mov	x7, #0xa                   	// #10
  208230:	1280200e 	mov	w14, #0xfffffeff            	// #-257
  208234:	6b0a01ff 	cmp	w15, w10
  208238:	54000ba3 	b.cc	2083ac <do_calib+0x1128>  // b.lo, b.ul, b.last
  20823c:	11000694 	add	w20, w20, #0x1
  208240:	7100429f 	cmp	w20, #0x10
  208244:	54ffeb21 	b.ne	207fa8 <do_calib+0xd24>  // b.any
  208248:	d280014d 	mov	x13, #0xa                   	// #10
  20824c:	53037d4c 	lsr	w12, w10, #3
  208250:	9101a3e6 	add	x6, sp, #0x68
  208254:	9101c3e7 	add	x7, sp, #0x70
  208258:	91021bef 	add	x15, sp, #0x86
  20825c:	91021ff0 	add	x16, sp, #0x87
  208260:	910213f1 	add	x17, sp, #0x84
  208264:	910217f2 	add	x18, sp, #0x85
  208268:	910223e8 	add	x8, sp, #0x88
  20826c:	910227e9 	add	x9, sp, #0x89
  208270:	2a0d03f4 	mov	w20, w13
  208274:	528000e4 	mov	w4, #0x7                   	// #7
  208278:	d2800002 	mov	x2, #0x0                   	// #0
  20827c:	5280004e 	mov	w14, #0x2                   	// #2
  208280:	528001f5 	mov	w21, #0xf                   	// #15
  208284:	6b0c005f 	cmp	w2, w12
  208288:	54000f03 	b.cc	208468 <do_calib+0x11e4>  // b.lo, b.ul, b.last
  20828c:	52800000 	mov	w0, #0x0                   	// #0
  208290:	6b00015f 	cmp	w10, w0
  208294:	540018a8 	b.hi	2085a8 <do_calib+0x1324>  // b.pmore
  208298:	9101a3e3 	add	x3, sp, #0x68
  20829c:	52800002 	mov	w2, #0x0                   	// #0
  2082a0:	52800001 	mov	w1, #0x0                   	// #0
  2082a4:	52800000 	mov	w0, #0x0                   	// #0
  2082a8:	b90077ff 	str	wzr, [sp, #116]
  2082ac:	6b00019f 	cmp	w12, w0
  2082b0:	54001828 	b.hi	2085b4 <do_calib+0x1330>  // b.pmore
  2082b4:	34000042 	cbz	w2, 2082bc <do_calib+0x1038>
  2082b8:	b90077e1 	str	w1, [sp, #116]
  2082bc:	d2880281 	mov	x1, #0x4014                	// #16404
  2082c0:	b94077e0 	ldr	w0, [sp, #116]
  2082c4:	f2a20421 	movk	x1, #0x1021, lsl #16
  2082c8:	90000044 	adrp	x4, 210000 <__RO_END__>
  2082cc:	9101e3e5 	add	x5, sp, #0x78
  2082d0:	911c3484 	add	x4, x4, #0x70d
  2082d4:	b9000020 	str	w0, [x1]
  2082d8:	d2860281 	mov	x1, #0x3014                	// #12308
  2082dc:	f2a20421 	movk	x1, #0x1021, lsl #16
  2082e0:	910223e8 	add	x8, sp, #0x88
  2082e4:	d2800147 	mov	x7, #0xa                   	// #10
  2082e8:	b9000020 	str	w0, [x1]
  2082ec:	d29c0281 	mov	x1, #0xe014                	// #57364
  2082f0:	f2a20401 	movk	x1, #0x1020, lsl #16
  2082f4:	b9000020 	str	w0, [x1]
  2082f8:	52800000 	mov	w0, #0x0                   	// #0
  2082fc:	b9400e66 	ldr	w6, [x19, #12]
  208300:	6b06001f 	cmp	w0, w6
  208304:	54001683 	b.cc	2085d4 <do_calib+0x1350>  // b.lo, b.ul, b.last
  208308:	9101e3e4 	add	x4, sp, #0x78
  20830c:	52800003 	mov	w3, #0x0                   	// #0
  208310:	b9400e60 	ldr	w0, [x19, #12]
  208314:	6b400c7f 	cmp	w3, w0, lsr #3
  208318:	540017e3 	b.cc	208614 <do_calib+0x1390>  // b.lo, b.ul, b.last
  20831c:	9101d3e1 	add	x1, sp, #0x74
  208320:	52800200 	mov	w0, #0x10                  	// #16
  208324:	97fffb1a 	bl	206f8c <dram_reg_read>
  208328:	b9400e62 	ldr	w2, [x19, #12]
  20832c:	9101c3e4 	add	x4, sp, #0x70
  208330:	b94077e1 	ldr	w1, [sp, #116]
  208334:	52800003 	mov	w3, #0x0                   	// #0
  208338:	52800000 	mov	w0, #0x0                   	// #0
  20833c:	53037c42 	lsr	w2, w2, #3
  208340:	12103c21 	and	w1, w1, #0xffff0000
  208344:	b90077e1 	str	w1, [sp, #116]
  208348:	6b02001f 	cmp	w0, w2
  20834c:	54001723 	b.cc	208630 <do_calib+0x13ac>  // b.lo, b.ul, b.last
  208350:	34000043 	cbz	w3, 208358 <do_calib+0x10d4>
  208354:	b90077e1 	str	w1, [sp, #116]
  208358:	d2880201 	mov	x1, #0x4010                	// #16400
  20835c:	b94077e0 	ldr	w0, [sp, #116]
  208360:	f2a20421 	movk	x1, #0x1021, lsl #16
  208364:	b9000020 	str	w0, [x1]
  208368:	d2860201 	mov	x1, #0x3010                	// #12304
  20836c:	f2a20421 	movk	x1, #0x1021, lsl #16
  208370:	b9000020 	str	w0, [x1]
  208374:	d29c0201 	mov	x1, #0xe010                	// #57360
  208378:	f2a20401 	movk	x1, #0x1020, lsl #16
  20837c:	b9000020 	str	w0, [x1]
  208380:	aa1303e0 	mov	x0, x19
  208384:	97fffb12 	bl	206fcc <dramc_phy_reset>
  208388:	17fffbd5 	b	2072dc <do_calib+0x58>
  20838c:	d0000020 	adrp	x0, 20e000 <mtk_pin_info_pu+0x36c>
  208390:	91247c00 	add	x0, x0, #0x91f
  208394:	97fffa5d 	bl	206d08 <tf_log>
  208398:	52800007 	mov	w7, #0x0                   	// #0
  20839c:	52800006 	mov	w6, #0x0                   	// #0
  2083a0:	52800005 	mov	w5, #0x0                   	// #0
  2083a4:	52800024 	mov	w4, #0x1                   	// #1
  2083a8:	17ffff2a 	b	208050 <do_calib+0xdcc>
  2083ac:	93407de5 	sxtw	x5, w15
  2083b0:	1acf22e3 	lsl	w3, w23, w15
  2083b4:	6a00007f 	tst	w3, w0
  2083b8:	9b077ca1 	mul	x1, x5, x7
  2083bc:	38e16aa2 	ldrsb	w2, [x21, x1]
  2083c0:	54000321 	b.ne	208424 <do_calib+0x11a0>  // b.any
  2083c4:	3100045f 	cmn	w2, #0x1
  2083c8:	54000041 	b.ne	2083d0 <do_calib+0x114c>  // b.any
  2083cc:	38216ab4 	strb	w20, [x21, x1]
  2083d0:	9b077ca1 	mul	x1, x5, x7
  2083d4:	38e16902 	ldrsb	w2, [x8, x1]
  2083d8:	3100085f 	cmn	w2, #0x2
  2083dc:	540001e1 	b.ne	208418 <do_calib+0x1194>  // b.any
  2083e0:	71003e9f 	cmp	w20, #0xf
  2083e4:	540001a1 	b.ne	208418 <do_calib+0x1194>  // b.any
  2083e8:	38216914 	strb	w20, [x8, x1]
  2083ec:	38e16aa3 	ldrsb	w3, [x21, x1]
  2083f0:	38e16922 	ldrsb	w2, [x9, x1]
  2083f4:	38e16966 	ldrsb	w6, [x11, x1]
  2083f8:	4b030284 	sub	w4, w20, w3
  2083fc:	4b060042 	sub	w2, w2, w6
  208400:	6b02009f 	cmp	w4, w2
  208404:	5400006d 	b.le	208410 <do_calib+0x118c>
  208408:	38216934 	strb	w20, [x9, x1]
  20840c:	38216963 	strb	w3, [x11, x1]
  208410:	9b077ca5 	mul	x5, x5, x7
  208414:	78256aae 	strh	w14, [x21, x5]
  208418:	110005e1 	add	w1, w15, #0x1
  20841c:	12001c2f 	and	w15, w1, #0xff
  208420:	17ffff85 	b	208234 <do_calib+0xfb0>
  208424:	3100045f 	cmn	w2, #0x1
  208428:	54ffff80 	b.eq	208418 <do_calib+0x1194>  // b.none
  20842c:	38e16903 	ldrsb	w3, [x8, x1]
  208430:	3100087f 	cmn	w3, #0x2
  208434:	54ffff21 	b.ne	208418 <do_calib+0x1194>  // b.any
  208438:	3821690d 	strb	w13, [x8, x1]
  20843c:	4b020184 	sub	w4, w12, w2
  208440:	38e16923 	ldrsb	w3, [x9, x1]
  208444:	38e16966 	ldrsb	w6, [x11, x1]
  208448:	4b060063 	sub	w3, w3, w6
  20844c:	6b03009f 	cmp	w4, w3
  208450:	5400006d 	b.le	20845c <do_calib+0x11d8>
  208454:	3821692d 	strb	w13, [x9, x1]
  208458:	38216962 	strb	w2, [x11, x1]
  20845c:	9b077ca1 	mul	x1, x5, x7
  208460:	78216aae 	strh	w14, [x21, x1]
  208464:	17ffffed 	b	208418 <do_calib+0x1194>
  208468:	531d1043 	ubfiz	w3, w2, #3, #5
  20846c:	1100044b 	add	w11, w2, #0x1
  208470:	12001d6b 	and	w11, w11, #0xff
  208474:	2a0303e5 	mov	w5, w3
  208478:	382268df 	strb	wzr, [x6, x2]
  20847c:	382268ff 	strb	wzr, [x7, x2]
  208480:	6b0400bf 	cmp	w5, w4
  208484:	54000189 	b.ls	2084b4 <do_calib+0x1230>  // b.plast
  208488:	910203e0 	add	x0, sp, #0x80
  20848c:	9bb40065 	umaddl	x5, w3, w20, x0
  208490:	6b04007f 	cmp	w3, w4
  208494:	54000649 	b.ls	20855c <do_calib+0x12d8>  // b.plast
  208498:	386268e0 	ldrb	w0, [x7, x2]
  20849c:	11002084 	add	w4, w4, #0x8
  2084a0:	12001c84 	and	w4, w4, #0xff
  2084a4:	53037c00 	lsr	w0, w0, #3
  2084a8:	382268e0 	strb	w0, [x7, x2]
  2084ac:	93407d62 	sxtw	x2, w11
  2084b0:	17ffff75 	b	208284 <do_calib+0x1000>
  2084b4:	93407ca1 	sxtw	x1, w5
  2084b8:	9b0d7c21 	mul	x1, x1, x13
  2084bc:	38616a00 	ldrb	w0, [x16, x1]
  2084c0:	38616a56 	ldrb	w22, [x18, x1]
  2084c4:	386169f7 	ldrb	w23, [x15, x1]
  2084c8:	11000400 	add	w0, w0, #0x1
  2084cc:	38616a38 	ldrb	w24, [x17, x1]
  2084d0:	110006d6 	add	w22, w22, #0x1
  2084d4:	4b170000 	sub	w0, w0, w23
  2084d8:	4b1802d6 	sub	w22, w22, w24
  2084dc:	12001c00 	and	w0, w0, #0xff
  2084e0:	12001ed6 	and	w22, w22, #0xff
  2084e4:	6b16001f 	cmp	w0, w22
  2084e8:	54000209 	b.ls	208528 <do_calib+0x12a4>  // b.plast
  2084ec:	3821691f 	strb	wzr, [x8, x1]
  2084f0:	386268d8 	ldrb	w24, [x6, x2]
  2084f4:	34000176 	cbz	w22, 208520 <do_calib+0x129c>
  2084f8:	4b160000 	sub	w0, w0, w22
  2084fc:	1ace0c00 	sdiv	w0, w0, w14
  208500:	12001c00 	and	w0, w0, #0xff
  208504:	38216920 	strb	w0, [x9, x1]
  208508:	6b18001f 	cmp	w0, w24
  20850c:	54000049 	b.ls	208514 <do_calib+0x1290>  // b.plast
  208510:	382268c0 	strb	w0, [x6, x2]
  208514:	110004a5 	add	w5, w5, #0x1
  208518:	12001ca5 	and	w5, w5, #0xff
  20851c:	17ffffd9 	b	208480 <do_calib+0x11fc>
  208520:	0b4006e0 	add	w0, w23, w0, lsr #1
  208524:	17fffff7 	b	208500 <do_calib+0x127c>
  208528:	54000122 	b.cs	20854c <do_calib+0x12c8>  // b.hs, b.nlast
  20852c:	3821693f 	strb	wzr, [x9, x1]
  208530:	340000a0 	cbz	w0, 208544 <do_calib+0x12c0>
  208534:	4b0002c0 	sub	w0, w22, w0
  208538:	1ace0c00 	sdiv	w0, w0, w14
  20853c:	38216900 	strb	w0, [x8, x1]
  208540:	17fffff5 	b	208514 <do_calib+0x1290>
  208544:	0b560700 	add	w0, w24, w22, lsr #1
  208548:	17fffffd 	b	20853c <do_calib+0x12b8>
  20854c:	910203e0 	add	x0, sp, #0x80
  208550:	8b010001 	add	x1, x0, x1
  208554:	7900103f 	strh	wzr, [x1, #8]
  208558:	17ffffef 	b	208514 <do_calib+0x1290>
  20855c:	394024b6 	ldrb	w22, [x5, #9]
  208560:	386268c1 	ldrb	w1, [x6, x2]
  208564:	6b0102df 	cmp	w22, w1
  208568:	54000102 	b.cs	208588 <do_calib+0x1304>  // b.hs, b.nlast
  20856c:	394020a0 	ldrb	w0, [x5, #8]
  208570:	0b000020 	add	w0, w1, w0
  208574:	4b160000 	sub	w0, w0, w22
  208578:	12001c01 	and	w1, w0, #0xff
  20857c:	71003c3f 	cmp	w1, #0xf
  208580:	1a959000 	csel	w0, w0, w21, ls  // ls = plast
  208584:	390020a0 	strb	w0, [x5, #8]
  208588:	386268e0 	ldrb	w0, [x7, x2]
  20858c:	11000463 	add	w3, w3, #0x1
  208590:	394020a1 	ldrb	w1, [x5, #8]
  208594:	12001c63 	and	w3, w3, #0xff
  208598:	910028a5 	add	x5, x5, #0xa
  20859c:	0b010000 	add	w0, w0, w1
  2085a0:	382268e0 	strb	w0, [x7, x2]
  2085a4:	17ffffbb 	b	208490 <do_calib+0x120c>
  2085a8:	11001000 	add	w0, w0, #0x4
  2085ac:	12001c00 	and	w0, w0, #0xff
  2085b0:	17ffff38 	b	208290 <do_calib+0x100c>
  2085b4:	3860c862 	ldrb	w2, [x3, w0, sxtw]
  2085b8:	531e7404 	lsl	w4, w0, #2
  2085bc:	11000400 	add	w0, w0, #0x1
  2085c0:	12001c00 	and	w0, w0, #0xff
  2085c4:	1ac42042 	lsl	w2, w2, w4
  2085c8:	0b020021 	add	w1, w1, w2
  2085cc:	52800022 	mov	w2, #0x1                   	// #1
  2085d0:	17ffff37 	b	2082ac <do_calib+0x1028>
  2085d4:	92401c01 	and	x1, x0, #0xff
  2085d8:	38616883 	ldrb	w3, [x4, x1]
  2085dc:	93407c01 	sxtw	x1, w0
  2085e0:	11000400 	add	w0, w0, #0x1
  2085e4:	12001c00 	and	w0, w0, #0xff
  2085e8:	9b077c21 	mul	x1, x1, x7
  2085ec:	d3431c62 	ubfx	x2, x3, #3, #5
  2085f0:	531e0863 	ubfiz	w3, w3, #2, #3
  2085f4:	d37ef442 	lsl	x2, x2, #2
  2085f8:	38616901 	ldrb	w1, [x8, x1]
  2085fc:	12000c21 	and	w1, w1, #0xf
  208600:	1ac32021 	lsl	w1, w1, w3
  208604:	b86268a3 	ldr	w3, [x5, x2]
  208608:	2a030021 	orr	w1, w1, w3
  20860c:	b82268a1 	str	w1, [x5, x2]
  208610:	17ffff3c 	b	208300 <do_calib+0x107c>
  208614:	b863d881 	ldr	w1, [x4, w3, sxtw #2]
  208618:	11020060 	add	w0, w3, #0x80
  20861c:	531e7400 	lsl	w0, w0, #2
  208620:	97fffa4e 	bl	206f58 <dram_reg_write>
  208624:	11000463 	add	w3, w3, #0x1
  208628:	12001c63 	and	w3, w3, #0xff
  20862c:	17ffff39 	b	208310 <do_calib+0x108c>
  208630:	3860c883 	ldrb	w3, [x4, w0, sxtw]
  208634:	531e7405 	lsl	w5, w0, #2
  208638:	11000400 	add	w0, w0, #0x1
  20863c:	12001c00 	and	w0, w0, #0xff
  208640:	1ac52063 	lsl	w3, w3, w5
  208644:	0b030021 	add	w1, w1, w3
  208648:	52800023 	mov	w3, #0x1                   	// #1
  20864c:	17ffff3f 	b	208348 <do_calib+0x10c4>
  208650:	2a0003e2 	mov	w2, w0
  208654:	52800001 	mov	w1, #0x0                   	// #0
  208658:	52800023 	mov	w3, #0x1                   	// #1
  20865c:	1ac12064 	lsl	w4, w3, w1
  208660:	12001c20 	and	w0, w1, #0xff
  208664:	6a02009f 	tst	w4, w2
  208668:	540000a1 	b.ne	20867c <do_calib+0x13f8>  // b.any
  20866c:	11000421 	add	w1, w1, #0x1
  208670:	7100803f 	cmp	w1, #0x20
  208674:	54ffff41 	b.ne	20865c <do_calib+0x13d8>  // b.any
  208678:	52801fe0 	mov	w0, #0xff                  	// #255
  20867c:	d65f03c0 	ret
  208680:	a9bd7bfd 	stp	x29, x30, [sp, #-48]!
  208684:	910003fd 	mov	x29, sp
  208688:	9100b3e1 	add	x1, sp, #0x2c
  20868c:	f9000bf3 	str	x19, [sp, #16]
  208690:	aa0003f3 	mov	x19, x0
  208694:	52803c80 	mov	w0, #0x1e4                 	// #484
  208698:	97fffa3d 	bl	206f8c <dram_reg_read>
  20869c:	b9402fe1 	ldr	w1, [sp, #44]
  2086a0:	52803c80 	mov	w0, #0x1e4                 	// #484
  2086a4:	32170021 	orr	w1, w1, #0x200
  2086a8:	b9002fe1 	str	w1, [sp, #44]
  2086ac:	97fffa2b 	bl	206f58 <dram_reg_write>
  2086b0:	b9402fe1 	ldr	w1, [sp, #44]
  2086b4:	52803c80 	mov	w0, #0x1e4                 	// #484
  2086b8:	12167821 	and	w1, w1, #0xfffffdff
  2086bc:	b9002fe1 	str	w1, [sp, #44]
  2086c0:	97fffa26 	bl	206f58 <dram_reg_write>
  2086c4:	aa1303e0 	mov	x0, x19
  2086c8:	97fffa41 	bl	206fcc <dramc_phy_reset>
  2086cc:	f9400bf3 	ldr	x19, [sp, #16]
  2086d0:	a8c37bfd 	ldp	x29, x30, [sp], #48
  2086d4:	d65f03c0 	ret
  2086d8:	a9bc7bfd 	stp	x29, x30, [sp, #-64]!
  2086dc:	910003fd 	mov	x29, sp
  2086e0:	a90153f3 	stp	x19, x20, [sp, #16]
  2086e4:	53021c14 	ubfx	w20, w0, #2, #6
  2086e8:	71000e9f 	cmp	w20, #0x3
  2086ec:	a9025bf5 	stp	x21, x22, [sp, #32]
  2086f0:	12001c16 	and	w22, w0, #0xff
  2086f4:	54000529 	b.ls	208798 <do_calib+0x1514>  // b.plast
  2086f8:	51000e93 	sub	w19, w20, #0x3
  2086fc:	71003e7f 	cmp	w19, #0xf
  208700:	528001e0 	mov	w0, #0xf                   	// #15
  208704:	1a809273 	csel	w19, w19, w0, ls  // ls = plast
  208708:	9100f3e1 	add	x1, sp, #0x3c
  20870c:	52801c00 	mov	w0, #0xe0                  	// #224
  208710:	97fffa1f 	bl	206f8c <dram_reg_read>
  208714:	11000ad5 	add	w21, w22, #0x2
  208718:	b9403fe1 	ldr	w1, [sp, #60]
  20871c:	52801c00 	mov	w0, #0xe0                  	// #224
  208720:	12001eb5 	and	w21, w21, #0xff
  208724:	4b130294 	sub	w20, w20, w19
  208728:	12046c21 	and	w1, w1, #0xf0ffffff
  20872c:	2a136021 	orr	w1, w1, w19, lsl #24
  208730:	b9003fe1 	str	w1, [sp, #60]
  208734:	97fffa09 	bl	206f58 <dram_reg_write>
  208738:	9100f3e1 	add	x1, sp, #0x3c
  20873c:	52808080 	mov	w0, #0x404                 	// #1028
  208740:	97fffa13 	bl	206f8c <dram_reg_read>
  208744:	b9403fe1 	ldr	w1, [sp, #60]
  208748:	53027ea0 	lsr	w0, w21, #2
  20874c:	4b130013 	sub	w19, w0, w19
  208750:	52808080 	mov	w0, #0x404                 	// #1028
  208754:	33140a81 	bfi	w1, w20, #12, #3
  208758:	330c0a61 	bfi	w1, w19, #20, #3
  20875c:	b9003fe1 	str	w1, [sp, #60]
  208760:	97fff9fe 	bl	206f58 <dram_reg_write>
  208764:	9100f3e1 	add	x1, sp, #0x3c
  208768:	52808200 	mov	w0, #0x410                 	// #1040
  20876c:	97fffa08 	bl	206f8c <dram_reg_read>
  208770:	b9403fe1 	ldr	w1, [sp, #60]
  208774:	52808200 	mov	w0, #0x410                 	// #1040
  208778:	330a06c1 	bfi	w1, w22, #22, #2
  20877c:	330806a1 	bfi	w1, w21, #24, #2
  208780:	b9003fe1 	str	w1, [sp, #60]
  208784:	97fff9f5 	bl	206f58 <dram_reg_write>
  208788:	a94153f3 	ldp	x19, x20, [sp, #16]
  20878c:	a9425bf5 	ldp	x21, x22, [sp, #32]
  208790:	a8c47bfd 	ldp	x29, x30, [sp], #64
  208794:	d65f03c0 	ret
  208798:	35000074 	cbnz	w20, 2087a4 <do_calib+0x1520>
  20879c:	52800013 	mov	w19, #0x0                   	// #0
  2087a0:	17ffffd7 	b	2086fc <do_calib+0x1478>
  2087a4:	52800033 	mov	w19, #0x1                   	// #1
  2087a8:	17ffffd8 	b	208708 <do_calib+0x1484>
  2087ac:	a9bd7bfd 	stp	x29, x30, [sp, #-48]!
  2087b0:	910003fd 	mov	x29, sp
  2087b4:	9100b3e1 	add	x1, sp, #0x2c
  2087b8:	f9000bf3 	str	x19, [sp, #16]
  2087bc:	12001c13 	and	w19, w0, #0xff
  2087c0:	52801280 	mov	w0, #0x94                  	// #148
  2087c4:	97fff9f2 	bl	206f8c <dram_reg_read>
  2087c8:	b9402fe1 	ldr	w1, [sp, #44]
  2087cc:	52801280 	mov	w0, #0x94                  	// #148
  2087d0:	33001a61 	bfxil	w1, w19, #0, #7
  2087d4:	33181a61 	bfi	w1, w19, #8, #7
  2087d8:	33101a61 	bfi	w1, w19, #16, #7
  2087dc:	33081a61 	bfi	w1, w19, #24, #7
  2087e0:	b9002fe1 	str	w1, [sp, #44]
  2087e4:	97fff9dd 	bl	206f58 <dram_reg_write>
  2087e8:	f9400bf3 	ldr	x19, [sp, #16]
  2087ec:	a8c37bfd 	ldp	x29, x30, [sp], #48
  2087f0:	d65f03c0 	ret

00000000002087f4 <dramc_engine1>:
  2087f4:	a9bb7bfd 	stp	x29, x30, [sp, #-80]!
  2087f8:	910003fd 	mov	x29, sp
  2087fc:	a90153f3 	stp	x19, x20, [sp, #16]
  208800:	a9025bf5 	stp	x21, x22, [sp, #32]
  208804:	f9001bf7 	str	x23, [sp, #48]
  208808:	b5000160 	cbnz	x0, 208834 <dramc_engine1+0x40>
  20880c:	d0000020 	adrp	x0, 20e000 <mtk_pin_info_pu+0x36c>
  208810:	91243400 	add	x0, x0, #0x90d
  208814:	12800013 	mov	w19, #0xffffffff            	// #-1
  208818:	97fff93c 	bl	206d08 <tf_log>
  20881c:	2a1303e0 	mov	w0, w19
  208820:	a94153f3 	ldp	x19, x20, [sp, #16]
  208824:	a9425bf5 	ldp	x21, x22, [sp, #32]
  208828:	f9401bf7 	ldr	x23, [sp, #48]
  20882c:	a8c57bfd 	ldp	x29, x30, [sp], #80
  208830:	d65f03c0 	ret
  208834:	12005c40 	and	w0, w2, #0xffffff
  208838:	2a0103f7 	mov	w23, w1
  20883c:	2a0203f4 	mov	w20, w2
  208840:	13003c75 	sxth	w21, w3
  208844:	12001c96 	and	w22, w4, #0xff
  208848:	711ffc1f 	cmp	w0, #0x7ff
  20884c:	540000c0 	b.eq	208864 <dramc_engine1+0x70>  // b.none
  208850:	12081e94 	and	w20, w20, #0xff000000
  208854:	d0000020 	adrp	x0, 20e000 <mtk_pin_info_pu+0x36c>
  208858:	32002a94 	orr	w20, w20, #0x7ff
  20885c:	91257000 	add	x0, x0, #0x95c
  208860:	97fff92a 	bl	206d08 <tf_log>
  208864:	710002bf 	cmp	w21, #0x0
  208868:	34001075 	cbz	w21, 208a74 <dramc_engine1+0x280>
  20886c:	5400094c 	b.gt	208994 <dramc_engine1+0x1a0>
  208870:	310006bf 	cmn	w21, #0x1
  208874:	540000c1 	b.ne	20888c <dramc_engine1+0x98>  // b.any
  208878:	52800073 	mov	w19, #0x3                   	// #3
  20887c:	350008f6 	cbnz	w22, 208998 <dramc_engine1+0x1a4>
  208880:	d0000020 	adrp	x0, 20e000 <mtk_pin_info_pu+0x36c>
  208884:	9125e400 	add	x0, x0, #0x979
  208888:	17ffffe3 	b	208814 <dramc_engine1+0x20>
  20888c:	31000abf 	cmn	w21, #0x2
  208890:	54000061 	b.ne	20889c <dramc_engine1+0xa8>  // b.any
  208894:	52800093 	mov	w19, #0x4                   	// #4
  208898:	17fffff9 	b	20887c <dramc_engine1+0x88>
  20889c:	31000ebf 	cmn	w21, #0x3
  2088a0:	54000e60 	b.eq	208a6c <dramc_engine1+0x278>  // b.none
  2088a4:	d0000020 	adrp	x0, 20e000 <mtk_pin_info_pu+0x36c>
  2088a8:	9126c000 	add	x0, x0, #0x9b0
  2088ac:	97fff917 	bl	206d08 <tf_log>
  2088b0:	d0000020 	adrp	x0, 20e000 <mtk_pin_info_pu+0x36c>
  2088b4:	91270c00 	add	x0, x0, #0x9c3
  2088b8:	97fff914 	bl	206d08 <tf_log>
  2088bc:	d0000020 	adrp	x0, 20e000 <mtk_pin_info_pu+0x36c>
  2088c0:	91279c00 	add	x0, x0, #0x9e7
  2088c4:	97fff911 	bl	206d08 <tf_log>
  2088c8:	d0000020 	adrp	x0, 20e000 <mtk_pin_info_pu+0x36c>
  2088cc:	9128ac00 	add	x0, x0, #0xa2b
  2088d0:	97fff90e 	bl	206d08 <tf_log>
  2088d4:	d0000020 	adrp	x0, 20e000 <mtk_pin_info_pu+0x36c>
  2088d8:	912a5800 	add	x0, x0, #0xa96
  2088dc:	97fff90b 	bl	206d08 <tf_log>
  2088e0:	d0000020 	adrp	x0, 20e000 <mtk_pin_info_pu+0x36c>
  2088e4:	912c4800 	add	x0, x0, #0xb12
  2088e8:	97fff908 	bl	206d08 <tf_log>
  2088ec:	d0000020 	adrp	x0, 20e000 <mtk_pin_info_pu+0x36c>
  2088f0:	912e2c00 	add	x0, x0, #0xb8b
  2088f4:	17ffffc8 	b	208814 <dramc_engine1+0x20>
  2088f8:	910133e1 	add	x1, sp, #0x4c
  2088fc:	52807f80 	mov	w0, #0x3fc                 	// #1020
  208900:	97fff9a3 	bl	206f8c <dram_reg_read>
  208904:	52800140 	mov	w0, #0xa                   	// #10
  208908:	97ffe4ab 	bl	201bb4 <mdelay>
  20890c:	14000046 	b	208a24 <dramc_engine1+0x230>
  208910:	71000a7f 	cmp	w19, #0x2
  208914:	54000081 	b.ne	208924 <dramc_engine1+0x130>  // b.any
  208918:	52807d00 	mov	w0, #0x3e8                 	// #1000
  20891c:	1b007ea0 	mul	w0, w21, w0
  208920:	14000044 	b	208a30 <dramc_engine1+0x23c>
  208924:	71000e7f 	cmp	w19, #0x3
  208928:	54000181 	b.ne	208958 <dramc_engine1+0x164>  // b.any
  20892c:	52807d00 	mov	w0, #0x3e8                 	// #1000
  208930:	1b007ed6 	mul	w22, w22, w0
  208934:	2a1603e0 	mov	w0, w22
  208938:	97ffe49f 	bl	201bb4 <mdelay>
  20893c:	52807f80 	mov	w0, #0x3fc                 	// #1020
  208940:	910133e1 	add	x1, sp, #0x4c
  208944:	97fff992 	bl	206f8c <dram_reg_read>
  208948:	b9404fe0 	ldr	w0, [sp, #76]
  20894c:	12120013 	and	w19, w0, #0x4000
  208950:	377007c0 	tbnz	w0, #14, 208a48 <dramc_engine1+0x254>
  208954:	17fffff8 	b	208934 <dramc_engine1+0x140>
  208958:	7100127f 	cmp	w19, #0x4
  20895c:	54000181 	b.ne	20898c <dramc_engine1+0x198>  // b.any
  208960:	52807d00 	mov	w0, #0x3e8                 	// #1000
  208964:	1b007ed6 	mul	w22, w22, w0
  208968:	2a1603e0 	mov	w0, w22
  20896c:	97ffe492 	bl	201bb4 <mdelay>
  208970:	52807f80 	mov	w0, #0x3fc                 	// #1020
  208974:	910133e1 	add	x1, sp, #0x4c
  208978:	97fff985 	bl	206f8c <dram_reg_read>
  20897c:	b9404fe0 	ldr	w0, [sp, #76]
  208980:	12120013 	and	w19, w0, #0x4000
  208984:	37700620 	tbnz	w0, #14, 208a48 <dramc_engine1+0x254>
  208988:	17fffff8 	b	208968 <dramc_engine1+0x174>
  20898c:	52800013 	mov	w19, #0x0                   	// #0
  208990:	17ffffa3 	b	20881c <dramc_engine1+0x28>
  208994:	52800053 	mov	w19, #0x2                   	// #2
  208998:	910133e1 	add	x1, sp, #0x4c
  20899c:	52800080 	mov	w0, #0x4                   	// #4
  2089a0:	97fff97b 	bl	206f8c <dram_reg_read>
  2089a4:	b9404fe0 	ldr	w0, [sp, #76]
  2089a8:	32050001 	orr	w1, w0, #0x8000000
  2089ac:	52800080 	mov	w0, #0x4                   	// #4
  2089b0:	b9004fe1 	str	w1, [sp, #76]
  2089b4:	97fff969 	bl	206f58 <dram_reg_write>
  2089b8:	2a1703e1 	mov	w1, w23
  2089bc:	52800780 	mov	w0, #0x3c                  	// #60
  2089c0:	97fff966 	bl	206f58 <dram_reg_write>
  2089c4:	2a1403e1 	mov	w1, w20
  2089c8:	52800800 	mov	w0, #0x40                  	// #64
  2089cc:	97fff963 	bl	206f58 <dram_reg_write>
  2089d0:	910133e1 	add	x1, sp, #0x4c
  2089d4:	52800100 	mov	w0, #0x8                   	// #8
  2089d8:	97fff96d 	bl	206f8c <dram_reg_read>
  2089dc:	b9404fe1 	ldr	w1, [sp, #76]
  2089e0:	52800100 	mov	w0, #0x8                   	// #8
  2089e4:	12027821 	and	w1, w1, #0xdfffffff
  2089e8:	b9004fe1 	str	w1, [sp, #76]
  2089ec:	97fff95b 	bl	206f58 <dram_reg_write>
  2089f0:	910133e1 	add	x1, sp, #0x4c
  2089f4:	52800100 	mov	w0, #0x8                   	// #8
  2089f8:	97fff965 	bl	206f8c <dram_reg_read>
  2089fc:	b9404fe1 	ldr	w1, [sp, #76]
  208a00:	52800100 	mov	w0, #0x8                   	// #8
  208a04:	32030021 	orr	w1, w1, #0x20000000
  208a08:	b9004fe1 	str	w1, [sp, #76]
  208a0c:	97fff953 	bl	206f58 <dram_reg_write>
  208a10:	7100067f 	cmp	w19, #0x1
  208a14:	54fff7e1 	b.ne	208910 <dramc_engine1+0x11c>  // b.any
  208a18:	910133e1 	add	x1, sp, #0x4c
  208a1c:	52807f80 	mov	w0, #0x3fc                 	// #1020
  208a20:	97fff95b 	bl	206f8c <dram_reg_read>
  208a24:	b9404fe0 	ldr	w0, [sp, #76]
  208a28:	3657f680 	tbz	w0, #10, 2088f8 <dramc_engine1+0x104>
  208a2c:	52800020 	mov	w0, #0x1                   	// #1
  208a30:	97ffe461 	bl	201bb4 <mdelay>
  208a34:	910133e1 	add	x1, sp, #0x4c
  208a38:	52807f80 	mov	w0, #0x3fc                 	// #1020
  208a3c:	97fff954 	bl	206f8c <dram_reg_read>
  208a40:	b9404ff3 	ldr	w19, [sp, #76]
  208a44:	12120273 	and	w19, w19, #0x4000
  208a48:	910133e1 	add	x1, sp, #0x4c
  208a4c:	52800100 	mov	w0, #0x8                   	// #8
  208a50:	97fff94f 	bl	206f8c <dram_reg_read>
  208a54:	b9404fe1 	ldr	w1, [sp, #76]
  208a58:	52800100 	mov	w0, #0x8                   	// #8
  208a5c:	12027821 	and	w1, w1, #0xdfffffff
  208a60:	b9004fe1 	str	w1, [sp, #76]
  208a64:	97fff93d 	bl	206f58 <dram_reg_write>
  208a68:	17ffff6d 	b	20881c <dramc_engine1+0x28>
  208a6c:	528000b3 	mov	w19, #0x5                   	// #5
  208a70:	17ffffca 	b	208998 <dramc_engine1+0x1a4>
  208a74:	910133e1 	add	x1, sp, #0x4c
  208a78:	52800080 	mov	w0, #0x4                   	// #4
  208a7c:	97fff944 	bl	206f8c <dram_reg_read>
  208a80:	52800033 	mov	w19, #0x1                   	// #1
  208a84:	b9404fe2 	ldr	w2, [sp, #76]
  208a88:	52800080 	mov	w0, #0x4                   	// #4
  208a8c:	12047841 	and	w1, w2, #0xf7ffffff
  208a90:	b9004fe1 	str	w1, [sp, #76]
  208a94:	97fff931 	bl	206f58 <dram_reg_write>
  208a98:	17ffffc8 	b	2089b8 <dramc_engine1+0x1c4>

0000000000208a9c <dramc_engine2>:
  208a9c:	a9ba7bfd 	stp	x29, x30, [sp, #-96]!
  208aa0:	52800880 	mov	w0, #0x44                  	// #68
  208aa4:	910003fd 	mov	x29, sp
  208aa8:	a90153f3 	stp	x19, x20, [sp, #16]
  208aac:	13003cb3 	sxth	w19, w5
  208ab0:	2a0103f4 	mov	w20, w1
  208ab4:	910163e1 	add	x1, sp, #0x58
  208ab8:	a9025bf5 	stp	x21, x22, [sp, #32]
  208abc:	12001cf5 	and	w21, w7, #0xff
  208ac0:	2a0303f6 	mov	w22, w3
  208ac4:	a90363f7 	stp	x23, x24, [sp, #48]
  208ac8:	2a0203f7 	mov	w23, w2
  208acc:	12001cd8 	and	w24, w6, #0xff
  208ad0:	f90023f9 	str	x25, [sp, #64]
  208ad4:	12001c99 	and	w25, w4, #0xff
  208ad8:	97fff92d 	bl	206f8c <dram_reg_read>
  208adc:	910173e1 	add	x1, sp, #0x5c
  208ae0:	52800900 	mov	w0, #0x48                  	// #72
  208ae4:	97fff92a 	bl	206f8c <dram_reg_read>
  208ae8:	71003ebf 	cmp	w21, #0xf
  208aec:	54000189 	b.ls	208b1c <dramc_engine2+0x80>  // b.plast
  208af0:	d0000020 	adrp	x0, 20e000 <mtk_pin_info_pu+0x36c>
  208af4:	912fec00 	add	x0, x0, #0xbfb
  208af8:	12800014 	mov	w20, #0xffffffff            	// #-1
  208afc:	97fff883 	bl	206d08 <tf_log>
  208b00:	2a1403e0 	mov	w0, w20
  208b04:	a94153f3 	ldp	x19, x20, [sp, #16]
  208b08:	a9425bf5 	ldp	x21, x22, [sp, #32]
  208b0c:	a94363f7 	ldp	x23, x24, [sp, #48]
  208b10:	f94023f9 	ldr	x25, [sp, #64]
  208b14:	a8c67bfd 	ldp	x29, x30, [sp], #96
  208b18:	d65f03c0 	ret
  208b1c:	910153e1 	add	x1, sp, #0x54
  208b20:	52800100 	mov	w0, #0x8                   	// #8
  208b24:	97fff91a 	bl	206f8c <dram_reg_read>
  208b28:	b94057e1 	ldr	w1, [sp, #84]
  208b2c:	52800100 	mov	w0, #0x8                   	// #8
  208b30:	12007021 	and	w1, w1, #0x1fffffff
  208b34:	b90057e1 	str	w1, [sp, #84]
  208b38:	97fff908 	bl	206f58 <dram_reg_write>
  208b3c:	7100027f 	cmp	w19, #0x0
  208b40:	34000293 	cbz	w19, 208b90 <dramc_engine2+0xf4>
  208b44:	5400072c 	b.gt	208c28 <dramc_engine2+0x18c>
  208b48:	3100067f 	cmn	w19, #0x1
  208b4c:	540000c1 	b.ne	208b64 <dramc_engine2+0xc8>  // b.any
  208b50:	52800073 	mov	w19, #0x3                   	// #3
  208b54:	35000218 	cbnz	w24, 208b94 <dramc_engine2+0xf8>
  208b58:	d0000020 	adrp	x0, 20e000 <mtk_pin_info_pu+0x36c>
  208b5c:	9130f000 	add	x0, x0, #0xc3c
  208b60:	17ffffe6 	b	208af8 <dramc_engine2+0x5c>
  208b64:	31000a7f 	cmn	w19, #0x2
  208b68:	54000061 	b.ne	208b74 <dramc_engine2+0xd8>  // b.any
  208b6c:	52800093 	mov	w19, #0x4                   	// #4
  208b70:	17fffff9 	b	208b54 <dramc_engine2+0xb8>
  208b74:	31000e7f 	cmn	w19, #0x3
  208b78:	54000061 	b.ne	208b84 <dramc_engine2+0xe8>  // b.any
  208b7c:	528000b3 	mov	w19, #0x5                   	// #5
  208b80:	17fffff5 	b	208b54 <dramc_engine2+0xb8>
  208b84:	d0000020 	adrp	x0, 20e000 <mtk_pin_info_pu+0x36c>
  208b88:	9131cc00 	add	x0, x0, #0xc73
  208b8c:	17ffffdb 	b	208af8 <dramc_engine2+0x5c>
  208b90:	52800033 	mov	w19, #0x1                   	// #1
  208b94:	2a1703e1 	mov	w1, w23
  208b98:	52800780 	mov	w0, #0x3c                  	// #60
  208b9c:	97fff8ef 	bl	206f58 <dram_reg_write>
  208ba0:	2a1603e1 	mov	w1, w22
  208ba4:	52800800 	mov	w0, #0x40                  	// #64
  208ba8:	97fff8ec 	bl	206f58 <dram_reg_write>
  208bac:	910153e1 	add	x1, sp, #0x54
  208bb0:	71000b3f 	cmp	w25, #0x2
  208bb4:	540003e1 	b.ne	208c30 <dramc_engine2+0x194>  // b.any
  208bb8:	52800880 	mov	w0, #0x44                  	// #68
  208bbc:	97fff8f4 	bl	206f8c <dram_reg_read>
  208bc0:	b94057e1 	ldr	w1, [sp, #84]
  208bc4:	128011e0 	mov	w0, #0xffffff70            	// #-144
  208bc8:	0a000021 	and	w1, w1, w0
  208bcc:	52800880 	mov	w0, #0x44                  	// #68
  208bd0:	2a150021 	orr	w1, w1, w21
  208bd4:	b90057e1 	str	w1, [sp, #84]
  208bd8:	97fff8e0 	bl	206f58 <dram_reg_write>
  208bdc:	910153e1 	add	x1, sp, #0x54
  208be0:	52800900 	mov	w0, #0x48                  	// #72
  208be4:	97fff8ea 	bl	206f8c <dram_reg_read>
  208be8:	b94057e1 	ldr	w1, [sp, #84]
  208bec:	52800900 	mov	w0, #0x48                  	// #72
  208bf0:	12107421 	and	w1, w1, #0xffff3fff
  208bf4:	32100021 	orr	w1, w1, #0x10000
  208bf8:	b90057e1 	str	w1, [sp, #84]
  208bfc:	97fff8d7 	bl	206f58 <dram_reg_write>
  208c00:	7100069f 	cmp	w20, #0x1
  208c04:	54000ba1 	b.ne	208d78 <dramc_engine2+0x2dc>  // b.any
  208c08:	910153e1 	add	x1, sp, #0x54
  208c0c:	52800900 	mov	w0, #0x48                  	// #72
  208c10:	97fff8df 	bl	206f8c <dram_reg_read>
  208c14:	b94057e1 	ldr	w1, [sp, #84]
  208c18:	52800900 	mov	w0, #0x48                  	// #72
  208c1c:	12107821 	and	w1, w1, #0xffff7fff
  208c20:	b90057e1 	str	w1, [sp, #84]
  208c24:	1400006b 	b	208dd0 <dramc_engine2+0x334>
  208c28:	52800053 	mov	w19, #0x2                   	// #2
  208c2c:	17ffffda 	b	208b94 <dramc_engine2+0xf8>
  208c30:	7100073f 	cmp	w25, #0x1
  208c34:	540002c1 	b.ne	208c8c <dramc_engine2+0x1f0>  // b.any
  208c38:	52800900 	mov	w0, #0x48                  	// #72
  208c3c:	97fff8d4 	bl	206f8c <dram_reg_read>
  208c40:	b94057e1 	ldr	w1, [sp, #84]
  208c44:	529c1c00 	mov	w0, #0xe0e0                	// #57568
  208c48:	72bfffc0 	movk	w0, #0xfffe, lsl #16
  208c4c:	0a000021 	and	w1, w1, w0
  208c50:	529a21a0 	mov	w0, #0xd10d                	// #53517
  208c54:	2a000021 	orr	w1, w1, w0
  208c58:	52800900 	mov	w0, #0x48                  	// #72
  208c5c:	b90057e1 	str	w1, [sp, #84]
  208c60:	97fff8be 	bl	206f58 <dram_reg_write>
  208c64:	910153e1 	add	x1, sp, #0x54
  208c68:	52800880 	mov	w0, #0x44                  	// #68
  208c6c:	97fff8c8 	bl	206f8c <dram_reg_read>
  208c70:	b94057e0 	ldr	w0, [sp, #84]
  208c74:	121c6c00 	and	w0, w0, #0xfffffff0
  208c78:	2a150000 	orr	w0, w0, w21
  208c7c:	32190001 	orr	w1, w0, #0x80
  208c80:	52800880 	mov	w0, #0x44                  	// #68
  208c84:	b90057e1 	str	w1, [sp, #84]
  208c88:	17ffffdd 	b	208bfc <dramc_engine2+0x160>
  208c8c:	52800880 	mov	w0, #0x44                  	// #68
  208c90:	97fff8bf 	bl	206f8c <dram_reg_read>
  208c94:	b94057e0 	ldr	w0, [sp, #84]
  208c98:	128011e1 	mov	w1, #0xffffff70            	// #-144
  208c9c:	0a010000 	and	w0, w0, w1
  208ca0:	2a150001 	orr	w1, w0, w21
  208ca4:	52800880 	mov	w0, #0x44                  	// #68
  208ca8:	b90057e1 	str	w1, [sp, #84]
  208cac:	97fff8ab 	bl	206f58 <dram_reg_write>
  208cb0:	910153e1 	add	x1, sp, #0x54
  208cb4:	52800900 	mov	w0, #0x48                  	// #72
  208cb8:	97fff8b5 	bl	206f8c <dram_reg_read>
  208cbc:	b94057e1 	ldr	w1, [sp, #84]
  208cc0:	52800900 	mov	w0, #0x48                  	// #72
  208cc4:	120f7821 	and	w1, w1, #0xfffeffff
  208cc8:	b90057e1 	str	w1, [sp, #84]
  208ccc:	97fff8a3 	bl	206f58 <dram_reg_write>
  208cd0:	7100069f 	cmp	w20, #0x1
  208cd4:	54000521 	b.ne	208d78 <dramc_engine2+0x2dc>  // b.any
  208cd8:	910153e1 	add	x1, sp, #0x54
  208cdc:	52800100 	mov	w0, #0x8                   	// #8
  208ce0:	97fff8ab 	bl	206f8c <dram_reg_read>
  208ce4:	b94057e1 	ldr	w1, [sp, #84]
  208ce8:	52800100 	mov	w0, #0x8                   	// #8
  208cec:	12007021 	and	w1, w1, #0x1fffffff
  208cf0:	32020021 	orr	w1, w1, #0x40000000
  208cf4:	b90057e1 	str	w1, [sp, #84]
  208cf8:	97fff898 	bl	206f58 <dram_reg_write>
  208cfc:	52807f80 	mov	w0, #0x3fc                 	// #1020
  208d00:	910153e1 	add	x1, sp, #0x54
  208d04:	97fff8a2 	bl	206f8c <dram_reg_read>
  208d08:	b94057e0 	ldr	w0, [sp, #84]
  208d0c:	3657ff80 	tbz	w0, #10, 208cfc <dramc_engine2+0x260>
  208d10:	52800020 	mov	w0, #0x1                   	// #1
  208d14:	97ffe38e 	bl	201b4c <udelay>
  208d18:	910153e1 	add	x1, sp, #0x54
  208d1c:	52806e00 	mov	w0, #0x370                 	// #880
  208d20:	97fff89b 	bl	206f8c <dram_reg_read>
  208d24:	b94057f4 	ldr	w20, [sp, #84]
  208d28:	910153e1 	add	x1, sp, #0x54
  208d2c:	52800100 	mov	w0, #0x8                   	// #8
  208d30:	97fff897 	bl	206f8c <dram_reg_read>
  208d34:	b94057e1 	ldr	w1, [sp, #84]
  208d38:	52800100 	mov	w0, #0x8                   	// #8
  208d3c:	12007021 	and	w1, w1, #0x1fffffff
  208d40:	b90057e1 	str	w1, [sp, #84]
  208d44:	97fff885 	bl	206f58 <dram_reg_write>
  208d48:	b9405be1 	ldr	w1, [sp, #88]
  208d4c:	52800880 	mov	w0, #0x44                  	// #68
  208d50:	97fff882 	bl	206f58 <dram_reg_write>
  208d54:	b9405fe1 	ldr	w1, [sp, #92]
  208d58:	52800900 	mov	w0, #0x48                  	// #72
  208d5c:	97fff87f 	bl	206f58 <dram_reg_write>
  208d60:	7100067f 	cmp	w19, #0x1
  208d64:	54ffece0 	b.eq	208b00 <dramc_engine2+0x64>  // b.none
  208d68:	d0000020 	adrp	x0, 20e000 <mtk_pin_info_pu+0x36c>
  208d6c:	9132d000 	add	x0, x0, #0xcb4
  208d70:	97fff7e6 	bl	206d08 <tf_log>
  208d74:	17ffff63 	b	208b00 <dramc_engine2+0x64>
  208d78:	35fffc34 	cbnz	w20, 208cfc <dramc_engine2+0x260>
  208d7c:	910153e1 	add	x1, sp, #0x54
  208d80:	52800100 	mov	w0, #0x8                   	// #8
  208d84:	97fff882 	bl	206f8c <dram_reg_read>
  208d88:	b94057e1 	ldr	w1, [sp, #84]
  208d8c:	52800100 	mov	w0, #0x8                   	// #8
  208d90:	12007021 	and	w1, w1, #0x1fffffff
  208d94:	32010021 	orr	w1, w1, #0x80000000
  208d98:	b90057e1 	str	w1, [sp, #84]
  208d9c:	97fff86f 	bl	206f58 <dram_reg_write>
  208da0:	52807f80 	mov	w0, #0x3fc                 	// #1020
  208da4:	910153e1 	add	x1, sp, #0x54
  208da8:	97fff879 	bl	206f8c <dram_reg_read>
  208dac:	b94057e0 	ldr	w0, [sp, #84]
  208db0:	3657ff80 	tbz	w0, #10, 208da0 <dramc_engine2+0x304>
  208db4:	910153e1 	add	x1, sp, #0x54
  208db8:	52800100 	mov	w0, #0x8                   	// #8
  208dbc:	97fff874 	bl	206f8c <dram_reg_read>
  208dc0:	b94057e1 	ldr	w1, [sp, #84]
  208dc4:	52800100 	mov	w0, #0x8                   	// #8
  208dc8:	12007021 	and	w1, w1, #0x1fffffff
  208dcc:	b90057e1 	str	w1, [sp, #84]
  208dd0:	97fff862 	bl	206f58 <dram_reg_write>
  208dd4:	17ffffc1 	b	208cd8 <dramc_engine2+0x23c>

0000000000208dd8 <dramc_rxdqs_gating_cal>:
  208dd8:	a9b87bfd 	stp	x29, x30, [sp, #-128]!
  208ddc:	910003fd 	mov	x29, sp
  208de0:	a9025bf5 	stp	x21, x22, [sp, #32]
  208de4:	90000076 	adrp	x22, 214000 <list+0x2550>
  208de8:	a90363f7 	stp	x23, x24, [sp, #48]
  208dec:	90000078 	adrp	x24, 214000 <list+0x2550>
  208df0:	a9046bf9 	stp	x25, x26, [sp, #64]
  208df4:	aa0003fa 	mov	x26, x0
  208df8:	90000060 	adrp	x0, 214000 <list+0x2550>
  208dfc:	a90573fb 	stp	x27, x28, [sp, #80]
  208e00:	9000007b 	adrp	x27, 214000 <list+0x2550>
  208e04:	a90153f3 	stp	x19, x20, [sp, #16]
  208e08:	90000073 	adrp	x19, 214000 <list+0x2550>
  208e0c:	912ee273 	add	x19, x19, #0xbb8
  208e10:	3939e81f 	strb	wzr, [x0, #3706]
  208e14:	52800014 	mov	w20, #0x0                   	// #0
  208e18:	3939e77f 	strb	wzr, [x27, #3705]
  208e1c:	d2800000 	mov	x0, #0x0                   	// #0
  208e20:	3939eedf 	strb	wzr, [x22, #3707]
  208e24:	3939e31f 	strb	wzr, [x24, #3704]
  208e28:	f90037fb 	str	x27, [sp, #104]
  208e2c:	b8207a7f 	str	wzr, [x19, x0, lsl #2]
  208e30:	91000400 	add	x0, x0, #0x1
  208e34:	f1007c1f 	cmp	x0, #0x1f
  208e38:	54ffffa1 	b.ne	208e2c <dramc_rxdqs_gating_cal+0x54>  // b.any
  208e3c:	9101d3e1 	add	x1, sp, #0x74
  208e40:	52803800 	mov	w0, #0x1c0                 	// #448
  208e44:	97fff852 	bl	206f8c <dram_reg_read>
  208e48:	5280021c 	mov	w28, #0x10                  	// #16
  208e4c:	b94077e1 	ldr	w1, [sp, #116]
  208e50:	52803800 	mov	w0, #0x1c0                 	// #448
  208e54:	90000079 	adrp	x25, 214000 <list+0x2550>
  208e58:	90000075 	adrp	x21, 214000 <list+0x2550>
  208e5c:	12007821 	and	w1, w1, #0x7fffffff
  208e60:	b90077e1 	str	w1, [sp, #116]
  208e64:	97fff83d 	bl	206f58 <dram_reg_write>
  208e68:	9139e739 	add	x25, x25, #0xe79
  208e6c:	9101d3e1 	add	x1, sp, #0x74
  208e70:	52801c00 	mov	w0, #0xe0                  	// #224
  208e74:	97fff846 	bl	206f8c <dram_reg_read>
  208e78:	9139eab5 	add	x21, x21, #0xe7a
  208e7c:	b94077e1 	ldr	w1, [sp, #116]
  208e80:	52801c00 	mov	w0, #0xe0                  	// #224
  208e84:	52800017 	mov	w23, #0x0                   	// #0
  208e88:	72b5401c 	movk	w28, #0xaa00, lsl #16
  208e8c:	32040021 	orr	w1, w1, #0x10000000
  208e90:	b90077e1 	str	w1, [sp, #116]
  208e94:	97fff831 	bl	206f58 <dram_reg_write>
  208e98:	9101d3e1 	add	x1, sp, #0x74
  208e9c:	52803c80 	mov	w0, #0x1e4                 	// #484
  208ea0:	97fff83b 	bl	206f8c <dram_reg_read>
  208ea4:	b94077e1 	ldr	w1, [sp, #116]
  208ea8:	52803c80 	mov	w0, #0x1e4                 	// #484
  208eac:	32180021 	orr	w1, w1, #0x100
  208eb0:	b90077e1 	str	w1, [sp, #116]
  208eb4:	97fff829 	bl	206f58 <dram_reg_write>
  208eb8:	9101d3e1 	add	x1, sp, #0x74
  208ebc:	52802480 	mov	w0, #0x124                 	// #292
  208ec0:	97fff833 	bl	206f8c <dram_reg_read>
  208ec4:	b94077e1 	ldr	w1, [sp, #116]
  208ec8:	52802480 	mov	w0, #0x124                 	// #292
  208ecc:	32020021 	orr	w1, w1, #0x40000000
  208ed0:	b90077e1 	str	w1, [sp, #116]
  208ed4:	97fff821 	bl	206f58 <dram_reg_write>
  208ed8:	5280001b 	mov	w27, #0x0                   	// #0
  208edc:	2a1703e0 	mov	w0, w23
  208ee0:	97fffdfe 	bl	2086d8 <do_calib+0x1454>
  208ee4:	2a1b03e0 	mov	w0, w27
  208ee8:	97fffe31 	bl	2087ac <do_calib+0x1528>
  208eec:	aa1a03e0 	mov	x0, x26
  208ef0:	97fffde4 	bl	208680 <do_calib+0x13fc>
  208ef4:	2a1c03e3 	mov	w3, w28
  208ef8:	52800007 	mov	w7, #0x0                   	// #0
  208efc:	52800006 	mov	w6, #0x0                   	// #0
  208f00:	52800005 	mov	w5, #0x0                   	// #0
  208f04:	52800024 	mov	w4, #0x1                   	// #1
  208f08:	52aaa002 	mov	w2, #0x55000000            	// #1426063360
  208f0c:	52800021 	mov	w1, #0x1                   	// #1
  208f10:	aa1a03e0 	mov	x0, x26
  208f14:	97fffee2 	bl	208a9c <dramc_engine2>
  208f18:	9101e3e1 	add	x1, sp, #0x78
  208f1c:	52807800 	mov	w0, #0x3c0                 	// #960
  208f20:	97fff81b 	bl	206f8c <dram_reg_read>
  208f24:	9101f3e1 	add	x1, sp, #0x7c
  208f28:	52807880 	mov	w0, #0x3c4                 	// #964
  208f2c:	97fff818 	bl	206f8c <dram_reg_read>
  208f30:	3202c3e0 	mov	w0, #0x40404040            	// #1077952576
  208f34:	b9407be1 	ldr	w1, [sp, #120]
  208f38:	b9007fe0 	str	w0, [sp, #124]
  208f3c:	6b00003f 	cmp	w1, w0
  208f40:	54000101 	b.ne	208f60 <dramc_rxdqs_gating_cal+0x188>  // b.any
  208f44:	39400321 	ldrb	w1, [x25]
  208f48:	52800020 	mov	w0, #0x1                   	// #1
  208f4c:	394002a2 	ldrb	w2, [x21]
  208f50:	1ac22000 	lsl	w0, w0, w2
  208f54:	b8617a62 	ldr	w2, [x19, x1, lsl #2]
  208f58:	2a020000 	orr	w0, w0, w2
  208f5c:	b8217a60 	str	w0, [x19, x1, lsl #2]
  208f60:	394002a1 	ldrb	w1, [x21]
  208f64:	9139eec2 	add	x2, x22, #0xe7b
  208f68:	3979eec0 	ldrb	w0, [x22, #3707]
  208f6c:	11000421 	add	w1, w1, #0x1
  208f70:	11000400 	add	w0, w0, #0x1
  208f74:	12001c21 	and	w1, w1, #0xff
  208f78:	12001c00 	and	w0, w0, #0xff
  208f7c:	3939eec0 	strb	w0, [x22, #3707]
  208f80:	390002a1 	strb	w1, [x21]
  208f84:	7100fc3f 	cmp	w1, #0x3f
  208f88:	54000068 	b.hi	208f94 <dramc_rxdqs_gating_cal+0x1bc>  // b.pmore
  208f8c:	71007c1f 	cmp	w0, #0x1f
  208f90:	54000109 	b.ls	208fb0 <dramc_rxdqs_gating_cal+0x1d8>  // b.plast
  208f94:	39400321 	ldrb	w1, [x25]
  208f98:	71007c1f 	cmp	w0, #0x1f
  208f9c:	390002bf 	strb	wzr, [x21]
  208fa0:	11000421 	add	w1, w1, #0x1
  208fa4:	39000321 	strb	w1, [x25]
  208fa8:	54000049 	b.ls	208fb0 <dramc_rxdqs_gating_cal+0x1d8>  // b.plast
  208fac:	3939eedf 	strb	wzr, [x22, #3707]
  208fb0:	39400320 	ldrb	w0, [x25]
  208fb4:	71007c1f 	cmp	w0, #0x1f
  208fb8:	540000c9 	b.ls	208fd0 <dramc_rxdqs_gating_cal+0x1f8>  // b.plast
  208fbc:	d0000020 	adrp	x0, 20e000 <mtk_pin_info_pu+0x36c>
  208fc0:	91332800 	add	x0, x0, #0xcca
  208fc4:	97fff751 	bl	206d08 <tf_log>
  208fc8:	90000060 	adrp	x0, 214000 <list+0x2550>
  208fcc:	9139ec02 	add	x2, x0, #0xe7b
  208fd0:	11001368 	add	w8, w27, #0x4
  208fd4:	12001d1b 	and	w27, w8, #0xff
  208fd8:	7102037f 	cmp	w27, #0x80
  208fdc:	54fff841 	b.ne	208ee4 <dramc_rxdqs_gating_cal+0x10c>  // b.any
  208fe0:	110006f7 	add	w23, w23, #0x1
  208fe4:	390002bf 	strb	wzr, [x21]
  208fe8:	3900005f 	strb	wzr, [x2]
  208fec:	12001ef7 	and	w23, w23, #0xff
  208ff0:	71007eff 	cmp	w23, #0x1f
  208ff4:	54fff721 	b.ne	208ed8 <dramc_rxdqs_gating_cal+0x100>  // b.any
  208ff8:	f94037e0 	ldr	x0, [sp, #104]
  208ffc:	3939e41f 	strb	wzr, [x0, #3705]
  209000:	aa1a03e0 	mov	x0, x26
  209004:	97fffd9f 	bl	208680 <do_calib+0x13fc>
  209008:	52801fe6 	mov	w6, #0xff                  	// #255
  20900c:	2a0603eb 	mov	w11, w6
  209010:	d2800008 	mov	x8, #0x0                   	// #0
  209014:	52800007 	mov	w7, #0x0                   	// #0
  209018:	5280002c 	mov	w12, #0x1                   	// #1
  20901c:	b8687a60 	ldr	w0, [x19, x8, lsl #2]
  209020:	12001d0a 	and	w10, w8, #0xff
  209024:	52800001 	mov	w1, #0x0                   	// #0
  209028:	52800005 	mov	w5, #0x0                   	// #0
  20902c:	1ac12182 	lsl	w2, w12, w1
  209030:	6a00005f 	tst	w2, w0
  209034:	540001a0 	b.eq	209068 <dramc_rxdqs_gating_cal+0x290>  // b.none
  209038:	110004a5 	add	w5, w5, #0x1
  20903c:	12001ca5 	and	w5, w5, #0xff
  209040:	11000421 	add	w1, w1, #0x1
  209044:	7100803f 	cmp	w1, #0x20
  209048:	54ffff21 	b.ne	20902c <dramc_rxdqs_gating_cal+0x254>  // b.any
  20904c:	52800009 	mov	w9, #0x0                   	// #0
  209050:	35000105 	cbnz	w5, 209070 <dramc_rxdqs_gating_cal+0x298>
  209054:	91000508 	add	x8, x8, #0x1
  209058:	f1007d1f 	cmp	x8, #0x1f
  20905c:	54fffe01 	b.ne	20901c <dramc_rxdqs_gating_cal+0x244>  // b.any
  209060:	3939e309 	strb	w9, [x24, #3704]
  209064:	14000011 	b	2090a8 <dramc_rxdqs_gating_cal+0x2d0>
  209068:	34fffec5 	cbz	w5, 209040 <dramc_rxdqs_gating_cal+0x268>
  20906c:	52800029 	mov	w9, #0x1                   	// #1
  209070:	97fffd78 	bl	208650 <do_calib+0x13cc>
  209074:	12001c00 	and	w0, w0, #0xff
  209078:	7103fc1f 	cmp	w0, #0xff
  20907c:	54000060 	b.eq	209088 <dramc_rxdqs_gating_cal+0x2b0>  // b.none
  209080:	0b450406 	add	w6, w0, w5, lsr #1
  209084:	12001cc6 	and	w6, w6, #0xff
  209088:	531e14c6 	ubfiz	w6, w6, #2, #6
  20908c:	7100001f 	cmp	w0, #0x0
  209090:	7a4b10c2 	ccmp	w6, w11, #0x2, ne  // ne = any
  209094:	54000163 	b.cc	2090c0 <dramc_rxdqs_gating_cal+0x2e8>  // b.lo, b.ul, b.last
  209098:	35fffde0 	cbnz	w0, 209054 <dramc_rxdqs_gating_cal+0x27c>
  20909c:	3939e309 	strb	w9, [x24, #3704]
  2090a0:	6b0500ff 	cmp	w7, w5
  2090a4:	54000169 	b.ls	2090d0 <dramc_rxdqs_gating_cal+0x2f8>  // b.plast
  2090a8:	2a0703e5 	mov	w5, w7
  2090ac:	35000147 	cbnz	w7, 2090d4 <dramc_rxdqs_gating_cal+0x2fc>
  2090b0:	b0000020 	adrp	x0, 20e000 <mtk_pin_info_pu+0x36c>
  2090b4:	9133e000 	add	x0, x0, #0xcf8
  2090b8:	97fff714 	bl	206d08 <tf_log>
  2090bc:	1400001f 	b	209138 <dramc_rxdqs_gating_cal+0x360>
  2090c0:	2a0603eb 	mov	w11, w6
  2090c4:	2a0a03f4 	mov	w20, w10
  2090c8:	2a0503e7 	mov	w7, w5
  2090cc:	17ffffe2 	b	209054 <dramc_rxdqs_gating_cal+0x27c>
  2090d0:	2a0a03f4 	mov	w20, w10
  2090d4:	b874da60 	ldr	w0, [x19, w20, sxtw #2]
  2090d8:	97fffd5e 	bl	208650 <do_calib+0x13cc>
  2090dc:	12001c06 	and	w6, w0, #0xff
  2090e0:	510004c0 	sub	w0, w6, #0x1
  2090e4:	7103fcdf 	cmp	w6, #0xff
  2090e8:	0b450405 	add	w5, w0, w5, lsr #1
  2090ec:	52801fe0 	mov	w0, #0xff                  	// #255
  2090f0:	12001ca5 	and	w5, w5, #0xff
  2090f4:	1a8010a5 	csel	w5, w5, w0, ne  // ne = any
  2090f8:	51000680 	sub	w0, w20, #0x1
  2090fc:	b860da60 	ldr	w0, [x19, w0, sxtw #2]
  209100:	97fffd54 	bl	208650 <do_calib+0x13cc>
  209104:	12001c00 	and	w0, w0, #0xff
  209108:	7103fc1f 	cmp	w0, #0xff
  20910c:	54000080 	b.eq	20911c <dramc_rxdqs_gating_cal+0x344>  // b.none
  209110:	6b0000df 	cmp	w6, w0
  209114:	7a4030a0 	ccmp	w5, w0, #0x0, cc  // cc = lo, ul, last
  209118:	1a8090a5 	csel	w5, w5, w0, ls  // ls = plast
  20911c:	531e14a5 	ubfiz	w5, w5, #2, #6
  209120:	f0000053 	adrp	x19, 214000 <list+0x2550>
  209124:	2a1403e0 	mov	w0, w20
  209128:	3939f265 	strb	w5, [x19, #3708]
  20912c:	97fffd6b 	bl	2086d8 <do_calib+0x1454>
  209130:	3979f260 	ldrb	w0, [x19, #3708]
  209134:	97fffd9e 	bl	2087ac <do_calib+0x1528>
  209138:	9101d3e1 	add	x1, sp, #0x74
  20913c:	52803c80 	mov	w0, #0x1e4                 	// #484
  209140:	97fff793 	bl	206f8c <dram_reg_read>
  209144:	b94077e1 	ldr	w1, [sp, #116]
  209148:	52803c80 	mov	w0, #0x1e4                 	// #484
  20914c:	12177821 	and	w1, w1, #0xfffffeff
  209150:	b90077e1 	str	w1, [sp, #116]
  209154:	97fff781 	bl	206f58 <dram_reg_write>
  209158:	52800000 	mov	w0, #0x0                   	// #0
  20915c:	a94153f3 	ldp	x19, x20, [sp, #16]
  209160:	a9425bf5 	ldp	x21, x22, [sp, #32]
  209164:	a94363f7 	ldp	x23, x24, [sp, #48]
  209168:	a9446bf9 	ldp	x25, x26, [sp, #64]
  20916c:	a94573fb 	ldp	x27, x28, [sp, #80]
  209170:	a8c87bfd 	ldp	x29, x30, [sp], #128
  209174:	d65f03c0 	ret

0000000000209178 <mtk_set_emi_dram>:
  209178:	a9b97bfd 	stp	x29, x30, [sp, #-112]!
  20917c:	910003fd 	mov	x29, sp
  209180:	a90153f3 	stp	x19, x20, [sp, #16]
  209184:	f0000033 	adrp	x19, 210000 <__RO_END__>
  209188:	9113f273 	add	x19, x19, #0x4fc
  20918c:	a9025bf5 	stp	x21, x22, [sp, #32]
  209190:	b9416660 	ldr	w0, [x19, #356]
  209194:	a90363f7 	stp	x23, x24, [sp, #48]
  209198:	12000c00 	and	w0, w0, #0xf
  20919c:	a9046bf9 	stp	x25, x26, [sp, #64]
  2091a0:	7100101f 	cmp	w0, #0x4
  2091a4:	a90573fb 	stp	x27, x28, [sp, #80]
  2091a8:	54000180 	b.eq	2091d8 <mtk_set_emi_dram+0x60>  // b.none
  2091ac:	7100141f 	cmp	w0, #0x5
  2091b0:	54009360 	b.eq	20a41c <mtk_set_emi_dram+0x12a4>  // b.none
  2091b4:	a94153f3 	ldp	x19, x20, [sp, #16]
  2091b8:	b0000020 	adrp	x0, 20e000 <mtk_pin_info_pu+0x36c>
  2091bc:	a9425bf5 	ldp	x21, x22, [sp, #32]
  2091c0:	91345800 	add	x0, x0, #0xd16
  2091c4:	a94363f7 	ldp	x23, x24, [sp, #48]
  2091c8:	a9446bf9 	ldp	x25, x26, [sp, #64]
  2091cc:	a94573fb 	ldp	x27, x28, [sp, #80]
  2091d0:	a8c77bfd 	ldp	x29, x30, [sp], #112
  2091d4:	17fff6cd 	b	206d08 <tf_log>
  2091d8:	f0000020 	adrp	x0, 210000 <__RO_END__>
  2091dc:	9112d000 	add	x0, x0, #0x4b4
  2091e0:	f90037e0 	str	x0, [sp, #104]
  2091e4:	d2860000 	mov	x0, #0x3000                	// #12288
  2091e8:	f2a20400 	movk	x0, #0x1020, lsl #16
  2091ec:	b9418a61 	ldr	w1, [x19, #392]
  2091f0:	b9000001 	str	w1, [x0]
  2091f4:	5280d701 	mov	w1, #0x6b8                 	// #1720
  2091f8:	b9006001 	str	w1, [x0, #96]
  2091fc:	d2860500 	mov	x0, #0x3028                	// #12328
  209200:	f2a20400 	movk	x0, #0x1020, lsl #16
  209204:	52820001 	mov	w1, #0x1000                	// #4096
  209208:	72a00841 	movk	w1, #0x42, lsl #16
  20920c:	b9000001 	str	w1, [x0]
  209210:	f94037e0 	ldr	x0, [sp, #104]
  209214:	b9400401 	ldr	w1, [x0, #4]
  209218:	7100143f 	cmp	w1, #0x5
  20921c:	54009061 	b.ne	20a428 <mtk_set_emi_dram+0x12b0>  // b.any
  209220:	d2882201 	mov	x1, #0x4110                	// #16656
  209224:	5288b240 	mov	w0, #0x4592                	// #17810
  209228:	f2a20421 	movk	x1, #0x1021, lsl #16
  20922c:	72a074c0 	movk	w0, #0x3a6, lsl #16
  209230:	d2888082 	mov	x2, #0x4404                	// #17412
  209234:	b9000020 	str	w0, [x1]
  209238:	d2862201 	mov	x1, #0x3110                	// #12560
  20923c:	f2a20421 	movk	x1, #0x1021, lsl #16
  209240:	f2a20422 	movk	x2, #0x1021, lsl #16
  209244:	b9000020 	str	w0, [x1]
  209248:	d29c2201 	mov	x1, #0xe110                	// #57616
  20924c:	f2a20401 	movk	x1, #0x1020, lsl #16
  209250:	b9000020 	str	w0, [x1]
  209254:	d288c801 	mov	x1, #0x4640                	// #17984
  209258:	f2a20421 	movk	x1, #0x1021, lsl #16
  20925c:	52800200 	mov	w0, #0x10                  	// #16
  209260:	b9000020 	str	w0, [x1]
  209264:	d286c801 	mov	x1, #0x3640                	// #13888
  209268:	f2a20421 	movk	x1, #0x1021, lsl #16
  20926c:	b9000020 	str	w0, [x1]
  209270:	d29cc801 	mov	x1, #0xe640                	// #58944
  209274:	f2a20401 	movk	x1, #0x1020, lsl #16
  209278:	b9000020 	str	w0, [x1]
  20927c:	d2888601 	mov	x1, #0x4430                	// #17456
  209280:	f2a20421 	movk	x1, #0x1021, lsl #16
  209284:	52821fe0 	mov	w0, #0x10ff                	// #4351
  209288:	72a21fe0 	movk	w0, #0x10ff, lsl #16
  20928c:	b9000020 	str	w0, [x1]
  209290:	d2868601 	mov	x1, #0x3430                	// #13360
  209294:	f2a20421 	movk	x1, #0x1021, lsl #16
  209298:	b9000020 	str	w0, [x1]
  20929c:	d29c8601 	mov	x1, #0xe430                	// #58416
  2092a0:	f2a20401 	movk	x1, #0x1020, lsl #16
  2092a4:	b9000020 	str	w0, [x1]
  2092a8:	d2888681 	mov	x1, #0x4434                	// #17460
  2092ac:	f2a20421 	movk	x1, #0x1021, lsl #16
  2092b0:	12800000 	mov	w0, #0xffffffff            	// #-1
  2092b4:	b9000020 	str	w0, [x1]
  2092b8:	d2868681 	mov	x1, #0x3434                	// #13364
  2092bc:	f2a20421 	movk	x1, #0x1021, lsl #16
  2092c0:	b9000020 	str	w0, [x1]
  2092c4:	d29c8681 	mov	x1, #0xe434                	// #58420
  2092c8:	f2a20401 	movk	x1, #0x1020, lsl #16
  2092cc:	b9000020 	str	w0, [x1]
  2092d0:	d2888701 	mov	x1, #0x4438                	// #17464
  2092d4:	f2a20421 	movk	x1, #0x1021, lsl #16
  2092d8:	b9000020 	str	w0, [x1]
  2092dc:	d2868701 	mov	x1, #0x3438                	// #13368
  2092e0:	f2a20421 	movk	x1, #0x1021, lsl #16
  2092e4:	b9000020 	str	w0, [x1]
  2092e8:	d29c8701 	mov	x1, #0xe438                	// #58424
  2092ec:	f2a20401 	movk	x1, #0x1020, lsl #16
  2092f0:	b9000020 	str	w0, [x1]
  2092f4:	d2888781 	mov	x1, #0x443c                	// #17468
  2092f8:	f2a20421 	movk	x1, #0x1021, lsl #16
  2092fc:	528003e0 	mov	w0, #0x1f                  	// #31
  209300:	b9000020 	str	w0, [x1]
  209304:	d2868781 	mov	x1, #0x343c                	// #13372
  209308:	f2a20421 	movk	x1, #0x1021, lsl #16
  20930c:	b9000020 	str	w0, [x1]
  209310:	d29c8781 	mov	x1, #0xe43c                	// #58428
  209314:	f2a20401 	movk	x1, #0x1020, lsl #16
  209318:	b9000020 	str	w0, [x1]
  20931c:	d2888001 	mov	x1, #0x4400                	// #17408
  209320:	f2a20421 	movk	x1, #0x1021, lsl #16
  209324:	3200e3e0 	mov	w0, #0x11111111            	// #286331153
  209328:	b9000020 	str	w0, [x1]
  20932c:	d2868001 	mov	x1, #0x3400                	// #13312
  209330:	f2a20421 	movk	x1, #0x1021, lsl #16
  209334:	b9000020 	str	w0, [x1]
  209338:	d29c8001 	mov	x1, #0xe400                	// #58368
  20933c:	f2a20401 	movk	x1, #0x1020, lsl #16
  209340:	b9000020 	str	w0, [x1]
  209344:	d2888801 	mov	x1, #0x4440                	// #17472
  209348:	f2a20421 	movk	x1, #0x1021, lsl #16
  20934c:	b900003f 	str	wzr, [x1]
  209350:	d2868801 	mov	x1, #0x3440                	// #13376
  209354:	f2a20421 	movk	x1, #0x1021, lsl #16
  209358:	b900003f 	str	wzr, [x1]
  20935c:	d29c8801 	mov	x1, #0xe440                	// #58432
  209360:	f2a20401 	movk	x1, #0x1020, lsl #16
  209364:	b900003f 	str	wzr, [x1]
  209368:	d2888881 	mov	x1, #0x4444                	// #17476
  20936c:	f2a20421 	movk	x1, #0x1021, lsl #16
  209370:	b900003f 	str	wzr, [x1]
  209374:	d2868881 	mov	x1, #0x3444                	// #13380
  209378:	f2a20421 	movk	x1, #0x1021, lsl #16
  20937c:	b900003f 	str	wzr, [x1]
  209380:	d29c8881 	mov	x1, #0xe444                	// #58436
  209384:	f2a20401 	movk	x1, #0x1020, lsl #16
  209388:	b900003f 	str	wzr, [x1]
  20938c:	d2888901 	mov	x1, #0x4448                	// #17480
  209390:	f2a20421 	movk	x1, #0x1021, lsl #16
  209394:	b900003f 	str	wzr, [x1]
  209398:	d2868901 	mov	x1, #0x3448                	// #13384
  20939c:	f2a20421 	movk	x1, #0x1021, lsl #16
  2093a0:	b900003f 	str	wzr, [x1]
  2093a4:	d29c8901 	mov	x1, #0xe448                	// #58440
  2093a8:	f2a20401 	movk	x1, #0x1020, lsl #16
  2093ac:	b900003f 	str	wzr, [x1]
  2093b0:	d2888981 	mov	x1, #0x444c                	// #17484
  2093b4:	f2a20421 	movk	x1, #0x1021, lsl #16
  2093b8:	b900003f 	str	wzr, [x1]
  2093bc:	d2868981 	mov	x1, #0x344c                	// #13388
  2093c0:	f2a20421 	movk	x1, #0x1021, lsl #16
  2093c4:	b900003f 	str	wzr, [x1]
  2093c8:	d29c8981 	mov	x1, #0xe44c                	// #58444
  2093cc:	f2a20401 	movk	x1, #0x1020, lsl #16
  2093d0:	b900003f 	str	wzr, [x1]
  2093d4:	d2888a01 	mov	x1, #0x4450                	// #17488
  2093d8:	f2a20421 	movk	x1, #0x1021, lsl #16
  2093dc:	b900003f 	str	wzr, [x1]
  2093e0:	d2868a01 	mov	x1, #0x3450                	// #13392
  2093e4:	f2a20421 	movk	x1, #0x1021, lsl #16
  2093e8:	b900003f 	str	wzr, [x1]
  2093ec:	d29c8a01 	mov	x1, #0xe450                	// #58448
  2093f0:	f2a20401 	movk	x1, #0x1020, lsl #16
  2093f4:	b900003f 	str	wzr, [x1]
  2093f8:	52822221 	mov	w1, #0x1111                	// #4369
  2093fc:	72a02221 	movk	w1, #0x111, lsl #16
  209400:	b9000041 	str	w1, [x2]
  209404:	d2868082 	mov	x2, #0x3404                	// #13316
  209408:	f2a20422 	movk	x2, #0x1021, lsl #16
  20940c:	b9000041 	str	w1, [x2]
  209410:	d29c8082 	mov	x2, #0xe404                	// #58372
  209414:	f2a20402 	movk	x2, #0x1020, lsl #16
  209418:	b9000041 	str	w1, [x2]
  20941c:	d2888101 	mov	x1, #0x4408                	// #17416
  209420:	f2a20421 	movk	x1, #0x1021, lsl #16
  209424:	b9000020 	str	w0, [x1]
  209428:	d2868101 	mov	x1, #0x3408                	// #13320
  20942c:	f2a20421 	movk	x1, #0x1021, lsl #16
  209430:	b9000020 	str	w0, [x1]
  209434:	d29c8101 	mov	x1, #0xe408                	// #58376
  209438:	f2a20401 	movk	x1, #0x1020, lsl #16
  20943c:	b9000020 	str	w0, [x1]
  209440:	d2888181 	mov	x1, #0x440c                	// #17420
  209444:	f2a20421 	movk	x1, #0x1021, lsl #16
  209448:	b9000020 	str	w0, [x1]
  20944c:	d2868181 	mov	x1, #0x340c                	// #13324
  209450:	f2a20421 	movk	x1, #0x1021, lsl #16
  209454:	b9000020 	str	w0, [x1]
  209458:	d29c8181 	mov	x1, #0xe40c                	// #58380
  20945c:	f2a20401 	movk	x1, #0x1020, lsl #16
  209460:	b9000020 	str	w0, [x1]
  209464:	d2888301 	mov	x1, #0x4418                	// #17432
  209468:	f2a20421 	movk	x1, #0x1021, lsl #16
  20946c:	528042c0 	mov	w0, #0x216                 	// #534
  209470:	b9000020 	str	w0, [x1]
  209474:	d2868301 	mov	x1, #0x3418                	// #13336
  209478:	f2a20421 	movk	x1, #0x1021, lsl #16
  20947c:	b9000020 	str	w0, [x1]
  209480:	d29c8301 	mov	x1, #0xe418                	// #58392
  209484:	f2a20401 	movk	x1, #0x1020, lsl #16
  209488:	b9000020 	str	w0, [x1]
  20948c:	d2888381 	mov	x1, #0x441c                	// #17436
  209490:	f2a20421 	movk	x1, #0x1021, lsl #16
  209494:	52888880 	mov	w0, #0x4444                	// #17476
  209498:	72a66660 	movk	w0, #0x3333, lsl #16
  20949c:	b9000020 	str	w0, [x1]
  2094a0:	d2868381 	mov	x1, #0x341c                	// #13340
  2094a4:	f2a20421 	movk	x1, #0x1021, lsl #16
  2094a8:	b9000020 	str	w0, [x1]
  2094ac:	d29c8381 	mov	x1, #0xe41c                	// #58396
  2094b0:	f2a20401 	movk	x1, #0x1020, lsl #16
  2094b4:	b9000020 	str	w0, [x1]
  2094b8:	d2888401 	mov	x1, #0x4420                	// #17440
  2094bc:	f2a20421 	movk	x1, #0x1021, lsl #16
  2094c0:	b9000020 	str	w0, [x1]
  2094c4:	d2868401 	mov	x1, #0x3420                	// #13344
  2094c8:	f2a20421 	movk	x1, #0x1021, lsl #16
  2094cc:	b9000020 	str	w0, [x1]
  2094d0:	d29c8401 	mov	x1, #0xe420                	// #58400
  2094d4:	f2a20401 	movk	x1, #0x1020, lsl #16
  2094d8:	b9000020 	str	w0, [x1]
  2094dc:	d2888481 	mov	x1, #0x4424                	// #17444
  2094e0:	f2a20421 	movk	x1, #0x1021, lsl #16
  2094e4:	b9000020 	str	w0, [x1]
  2094e8:	d2868481 	mov	x1, #0x3424                	// #13348
  2094ec:	f2a20421 	movk	x1, #0x1021, lsl #16
  2094f0:	b9000020 	str	w0, [x1]
  2094f4:	d29c8481 	mov	x1, #0xe424                	// #58404
  2094f8:	f2a20401 	movk	x1, #0x1020, lsl #16
  2094fc:	b9000020 	str	w0, [x1]
  209500:	d2888501 	mov	x1, #0x4428                	// #17448
  209504:	f2a20421 	movk	x1, #0x1021, lsl #16
  209508:	12955540 	mov	w0, #0xffff5555            	// #-43691
  20950c:	b9000020 	str	w0, [x1]
  209510:	d2868501 	mov	x1, #0x3428                	// #13352
  209514:	f2a20421 	movk	x1, #0x1021, lsl #16
  209518:	b9000020 	str	w0, [x1]
  20951c:	d29c8501 	mov	x1, #0xe428                	// #58408
  209520:	f2a20401 	movk	x1, #0x1020, lsl #16
  209524:	b9000020 	str	w0, [x1]
  209528:	d2888581 	mov	x1, #0x442c                	// #17452
  20952c:	f2a20421 	movk	x1, #0x1021, lsl #16
  209530:	52800aa0 	mov	w0, #0x55                  	// #85
  209534:	72a01fe0 	movk	w0, #0xff, lsl #16
  209538:	b9000020 	str	w0, [x1]
  20953c:	d2868581 	mov	x1, #0x342c                	// #13356
  209540:	f2a20421 	movk	x1, #0x1021, lsl #16
  209544:	b9000020 	str	w0, [x1]
  209548:	d29c8581 	mov	x1, #0xe42c                	// #58412
  20954c:	f2a20401 	movk	x1, #0x1020, lsl #16
  209550:	b9000020 	str	w0, [x1]
  209554:	d2888201 	mov	x1, #0x4410                	// #17424
  209558:	f2a20421 	movk	x1, #0x1021, lsl #16
  20955c:	528aaaa0 	mov	w0, #0x5555                	// #21845
  209560:	72a090a0 	movk	w0, #0x485, lsl #16
  209564:	b9000020 	str	w0, [x1]
  209568:	d2868201 	mov	x1, #0x3410                	// #13328
  20956c:	f2a20421 	movk	x1, #0x1021, lsl #16
  209570:	b9000020 	str	w0, [x1]
  209574:	d29c8201 	mov	x1, #0xe410                	// #58384
  209578:	f2a20401 	movk	x1, #0x1020, lsl #16
  20957c:	b9000020 	str	w0, [x1]
  209580:	d2883f01 	mov	x1, #0x41f8                	// #16888
  209584:	b941b660 	ldr	w0, [x19, #436]
  209588:	f2a20421 	movk	x1, #0x1021, lsl #16
  20958c:	b9000020 	str	w0, [x1]
  209590:	d2863f01 	mov	x1, #0x31f8                	// #12792
  209594:	f2a20421 	movk	x1, #0x1021, lsl #16
  209598:	b9000020 	str	w0, [x1]
  20959c:	d29c3f01 	mov	x1, #0xe1f8                	// #57848
  2095a0:	f2a20401 	movk	x1, #0x1020, lsl #16
  2095a4:	b9000020 	str	w0, [x1]
  2095a8:	d2883c00 	mov	x0, #0x41e0                	// #16864
  2095ac:	f2a20420 	movk	x0, #0x1021, lsl #16
  2095b0:	b900001f 	str	wzr, [x0]
  2095b4:	d2863c00 	mov	x0, #0x31e0                	// #12768
  2095b8:	f2a20420 	movk	x0, #0x1021, lsl #16
  2095bc:	b900001f 	str	wzr, [x0]
  2095c0:	d29c3c00 	mov	x0, #0xe1e0                	// #57824
  2095c4:	f2a20400 	movk	x0, #0x1020, lsl #16
  2095c8:	b900001f 	str	wzr, [x0]
  2095cc:	d2884780 	mov	x0, #0x423c                	// #16956
  2095d0:	f2a20420 	movk	x0, #0x1021, lsl #16
  2095d4:	b900001f 	str	wzr, [x0]
  2095d8:	d2864780 	mov	x0, #0x323c                	// #12860
  2095dc:	f2a20420 	movk	x0, #0x1021, lsl #16
  2095e0:	b900001f 	str	wzr, [x0]
  2095e4:	d29c4780 	mov	x0, #0xe23c                	// #57916
  2095e8:	f2a20400 	movk	x0, #0x1020, lsl #16
  2095ec:	b900001f 	str	wzr, [x0]
  2095f0:	f94037e0 	ldr	x0, [sp, #104]
  2095f4:	b9400417 	ldr	w23, [x0, #4]
  2095f8:	710012ff 	cmp	w23, #0x4
  2095fc:	540072c1 	b.ne	20a454 <mtk_set_emi_dram+0x12dc>  // b.any
  209600:	d2881f01 	mov	x1, #0x40f8                	// #16632
  209604:	52840000 	mov	w0, #0x2000                	// #8192
  209608:	f2a20421 	movk	x1, #0x1021, lsl #16
  20960c:	72bdb960 	movk	w0, #0xedcb, lsl #16
  209610:	52800205 	mov	w5, #0x10                  	// #16
  209614:	d2883c11 	mov	x17, #0x41e0                	// #16864
  209618:	b9000020 	str	w0, [x1]
  20961c:	d2861f01 	mov	x1, #0x30f8                	// #12536
  209620:	f2a20421 	movk	x1, #0x1021, lsl #16
  209624:	f2a20431 	movk	x17, #0x1021, lsl #16
  209628:	d2863c10 	mov	x16, #0x31e0                	// #12768
  20962c:	d29c3c0f 	mov	x15, #0xe1e0                	// #57824
  209630:	b9000020 	str	w0, [x1]
  209634:	d29c1f01 	mov	x1, #0xe0f8                	// #57592
  209638:	f2a20401 	movk	x1, #0x1020, lsl #16
  20963c:	f2a20430 	movk	x16, #0x1021, lsl #16
  209640:	f2a2040f 	movk	x15, #0x1020, lsl #16
  209644:	d288478e 	mov	x14, #0x423c                	// #16956
  209648:	b9000020 	str	w0, [x1]
  20964c:	d2881181 	mov	x1, #0x408c                	// #16524
  209650:	f2a20421 	movk	x1, #0x1021, lsl #16
  209654:	52a01c00 	mov	w0, #0xe00000              	// #14680064
  209658:	f2a2042e 	movk	x14, #0x1021, lsl #16
  20965c:	d2864787 	mov	x7, #0x323c                	// #12860
  209660:	b9000020 	str	w0, [x1]
  209664:	d2861181 	mov	x1, #0x308c                	// #12428
  209668:	f2a20421 	movk	x1, #0x1021, lsl #16
  20966c:	f2a20427 	movk	x7, #0x1021, lsl #16
  209670:	d29c4786 	mov	x6, #0xe23c                	// #57916
  209674:	5288001b 	mov	w27, #0x4000                	// #16384
  209678:	b9000020 	str	w0, [x1]
  20967c:	d29c1181 	mov	x1, #0xe08c                	// #57484
  209680:	f2a20401 	movk	x1, #0x1020, lsl #16
  209684:	f2a20406 	movk	x6, #0x1020, lsl #16
  209688:	d2881b04 	mov	x4, #0x40d8                	// #16600
  20968c:	d2861b03 	mov	x3, #0x30d8                	// #12504
  209690:	b9000020 	str	w0, [x1]
  209694:	d288c800 	mov	x0, #0x4640                	// #17984
  209698:	f2a20420 	movk	x0, #0x1021, lsl #16
  20969c:	d2881e81 	mov	x1, #0x40f4                	// #16628
  2096a0:	f2a20421 	movk	x1, #0x1021, lsl #16
  2096a4:	f2a20424 	movk	x4, #0x1021, lsl #16
  2096a8:	b9000005 	str	w5, [x0]
  2096ac:	d286c800 	mov	x0, #0x3640                	// #13888
  2096b0:	f2a20420 	movk	x0, #0x1021, lsl #16
  2096b4:	f2a20423 	movk	x3, #0x1021, lsl #16
  2096b8:	d29c1b0a 	mov	x10, #0xe0d8                	// #57560
  2096bc:	d288009a 	mov	x26, #0x4004                	// #16388
  2096c0:	b9000005 	str	w5, [x0]
  2096c4:	d29cc800 	mov	x0, #0xe640                	// #58944
  2096c8:	f2a20400 	movk	x0, #0x1020, lsl #16
  2096cc:	f2a2040a 	movk	x10, #0x1020, lsl #16
  2096d0:	f2a2043a 	movk	x26, #0x1021, lsl #16
  2096d4:	d2860099 	mov	x25, #0x3004                	// #12292
  2096d8:	b9000005 	str	w5, [x0]
  2096dc:	52a22000 	mov	w0, #0x11000000            	// #285212672
  2096e0:	b900023f 	str	wzr, [x17]
  2096e4:	f2a20439 	movk	x25, #0x1021, lsl #16
  2096e8:	b900021f 	str	wzr, [x16]
  2096ec:	d29c0098 	mov	x24, #0xe004                	// #57348
  2096f0:	b90001ff 	str	wzr, [x15]
  2096f4:	f2a20418 	movk	x24, #0x1020, lsl #16
  2096f8:	b90001df 	str	wzr, [x14]
  2096fc:	d2860109 	mov	x9, #0x3008                	// #12296
  209700:	b90000ff 	str	wzr, [x7]
  209704:	f2a20429 	movk	x9, #0x1021, lsl #16
  209708:	b90000df 	str	wzr, [x6]
  20970c:	d29c0108 	mov	x8, #0xe008                	// #57352
  209710:	b9000020 	str	w0, [x1]
  209714:	d2861e81 	mov	x1, #0x30f4                	// #12532
  209718:	f2a20421 	movk	x1, #0x1021, lsl #16
  20971c:	f2a20408 	movk	x8, #0x1020, lsl #16
  209720:	d2880f82 	mov	x2, #0x407c                	// #16508
  209724:	d29c0f9c 	mov	x28, #0xe07c                	// #57468
  209728:	b9000020 	str	w0, [x1]
  20972c:	d29c1e81 	mov	x1, #0xe0f4                	// #57588
  209730:	f2a20401 	movk	x1, #0x1020, lsl #16
  209734:	f2a20422 	movk	x2, #0x1021, lsl #16
  209738:	f2a2041c 	movk	x28, #0x1020, lsl #16
  20973c:	d2881f8b 	mov	x11, #0x40fc                	// #16636
  209740:	b9000020 	str	w0, [x1]
  209744:	d288d300 	mov	x0, #0x4698                	// #18072
  209748:	f2a20420 	movk	x0, #0x1021, lsl #16
  20974c:	d288c781 	mov	x1, #0x463c                	// #17980
  209750:	f2a20421 	movk	x1, #0x1021, lsl #16
  209754:	f2a2042b 	movk	x11, #0x1021, lsl #16
  209758:	b900001b 	str	w27, [x0]
  20975c:	d286d300 	mov	x0, #0x3698                	// #13976
  209760:	f2a20420 	movk	x0, #0x1021, lsl #16
  209764:	d288220d 	mov	x13, #0x4110                	// #16656
  209768:	f2a2042d 	movk	x13, #0x1021, lsl #16
  20976c:	d286220c 	mov	x12, #0x3110                	// #12560
  209770:	b900001b 	str	w27, [x0]
  209774:	d29cd300 	mov	x0, #0xe698                	// #59032
  209778:	f2a20400 	movk	x0, #0x1020, lsl #16
  20977c:	f2a2042c 	movk	x12, #0x1021, lsl #16
  209780:	d2888612 	mov	x18, #0x4430                	// #17456
  209784:	d2888094 	mov	x20, #0x4404                	// #17412
  209788:	b900001b 	str	w27, [x0]
  20978c:	528000c0 	mov	w0, #0x6                   	// #6
  209790:	b9000020 	str	w0, [x1]
  209794:	d286c781 	mov	x1, #0x363c                	// #13884
  209798:	f2a20421 	movk	x1, #0x1021, lsl #16
  20979c:	f2a20432 	movk	x18, #0x1021, lsl #16
  2097a0:	f2a20434 	movk	x20, #0x1021, lsl #16
  2097a4:	d2882495 	mov	x21, #0x4124                	// #16676
  2097a8:	b9000020 	str	w0, [x1]
  2097ac:	d29cc781 	mov	x1, #0xe63c                	// #58940
  2097b0:	f2a20401 	movk	x1, #0x1020, lsl #16
  2097b4:	f2a20435 	movk	x21, #0x1021, lsl #16
  2097b8:	d2882716 	mov	x22, #0x4138                	// #16696
  2097bc:	b9000020 	str	w0, [x1]
  2097c0:	d288b801 	mov	x1, #0x45c0                	// #17856
  2097c4:	f2a20421 	movk	x1, #0x1021, lsl #16
  2097c8:	529ff060 	mov	w0, #0xff83                	// #65411
  2097cc:	72a42ac0 	movk	w0, #0x2156, lsl #16
  2097d0:	f2a20436 	movk	x22, #0x1021, lsl #16
  2097d4:	b9000020 	str	w0, [x1]
  2097d8:	d286b801 	mov	x1, #0x35c0                	// #13760
  2097dc:	f2a20421 	movk	x1, #0x1021, lsl #16
  2097e0:	9102b2d6 	add	x22, x22, #0xac
  2097e4:	b9000020 	str	w0, [x1]
  2097e8:	d29cb801 	mov	x1, #0xe5c0                	// #58816
  2097ec:	f2a20401 	movk	x1, #0x1020, lsl #16
  2097f0:	b9000020 	str	w0, [x1]
  2097f4:	d288b901 	mov	x1, #0x45c8                	// #17864
  2097f8:	f2a20421 	movk	x1, #0x1021, lsl #16
  2097fc:	52820200 	mov	w0, #0x1010                	// #4112
  209800:	b9000020 	str	w0, [x1]
  209804:	d286b901 	mov	x1, #0x35c8                	// #13768
  209808:	f2a20421 	movk	x1, #0x1021, lsl #16
  20980c:	b9000020 	str	w0, [x1]
  209810:	d29cb901 	mov	x1, #0xe5c8                	// #58824
  209814:	f2a20401 	movk	x1, #0x1020, lsl #16
  209818:	b9000020 	str	w0, [x1]
  20981c:	d288b980 	mov	x0, #0x45cc                	// #17868
  209820:	f2a20420 	movk	x0, #0x1021, lsl #16
  209824:	d2880001 	mov	x1, #0x4000                	// #16384
  209828:	f2a20421 	movk	x1, #0x1021, lsl #16
  20982c:	b900001f 	str	wzr, [x0]
  209830:	d286b980 	mov	x0, #0x35cc                	// #13772
  209834:	f2a20420 	movk	x0, #0x1021, lsl #16
  209838:	b900001f 	str	wzr, [x0]
  20983c:	d29cb980 	mov	x0, #0xe5cc                	// #58828
  209840:	f2a20400 	movk	x0, #0x1020, lsl #16
  209844:	b900001f 	str	wzr, [x0]
  209848:	52a80000 	mov	w0, #0x40000000            	// #1073741824
  20984c:	b9000080 	str	w0, [x4]
  209850:	b9000060 	str	w0, [x3]
  209854:	b9000140 	str	w0, [x10]
  209858:	b9419260 	ldr	w0, [x19, #400]
  20985c:	b9000020 	str	w0, [x1]
  209860:	d2860001 	mov	x1, #0x3000                	// #12288
  209864:	f2a20421 	movk	x1, #0x1021, lsl #16
  209868:	b9000020 	str	w0, [x1]
  20986c:	d29c0001 	mov	x1, #0xe000                	// #57344
  209870:	f2a20401 	movk	x1, #0x1020, lsl #16
  209874:	b9000020 	str	w0, [x1]
  209878:	52805c40 	mov	w0, #0x2e2                 	// #738
  20987c:	72be0e80 	movk	w0, #0xf074, lsl #16
  209880:	d2880101 	mov	x1, #0x4008                	// #16392
  209884:	b9000340 	str	w0, [x26]
  209888:	f2a20421 	movk	x1, #0x1021, lsl #16
  20988c:	b9000320 	str	w0, [x25]
  209890:	b9000300 	str	w0, [x24]
  209894:	52960a00 	mov	w0, #0xb050                	// #45136
  209898:	72a21600 	movk	w0, #0x10b0, lsl #16
  20989c:	b9000020 	str	w0, [x1]
  2098a0:	b9000120 	str	w0, [x9]
  2098a4:	b9000100 	str	w0, [x8]
  2098a8:	b941a260 	ldr	w0, [x19, #416]
  2098ac:	b9003c20 	str	w0, [x1, #60]
  2098b0:	d2860881 	mov	x1, #0x3044                	// #12356
  2098b4:	f2a20421 	movk	x1, #0x1021, lsl #16
  2098b8:	b9000020 	str	w0, [x1]
  2098bc:	d29c0881 	mov	x1, #0xe044                	// #57412
  2098c0:	f2a20401 	movk	x1, #0x1020, lsl #16
  2098c4:	b9000020 	str	w0, [x1]
  2098c8:	d2860f81 	mov	x1, #0x307c                	// #12412
  2098cc:	f2a20421 	movk	x1, #0x1021, lsl #16
  2098d0:	b9419e60 	ldr	w0, [x19, #412]
  2098d4:	b9000040 	str	w0, [x2]
  2098d8:	b9000020 	str	w0, [x1]
  2098dc:	b9000380 	str	w0, [x28]
  2098e0:	b941b260 	ldr	w0, [x19, #432]
  2098e4:	b9000160 	str	w0, [x11]
  2098e8:	d2861f8b 	mov	x11, #0x30fc                	// #12540
  2098ec:	f2a2042b 	movk	x11, #0x1021, lsl #16
  2098f0:	b9000160 	str	w0, [x11]
  2098f4:	d29c1f8b 	mov	x11, #0xe0fc                	// #57596
  2098f8:	f2a2040b 	movk	x11, #0x1020, lsl #16
  2098fc:	b9000160 	str	w0, [x11]
  209900:	d2883b8b 	mov	x11, #0x41dc                	// #16860
  209904:	f2a2042b 	movk	x11, #0x1021, lsl #16
  209908:	b941aa60 	ldr	w0, [x19, #424]
  20990c:	12007400 	and	w0, w0, #0x3fffffff
  209910:	b9000160 	str	w0, [x11]
  209914:	d2863b8b 	mov	x11, #0x31dc                	// #12764
  209918:	f2a2042b 	movk	x11, #0x1021, lsl #16
  20991c:	b9000160 	str	w0, [x11]
  209920:	d29c3b8b 	mov	x11, #0xe1dc                	// #57820
  209924:	f2a2040b 	movk	x11, #0x1020, lsl #16
  209928:	b9000160 	str	w0, [x11]
  20992c:	d2883d0b 	mov	x11, #0x41e8                	// #16872
  209930:	f2a2042b 	movk	x11, #0x1021, lsl #16
  209934:	b941ae60 	ldr	w0, [x19, #428]
  209938:	b9000160 	str	w0, [x11]
  20993c:	d2863d0b 	mov	x11, #0x31e8                	// #12776
  209940:	f2a2042b 	movk	x11, #0x1021, lsl #16
  209944:	b9000160 	str	w0, [x11]
  209948:	d29c3d0b 	mov	x11, #0xe1e8                	// #57832
  20994c:	f2a2040b 	movk	x11, #0x1020, lsl #16
  209950:	b9000160 	str	w0, [x11]
  209954:	d2883f0b 	mov	x11, #0x41f8                	// #16888
  209958:	f2a2042b 	movk	x11, #0x1021, lsl #16
  20995c:	b941b660 	ldr	w0, [x19, #436]
  209960:	b9000160 	str	w0, [x11]
  209964:	d2863f0b 	mov	x11, #0x31f8                	// #12792
  209968:	f2a2042b 	movk	x11, #0x1021, lsl #16
  20996c:	b9000160 	str	w0, [x11]
  209970:	d29c3f0b 	mov	x11, #0xe1f8                	// #57848
  209974:	f2a2040b 	movk	x11, #0x1020, lsl #16
  209978:	b9000160 	str	w0, [x11]
  20997c:	d288090b 	mov	x11, #0x4048                	// #16456
  209980:	f2a2042b 	movk	x11, #0x1021, lsl #16
  209984:	b941be60 	ldr	w0, [x19, #444]
  209988:	b9000160 	str	w0, [x11]
  20998c:	d286090b 	mov	x11, #0x3048                	// #12360
  209990:	f2a2042b 	movk	x11, #0x1021, lsl #16
  209994:	b9000160 	str	w0, [x11]
  209998:	d29c090b 	mov	x11, #0xe048                	// #57416
  20999c:	f2a2040b 	movk	x11, #0x1020, lsl #16
  2099a0:	b9000160 	str	w0, [x11]
  2099a4:	5288b000 	mov	w0, #0x4580                	// #17792
  2099a8:	72a074c0 	movk	w0, #0x3a6, lsl #16
  2099ac:	b90001a0 	str	w0, [x13]
  2099b0:	b9000180 	str	w0, [x12]
  2099b4:	b900c960 	str	w0, [x11, #200]
  2099b8:	52821fe0 	mov	w0, #0x10ff                	// #4351
  2099bc:	72a21fe0 	movk	w0, #0x10ff, lsl #16
  2099c0:	b9000240 	str	w0, [x18]
  2099c4:	d2868612 	mov	x18, #0x3430                	// #13360
  2099c8:	f2a20432 	movk	x18, #0x1021, lsl #16
  2099cc:	b9000240 	str	w0, [x18]
  2099d0:	d29c8612 	mov	x18, #0xe430                	// #58416
  2099d4:	f2a20412 	movk	x18, #0x1020, lsl #16
  2099d8:	b9000240 	str	w0, [x18]
  2099dc:	d2888692 	mov	x18, #0x4434                	// #17460
  2099e0:	f2a20432 	movk	x18, #0x1021, lsl #16
  2099e4:	12800000 	mov	w0, #0xffffffff            	// #-1
  2099e8:	b9000240 	str	w0, [x18]
  2099ec:	d2868692 	mov	x18, #0x3434                	// #13364
  2099f0:	f2a20432 	movk	x18, #0x1021, lsl #16
  2099f4:	b9000240 	str	w0, [x18]
  2099f8:	d29c8692 	mov	x18, #0xe434                	// #58420
  2099fc:	f2a20412 	movk	x18, #0x1020, lsl #16
  209a00:	b9000240 	str	w0, [x18]
  209a04:	d2888712 	mov	x18, #0x4438                	// #17464
  209a08:	f2a20432 	movk	x18, #0x1021, lsl #16
  209a0c:	b9000240 	str	w0, [x18]
  209a10:	d2868712 	mov	x18, #0x3438                	// #13368
  209a14:	f2a20432 	movk	x18, #0x1021, lsl #16
  209a18:	b9000240 	str	w0, [x18]
  209a1c:	d29c8712 	mov	x18, #0xe438                	// #58424
  209a20:	f2a20412 	movk	x18, #0x1020, lsl #16
  209a24:	b9000240 	str	w0, [x18]
  209a28:	d2888792 	mov	x18, #0x443c                	// #17468
  209a2c:	f2a20432 	movk	x18, #0x1021, lsl #16
  209a30:	528003e0 	mov	w0, #0x1f                  	// #31
  209a34:	b9000240 	str	w0, [x18]
  209a38:	d2868792 	mov	x18, #0x343c                	// #13372
  209a3c:	f2a20432 	movk	x18, #0x1021, lsl #16
  209a40:	b9000240 	str	w0, [x18]
  209a44:	d29c8792 	mov	x18, #0xe43c                	// #58428
  209a48:	f2a20412 	movk	x18, #0x1020, lsl #16
  209a4c:	b9000240 	str	w0, [x18]
  209a50:	d2888012 	mov	x18, #0x4400                	// #17408
  209a54:	f2a20432 	movk	x18, #0x1021, lsl #16
  209a58:	3200e3e0 	mov	w0, #0x11111111            	// #286331153
  209a5c:	b9000240 	str	w0, [x18]
  209a60:	d2868012 	mov	x18, #0x3400                	// #13312
  209a64:	f2a20432 	movk	x18, #0x1021, lsl #16
  209a68:	b9000240 	str	w0, [x18]
  209a6c:	d29c8012 	mov	x18, #0xe400                	// #58368
  209a70:	f2a20412 	movk	x18, #0x1020, lsl #16
  209a74:	b9000240 	str	w0, [x18]
  209a78:	52802232 	mov	w18, #0x111                 	// #273
  209a7c:	72a02032 	movk	w18, #0x101, lsl #16
  209a80:	b9000292 	str	w18, [x20]
  209a84:	d2868094 	mov	x20, #0x3404                	// #13316
  209a88:	f2a20434 	movk	x20, #0x1021, lsl #16
  209a8c:	b9000292 	str	w18, [x20]
  209a90:	d29c8094 	mov	x20, #0xe404                	// #58372
  209a94:	f2a20414 	movk	x20, #0x1020, lsl #16
  209a98:	b9000292 	str	w18, [x20]
  209a9c:	d2888112 	mov	x18, #0x4408                	// #17416
  209aa0:	f2a20432 	movk	x18, #0x1021, lsl #16
  209aa4:	d2862494 	mov	x20, #0x3124                	// #12580
  209aa8:	f2a20434 	movk	x20, #0x1021, lsl #16
  209aac:	b9000240 	str	w0, [x18]
  209ab0:	d2868112 	mov	x18, #0x3408                	// #13320
  209ab4:	f2a20432 	movk	x18, #0x1021, lsl #16
  209ab8:	b9000240 	str	w0, [x18]
  209abc:	d29c8112 	mov	x18, #0xe408                	// #58376
  209ac0:	f2a20412 	movk	x18, #0x1020, lsl #16
  209ac4:	b9000240 	str	w0, [x18]
  209ac8:	d2888192 	mov	x18, #0x440c                	// #17420
  209acc:	f2a20432 	movk	x18, #0x1021, lsl #16
  209ad0:	b9000240 	str	w0, [x18]
  209ad4:	d2868192 	mov	x18, #0x340c                	// #13324
  209ad8:	f2a20432 	movk	x18, #0x1021, lsl #16
  209adc:	b9000240 	str	w0, [x18]
  209ae0:	d29c8192 	mov	x18, #0xe40c                	// #58380
  209ae4:	f2a20412 	movk	x18, #0x1020, lsl #16
  209ae8:	b9000240 	str	w0, [x18]
  209aec:	d2888212 	mov	x18, #0x4410                	// #17424
  209af0:	f2a20432 	movk	x18, #0x1021, lsl #16
  209af4:	528aaaa0 	mov	w0, #0x5555                	// #21845
  209af8:	72a0eaa0 	movk	w0, #0x755, lsl #16
  209afc:	b9000240 	str	w0, [x18]
  209b00:	d2868212 	mov	x18, #0x3410                	// #13328
  209b04:	f2a20432 	movk	x18, #0x1021, lsl #16
  209b08:	b9000240 	str	w0, [x18]
  209b0c:	d29c8212 	mov	x18, #0xe410                	// #58384
  209b10:	f2a20412 	movk	x18, #0x1020, lsl #16
  209b14:	b9000240 	str	w0, [x18]
  209b18:	d2888292 	mov	x18, #0x4414                	// #17428
  209b1c:	f2a20432 	movk	x18, #0x1021, lsl #16
  209b20:	3200f3e0 	mov	w0, #0x55555555            	// #1431655765
  209b24:	b9000240 	str	w0, [x18]
  209b28:	d2868292 	mov	x18, #0x3414                	// #13332
  209b2c:	f2a20432 	movk	x18, #0x1021, lsl #16
  209b30:	b9000240 	str	w0, [x18]
  209b34:	d29c8292 	mov	x18, #0xe414                	// #58388
  209b38:	f2a20412 	movk	x18, #0x1020, lsl #16
  209b3c:	b9000240 	str	w0, [x18]
  209b40:	d2888312 	mov	x18, #0x4418                	// #17432
  209b44:	f2a20432 	movk	x18, #0x1021, lsl #16
  209b48:	528042e0 	mov	w0, #0x217                 	// #535
  209b4c:	b9000240 	str	w0, [x18]
  209b50:	d2868312 	mov	x18, #0x3418                	// #13336
  209b54:	f2a20432 	movk	x18, #0x1021, lsl #16
  209b58:	b9000240 	str	w0, [x18]
  209b5c:	d29c8312 	mov	x18, #0xe418                	// #58392
  209b60:	f2a20412 	movk	x18, #0x1020, lsl #16
  209b64:	b9000240 	str	w0, [x18]
  209b68:	d2888392 	mov	x18, #0x441c                	// #17436
  209b6c:	f2a20432 	movk	x18, #0x1021, lsl #16
  209b70:	3203e3e0 	mov	w0, #0x22222222            	// #572662306
  209b74:	b9000240 	str	w0, [x18]
  209b78:	d2868392 	mov	x18, #0x341c                	// #13340
  209b7c:	f2a20432 	movk	x18, #0x1021, lsl #16
  209b80:	b9000240 	str	w0, [x18]
  209b84:	d29c8392 	mov	x18, #0xe41c                	// #58396
  209b88:	f2a20412 	movk	x18, #0x1020, lsl #16
  209b8c:	b9000240 	str	w0, [x18]
  209b90:	d2888412 	mov	x18, #0x4420                	// #17440
  209b94:	f2a20432 	movk	x18, #0x1021, lsl #16
  209b98:	b9000240 	str	w0, [x18]
  209b9c:	d2868412 	mov	x18, #0x3420                	// #13344
  209ba0:	f2a20432 	movk	x18, #0x1021, lsl #16
  209ba4:	b9000240 	str	w0, [x18]
  209ba8:	d29c8412 	mov	x18, #0xe420                	// #58400
  209bac:	f2a20412 	movk	x18, #0x1020, lsl #16
  209bb0:	b9000240 	str	w0, [x18]
  209bb4:	d2888492 	mov	x18, #0x4424                	// #17444
  209bb8:	f2a20432 	movk	x18, #0x1021, lsl #16
  209bbc:	b9000240 	str	w0, [x18]
  209bc0:	d2868492 	mov	x18, #0x3424                	// #13348
  209bc4:	f2a20432 	movk	x18, #0x1021, lsl #16
  209bc8:	b9000240 	str	w0, [x18]
  209bcc:	d29c8492 	mov	x18, #0xe424                	// #58404
  209bd0:	f2a20412 	movk	x18, #0x1020, lsl #16
  209bd4:	b9000240 	str	w0, [x18]
  209bd8:	d2888512 	mov	x18, #0x4428                	// #17448
  209bdc:	f2a20432 	movk	x18, #0x1021, lsl #16
  209be0:	12b55540 	mov	w0, #0x5555ffff            	// #1431699455
  209be4:	b9000240 	str	w0, [x18]
  209be8:	d2868512 	mov	x18, #0x3428                	// #13352
  209bec:	f2a20432 	movk	x18, #0x1021, lsl #16
  209bf0:	b9000240 	str	w0, [x18]
  209bf4:	d29c8512 	mov	x18, #0xe428                	// #58408
  209bf8:	f2a20412 	movk	x18, #0x1020, lsl #16
  209bfc:	b9000240 	str	w0, [x18]
  209c00:	d2888592 	mov	x18, #0x442c                	// #17452
  209c04:	f2a20432 	movk	x18, #0x1021, lsl #16
  209c08:	52801fe0 	mov	w0, #0xff                  	// #255
  209c0c:	72a00aa0 	movk	w0, #0x55, lsl #16
  209c10:	b9000240 	str	w0, [x18]
  209c14:	d2868592 	mov	x18, #0x342c                	// #13356
  209c18:	f2a20432 	movk	x18, #0x1021, lsl #16
  209c1c:	b9000240 	str	w0, [x18]
  209c20:	d29c8592 	mov	x18, #0xe42c                	// #58412
  209c24:	f2a20412 	movk	x18, #0x1020, lsl #16
  209c28:	b9000240 	str	w0, [x18]
  209c2c:	52800220 	mov	w0, #0x11                  	// #17
  209c30:	d29c2492 	mov	x18, #0xe124                	// #57636
  209c34:	72bd4000 	movk	w0, #0xea00, lsl #16
  209c38:	f2a20412 	movk	x18, #0x1020, lsl #16
  209c3c:	b90002a0 	str	w0, [x21]
  209c40:	b9000280 	str	w0, [x20]
  209c44:	b9000240 	str	w0, [x18]
  209c48:	52800220 	mov	w0, #0x11                  	// #17
  209c4c:	72b80100 	movk	w0, #0xc008, lsl #16
  209c50:	b90002a0 	str	w0, [x21]
  209c54:	d2862715 	mov	x21, #0x3138                	// #12600
  209c58:	b9000280 	str	w0, [x20]
  209c5c:	f2a20435 	movk	x21, #0x1021, lsl #16
  209c60:	d29c2714 	mov	x20, #0xe138                	// #57656
  209c64:	f2a20414 	movk	x20, #0x1020, lsl #16
  209c68:	b9000240 	str	w0, [x18]
  209c6c:	b81542c5 	stur	w5, [x22, #-172]
  209c70:	3200d3e0 	mov	w0, #0x1f1f1f1f            	// #522133279
  209c74:	b90002a5 	str	w5, [x21]
  209c78:	d2883892 	mov	x18, #0x41c4                	// #16836
  209c7c:	b9000285 	str	w5, [x20]
  209c80:	d2881305 	mov	x5, #0x4098                	// #16536
  209c84:	f2a20425 	movk	x5, #0x1021, lsl #16
  209c88:	f2a20432 	movk	x18, #0x1021, lsl #16
  209c8c:	9102b2b5 	add	x21, x21, #0xac
  209c90:	9102b294 	add	x20, x20, #0xac
  209c94:	b90000a0 	str	w0, [x5]
  209c98:	d2861305 	mov	x5, #0x3098                	// #12440
  209c9c:	f2a20425 	movk	x5, #0x1021, lsl #16
  209ca0:	b90000a0 	str	w0, [x5]
  209ca4:	d29c1305 	mov	x5, #0xe098                	// #57496
  209ca8:	f2a20405 	movk	x5, #0x1020, lsl #16
  209cac:	b90000a0 	str	w0, [x5]
  209cb0:	d2881285 	mov	x5, #0x4094                	// #16532
  209cb4:	f2a20425 	movk	x5, #0x1021, lsl #16
  209cb8:	3202c3e0 	mov	w0, #0x40404040            	// #1077952576
  209cbc:	b90000a0 	str	w0, [x5]
  209cc0:	d2861285 	mov	x5, #0x3094                	// #12436
  209cc4:	f2a20425 	movk	x5, #0x1021, lsl #16
  209cc8:	b90000a0 	str	w0, [x5]
  209ccc:	d29c1285 	mov	x5, #0xe094                	// #57492
  209cd0:	f2a20405 	movk	x5, #0x1020, lsl #16
  209cd4:	b90000a0 	str	w0, [x5]
  209cd8:	d2890805 	mov	x5, #0x4840                	// #18496
  209cdc:	f2a20425 	movk	x5, #0x1021, lsl #16
  209ce0:	3200d7e0 	mov	w0, #0x3f3f3f3f            	// #1061109567
  209ce4:	b90000a0 	str	w0, [x5]
  209ce8:	d2870805 	mov	x5, #0x3840                	// #14400
  209cec:	f2a20425 	movk	x5, #0x1021, lsl #16
  209cf0:	b90000a0 	str	w0, [x5]
  209cf4:	d29d0805 	mov	x5, #0xe840                	// #59456
  209cf8:	f2a20405 	movk	x5, #0x1020, lsl #16
  209cfc:	b90000a0 	str	w0, [x5]
  209d00:	d2890885 	mov	x5, #0x4844                	// #18500
  209d04:	f2a20425 	movk	x5, #0x1021, lsl #16
  209d08:	b90000a0 	str	w0, [x5]
  209d0c:	d2870885 	mov	x5, #0x3844                	// #14404
  209d10:	f2a20425 	movk	x5, #0x1021, lsl #16
  209d14:	b90000a0 	str	w0, [x5]
  209d18:	d29d0885 	mov	x5, #0xe844                	// #59460
  209d1c:	f2a20405 	movk	x5, #0x1020, lsl #16
  209d20:	b90000a0 	str	w0, [x5]
  209d24:	d2888800 	mov	x0, #0x4440                	// #17472
  209d28:	b900023f 	str	wzr, [x17]
  209d2c:	f2a20420 	movk	x0, #0x1021, lsl #16
  209d30:	b900021f 	str	wzr, [x16]
  209d34:	d2883805 	mov	x5, #0x41c0                	// #16832
  209d38:	b90001ff 	str	wzr, [x15]
  209d3c:	f2a20425 	movk	x5, #0x1021, lsl #16
  209d40:	b900001f 	str	wzr, [x0]
  209d44:	d2868800 	mov	x0, #0x3440                	// #13376
  209d48:	f2a20420 	movk	x0, #0x1021, lsl #16
  209d4c:	d286388f 	mov	x15, #0x31c4                	// #12740
  209d50:	f2a2042f 	movk	x15, #0x1021, lsl #16
  209d54:	b900001f 	str	wzr, [x0]
  209d58:	d29c8800 	mov	x0, #0xe440                	// #58432
  209d5c:	f2a20400 	movk	x0, #0x1020, lsl #16
  209d60:	b900001f 	str	wzr, [x0]
  209d64:	d2888880 	mov	x0, #0x4444                	// #17476
  209d68:	f2a20420 	movk	x0, #0x1021, lsl #16
  209d6c:	b900001f 	str	wzr, [x0]
  209d70:	d2868880 	mov	x0, #0x3444                	// #13380
  209d74:	f2a20420 	movk	x0, #0x1021, lsl #16
  209d78:	b900001f 	str	wzr, [x0]
  209d7c:	d29c8880 	mov	x0, #0xe444                	// #58436
  209d80:	f2a20400 	movk	x0, #0x1020, lsl #16
  209d84:	b900001f 	str	wzr, [x0]
  209d88:	d2888900 	mov	x0, #0x4448                	// #17480
  209d8c:	f2a20420 	movk	x0, #0x1021, lsl #16
  209d90:	b900001f 	str	wzr, [x0]
  209d94:	d2868900 	mov	x0, #0x3448                	// #13384
  209d98:	f2a20420 	movk	x0, #0x1021, lsl #16
  209d9c:	b900001f 	str	wzr, [x0]
  209da0:	d29c8900 	mov	x0, #0xe448                	// #58440
  209da4:	f2a20400 	movk	x0, #0x1020, lsl #16
  209da8:	b900001f 	str	wzr, [x0]
  209dac:	d2888980 	mov	x0, #0x444c                	// #17484
  209db0:	f2a20420 	movk	x0, #0x1021, lsl #16
  209db4:	b900001f 	str	wzr, [x0]
  209db8:	d2868980 	mov	x0, #0x344c                	// #13388
  209dbc:	f2a20420 	movk	x0, #0x1021, lsl #16
  209dc0:	b900001f 	str	wzr, [x0]
  209dc4:	d29c8980 	mov	x0, #0xe44c                	// #58444
  209dc8:	f2a20400 	movk	x0, #0x1020, lsl #16
  209dcc:	b900001f 	str	wzr, [x0]
  209dd0:	d2888a00 	mov	x0, #0x4450                	// #17488
  209dd4:	f2a20420 	movk	x0, #0x1021, lsl #16
  209dd8:	b900001f 	str	wzr, [x0]
  209ddc:	d2868a00 	mov	x0, #0x3450                	// #13392
  209de0:	f2a20420 	movk	x0, #0x1021, lsl #16
  209de4:	b900001f 	str	wzr, [x0]
  209de8:	d29c8a00 	mov	x0, #0xe450                	// #58448
  209dec:	f2a20400 	movk	x0, #0x1020, lsl #16
  209df0:	b900001f 	str	wzr, [x0]
  209df4:	52991700 	mov	w0, #0xc8b8                	// #51384
  209df8:	b90001df 	str	wzr, [x14]
  209dfc:	d288050e 	mov	x14, #0x4028                	// #16424
  209e00:	b90000ff 	str	wzr, [x7]
  209e04:	f2a2042e 	movk	x14, #0x1021, lsl #16
  209e08:	b90000df 	str	wzr, [x6]
  209e0c:	d2860a86 	mov	x6, #0x3054                	// #12372
  209e10:	b90000a0 	str	w0, [x5]
  209e14:	d2863805 	mov	x5, #0x31c0                	// #12736
  209e18:	f2a20425 	movk	x5, #0x1021, lsl #16
  209e1c:	f2a20426 	movk	x6, #0x1021, lsl #16
  209e20:	b90000a0 	str	w0, [x5]
  209e24:	d29c3805 	mov	x5, #0xe1c0                	// #57792
  209e28:	f2a20405 	movk	x5, #0x1020, lsl #16
  209e2c:	b90000a0 	str	w0, [x5]
  209e30:	529082e0 	mov	w0, #0x8417                	// #33815
  209e34:	b81542c0 	stur	w0, [x22, #-172]
  209e38:	d29c0a85 	mov	x5, #0xe054                	// #57428
  209e3c:	b81542a0 	stur	w0, [x21, #-172]
  209e40:	f2a20405 	movk	x5, #0x1020, lsl #16
  209e44:	b8154280 	stur	w0, [x20, #-172]
  209e48:	52812000 	mov	w0, #0x900                 	// #2304
  209e4c:	b90e18e0 	str	w0, [x7, #3608]
  209e50:	b90000c0 	str	w0, [x6]
  209e54:	b90000a0 	str	w0, [x5]
  209e58:	529fe020 	mov	w0, #0xff01                	// #65281
  209e5c:	72ba6580 	movk	w0, #0xd32c, lsl #16
  209e60:	b90001c0 	str	w0, [x14]
  209e64:	d286050e 	mov	x14, #0x3028                	// #12328
  209e68:	f2a2042e 	movk	x14, #0x1021, lsl #16
  209e6c:	b90001c0 	str	w0, [x14]
  209e70:	d29c050e 	mov	x14, #0xe028                	// #57384
  209e74:	f2a2040e 	movk	x14, #0x1020, lsl #16
  209e78:	b90001c0 	str	w0, [x14]
  209e7c:	52a000e0 	mov	w0, #0x70000               	// #458752
  209e80:	b9000240 	str	w0, [x18]
  209e84:	b90001e0 	str	w0, [x15]
  209e88:	b9019dc0 	str	w0, [x14, #412]
  209e8c:	52801060 	mov	w0, #0x83                  	// #131
  209e90:	b90f3a00 	str	w0, [x16, #3896]
  209e94:	d2862310 	mov	x16, #0x3118                	// #12568
  209e98:	f2a20430 	movk	x16, #0x1021, lsl #16
  209e9c:	b9000200 	str	w0, [x16]
  209ea0:	d29c2310 	mov	x16, #0xe118                	// #57624
  209ea4:	f2a20410 	movk	x16, #0x1020, lsl #16
  209ea8:	b9000200 	str	w0, [x16]
  209eac:	d2881010 	mov	x16, #0x4080                	// #16512
  209eb0:	f2a20430 	movk	x16, #0x1021, lsl #16
  209eb4:	52811d20 	mov	w0, #0x8e9                 	// #2281
  209eb8:	72a01d80 	movk	w0, #0xec, lsl #16
  209ebc:	b9000200 	str	w0, [x16]
  209ec0:	d2861010 	mov	x16, #0x3080                	// #12416
  209ec4:	f2a20430 	movk	x16, #0x1021, lsl #16
  209ec8:	b9000200 	str	w0, [x16]
  209ecc:	d29c1010 	mov	x16, #0xe080                	// #57472
  209ed0:	f2a20410 	movk	x16, #0x1020, lsl #16
  209ed4:	b9000200 	str	w0, [x16]
  209ed8:	d2881c10 	mov	x16, #0x40e0                	// #16608
  209edc:	f2a20430 	movk	x16, #0x1021, lsl #16
  209ee0:	52804000 	mov	w0, #0x200                 	// #512
  209ee4:	72a26400 	movk	w0, #0x1320, lsl #16
  209ee8:	b9000200 	str	w0, [x16]
  209eec:	d2861c10 	mov	x16, #0x30e0                	// #12512
  209ef0:	f2a20430 	movk	x16, #0x1021, lsl #16
  209ef4:	b9000200 	str	w0, [x16]
  209ef8:	d29c1c10 	mov	x16, #0xe0e0                	// #57568
  209efc:	f2a20410 	movk	x16, #0x1020, lsl #16
  209f00:	b9000200 	str	w0, [x16]
  209f04:	d2881b90 	mov	x16, #0x40dc                	// #16604
  209f08:	f2a20430 	movk	x16, #0x1021, lsl #16
  209f0c:	52810000 	mov	w0, #0x800                 	// #2048
  209f10:	72a01000 	movk	w0, #0x80, lsl #16
  209f14:	b9000200 	str	w0, [x16]
  209f18:	d2861b90 	mov	x16, #0x30dc                	// #12508
  209f1c:	f2a20430 	movk	x16, #0x1021, lsl #16
  209f20:	b9000200 	str	w0, [x16]
  209f24:	d29c1b90 	mov	x16, #0xe0dc                	// #57564
  209f28:	f2a20410 	movk	x16, #0x1020, lsl #16
  209f2c:	b9000200 	str	w0, [x16]
  209f30:	52800020 	mov	w0, #0x1                   	// #1
  209f34:	97ffdf06 	bl	201b4c <udelay>
  209f38:	d2883892 	mov	x18, #0x41c4                	// #16836
  209f3c:	d286388f 	mov	x15, #0x31c4                	// #12740
  209f40:	f2a20432 	movk	x18, #0x1021, lsl #16
  209f44:	f2a2042f 	movk	x15, #0x1021, lsl #16
  209f48:	d29c388e 	mov	x14, #0xe1c4                	// #57796
  209f4c:	52a000a0 	mov	w0, #0x50000               	// #327680
  209f50:	f2a2040e 	movk	x14, #0x1020, lsl #16
  209f54:	b9000240 	str	w0, [x18]
  209f58:	b90001e0 	str	w0, [x15]
  209f5c:	d2881c92 	mov	x18, #0x40e4                	// #16612
  209f60:	b90001c0 	str	w0, [x14]
  209f64:	529082a0 	mov	w0, #0x8415                	// #33813
  209f68:	b81542c0 	stur	w0, [x22, #-172]
  209f6c:	f2a20432 	movk	x18, #0x1021, lsl #16
  209f70:	d2861c8f 	mov	x15, #0x30e4                	// #12516
  209f74:	b81542a0 	stur	w0, [x21, #-172]
  209f78:	f2a2042f 	movk	x15, #0x1021, lsl #16
  209f7c:	d29c1c8e 	mov	x14, #0xe0e4                	// #57572
  209f80:	b8154280 	stur	w0, [x20, #-172]
  209f84:	f2a2040e 	movk	x14, #0x1020, lsl #16
  209f88:	52900220 	mov	w0, #0x8011                	// #32785
  209f8c:	d2880101 	mov	x1, #0x4008                	// #16392
  209f90:	b9000240 	str	w0, [x18]
  209f94:	f2a20421 	movk	x1, #0x1021, lsl #16
  209f98:	d2860109 	mov	x9, #0x3008                	// #12296
  209f9c:	b90001e0 	str	w0, [x15]
  209fa0:	f2a20429 	movk	x9, #0x1021, lsl #16
  209fa4:	d29c0108 	mov	x8, #0xe008                	// #57352
  209fa8:	b90001c0 	str	w0, [x14]
  209fac:	52960000 	mov	w0, #0xb000                	// #45056
  209fb0:	f2a20408 	movk	x8, #0x1020, lsl #16
  209fb4:	72a21600 	movk	w0, #0x10b0, lsl #16
  209fb8:	d288220d 	mov	x13, #0x4110                	// #16656
  209fbc:	b9000020 	str	w0, [x1]
  209fc0:	f2a2042d 	movk	x13, #0x1021, lsl #16
  209fc4:	d286220c 	mov	x12, #0x3110                	// #12560
  209fc8:	b9000120 	str	w0, [x9]
  209fcc:	f2a2042c 	movk	x12, #0x1021, lsl #16
  209fd0:	d29c220b 	mov	x11, #0xe110                	// #57616
  209fd4:	b9000100 	str	w0, [x8]
  209fd8:	5288b240 	mov	w0, #0x4592                	// #17810
  209fdc:	f2a2040b 	movk	x11, #0x1020, lsl #16
  209fe0:	72a074c0 	movk	w0, #0x3a6, lsl #16
  209fe4:	b90001a0 	str	w0, [x13]
  209fe8:	b9000180 	str	w0, [x12]
  209fec:	b9000160 	str	w0, [x11]
  209ff0:	5290dc40 	mov	w0, #0x86e2                	// #34530
  209ff4:	72be0e80 	movk	w0, #0xf074, lsl #16
  209ff8:	b9000340 	str	w0, [x26]
  209ffc:	b9000320 	str	w0, [x25]
  20a000:	b9000300 	str	w0, [x24]
  20a004:	528002e0 	mov	w0, #0x17                  	// #23
  20a008:	b9000240 	str	w0, [x18]
  20a00c:	b90001e0 	str	w0, [x15]
  20a010:	b90001c0 	str	w0, [x14]
  20a014:	52800020 	mov	w0, #0x1                   	// #1
  20a018:	97ffdecd 	bl	201b4c <udelay>
  20a01c:	b90002d7 	str	w23, [x22]
  20a020:	b90002b7 	str	w23, [x21]
  20a024:	52800020 	mov	w0, #0x1                   	// #1
  20a028:	b9000297 	str	w23, [x20]
  20a02c:	b90002df 	str	wzr, [x22]
  20a030:	b90002bf 	str	wzr, [x21]
  20a034:	b900029f 	str	wzr, [x20]
  20a038:	97ffdec5 	bl	201b4c <udelay>
  20a03c:	b900875b 	str	w27, [x26, #132]
  20a040:	b900873b 	str	w27, [x25, #132]
  20a044:	b900871b 	str	w27, [x24, #132]
  20a048:	5280003b 	mov	w27, #0x1                   	// #1
  20a04c:	b90002db 	str	w27, [x22]
  20a050:	2a1b03e0 	mov	w0, w27
  20a054:	b90002bb 	str	w27, [x21]
  20a058:	b900029b 	str	w27, [x20]
  20a05c:	b90002df 	str	wzr, [x22]
  20a060:	b90002bf 	str	wzr, [x21]
  20a064:	b900029f 	str	wzr, [x20]
  20a068:	97ffdeb9 	bl	201b4c <udelay>
  20a06c:	528c0000 	mov	w0, #0x6000                	// #24576
  20a070:	b9008740 	str	w0, [x26, #132]
  20a074:	b9008720 	str	w0, [x25, #132]
  20a078:	b9008700 	str	w0, [x24, #132]
  20a07c:	2a1b03e0 	mov	w0, w27
  20a080:	b90002db 	str	w27, [x22]
  20a084:	b90002bb 	str	w27, [x21]
  20a088:	b900029b 	str	w27, [x20]
  20a08c:	b90002df 	str	wzr, [x22]
  20a090:	b90002bf 	str	wzr, [x21]
  20a094:	b900029f 	str	wzr, [x20]
  20a098:	97ffdead 	bl	201b4c <udelay>
  20a09c:	52840800 	mov	w0, #0x2040                	// #8256
  20a0a0:	b9008740 	str	w0, [x26, #132]
  20a0a4:	b9008720 	str	w0, [x25, #132]
  20a0a8:	b9008700 	str	w0, [x24, #132]
  20a0ac:	2a1b03e0 	mov	w0, w27
  20a0b0:	b90002db 	str	w27, [x22]
  20a0b4:	b90002bb 	str	w27, [x21]
  20a0b8:	b900029b 	str	w27, [x20]
  20a0bc:	b90002df 	str	wzr, [x22]
  20a0c0:	b90002bf 	str	wzr, [x21]
  20a0c4:	b900029f 	str	wzr, [x20]
  20a0c8:	97ffdea1 	bl	201b4c <udelay>
  20a0cc:	52816c60 	mov	w0, #0xb63                 	// #2915
  20a0d0:	b9008740 	str	w0, [x26, #132]
  20a0d4:	b9008720 	str	w0, [x25, #132]
  20a0d8:	b9008700 	str	w0, [x24, #132]
  20a0dc:	2a1b03e0 	mov	w0, w27
  20a0e0:	b90002db 	str	w27, [x22]
  20a0e4:	b90002bb 	str	w27, [x21]
  20a0e8:	b900029b 	str	w27, [x20]
  20a0ec:	b90002df 	str	wzr, [x22]
  20a0f0:	b90002bf 	str	wzr, [x21]
  20a0f4:	b900029f 	str	wzr, [x20]
  20a0f8:	97ffde95 	bl	201b4c <udelay>
  20a0fc:	b90002d7 	str	w23, [x22]
  20a100:	b90002b7 	str	w23, [x21]
  20a104:	2a1b03e0 	mov	w0, w27
  20a108:	b9000297 	str	w23, [x20]
  20a10c:	52800117 	mov	w23, #0x8                   	// #8
  20a110:	b90002df 	str	wzr, [x22]
  20a114:	b90002bf 	str	wzr, [x21]
  20a118:	b900029f 	str	wzr, [x20]
  20a11c:	97ffde8c 	bl	201b4c <udelay>
  20a120:	b90002d7 	str	w23, [x22]
  20a124:	b90002b7 	str	w23, [x21]
  20a128:	2a1b03e0 	mov	w0, w27
  20a12c:	b9000297 	str	w23, [x20]
  20a130:	b90002df 	str	wzr, [x22]
  20a134:	b90002bf 	str	wzr, [x21]
  20a138:	b900029f 	str	wzr, [x20]
  20a13c:	97ffde84 	bl	201b4c <udelay>
  20a140:	b90002d7 	str	w23, [x22]
  20a144:	b90002b7 	str	w23, [x21]
  20a148:	2a1b03e0 	mov	w0, w27
  20a14c:	b9000297 	str	w23, [x20]
  20a150:	b90002df 	str	wzr, [x22]
  20a154:	b90002bf 	str	wzr, [x21]
  20a158:	b900029f 	str	wzr, [x20]
  20a15c:	97ffde7c 	bl	201b4c <udelay>
  20a160:	52814c60 	mov	w0, #0xa63                 	// #2659
  20a164:	b9008740 	str	w0, [x26, #132]
  20a168:	b9008720 	str	w0, [x25, #132]
  20a16c:	b9008700 	str	w0, [x24, #132]
  20a170:	2a1b03e0 	mov	w0, w27
  20a174:	b90002db 	str	w27, [x22]
  20a178:	b90002bb 	str	w27, [x21]
  20a17c:	b900029b 	str	w27, [x20]
  20a180:	b90002df 	str	wzr, [x22]
  20a184:	b90002bf 	str	wzr, [x21]
  20a188:	b900029f 	str	wzr, [x20]
  20a18c:	97ffde70 	bl	201b4c <udelay>
  20a190:	52847800 	mov	w0, #0x23c0                	// #9152
  20a194:	b9008740 	str	w0, [x26, #132]
  20a198:	b9008720 	str	w0, [x25, #132]
  20a19c:	b9008700 	str	w0, [x24, #132]
  20a1a0:	2a1b03e0 	mov	w0, w27
  20a1a4:	b90002db 	str	w27, [x22]
  20a1a8:	b90002bb 	str	w27, [x21]
  20a1ac:	b900029b 	str	w27, [x20]
  20a1b0:	b90002df 	str	wzr, [x22]
  20a1b4:	b90002bf 	str	wzr, [x21]
  20a1b8:	b900029f 	str	wzr, [x20]
  20a1bc:	97ffde64 	bl	201b4c <udelay>
  20a1c0:	52840000 	mov	w0, #0x2000                	// #8192
  20a1c4:	b9008740 	str	w0, [x26, #132]
  20a1c8:	b9008720 	str	w0, [x25, #132]
  20a1cc:	b9008700 	str	w0, [x24, #132]
  20a1d0:	2a1b03e0 	mov	w0, w27
  20a1d4:	b90002db 	str	w27, [x22]
  20a1d8:	b90002bb 	str	w27, [x21]
  20a1dc:	b900029b 	str	w27, [x20]
  20a1e0:	b90002df 	str	wzr, [x22]
  20a1e4:	b90002bf 	str	wzr, [x21]
  20a1e8:	b900029f 	str	wzr, [x20]
  20a1ec:	97ffde58 	bl	201b4c <udelay>
  20a1f0:	529fffe0 	mov	w0, #0xffff                	// #65535
  20a1f4:	b9008740 	str	w0, [x26, #132]
  20a1f8:	b9008720 	str	w0, [x25, #132]
  20a1fc:	b9008700 	str	w0, [x24, #132]
  20a200:	52800400 	mov	w0, #0x20                  	// #32
  20a204:	b90002c0 	str	w0, [x22]
  20a208:	b90002a0 	str	w0, [x21]
  20a20c:	b9000280 	str	w0, [x20]
  20a210:	2a1b03e0 	mov	w0, w27
  20a214:	b90002df 	str	wzr, [x22]
  20a218:	b90002bf 	str	wzr, [x21]
  20a21c:	b900029f 	str	wzr, [x20]
  20a220:	97ffde4b 	bl	201b4c <udelay>
  20a224:	d2881c92 	mov	x18, #0x40e4                	// #16612
  20a228:	d2861c8f 	mov	x15, #0x30e4                	// #12516
  20a22c:	f2a20432 	movk	x18, #0x1021, lsl #16
  20a230:	f2a2042f 	movk	x15, #0x1021, lsl #16
  20a234:	d29c1c8e 	mov	x14, #0xe0e4                	// #57572
  20a238:	52801260 	mov	w0, #0x93                  	// #147
  20a23c:	f2a2040e 	movk	x14, #0x1020, lsl #16
  20a240:	d288220d 	mov	x13, #0x4110                	// #16656
  20a244:	b9000240 	str	w0, [x18]
  20a248:	f2a2042d 	movk	x13, #0x1021, lsl #16
  20a24c:	d286220c 	mov	x12, #0x3110                	// #12560
  20a250:	b90001e0 	str	w0, [x15]
  20a254:	f2a2042c 	movk	x12, #0x1021, lsl #16
  20a258:	d29c220b 	mov	x11, #0xe110                	// #57616
  20a25c:	b90001c0 	str	w0, [x14]
  20a260:	5288b040 	mov	w0, #0x4582                	// #17794
  20a264:	72a074c0 	movk	w0, #0x3a6, lsl #16
  20a268:	f2a2040b 	movk	x11, #0x1020, lsl #16
  20a26c:	d2880101 	mov	x1, #0x4008                	// #16392
  20a270:	b90001a0 	str	w0, [x13]
  20a274:	f2a20421 	movk	x1, #0x1021, lsl #16
  20a278:	d2860109 	mov	x9, #0x3008                	// #12296
  20a27c:	b9000180 	str	w0, [x12]
  20a280:	f2a20429 	movk	x9, #0x1021, lsl #16
  20a284:	d29c0108 	mov	x8, #0xe008                	// #57352
  20a288:	b9000160 	str	w0, [x11]
  20a28c:	52960e00 	mov	w0, #0xb070                	// #45168
  20a290:	f2a20408 	movk	x8, #0x1020, lsl #16
  20a294:	72a21400 	movk	w0, #0x10a0, lsl #16
  20a298:	d2880f82 	mov	x2, #0x407c                	// #16508
  20a29c:	b9000020 	str	w0, [x1]
  20a2a0:	f2a20422 	movk	x2, #0x1021, lsl #16
  20a2a4:	d2860f81 	mov	x1, #0x307c                	// #12412
  20a2a8:	b9000120 	str	w0, [x9]
  20a2ac:	f2a20421 	movk	x1, #0x1021, lsl #16
  20a2b0:	b9000100 	str	w0, [x8]
  20a2b4:	528841e0 	mov	w0, #0x420f                	// #16911
  20a2b8:	d2880a87 	mov	x7, #0x4054                	// #16468
  20a2bc:	72b050e0 	movk	w0, #0x8287, lsl #16
  20a2c0:	b9000040 	str	w0, [x2]
  20a2c4:	d2860a86 	mov	x6, #0x3054                	// #12372
  20a2c8:	b9000020 	str	w0, [x1]
  20a2cc:	f2a20426 	movk	x6, #0x1021, lsl #16
  20a2d0:	f2a20427 	movk	x7, #0x1021, lsl #16
  20a2d4:	d29c0a85 	mov	x5, #0xe054                	// #57428
  20a2d8:	b9000380 	str	w0, [x28]
  20a2dc:	f2a20405 	movk	x5, #0x1020, lsl #16
  20a2e0:	d2881b04 	mov	x4, #0x40d8                	// #16600
  20a2e4:	b94000e0 	ldr	w0, [x7]
  20a2e8:	d2861b03 	mov	x3, #0x30d8                	// #12504
  20a2ec:	b94000c9 	ldr	w9, [x6]
  20a2f0:	f2a20424 	movk	x4, #0x1021, lsl #16
  20a2f4:	b94000a8 	ldr	w8, [x5]
  20a2f8:	f2a20423 	movk	x3, #0x1021, lsl #16
  20a2fc:	2a090000 	orr	w0, w0, w9
  20a300:	d29c1b0a 	mov	x10, #0xe0d8                	// #57560
  20a304:	2a080000 	orr	w0, w0, w8
  20a308:	f2a2040a 	movk	x10, #0x1020, lsl #16
  20a30c:	121f7800 	and	w0, w0, #0xfffffffe
  20a310:	b90000e0 	str	w0, [x7]
  20a314:	b90000c0 	str	w0, [x6]
  20a318:	b90000a0 	str	w0, [x5]
  20a31c:	b9400080 	ldr	w0, [x4]
  20a320:	b9400066 	ldr	w6, [x3]
  20a324:	b9400145 	ldr	w5, [x10]
  20a328:	2a060000 	orr	w0, w0, w6
  20a32c:	2a050000 	orr	w0, w0, w5
  20a330:	12087800 	and	w0, w0, #0xff7fffff
  20a334:	b9000080 	str	w0, [x4]
  20a338:	b9000060 	str	w0, [x3]
  20a33c:	b9000140 	str	w0, [x10]
  20a340:	b9400040 	ldr	w0, [x2]
  20a344:	b9400023 	ldr	w3, [x1]
  20a348:	b9400384 	ldr	w4, [x28]
  20a34c:	321e0463 	orr	w3, w3, #0xc
  20a350:	2a040000 	orr	w0, w0, w4
  20a354:	d288c904 	mov	x4, #0x4648                	// #17992
  20a358:	2a030000 	orr	w0, w0, w3
  20a35c:	b9000040 	str	w0, [x2]
  20a360:	b9000020 	str	w0, [x1]
  20a364:	d286c903 	mov	x3, #0x3648                	// #13896
  20a368:	b9000380 	str	w0, [x28]
  20a36c:	5283e3e0 	mov	w0, #0x1f1f                	// #7967
  20a370:	b90f9c20 	str	w0, [x1, #3996]
  20a374:	d2860301 	mov	x1, #0x3018                	// #12312
  20a378:	f2a20421 	movk	x1, #0x1021, lsl #16
  20a37c:	d29cc902 	mov	x2, #0xe648                	// #58952
  20a380:	f2a20424 	movk	x4, #0x1021, lsl #16
  20a384:	f2a20423 	movk	x3, #0x1021, lsl #16
  20a388:	b9000020 	str	w0, [x1]
  20a38c:	d29c0301 	mov	x1, #0xe018                	// #57368
  20a390:	f2a20402 	movk	x2, #0x1020, lsl #16
  20a394:	f2a20401 	movk	x1, #0x1020, lsl #16
  20a398:	b9000020 	str	w0, [x1]
  20a39c:	b9400080 	ldr	w0, [x4]
  20a3a0:	b9400061 	ldr	w1, [x3]
  20a3a4:	b9400045 	ldr	w5, [x2]
  20a3a8:	320f0021 	orr	w1, w1, #0x20000
  20a3ac:	2a050000 	orr	w0, w0, w5
  20a3b0:	2a010000 	orr	w0, w0, w1
  20a3b4:	b9000080 	str	w0, [x4]
  20a3b8:	b9000060 	str	w0, [x3]
  20a3bc:	b9000040 	str	w0, [x2]
  20a3c0:	f94037e0 	ldr	x0, [sp, #104]
  20a3c4:	91058261 	add	x1, x19, #0x160
  20a3c8:	d2860014 	mov	x20, #0x3000                	// #12288
  20a3cc:	f2a20414 	movk	x20, #0x1020, lsl #16
  20a3d0:	97fff3ad 	bl	207284 <do_calib>
  20a3d4:	90000020 	adrp	x0, 20e000 <mtk_pin_info_pu+0x36c>
  20a3d8:	91355800 	add	x0, x0, #0xd56
  20a3dc:	97fff24b 	bl	206d08 <tf_log>
  20a3e0:	52860400 	mov	w0, #0x3020                	// #12320
  20a3e4:	b9000280 	str	w0, [x20]
  20a3e8:	d2820001 	mov	x1, #0x1000                	// #4096
  20a3ec:	d2a80000 	mov	x0, #0x40000000            	// #1073741824
  20a3f0:	940003d7 	bl	20b34c <complex_mem_test>
  20a3f4:	35007660 	cbnz	w0, 20b2c0 <mtk_set_emi_dram+0x2148>
  20a3f8:	52b00000 	mov	w0, #0x80000000            	// #-2147483648
  20a3fc:	b901c260 	str	w0, [x19, #448]
  20a400:	a94153f3 	ldp	x19, x20, [sp, #16]
  20a404:	a9425bf5 	ldp	x21, x22, [sp, #32]
  20a408:	a94363f7 	ldp	x23, x24, [sp, #48]
  20a40c:	a9446bf9 	ldp	x25, x26, [sp, #64]
  20a410:	a94573fb 	ldp	x27, x28, [sp, #80]
  20a414:	a8c77bfd 	ldp	x29, x30, [sp], #112
  20a418:	d65f03c0 	ret
  20a41c:	d0000020 	adrp	x0, 210000 <__RO_END__>
  20a420:	91136000 	add	x0, x0, #0x4d8
  20a424:	17fffb6f 	b	2091e0 <mtk_set_emi_dram+0x68>
  20a428:	7100103f 	cmp	w1, #0x4
  20a42c:	54ff8aa0 	b.eq	209580 <mtk_set_emi_dram+0x408>  // b.none
  20a430:	a94153f3 	ldp	x19, x20, [sp, #16]
  20a434:	90000020 	adrp	x0, 20e000 <mtk_pin_info_pu+0x36c>
  20a438:	a9425bf5 	ldp	x21, x22, [sp, #32]
  20a43c:	9134ec00 	add	x0, x0, #0xd3b
  20a440:	a94363f7 	ldp	x23, x24, [sp, #48]
  20a444:	a9446bf9 	ldp	x25, x26, [sp, #64]
  20a448:	a94573fb 	ldp	x27, x28, [sp, #80]
  20a44c:	a8c77bfd 	ldp	x29, x30, [sp], #112
  20a450:	17fff22e 	b	206d08 <tf_log>
  20a454:	710016ff 	cmp	w23, #0x5
  20a458:	54fffb41 	b.ne	20a3c0 <mtk_set_emi_dram+0x1248>  // b.any
  20a45c:	d288118f 	mov	x15, #0x408c                	// #16524
  20a460:	d286118e 	mov	x14, #0x308c                	// #12428
  20a464:	f2a2042f 	movk	x15, #0x1021, lsl #16
  20a468:	f2a2042e 	movk	x14, #0x1021, lsl #16
  20a46c:	d29c1192 	mov	x18, #0xe08c                	// #57484
  20a470:	52a01c19 	mov	w25, #0xe00000              	// #14680064
  20a474:	f2a20412 	movk	x18, #0x1020, lsl #16
  20a478:	d2880f9b 	mov	x27, #0x407c                	// #16508
  20a47c:	b90001f9 	str	w25, [x15]
  20a480:	f2a2043b 	movk	x27, #0x1021, lsl #16
  20a484:	d2860f95 	mov	x21, #0x307c                	// #12412
  20a488:	b90001d9 	str	w25, [x14]
  20a48c:	f2a20435 	movk	x21, #0x1021, lsl #16
  20a490:	d29c0f9a 	mov	x26, #0xe07c                	// #57468
  20a494:	b9000259 	str	w25, [x18]
  20a498:	f2a2041a 	movk	x26, #0x1020, lsl #16
  20a49c:	52801020 	mov	w0, #0x81                  	// #129
  20a4a0:	d2881e8c 	mov	x12, #0x40f4                	// #16628
  20a4a4:	b9000360 	str	w0, [x27]
  20a4a8:	f2a2042c 	movk	x12, #0x1021, lsl #16
  20a4ac:	d2861e8b 	mov	x11, #0x30f4                	// #12532
  20a4b0:	b90002a0 	str	w0, [x21]
  20a4b4:	f2a2042b 	movk	x11, #0x1021, lsl #16
  20a4b8:	d29c1e8a 	mov	x10, #0xe0f4                	// #57588
  20a4bc:	b9000340 	str	w0, [x26]
  20a4c0:	f2a2040a 	movk	x10, #0x1020, lsl #16
  20a4c4:	52a02000 	mov	w0, #0x1000000             	// #16777216
  20a4c8:	b9000180 	str	w0, [x12]
  20a4cc:	d2882201 	mov	x1, #0x4110                	// #16656
  20a4d0:	b9000160 	str	w0, [x11]
  20a4d4:	f2a20421 	movk	x1, #0x1021, lsl #16
  20a4d8:	b9000140 	str	w0, [x10]
  20a4dc:	d2862200 	mov	x0, #0x3110                	// #12560
  20a4e0:	5288b258 	mov	w24, #0x4592                	// #17810
  20a4e4:	f2a20420 	movk	x0, #0x1021, lsl #16
  20a4e8:	72a074d8 	movk	w24, #0x3a6, lsl #16
  20a4ec:	b9000038 	str	w24, [x1]
  20a4f0:	d2880502 	mov	x2, #0x4028                	// #16424
  20a4f4:	b9000018 	str	w24, [x0]
  20a4f8:	d29c2200 	mov	x0, #0xe110                	// #57616
  20a4fc:	f2a20400 	movk	x0, #0x1020, lsl #16
  20a500:	f2a20422 	movk	x2, #0x1021, lsl #16
  20a504:	d2880117 	mov	x23, #0x4008                	// #16392
  20a508:	d2860116 	mov	x22, #0x3008                	// #12296
  20a50c:	b9000018 	str	w24, [x0]
  20a510:	5281e020 	mov	w0, #0xf01                 	// #3841
  20a514:	72be2400 	movk	w0, #0xf120, lsl #16
  20a518:	b9000040 	str	w0, [x2]
  20a51c:	d2860502 	mov	x2, #0x3028                	// #12328
  20a520:	f2a20437 	movk	x23, #0x1021, lsl #16
  20a524:	f2a20422 	movk	x2, #0x1021, lsl #16
  20a528:	f2a20436 	movk	x22, #0x1021, lsl #16
  20a52c:	d29c0101 	mov	x1, #0xe008                	// #57352
  20a530:	d2881b09 	mov	x9, #0x40d8                	// #16600
  20a534:	b9000040 	str	w0, [x2]
  20a538:	d29c0502 	mov	x2, #0xe028                	// #57384
  20a53c:	f2a20402 	movk	x2, #0x1020, lsl #16
  20a540:	f2a20401 	movk	x1, #0x1020, lsl #16
  20a544:	f2a20429 	movk	x9, #0x1021, lsl #16
  20a548:	d2861b08 	mov	x8, #0x30d8                	// #12504
  20a54c:	b9000040 	str	w0, [x2]
  20a550:	d2883d02 	mov	x2, #0x41e8                	// #16872
  20a554:	f2a20422 	movk	x2, #0x1021, lsl #16
  20a558:	52824a00 	mov	w0, #0x1250                	// #4688
  20a55c:	72b01fe0 	movk	w0, #0x80ff, lsl #16
  20a560:	f2a20428 	movk	x8, #0x1021, lsl #16
  20a564:	b9000040 	str	w0, [x2]
  20a568:	d2863d02 	mov	x2, #0x31e8                	// #12776
  20a56c:	f2a20422 	movk	x2, #0x1021, lsl #16
  20a570:	d29c1b1c 	mov	x28, #0xe0d8                	// #57560
  20a574:	f2a2041c 	movk	x28, #0x1020, lsl #16
  20a578:	52800214 	mov	w20, #0x10                  	// #16
  20a57c:	b9000040 	str	w0, [x2]
  20a580:	d29c3d02 	mov	x2, #0xe1e8                	// #57832
  20a584:	f2a20402 	movk	x2, #0x1020, lsl #16
  20a588:	d2883c07 	mov	x7, #0x41e0                	// #16864
  20a58c:	f2a20427 	movk	x7, #0x1021, lsl #16
  20a590:	d2863c06 	mov	x6, #0x31e0                	// #12768
  20a594:	b9000040 	str	w0, [x2]
  20a598:	5295c000 	mov	w0, #0xae00                	// #44544
  20a59c:	72a11400 	movk	w0, #0x8a0, lsl #16
  20a5a0:	d2883d82 	mov	x2, #0x41ec                	// #16876
  20a5a4:	b90002e0 	str	w0, [x23]
  20a5a8:	f2a20422 	movk	x2, #0x1021, lsl #16
  20a5ac:	b90002c0 	str	w0, [x22]
  20a5b0:	f2a20426 	movk	x6, #0x1021, lsl #16
  20a5b4:	b9000020 	str	w0, [x1]
  20a5b8:	52a10240 	mov	w0, #0x8120000             	// #135397376
  20a5bc:	b9000040 	str	w0, [x2]
  20a5c0:	d2863d82 	mov	x2, #0x31ec                	// #12780
  20a5c4:	f2a20422 	movk	x2, #0x1021, lsl #16
  20a5c8:	d2881001 	mov	x1, #0x4080                	// #16512
  20a5cc:	f2a20421 	movk	x1, #0x1021, lsl #16
  20a5d0:	d29c3c05 	mov	x5, #0xe1e0                	// #57824
  20a5d4:	b9000040 	str	w0, [x2]
  20a5d8:	d29c3d82 	mov	x2, #0xe1ec                	// #57836
  20a5dc:	f2a20402 	movk	x2, #0x1020, lsl #16
  20a5e0:	f2a20405 	movk	x5, #0x1020, lsl #16
  20a5e4:	d29c478d 	mov	x13, #0xe23c                	// #57916
  20a5e8:	d2881c84 	mov	x4, #0x40e4                	// #16612
  20a5ec:	b9000040 	str	w0, [x2]
  20a5f0:	320b8be0 	mov	w0, #0xe000e0              	// #14680288
  20a5f4:	b9000020 	str	w0, [x1]
  20a5f8:	d2861001 	mov	x1, #0x3080                	// #12416
  20a5fc:	f2a20421 	movk	x1, #0x1021, lsl #16
  20a600:	d2881e02 	mov	x2, #0x40f0                	// #16624
  20a604:	f2a20422 	movk	x2, #0x1021, lsl #16
  20a608:	f2a2040d 	movk	x13, #0x1020, lsl #16
  20a60c:	b9000020 	str	w0, [x1]
  20a610:	d29c1001 	mov	x1, #0xe080                	// #57472
  20a614:	f2a20401 	movk	x1, #0x1020, lsl #16
  20a618:	f2a20424 	movk	x4, #0x1021, lsl #16
  20a61c:	d2861c83 	mov	x3, #0x30e4                	// #12516
  20a620:	b9000020 	str	w0, [x1]
  20a624:	5280a000 	mov	w0, #0x500                 	// #1280
  20a628:	72b00000 	movk	w0, #0x8000, lsl #16
  20a62c:	b9000120 	str	w0, [x9]
  20a630:	b9000100 	str	w0, [x8]
  20a634:	f2a20423 	movk	x3, #0x1021, lsl #16
  20a638:	b9000380 	str	w0, [x28]
  20a63c:	52b04000 	mov	w0, #0x82000000            	// #-2113929216
  20a640:	b9000040 	str	w0, [x2]
  20a644:	d2861e02 	mov	x2, #0x30f0                	// #12528
  20a648:	f2a20422 	movk	x2, #0x1021, lsl #16
  20a64c:	b9000040 	str	w0, [x2]
  20a650:	d29c1e02 	mov	x2, #0xe0f0                	// #57584
  20a654:	f2a20402 	movk	x2, #0x1020, lsl #16
  20a658:	b9000040 	str	w0, [x2]
  20a65c:	d2881f02 	mov	x2, #0x40f8                	// #16632
  20a660:	f2a20422 	movk	x2, #0x1021, lsl #16
  20a664:	52840000 	mov	w0, #0x2000                	// #8192
  20a668:	72bdb960 	movk	w0, #0xedcb, lsl #16
  20a66c:	b9000040 	str	w0, [x2]
  20a670:	d2861f02 	mov	x2, #0x30f8                	// #12536
  20a674:	f2a20422 	movk	x2, #0x1021, lsl #16
  20a678:	b9000040 	str	w0, [x2]
  20a67c:	d29c1f02 	mov	x2, #0xe0f8                	// #57592
  20a680:	f2a20402 	movk	x2, #0x1020, lsl #16
  20a684:	b9000040 	str	w0, [x2]
  20a688:	d288b802 	mov	x2, #0x45c0                	// #17856
  20a68c:	f2a20422 	movk	x2, #0x1021, lsl #16
  20a690:	529ff060 	mov	w0, #0xff83                	// #65411
  20a694:	72a42ac0 	movk	w0, #0x2156, lsl #16
  20a698:	b9000040 	str	w0, [x2]
  20a69c:	d286b802 	mov	x2, #0x35c0                	// #13760
  20a6a0:	f2a20422 	movk	x2, #0x1021, lsl #16
  20a6a4:	b9000040 	str	w0, [x2]
  20a6a8:	d29cb802 	mov	x2, #0xe5c0                	// #58816
  20a6ac:	f2a20402 	movk	x2, #0x1020, lsl #16
  20a6b0:	b9000040 	str	w0, [x2]
  20a6b4:	d288b882 	mov	x2, #0x45c4                	// #17860
  20a6b8:	f2a20422 	movk	x2, #0x1021, lsl #16
  20a6bc:	528003c0 	mov	w0, #0x1e                  	// #30
  20a6c0:	72aa1060 	movk	w0, #0x5083, lsl #16
  20a6c4:	b9000040 	str	w0, [x2]
  20a6c8:	d286b882 	mov	x2, #0x35c4                	// #13764
  20a6cc:	f2a20422 	movk	x2, #0x1021, lsl #16
  20a6d0:	b9000040 	str	w0, [x2]
  20a6d4:	d29cb882 	mov	x2, #0xe5c4                	// #58820
  20a6d8:	f2a20402 	movk	x2, #0x1020, lsl #16
  20a6dc:	b9000040 	str	w0, [x2]
  20a6e0:	d288b902 	mov	x2, #0x45c8                	// #17864
  20a6e4:	f2a20422 	movk	x2, #0x1021, lsl #16
  20a6e8:	52820200 	mov	w0, #0x1010                	// #4112
  20a6ec:	b9000040 	str	w0, [x2]
  20a6f0:	d286b902 	mov	x2, #0x35c8                	// #13768
  20a6f4:	f2a20422 	movk	x2, #0x1021, lsl #16
  20a6f8:	b9000040 	str	w0, [x2]
  20a6fc:	d29cb902 	mov	x2, #0xe5c8                	// #58824
  20a700:	f2a20402 	movk	x2, #0x1020, lsl #16
  20a704:	b9000040 	str	w0, [x2]
  20a708:	d288b980 	mov	x0, #0x45cc                	// #17868
  20a70c:	f2a20420 	movk	x0, #0x1021, lsl #16
  20a710:	d288d302 	mov	x2, #0x4698                	// #18072
  20a714:	f2a20422 	movk	x2, #0x1021, lsl #16
  20a718:	b900001f 	str	wzr, [x0]
  20a71c:	d286b980 	mov	x0, #0x35cc                	// #13772
  20a720:	f2a20420 	movk	x0, #0x1021, lsl #16
  20a724:	b900001f 	str	wzr, [x0]
  20a728:	d29cb980 	mov	x0, #0xe5cc                	// #58828
  20a72c:	f2a20400 	movk	x0, #0x1020, lsl #16
  20a730:	b900001f 	str	wzr, [x0]
  20a734:	d288c800 	mov	x0, #0x4640                	// #17984
  20a738:	f2a20420 	movk	x0, #0x1021, lsl #16
  20a73c:	b9000014 	str	w20, [x0]
  20a740:	d286c800 	mov	x0, #0x3640                	// #13888
  20a744:	f2a20420 	movk	x0, #0x1021, lsl #16
  20a748:	b9000014 	str	w20, [x0]
  20a74c:	d29cc800 	mov	x0, #0xe640                	// #58944
  20a750:	f2a20400 	movk	x0, #0x1020, lsl #16
  20a754:	b9000014 	str	w20, [x0]
  20a758:	d2884780 	mov	x0, #0x423c                	// #16956
  20a75c:	b90000ff 	str	wzr, [x7]
  20a760:	f2a20420 	movk	x0, #0x1021, lsl #16
  20a764:	b90000df 	str	wzr, [x6]
  20a768:	b90000bf 	str	wzr, [x5]
  20a76c:	b900001f 	str	wzr, [x0]
  20a770:	d2864780 	mov	x0, #0x323c                	// #12860
  20a774:	f2a20420 	movk	x0, #0x1021, lsl #16
  20a778:	b900001f 	str	wzr, [x0]
  20a77c:	52a22000 	mov	w0, #0x11000000            	// #285212672
  20a780:	b90001bf 	str	wzr, [x13]
  20a784:	b9000180 	str	w0, [x12]
  20a788:	b9000160 	str	w0, [x11]
  20a78c:	b9000140 	str	w0, [x10]
  20a790:	52880000 	mov	w0, #0x4000                	// #16384
  20a794:	b9000040 	str	w0, [x2]
  20a798:	d286d302 	mov	x2, #0x3698                	// #13976
  20a79c:	f2a20422 	movk	x2, #0x1021, lsl #16
  20a7a0:	b9000040 	str	w0, [x2]
  20a7a4:	d29cd302 	mov	x2, #0xe698                	// #59032
  20a7a8:	f2a20402 	movk	x2, #0x1020, lsl #16
  20a7ac:	b9000040 	str	w0, [x2]
  20a7b0:	d288c782 	mov	x2, #0x463c                	// #17980
  20a7b4:	f2a20422 	movk	x2, #0x1021, lsl #16
  20a7b8:	528000c0 	mov	w0, #0x6                   	// #6
  20a7bc:	b9000040 	str	w0, [x2]
  20a7c0:	d286c782 	mov	x2, #0x363c                	// #13884
  20a7c4:	f2a20422 	movk	x2, #0x1021, lsl #16
  20a7c8:	b9000040 	str	w0, [x2]
  20a7cc:	d29cc782 	mov	x2, #0xe63c                	// #58940
  20a7d0:	f2a20402 	movk	x2, #0x1020, lsl #16
  20a7d4:	b9000040 	str	w0, [x2]
  20a7d8:	d2881f82 	mov	x2, #0x40fc                	// #16636
  20a7dc:	f2a20422 	movk	x2, #0x1021, lsl #16
  20a7e0:	b941b260 	ldr	w0, [x19, #432]
  20a7e4:	b9000040 	str	w0, [x2]
  20a7e8:	d2861f82 	mov	x2, #0x30fc                	// #12540
  20a7ec:	f2a20422 	movk	x2, #0x1021, lsl #16
  20a7f0:	b9000040 	str	w0, [x2]
  20a7f4:	d29c1f82 	mov	x2, #0xe0fc                	// #57596
  20a7f8:	f2a20402 	movk	x2, #0x1020, lsl #16
  20a7fc:	b9000040 	str	w0, [x2]
  20a800:	d2880902 	mov	x2, #0x4048                	// #16456
  20a804:	f2a20422 	movk	x2, #0x1021, lsl #16
  20a808:	b941be60 	ldr	w0, [x19, #444]
  20a80c:	b9000040 	str	w0, [x2]
  20a810:	d2860902 	mov	x2, #0x3048                	// #12360
  20a814:	f2a20422 	movk	x2, #0x1021, lsl #16
  20a818:	b9000040 	str	w0, [x2]
  20a81c:	d29c0902 	mov	x2, #0xe048                	// #57416
  20a820:	f2a20402 	movk	x2, #0x1020, lsl #16
  20a824:	b9000040 	str	w0, [x2]
  20a828:	d2882302 	mov	x2, #0x4118                	// #16664
  20a82c:	f2a20422 	movk	x2, #0x1021, lsl #16
  20a830:	52801080 	mov	w0, #0x84                  	// #132
  20a834:	b9000040 	str	w0, [x2]
  20a838:	d2862302 	mov	x2, #0x3118                	// #12568
  20a83c:	f2a20422 	movk	x2, #0x1021, lsl #16
  20a840:	b9000040 	str	w0, [x2]
  20a844:	d29c2302 	mov	x2, #0xe118                	// #57624
  20a848:	f2a20402 	movk	x2, #0x1020, lsl #16
  20a84c:	b9000040 	str	w0, [x2]
  20a850:	52801660 	mov	w0, #0xb3                  	// #179
  20a854:	d29c1c82 	mov	x2, #0xe0e4                	// #57572
  20a858:	72a04000 	movk	w0, #0x200, lsl #16
  20a85c:	f2a20402 	movk	x2, #0x1020, lsl #16
  20a860:	b9000080 	str	w0, [x4]
  20a864:	b9000060 	str	w0, [x3]
  20a868:	b9000040 	str	w0, [x2]
  20a86c:	52803e80 	mov	w0, #0x1f4                 	// #500
  20a870:	97ffdcb7 	bl	201b4c <udelay>
  20a874:	d2882710 	mov	x16, #0x4138                	// #16696
  20a878:	529082a0 	mov	w0, #0x8415                	// #33813
  20a87c:	f2a20430 	movk	x16, #0x1021, lsl #16
  20a880:	d288118f 	mov	x15, #0x408c                	// #16524
  20a884:	f2a2042f 	movk	x15, #0x1021, lsl #16
  20a888:	d286118e 	mov	x14, #0x308c                	// #12428
  20a88c:	b9000200 	str	w0, [x16]
  20a890:	d2862710 	mov	x16, #0x3138                	// #12600
  20a894:	f2a20430 	movk	x16, #0x1021, lsl #16
  20a898:	f2a2042e 	movk	x14, #0x1021, lsl #16
  20a89c:	d29c1192 	mov	x18, #0xe08c                	// #57484
  20a8a0:	d29c478d 	mov	x13, #0xe23c                	// #57916
  20a8a4:	b9000200 	str	w0, [x16]
  20a8a8:	d29c2710 	mov	x16, #0xe138                	// #57656
  20a8ac:	f2a20410 	movk	x16, #0x1020, lsl #16
  20a8b0:	f2a20412 	movk	x18, #0x1020, lsl #16
  20a8b4:	f2a2040d 	movk	x13, #0x1020, lsl #16
  20a8b8:	b9000200 	str	w0, [x16]
  20a8bc:	d2884780 	mov	x0, #0x423c                	// #16956
  20a8c0:	b90001f9 	str	w25, [x15]
  20a8c4:	f2a20420 	movk	x0, #0x1021, lsl #16
  20a8c8:	b90001d9 	str	w25, [x14]
  20a8cc:	b9000259 	str	w25, [x18]
  20a8d0:	d29c0a99 	mov	x25, #0xe054                	// #57428
  20a8d4:	b900001f 	str	wzr, [x0]
  20a8d8:	d2864780 	mov	x0, #0x323c                	// #12860
  20a8dc:	f2a20420 	movk	x0, #0x1021, lsl #16
  20a8e0:	f2a20419 	movk	x25, #0x1020, lsl #16
  20a8e4:	b900001f 	str	wzr, [x0]
  20a8e8:	3200d3e0 	mov	w0, #0x1f1f1f1f            	// #522133279
  20a8ec:	b90001bf 	str	wzr, [x13]
  20a8f0:	d288130d 	mov	x13, #0x4098                	// #16536
  20a8f4:	f2a2042d 	movk	x13, #0x1021, lsl #16
  20a8f8:	b90001a0 	str	w0, [x13]
  20a8fc:	d286130d 	mov	x13, #0x3098                	// #12440
  20a900:	f2a2042d 	movk	x13, #0x1021, lsl #16
  20a904:	b90001a0 	str	w0, [x13]
  20a908:	d29c130d 	mov	x13, #0xe098                	// #57496
  20a90c:	f2a2040d 	movk	x13, #0x1020, lsl #16
  20a910:	b90001a0 	str	w0, [x13]
  20a914:	d288128d 	mov	x13, #0x4094                	// #16532
  20a918:	f2a2042d 	movk	x13, #0x1021, lsl #16
  20a91c:	b90001a0 	str	w0, [x13]
  20a920:	d286128d 	mov	x13, #0x3094                	// #12436
  20a924:	f2a2042d 	movk	x13, #0x1021, lsl #16
  20a928:	b90001a0 	str	w0, [x13]
  20a92c:	d29c128d 	mov	x13, #0xe094                	// #57492
  20a930:	f2a2040d 	movk	x13, #0x1020, lsl #16
  20a934:	b90001a0 	str	w0, [x13]
  20a938:	d289080d 	mov	x13, #0x4840                	// #18496
  20a93c:	f2a2042d 	movk	x13, #0x1021, lsl #16
  20a940:	3200d7e0 	mov	w0, #0x3f3f3f3f            	// #1061109567
  20a944:	b90001a0 	str	w0, [x13]
  20a948:	d287080d 	mov	x13, #0x3840                	// #14400
  20a94c:	f2a2042d 	movk	x13, #0x1021, lsl #16
  20a950:	b90001a0 	str	w0, [x13]
  20a954:	d29d080d 	mov	x13, #0xe840                	// #59456
  20a958:	f2a2040d 	movk	x13, #0x1020, lsl #16
  20a95c:	b90001a0 	str	w0, [x13]
  20a960:	d289088d 	mov	x13, #0x4844                	// #18500
  20a964:	f2a2042d 	movk	x13, #0x1021, lsl #16
  20a968:	b90001a0 	str	w0, [x13]
  20a96c:	d287088d 	mov	x13, #0x3844                	// #14404
  20a970:	f2a2042d 	movk	x13, #0x1021, lsl #16
  20a974:	b90001a0 	str	w0, [x13]
  20a978:	d29d088d 	mov	x13, #0xe844                	// #59460
  20a97c:	f2a2040d 	movk	x13, #0x1020, lsl #16
  20a980:	b90001a0 	str	w0, [x13]
  20a984:	d2881c0d 	mov	x13, #0x40e0                	// #16608
  20a988:	f2a2042d 	movk	x13, #0x1021, lsl #16
  20a98c:	52810000 	mov	w0, #0x800                 	// #2048
  20a990:	72a09000 	movk	w0, #0x480, lsl #16
  20a994:	b90001a0 	str	w0, [x13]
  20a998:	d2861c0d 	mov	x13, #0x30e0                	// #12512
  20a99c:	f2a2042d 	movk	x13, #0x1021, lsl #16
  20a9a0:	b90001a0 	str	w0, [x13]
  20a9a4:	d29c1c0d 	mov	x13, #0xe0e0                	// #57568
  20a9a8:	f2a2040d 	movk	x13, #0x1020, lsl #16
  20a9ac:	b90001a0 	str	w0, [x13]
  20a9b0:	d2881b8d 	mov	x13, #0x40dc                	// #16604
  20a9b4:	f2a2042d 	movk	x13, #0x1021, lsl #16
  20a9b8:	52810000 	mov	w0, #0x800                 	// #2048
  20a9bc:	72a01000 	movk	w0, #0x80, lsl #16
  20a9c0:	b90001a0 	str	w0, [x13]
  20a9c4:	d2861b8d 	mov	x13, #0x30dc                	// #12508
  20a9c8:	f2a2042d 	movk	x13, #0x1021, lsl #16
  20a9cc:	b90001a0 	str	w0, [x13]
  20a9d0:	d29c1b8d 	mov	x13, #0xe0dc                	// #57564
  20a9d4:	f2a2040d 	movk	x13, #0x1020, lsl #16
  20a9d8:	b90001a0 	str	w0, [x13]
  20a9dc:	d2860a8d 	mov	x13, #0x3054                	// #12372
  20a9e0:	f2a2042d 	movk	x13, #0x1021, lsl #16
  20a9e4:	52812000 	mov	w0, #0x900                 	// #2304
  20a9e8:	b90fc9c0 	str	w0, [x14, #4040]
  20a9ec:	b90001a0 	str	w0, [x13]
  20a9f0:	b9000320 	str	w0, [x25]
  20a9f4:	52a000a0 	mov	w0, #0x50000               	// #327680
  20a9f8:	b90139e0 	str	w0, [x15, #312]
  20a9fc:	d286388f 	mov	x15, #0x31c4                	// #12740
  20aa00:	f2a2042f 	movk	x15, #0x1021, lsl #16
  20aa04:	b90001e0 	str	w0, [x15]
  20aa08:	d29c388f 	mov	x15, #0xe1c4                	// #57796
  20aa0c:	f2a2040f 	movk	x15, #0x1020, lsl #16
  20aa10:	b90001e0 	str	w0, [x15]
  20aa14:	528003c0 	mov	w0, #0x1e                  	// #30
  20aa18:	97ffdc4d 	bl	201b4c <udelay>
  20aa1c:	d2881e8c 	mov	x12, #0x40f4                	// #16628
  20aa20:	d2861e8b 	mov	x11, #0x30f4                	// #12532
  20aa24:	f2a2042c 	movk	x12, #0x1021, lsl #16
  20aa28:	b9419660 	ldr	w0, [x19, #404]
  20aa2c:	f2a2042b 	movk	x11, #0x1021, lsl #16
  20aa30:	d29c1e8a 	mov	x10, #0xe0f4                	// #57588
  20aa34:	f2a2040a 	movk	x10, #0x1020, lsl #16
  20aa38:	b9000180 	str	w0, [x12]
  20aa3c:	b9000160 	str	w0, [x11]
  20aa40:	b9000140 	str	w0, [x10]
  20aa44:	d288260a 	mov	x10, #0x4130                	// #16688
  20aa48:	f2a2042a 	movk	x10, #0x1021, lsl #16
  20aa4c:	52a60000 	mov	w0, #0x30000000            	// #805306368
  20aa50:	b9000140 	str	w0, [x10]
  20aa54:	d286260a 	mov	x10, #0x3130                	// #12592
  20aa58:	f2a2042a 	movk	x10, #0x1021, lsl #16
  20aa5c:	b9000140 	str	w0, [x10]
  20aa60:	d29c260a 	mov	x10, #0xe130                	// #57648
  20aa64:	f2a2040a 	movk	x10, #0x1020, lsl #16
  20aa68:	b9000140 	str	w0, [x10]
  20aa6c:	52807d00 	mov	w0, #0x3e8                 	// #1000
  20aa70:	97ffdc37 	bl	201b4c <udelay>
  20aa74:	d288008a 	mov	x10, #0x4004                	// #16388
  20aa78:	b9419a60 	ldr	w0, [x19, #408]
  20aa7c:	f2a2042a 	movk	x10, #0x1021, lsl #16
  20aa80:	d2881001 	mov	x1, #0x4080                	// #16512
  20aa84:	f2a20421 	movk	x1, #0x1021, lsl #16
  20aa88:	d2883c07 	mov	x7, #0x41e0                	// #16864
  20aa8c:	b9000140 	str	w0, [x10]
  20aa90:	d286008a 	mov	x10, #0x3004                	// #12292
  20aa94:	f2a2042a 	movk	x10, #0x1021, lsl #16
  20aa98:	f2a20427 	movk	x7, #0x1021, lsl #16
  20aa9c:	d2863c06 	mov	x6, #0x31e0                	// #12768
  20aaa0:	d29c3c05 	mov	x5, #0xe1e0                	// #57824
  20aaa4:	b9000140 	str	w0, [x10]
  20aaa8:	d29c008a 	mov	x10, #0xe004                	// #57348
  20aaac:	f2a2040a 	movk	x10, #0x1020, lsl #16
  20aab0:	f2a20426 	movk	x6, #0x1021, lsl #16
  20aab4:	f2a20405 	movk	x5, #0x1020, lsl #16
  20aab8:	d2881c84 	mov	x4, #0x40e4                	// #16612
  20aabc:	b9000140 	str	w0, [x10]
  20aac0:	d288248a 	mov	x10, #0x4124                	// #16676
  20aac4:	f2a2042a 	movk	x10, #0x1021, lsl #16
  20aac8:	52800340 	mov	w0, #0x1a                  	// #26
  20aacc:	72b800c0 	movk	w0, #0xc006, lsl #16
  20aad0:	f2a20424 	movk	x4, #0x1021, lsl #16
  20aad4:	b9000140 	str	w0, [x10]
  20aad8:	d286248a 	mov	x10, #0x3124                	// #12580
  20aadc:	f2a2042a 	movk	x10, #0x1021, lsl #16
  20aae0:	d2861c83 	mov	x3, #0x30e4                	// #12516
  20aae4:	f2a20423 	movk	x3, #0x1021, lsl #16
  20aae8:	d29c1c82 	mov	x2, #0xe0e4                	// #57572
  20aaec:	b9000140 	str	w0, [x10]
  20aaf0:	d29c248a 	mov	x10, #0xe124                	// #57636
  20aaf4:	f2a2040a 	movk	x10, #0x1020, lsl #16
  20aaf8:	f2a20402 	movk	x2, #0x1020, lsl #16
  20aafc:	b9000140 	str	w0, [x10]
  20ab00:	d288380a 	mov	x10, #0x41c0                	// #16832
  20ab04:	f2a2042a 	movk	x10, #0x1021, lsl #16
  20ab08:	52a00800 	mov	w0, #0x400000              	// #4194304
  20ab0c:	b9000140 	str	w0, [x10]
  20ab10:	d286380a 	mov	x10, #0x31c0                	// #12736
  20ab14:	f2a2042a 	movk	x10, #0x1021, lsl #16
  20ab18:	b9000140 	str	w0, [x10]
  20ab1c:	d29c380a 	mov	x10, #0xe1c0                	// #57792
  20ab20:	f2a2040a 	movk	x10, #0x1020, lsl #16
  20ab24:	b9000140 	str	w0, [x10]
  20ab28:	d2882b0a 	mov	x10, #0x4158                	// #16728
  20ab2c:	f2a2042a 	movk	x10, #0x1021, lsl #16
  20ab30:	b9419e60 	ldr	w0, [x19, #412]
  20ab34:	b9000360 	str	w0, [x27]
  20ab38:	b90002a0 	str	w0, [x21]
  20ab3c:	b9000340 	str	w0, [x26]
  20ab40:	52815c00 	mov	w0, #0xae0                 	// #2784
  20ab44:	72a01dc0 	movk	w0, #0xee, lsl #16
  20ab48:	b9000020 	str	w0, [x1]
  20ab4c:	d2861001 	mov	x1, #0x3080                	// #12416
  20ab50:	f2a20421 	movk	x1, #0x1021, lsl #16
  20ab54:	b9000020 	str	w0, [x1]
  20ab58:	d29c1001 	mov	x1, #0xe080                	// #57472
  20ab5c:	f2a20401 	movk	x1, #0x1020, lsl #16
  20ab60:	b9000020 	str	w0, [x1]
  20ab64:	d2882201 	mov	x1, #0x4110                	// #16656
  20ab68:	f2a20421 	movk	x1, #0x1021, lsl #16
  20ab6c:	d2862200 	mov	x0, #0x3110                	// #12560
  20ab70:	f2a20420 	movk	x0, #0x1021, lsl #16
  20ab74:	b9000038 	str	w24, [x1]
  20ab78:	d29c0101 	mov	x1, #0xe008                	// #57352
  20ab7c:	b9000018 	str	w24, [x0]
  20ab80:	d29c2200 	mov	x0, #0xe110                	// #57616
  20ab84:	f2a20400 	movk	x0, #0x1020, lsl #16
  20ab88:	f2a20401 	movk	x1, #0x1020, lsl #16
  20ab8c:	b9000018 	str	w24, [x0]
  20ab90:	5281fe00 	mov	w0, #0xff0                 	// #4080
  20ab94:	b9000140 	str	w0, [x10]
  20ab98:	d2862b0a 	mov	x10, #0x3158                	// #12632
  20ab9c:	f2a2042a 	movk	x10, #0x1021, lsl #16
  20aba0:	d29c1118 	mov	x24, #0xe088                	// #57480
  20aba4:	f2a20418 	movk	x24, #0x1020, lsl #16
  20aba8:	b9000140 	str	w0, [x10]
  20abac:	d29c2b0a 	mov	x10, #0xe158                	// #57688
  20abb0:	f2a2040a 	movk	x10, #0x1020, lsl #16
  20abb4:	b9000140 	str	w0, [x10]
  20abb8:	529016e0 	mov	w0, #0x80b7                	// #32951
  20abbc:	b90000ff 	str	wzr, [x7]
  20abc0:	72a04000 	movk	w0, #0x200, lsl #16
  20abc4:	b90000df 	str	wzr, [x6]
  20abc8:	d288170a 	mov	x10, #0x40b8                	// #16568
  20abcc:	b90000bf 	str	wzr, [x5]
  20abd0:	f2a2042a 	movk	x10, #0x1021, lsl #16
  20abd4:	b9000080 	str	w0, [x4]
  20abd8:	b9000060 	str	w0, [x3]
  20abdc:	b9000040 	str	w0, [x2]
  20abe0:	52954440 	mov	w0, #0xaa22                	// #43554
  20abe4:	72b54440 	movk	w0, #0xaa22, lsl #16
  20abe8:	b9000140 	str	w0, [x10]
  20abec:	d286170a 	mov	x10, #0x30b8                	// #12472
  20abf0:	f2a2042a 	movk	x10, #0x1021, lsl #16
  20abf4:	b9000140 	str	w0, [x10]
  20abf8:	d29c170a 	mov	x10, #0xe0b8                	// #57528
  20abfc:	f2a2040a 	movk	x10, #0x1020, lsl #16
  20ac00:	b9000140 	str	w0, [x10]
  20ac04:	d288178a 	mov	x10, #0x40bc                	// #16572
  20ac08:	f2a2042a 	movk	x10, #0x1021, lsl #16
  20ac0c:	52954440 	mov	w0, #0xaa22                	// #43554
  20ac10:	72b5c440 	movk	w0, #0xae22, lsl #16
  20ac14:	b9000140 	str	w0, [x10]
  20ac18:	d286178a 	mov	x10, #0x30bc                	// #12476
  20ac1c:	f2a2042a 	movk	x10, #0x1021, lsl #16
  20ac20:	b9000140 	str	w0, [x10]
  20ac24:	d29c178a 	mov	x10, #0xe0bc                	// #57532
  20ac28:	f2a2040a 	movk	x10, #0x1020, lsl #16
  20ac2c:	b9000140 	str	w0, [x10]
  20ac30:	52960e00 	mov	w0, #0xb070                	// #45168
  20ac34:	72a21600 	movk	w0, #0x10b0, lsl #16
  20ac38:	b90002e0 	str	w0, [x23]
  20ac3c:	b90002c0 	str	w0, [x22]
  20ac40:	b9000020 	str	w0, [x1]
  20ac44:	52807d00 	mov	w0, #0x3e8                 	// #1000
  20ac48:	97ffdbc1 	bl	201b4c <udelay>
  20ac4c:	d2880a8e 	mov	x14, #0x4054                	// #16468
  20ac50:	d2860a8d 	mov	x13, #0x3054                	// #12372
  20ac54:	f2a2042e 	movk	x14, #0x1021, lsl #16
  20ac58:	f2a2042d 	movk	x13, #0x1021, lsl #16
  20ac5c:	d2881b09 	mov	x9, #0x40d8                	// #16600
  20ac60:	d2861b08 	mov	x8, #0x30d8                	// #12504
  20ac64:	b94001c0 	ldr	w0, [x14]
  20ac68:	f2a20429 	movk	x9, #0x1021, lsl #16
  20ac6c:	b94001ab 	ldr	w11, [x13]
  20ac70:	f2a20428 	movk	x8, #0x1021, lsl #16
  20ac74:	b940032a 	ldr	w10, [x25]
  20ac78:	2a0b0000 	orr	w0, w0, w11
  20ac7c:	2a0a0000 	orr	w0, w0, w10
  20ac80:	121f7800 	and	w0, w0, #0xfffffffe
  20ac84:	b90001c0 	str	w0, [x14]
  20ac88:	b90001a0 	str	w0, [x13]
  20ac8c:	b9000320 	str	w0, [x25]
  20ac90:	d2861119 	mov	x25, #0x3088                	// #12424
  20ac94:	f2a20439 	movk	x25, #0x1021, lsl #16
  20ac98:	b9400120 	ldr	w0, [x9]
  20ac9c:	b940010b 	ldr	w11, [x8]
  20aca0:	b940038a 	ldr	w10, [x28]
  20aca4:	2a0b0000 	orr	w0, w0, w11
  20aca8:	2a0a0000 	orr	w0, w0, w10
  20acac:	12087800 	and	w0, w0, #0xff7fffff
  20acb0:	b9000120 	str	w0, [x9]
  20acb4:	b9000100 	str	w0, [x8]
  20acb8:	b9000380 	str	w0, [x28]
  20acbc:	d2863c9c 	mov	x28, #0x31e4                	// #12772
  20acc0:	f2a2043c 	movk	x28, #0x1021, lsl #16
  20acc4:	b9400360 	ldr	w0, [x27]
  20acc8:	b94002a7 	ldr	w7, [x21]
  20accc:	b9400348 	ldr	w8, [x26]
  20acd0:	321e04e7 	orr	w7, w7, #0xc
  20acd4:	2a080000 	orr	w0, w0, w8
  20acd8:	2a070000 	orr	w0, w0, w7
  20acdc:	b9000360 	str	w0, [x27]
  20ace0:	b90002a0 	str	w0, [x21]
  20ace4:	d2883c95 	mov	x21, #0x41e4                	// #16868
  20ace8:	b9000340 	str	w0, [x26]
  20acec:	5280fa00 	mov	w0, #0x7d0                 	// #2000
  20acf0:	d288111a 	mov	x26, #0x4088                	// #16520
  20acf4:	f2a20435 	movk	x21, #0x1021, lsl #16
  20acf8:	97ffdb95 	bl	201b4c <udelay>
  20acfc:	f2a2043a 	movk	x26, #0x1021, lsl #16
  20ad00:	b9420260 	ldr	w0, [x19, #512]
  20ad04:	d29c3c9b 	mov	x27, #0xe1e4                	// #57828
  20ad08:	f2a2041b 	movk	x27, #0x1020, lsl #16
  20ad0c:	52800028 	mov	w8, #0x1                   	// #1
  20ad10:	32170000 	orr	w0, w0, #0x200
  20ad14:	b9000340 	str	w0, [x26]
  20ad18:	b9000320 	str	w0, [x25]
  20ad1c:	b9000300 	str	w0, [x24]
  20ad20:	52807d00 	mov	w0, #0x3e8                 	// #1000
  20ad24:	b90002a8 	str	w8, [x21]
  20ad28:	b9000388 	str	w8, [x28]
  20ad2c:	b9000368 	str	w8, [x27]
  20ad30:	97ffdb87 	bl	201b4c <udelay>
  20ad34:	b90002bf 	str	wzr, [x21]
  20ad38:	b900039f 	str	wzr, [x28]
  20ad3c:	52800028 	mov	w8, #0x1                   	// #1
  20ad40:	b900037f 	str	wzr, [x27]
  20ad44:	b9420660 	ldr	w0, [x19, #516]
  20ad48:	b9000340 	str	w0, [x26]
  20ad4c:	b9000320 	str	w0, [x25]
  20ad50:	b9000300 	str	w0, [x24]
  20ad54:	52807d00 	mov	w0, #0x3e8                 	// #1000
  20ad58:	b90002a8 	str	w8, [x21]
  20ad5c:	b9000388 	str	w8, [x28]
  20ad60:	b9000368 	str	w8, [x27]
  20ad64:	97ffdb7a 	bl	201b4c <udelay>
  20ad68:	b90002bf 	str	wzr, [x21]
  20ad6c:	b900039f 	str	wzr, [x28]
  20ad70:	52800028 	mov	w8, #0x1                   	// #1
  20ad74:	b900037f 	str	wzr, [x27]
  20ad78:	b941fe60 	ldr	w0, [x19, #508]
  20ad7c:	321e0000 	orr	w0, w0, #0x4
  20ad80:	b9000340 	str	w0, [x26]
  20ad84:	b9000320 	str	w0, [x25]
  20ad88:	b9000300 	str	w0, [x24]
  20ad8c:	52807d00 	mov	w0, #0x3e8                 	// #1000
  20ad90:	b90002a8 	str	w8, [x21]
  20ad94:	b9000388 	str	w8, [x28]
  20ad98:	b9000368 	str	w8, [x27]
  20ad9c:	97ffdb6c 	bl	201b4c <udelay>
  20ada0:	b90002bf 	str	wzr, [x21]
  20ada4:	b900039f 	str	wzr, [x28]
  20ada8:	52800028 	mov	w8, #0x1                   	// #1
  20adac:	b900037f 	str	wzr, [x27]
  20adb0:	b941fa60 	ldr	w0, [x19, #504]
  20adb4:	b9000340 	str	w0, [x26]
  20adb8:	b9000320 	str	w0, [x25]
  20adbc:	b9000300 	str	w0, [x24]
  20adc0:	52807d00 	mov	w0, #0x3e8                 	// #1000
  20adc4:	b90002a8 	str	w8, [x21]
  20adc8:	b9000388 	str	w8, [x28]
  20adcc:	b9000368 	str	w8, [x27]
  20add0:	97ffdb5f 	bl	201b4c <udelay>
  20add4:	b90002bf 	str	wzr, [x21]
  20add8:	b900039f 	str	wzr, [x28]
  20addc:	52808000 	mov	w0, #0x400                 	// #1024
  20ade0:	b900037f 	str	wzr, [x27]
  20ade4:	b9000340 	str	w0, [x26]
  20ade8:	b9000320 	str	w0, [x25]
  20adec:	b9000300 	str	w0, [x24]
  20adf0:	52807d00 	mov	w0, #0x3e8                 	// #1000
  20adf4:	b90002b4 	str	w20, [x21]
  20adf8:	b9000394 	str	w20, [x28]
  20adfc:	b9000374 	str	w20, [x27]
  20ae00:	97ffdb53 	bl	201b4c <udelay>
  20ae04:	b90002bf 	str	wzr, [x21]
  20ae08:	b900039f 	str	wzr, [x28]
  20ae0c:	52807d00 	mov	w0, #0x3e8                 	// #1000
  20ae10:	b900037f 	str	wzr, [x27]
  20ae14:	97ffdb4e 	bl	201b4c <udelay>
  20ae18:	52822000 	mov	w0, #0x1100                	// #4352
  20ae1c:	d2881c84 	mov	x4, #0x40e4                	// #16612
  20ae20:	b90002a0 	str	w0, [x21]
  20ae24:	f2a20424 	movk	x4, #0x1021, lsl #16
  20ae28:	d2861c83 	mov	x3, #0x30e4                	// #12516
  20ae2c:	b9000380 	str	w0, [x28]
  20ae30:	f2a20423 	movk	x3, #0x1021, lsl #16
  20ae34:	d29c1c82 	mov	x2, #0xe0e4                	// #57572
  20ae38:	b9000360 	str	w0, [x27]
  20ae3c:	f2a20402 	movk	x2, #0x1020, lsl #16
  20ae40:	52801460 	mov	w0, #0xa3                  	// #163
  20ae44:	b9000080 	str	w0, [x4]
  20ae48:	b9000060 	str	w0, [x3]
  20ae4c:	d2880005 	mov	x5, #0x4000                	// #16384
  20ae50:	b9000040 	str	w0, [x2]
  20ae54:	529f7fe0 	mov	w0, #0xfbff                	// #64511
  20ae58:	b9000340 	str	w0, [x26]
  20ae5c:	f2a20425 	movk	x5, #0x1021, lsl #16
  20ae60:	b9000320 	str	w0, [x25]
  20ae64:	d288021a 	mov	x26, #0x4010                	// #16400
  20ae68:	b9000300 	str	w0, [x24]
  20ae6c:	52800400 	mov	w0, #0x20                  	// #32
  20ae70:	b90002a0 	str	w0, [x21]
  20ae74:	f2a2043a 	movk	x26, #0x1021, lsl #16
  20ae78:	b9000380 	str	w0, [x28]
  20ae7c:	d2860219 	mov	x25, #0x3010                	// #12304
  20ae80:	b9000360 	str	w0, [x27]
  20ae84:	d29c0218 	mov	x24, #0xe010                	// #57360
  20ae88:	b90002bf 	str	wzr, [x21]
  20ae8c:	f2a20439 	movk	x25, #0x1021, lsl #16
  20ae90:	b900039f 	str	wzr, [x28]
  20ae94:	f2a20418 	movk	x24, #0x1020, lsl #16
  20ae98:	b900037f 	str	wzr, [x27]
  20ae9c:	d2880387 	mov	x7, #0x401c                	// #16412
  20aea0:	f2a20427 	movk	x7, #0x1021, lsl #16
  20aea4:	d2860386 	mov	x6, #0x301c                	// #12316
  20aea8:	b9419260 	ldr	w0, [x19, #400]
  20aeac:	f2a20426 	movk	x6, #0x1021, lsl #16
  20aeb0:	b90000a0 	str	w0, [x5]
  20aeb4:	d2860005 	mov	x5, #0x3000                	// #12288
  20aeb8:	f2a20425 	movk	x5, #0x1021, lsl #16
  20aebc:	d2883b89 	mov	x9, #0x41dc                	// #16860
  20aec0:	f2a20429 	movk	x9, #0x1021, lsl #16
  20aec4:	d2882201 	mov	x1, #0x4110                	// #16656
  20aec8:	b90000a0 	str	w0, [x5]
  20aecc:	d29c0005 	mov	x5, #0xe000                	// #57344
  20aed0:	f2a20405 	movk	x5, #0x1020, lsl #16
  20aed4:	f2a20421 	movk	x1, #0x1021, lsl #16
  20aed8:	b90000a0 	str	w0, [x5]
  20aedc:	d2883f05 	mov	x5, #0x41f8                	// #16888
  20aee0:	f2a20425 	movk	x5, #0x1021, lsl #16
  20aee4:	b941b660 	ldr	w0, [x19, #436]
  20aee8:	b90000a0 	str	w0, [x5]
  20aeec:	d2863f05 	mov	x5, #0x31f8                	// #12792
  20aef0:	f2a20425 	movk	x5, #0x1021, lsl #16
  20aef4:	b90000a0 	str	w0, [x5]
  20aef8:	d29c3f05 	mov	x5, #0xe1f8                	// #57848
  20aefc:	f2a20405 	movk	x5, #0x1020, lsl #16
  20af00:	b90000a0 	str	w0, [x5]
  20af04:	d2880885 	mov	x5, #0x4044                	// #16452
  20af08:	f2a20425 	movk	x5, #0x1021, lsl #16
  20af0c:	b941a260 	ldr	w0, [x19, #416]
  20af10:	b90000a0 	str	w0, [x5]
  20af14:	d2860885 	mov	x5, #0x3044                	// #12356
  20af18:	f2a20425 	movk	x5, #0x1021, lsl #16
  20af1c:	b90000a0 	str	w0, [x5]
  20af20:	d29c0885 	mov	x5, #0xe044                	// #57412
  20af24:	f2a20405 	movk	x5, #0x1020, lsl #16
  20af28:	b90000a0 	str	w0, [x5]
  20af2c:	d29c0100 	mov	x0, #0xe008                	// #57352
  20af30:	f2a20400 	movk	x0, #0x1020, lsl #16
  20af34:	d2882005 	mov	x5, #0x4100                	// #16640
  20af38:	b941a668 	ldr	w8, [x19, #420]
  20af3c:	f2a20425 	movk	x5, #0x1021, lsl #16
  20af40:	b90002e8 	str	w8, [x23]
  20af44:	b90002c8 	str	w8, [x22]
  20af48:	b9000008 	str	w8, [x0]
  20af4c:	52902200 	mov	w0, #0x8110                	// #33040
  20af50:	b900035f 	str	wzr, [x26]
  20af54:	b900033f 	str	wzr, [x25]
  20af58:	b900031f 	str	wzr, [x24]
  20af5c:	b90000a0 	str	w0, [x5]
  20af60:	d2862005 	mov	x5, #0x3100                	// #12544
  20af64:	f2a20425 	movk	x5, #0x1021, lsl #16
  20af68:	b90000a0 	str	w0, [x5]
  20af6c:	d29c2005 	mov	x5, #0xe100                	// #57600
  20af70:	f2a20405 	movk	x5, #0x1020, lsl #16
  20af74:	b90000a0 	str	w0, [x5]
  20af78:	52824240 	mov	w0, #0x1212                	// #4626
  20af7c:	d29c0385 	mov	x5, #0xe01c                	// #57372
  20af80:	72a24240 	movk	w0, #0x1212, lsl #16
  20af84:	f2a20405 	movk	x5, #0x1020, lsl #16
  20af88:	b90000e0 	str	w0, [x7]
  20af8c:	b90000c0 	str	w0, [x6]
  20af90:	b90000a0 	str	w0, [x5]
  20af94:	b941aa60 	ldr	w0, [x19, #424]
  20af98:	12007400 	and	w0, w0, #0x3fffffff
  20af9c:	b9000120 	str	w0, [x9]
  20afa0:	d2863b89 	mov	x9, #0x31dc                	// #12764
  20afa4:	f2a20429 	movk	x9, #0x1021, lsl #16
  20afa8:	b9000120 	str	w0, [x9]
  20afac:	d29c3b89 	mov	x9, #0xe1dc                	// #57820
  20afb0:	f2a20409 	movk	x9, #0x1020, lsl #16
  20afb4:	b9000120 	str	w0, [x9]
  20afb8:	52889660 	mov	w0, #0x44b3                	// #17587
  20afbc:	72a04000 	movk	w0, #0x200, lsl #16
  20afc0:	b9000080 	str	w0, [x4]
  20afc4:	b9000060 	str	w0, [x3]
  20afc8:	b9000040 	str	w0, [x2]
  20afcc:	d2862202 	mov	x2, #0x3110                	// #12560
  20afd0:	f2a20422 	movk	x2, #0x1021, lsl #16
  20afd4:	5288b000 	mov	w0, #0x4580                	// #17792
  20afd8:	72a074c0 	movk	w0, #0x3a6, lsl #16
  20afdc:	b9000020 	str	w0, [x1]
  20afe0:	b9000040 	str	w0, [x2]
  20afe4:	d29c2202 	mov	x2, #0xe110                	// #57616
  20afe8:	f2a20402 	movk	x2, #0x1020, lsl #16
  20afec:	b9000040 	str	w0, [x2]
  20aff0:	52960e00 	mov	w0, #0xb070                	// #45168
  20aff4:	d29c0102 	mov	x2, #0xe008                	// #57352
  20aff8:	72a21400 	movk	w0, #0x10a0, lsl #16
  20affc:	f2a20402 	movk	x2, #0x1020, lsl #16
  20b000:	b90002e0 	str	w0, [x23]
  20b004:	b90002c0 	str	w0, [x22]
  20b008:	b9000040 	str	w0, [x2]
  20b00c:	b94002e0 	ldr	w0, [x23]
  20b010:	b94002c3 	ldr	w3, [x22]
  20b014:	b9400042 	ldr	w2, [x2]
  20b018:	2a030000 	orr	w0, w0, w3
  20b01c:	2a020000 	orr	w0, w0, w2
  20b020:	d29c0102 	mov	x2, #0xe008                	// #57352
  20b024:	f2a20402 	movk	x2, #0x1020, lsl #16
  20b028:	33001d00 	bfxil	w0, w8, #0, #8
  20b02c:	320b0000 	orr	w0, w0, #0x200000
  20b030:	b90002e0 	str	w0, [x23]
  20b034:	b90002c0 	str	w0, [x22]
  20b038:	b9000040 	str	w0, [x2]
  20b03c:	d2862202 	mov	x2, #0x3110                	// #12560
  20b040:	f2a20422 	movk	x2, #0x1021, lsl #16
  20b044:	b9400020 	ldr	w0, [x1]
  20b048:	b9400043 	ldr	w3, [x2]
  20b04c:	d29c2202 	mov	x2, #0xe110                	// #57616
  20b050:	f2a20402 	movk	x2, #0x1020, lsl #16
  20b054:	2a030000 	orr	w0, w0, w3
  20b058:	b9400042 	ldr	w2, [x2]
  20b05c:	2a020000 	orr	w0, w0, w2
  20b060:	121b7800 	and	w0, w0, #0xffffffef
  20b064:	b9000020 	str	w0, [x1]
  20b068:	d2862201 	mov	x1, #0x3110                	// #12560
  20b06c:	f2a20421 	movk	x1, #0x1021, lsl #16
  20b070:	b9000020 	str	w0, [x1]
  20b074:	d29c2201 	mov	x1, #0xe110                	// #57616
  20b078:	f2a20401 	movk	x1, #0x1020, lsl #16
  20b07c:	b9000020 	str	w0, [x1]
  20b080:	2a1403e1 	mov	w1, w20
  20b084:	f94037e0 	ldr	x0, [sp, #104]
  20b088:	97fff050 	bl	2071c8 <dle_factor_handler>
  20b08c:	d2880301 	mov	x1, #0x4018                	// #16408
  20b090:	5282c2c0 	mov	w0, #0x1616                	// #5654
  20b094:	f2a20421 	movk	x1, #0x1021, lsl #16
  20b098:	d2880387 	mov	x7, #0x401c                	// #16412
  20b09c:	f2a20427 	movk	x7, #0x1021, lsl #16
  20b0a0:	d2860386 	mov	x6, #0x301c                	// #12316
  20b0a4:	b9000020 	str	w0, [x1]
  20b0a8:	d2860301 	mov	x1, #0x3018                	// #12312
  20b0ac:	f2a20421 	movk	x1, #0x1021, lsl #16
  20b0b0:	f2a20426 	movk	x6, #0x1021, lsl #16
  20b0b4:	d29c0385 	mov	x5, #0xe01c                	// #57372
  20b0b8:	b9000020 	str	w0, [x1]
  20b0bc:	d29c0301 	mov	x1, #0xe018                	// #57368
  20b0c0:	f2a20401 	movk	x1, #0x1020, lsl #16
  20b0c4:	f2a20405 	movk	x5, #0x1020, lsl #16
  20b0c8:	b9000020 	str	w0, [x1]
  20b0cc:	3203c3e0 	mov	w0, #0x20202020            	// #538976288
  20b0d0:	b90000e0 	str	w0, [x7]
  20b0d4:	b90000c0 	str	w0, [x6]
  20b0d8:	b90000a0 	str	w0, [x5]
  20b0dc:	d2884200 	mov	x0, #0x4210                	// #16912
  20b0e0:	f2a20420 	movk	x0, #0x1021, lsl #16
  20b0e4:	b900001f 	str	wzr, [x0]
  20b0e8:	d2864200 	mov	x0, #0x3210                	// #12816
  20b0ec:	f2a20420 	movk	x0, #0x1021, lsl #16
  20b0f0:	b900001f 	str	wzr, [x0]
  20b0f4:	d29c4200 	mov	x0, #0xe210                	// #57872
  20b0f8:	f2a20400 	movk	x0, #0x1020, lsl #16
  20b0fc:	b900001f 	str	wzr, [x0]
  20b100:	d2884280 	mov	x0, #0x4214                	// #16916
  20b104:	f2a20420 	movk	x0, #0x1021, lsl #16
  20b108:	b900001f 	str	wzr, [x0]
  20b10c:	d2864280 	mov	x0, #0x3214                	// #12820
  20b110:	f2a20420 	movk	x0, #0x1021, lsl #16
  20b114:	b900001f 	str	wzr, [x0]
  20b118:	d29c4280 	mov	x0, #0xe214                	// #57876
  20b11c:	f2a20400 	movk	x0, #0x1020, lsl #16
  20b120:	b900001f 	str	wzr, [x0]
  20b124:	d2884300 	mov	x0, #0x4218                	// #16920
  20b128:	f2a20420 	movk	x0, #0x1021, lsl #16
  20b12c:	b900001f 	str	wzr, [x0]
  20b130:	d2864300 	mov	x0, #0x3218                	// #12824
  20b134:	f2a20420 	movk	x0, #0x1021, lsl #16
  20b138:	b900001f 	str	wzr, [x0]
  20b13c:	d29c4300 	mov	x0, #0xe218                	// #57880
  20b140:	f2a20400 	movk	x0, #0x1020, lsl #16
  20b144:	b900001f 	str	wzr, [x0]
  20b148:	d2884380 	mov	x0, #0x421c                	// #16924
  20b14c:	f2a20420 	movk	x0, #0x1021, lsl #16
  20b150:	b900001f 	str	wzr, [x0]
  20b154:	d2864380 	mov	x0, #0x321c                	// #12828
  20b158:	f2a20420 	movk	x0, #0x1021, lsl #16
  20b15c:	b900001f 	str	wzr, [x0]
  20b160:	d29c4380 	mov	x0, #0xe21c                	// #57884
  20b164:	f2a20400 	movk	x0, #0x1020, lsl #16
  20b168:	b900001f 	str	wzr, [x0]
  20b16c:	d2884400 	mov	x0, #0x4220                	// #16928
  20b170:	f2a20420 	movk	x0, #0x1021, lsl #16
  20b174:	b900001f 	str	wzr, [x0]
  20b178:	d2864400 	mov	x0, #0x3220                	// #12832
  20b17c:	f2a20420 	movk	x0, #0x1021, lsl #16
  20b180:	b900001f 	str	wzr, [x0]
  20b184:	d29c4400 	mov	x0, #0xe220                	// #57888
  20b188:	f2a20400 	movk	x0, #0x1020, lsl #16
  20b18c:	b900001f 	str	wzr, [x0]
  20b190:	d2884480 	mov	x0, #0x4224                	// #16932
  20b194:	f2a20420 	movk	x0, #0x1021, lsl #16
  20b198:	b900001f 	str	wzr, [x0]
  20b19c:	d2864480 	mov	x0, #0x3224                	// #12836
  20b1a0:	f2a20420 	movk	x0, #0x1021, lsl #16
  20b1a4:	b900001f 	str	wzr, [x0]
  20b1a8:	d29c4480 	mov	x0, #0xe224                	// #57892
  20b1ac:	f2a20400 	movk	x0, #0x1020, lsl #16
  20b1b0:	b900001f 	str	wzr, [x0]
  20b1b4:	d2884500 	mov	x0, #0x4228                	// #16936
  20b1b8:	f2a20420 	movk	x0, #0x1021, lsl #16
  20b1bc:	b900001f 	str	wzr, [x0]
  20b1c0:	d2864500 	mov	x0, #0x3228                	// #12840
  20b1c4:	f2a20420 	movk	x0, #0x1021, lsl #16
  20b1c8:	b900001f 	str	wzr, [x0]
  20b1cc:	d29c4500 	mov	x0, #0xe228                	// #57896
  20b1d0:	f2a20400 	movk	x0, #0x1020, lsl #16
  20b1d4:	b900001f 	str	wzr, [x0]
  20b1d8:	d2884580 	mov	x0, #0x422c                	// #16940
  20b1dc:	f2a20420 	movk	x0, #0x1021, lsl #16
  20b1e0:	b900001f 	str	wzr, [x0]
  20b1e4:	d2864580 	mov	x0, #0x322c                	// #12844
  20b1e8:	f2a20420 	movk	x0, #0x1021, lsl #16
  20b1ec:	b900001f 	str	wzr, [x0]
  20b1f0:	d29c4580 	mov	x0, #0xe22c                	// #57900
  20b1f4:	f2a20400 	movk	x0, #0x1020, lsl #16
  20b1f8:	b900001f 	str	wzr, [x0]
  20b1fc:	d2880280 	mov	x0, #0x4014                	// #16404
  20b200:	f2a20420 	movk	x0, #0x1021, lsl #16
  20b204:	b900001f 	str	wzr, [x0]
  20b208:	d2860280 	mov	x0, #0x3014                	// #12308
  20b20c:	f2a20420 	movk	x0, #0x1021, lsl #16
  20b210:	b900001f 	str	wzr, [x0]
  20b214:	d29c0280 	mov	x0, #0xe014                	// #57364
  20b218:	f2a20400 	movk	x0, #0x1020, lsl #16
  20b21c:	b900001f 	str	wzr, [x0]
  20b220:	d2884000 	mov	x0, #0x4200                	// #16896
  20b224:	b900035f 	str	wzr, [x26]
  20b228:	f2a20420 	movk	x0, #0x1021, lsl #16
  20b22c:	b900033f 	str	wzr, [x25]
  20b230:	b900031f 	str	wzr, [x24]
  20b234:	b900001f 	str	wzr, [x0]
  20b238:	d2864000 	mov	x0, #0x3200                	// #12800
  20b23c:	f2a20420 	movk	x0, #0x1021, lsl #16
  20b240:	b900001f 	str	wzr, [x0]
  20b244:	d29c4000 	mov	x0, #0xe200                	// #57856
  20b248:	f2a20400 	movk	x0, #0x1020, lsl #16
  20b24c:	b900001f 	str	wzr, [x0]
  20b250:	d2884080 	mov	x0, #0x4204                	// #16900
  20b254:	f2a20420 	movk	x0, #0x1021, lsl #16
  20b258:	b900001f 	str	wzr, [x0]
  20b25c:	d2864080 	mov	x0, #0x3204                	// #12804
  20b260:	f2a20420 	movk	x0, #0x1021, lsl #16
  20b264:	b900001f 	str	wzr, [x0]
  20b268:	d29c4080 	mov	x0, #0xe204                	// #57860
  20b26c:	f2a20400 	movk	x0, #0x1020, lsl #16
  20b270:	b900001f 	str	wzr, [x0]
  20b274:	d2884100 	mov	x0, #0x4208                	// #16904
  20b278:	f2a20420 	movk	x0, #0x1021, lsl #16
  20b27c:	b900001f 	str	wzr, [x0]
  20b280:	d2864100 	mov	x0, #0x3208                	// #12808
  20b284:	f2a20420 	movk	x0, #0x1021, lsl #16
  20b288:	b900001f 	str	wzr, [x0]
  20b28c:	d29c4100 	mov	x0, #0xe208                	// #57864
  20b290:	f2a20400 	movk	x0, #0x1020, lsl #16
  20b294:	b900001f 	str	wzr, [x0]
  20b298:	d2884180 	mov	x0, #0x420c                	// #16908
  20b29c:	f2a20420 	movk	x0, #0x1021, lsl #16
  20b2a0:	b900001f 	str	wzr, [x0]
  20b2a4:	d2864180 	mov	x0, #0x320c                	// #12812
  20b2a8:	f2a20420 	movk	x0, #0x1021, lsl #16
  20b2ac:	b900001f 	str	wzr, [x0]
  20b2b0:	d29c4180 	mov	x0, #0xe20c                	// #57868
  20b2b4:	f2a20400 	movk	x0, #0x1020, lsl #16
  20b2b8:	b900001f 	str	wzr, [x0]
  20b2bc:	17fffc41 	b	20a3c0 <mtk_set_emi_dram+0x1248>
  20b2c0:	52860200 	mov	w0, #0x3010                	// #12304
  20b2c4:	d2880881 	mov	x1, #0x4044                	// #16452
  20b2c8:	b9000280 	str	w0, [x20]
  20b2cc:	f2a20421 	movk	x1, #0x1021, lsl #16
  20b2d0:	52a80000 	mov	w0, #0x40000000            	// #1073741824
  20b2d4:	b901c260 	str	w0, [x19, #448]
  20b2d8:	52a001a2 	mov	w2, #0xd0000               	// #851968
  20b2dc:	b9400020 	ldr	w0, [x1]
  20b2e0:	120c6c00 	and	w0, w0, #0xfff0ffff
  20b2e4:	2a020000 	orr	w0, w0, w2
  20b2e8:	b9000020 	str	w0, [x1]
  20b2ec:	52800a02 	mov	w2, #0x50                  	// #80
  20b2f0:	b941a420 	ldr	w0, [x1, #420]
  20b2f4:	12186c00 	and	w0, w0, #0xffffff0f
  20b2f8:	2a020000 	orr	w0, w0, w2
  20b2fc:	b901a420 	str	w0, [x1, #420]
  20b300:	17fffc40 	b	20a400 <mtk_set_emi_dram+0x1288>

000000000020b304 <mtk_set_emi_reserve_mode>:
  20b304:	d2860000 	mov	x0, #0x3000                	// #12288
  20b308:	f2a20400 	movk	x0, #0x1020, lsl #16
  20b30c:	b9400000 	ldr	w0, [x0]
  20b310:	d2862c00 	mov	x0, #0x3160                	// #12640
  20b314:	f2a20400 	movk	x0, #0x1020, lsl #16
  20b318:	b900001f 	str	wzr, [x0]
  20b31c:	b900081f 	str	wzr, [x0, #8]
  20b320:	b900101f 	str	wzr, [x0, #16]
  20b324:	b900181f 	str	wzr, [x0, #24]
  20b328:	b900201f 	str	wzr, [x0, #32]
  20b32c:	b900281f 	str	wzr, [x0, #40]
  20b330:	b900301f 	str	wzr, [x0, #48]
  20b334:	b900381f 	str	wzr, [x0, #56]
  20b338:	b900401f 	str	wzr, [x0, #64]
  20b33c:	b900481f 	str	wzr, [x0, #72]
  20b340:	b900501f 	str	wzr, [x0, #80]
  20b344:	b900581f 	str	wzr, [x0, #88]
  20b348:	d65f03c0 	ret

000000000020b34c <complex_mem_test>:
  20b34c:	d342fc28 	lsr	x8, x1, #2
  20b350:	d3428422 	ubfx	x2, x1, #2, #32
  20b354:	d2800003 	mov	x3, #0x0                   	// #0
  20b358:	eb02007f 	cmp	x3, x2
  20b35c:	540013e3 	b.cc	20b5d8 <complex_mem_test+0x28c>  // b.lo, b.ul, b.last
  20b360:	d2800003 	mov	x3, #0x0                   	// #0
  20b364:	12800005 	mov	w5, #0xffffffff            	// #-1
  20b368:	eb03005f 	cmp	x2, x3
  20b36c:	540013c8 	b.hi	20b5e4 <complex_mem_test+0x298>  // b.pmore
  20b370:	d2800003 	mov	x3, #0x0                   	// #0
  20b374:	eb03005f 	cmp	x2, x3
  20b378:	54001428 	b.hi	20b5fc <complex_mem_test+0x2b0>  // b.pmore
  20b37c:	d2800003 	mov	x3, #0x0                   	// #0
  20b380:	12001c64 	and	w4, w3, #0xff
  20b384:	eb01007f 	cmp	x3, x1
  20b388:	54001481 	b.ne	20b618 <complex_mem_test+0x2cc>  // b.any
  20b38c:	d2800003 	mov	x3, #0x0                   	// #0
  20b390:	eb01007f 	cmp	x3, x1
  20b394:	54001481 	b.ne	20b624 <complex_mem_test+0x2d8>  // b.any
  20b398:	52800004 	mov	w4, #0x0                   	// #0
  20b39c:	d2800003 	mov	x3, #0x0                   	// #0
  20b3a0:	12001c65 	and	w5, w3, #0xff
  20b3a4:	eb01007f 	cmp	x3, x1
  20b3a8:	54001483 	b.cc	20b638 <complex_mem_test+0x2ec>  // b.lo, b.ul, b.last
  20b3ac:	d341fc21 	lsr	x1, x1, #1
  20b3b0:	d2800003 	mov	x3, #0x0                   	// #0
  20b3b4:	12003c64 	and	w4, w3, #0xffff
  20b3b8:	eb03003f 	cmp	x1, x3
  20b3bc:	540015a1 	b.ne	20b670 <complex_mem_test+0x324>  // b.any
  20b3c0:	d2800001 	mov	x1, #0x0                   	// #0
  20b3c4:	eb01007f 	cmp	x3, x1
  20b3c8:	540015a1 	b.ne	20b67c <complex_mem_test+0x330>  // b.any
  20b3cc:	d2800001 	mov	x1, #0x0                   	// #0
  20b3d0:	2a0103e3 	mov	w3, w1
  20b3d4:	eb01011f 	cmp	x8, x1
  20b3d8:	540015c1 	b.ne	20b690 <complex_mem_test+0x344>  // b.any
  20b3dc:	d2800004 	mov	x4, #0x0                   	// #0
  20b3e0:	eb04003f 	cmp	x1, x4
  20b3e4:	540015c1 	b.ne	20b69c <complex_mem_test+0x350>  // b.any
  20b3e8:	52844224 	mov	w4, #0x2211                	// #8721
  20b3ec:	d2800001 	mov	x1, #0x0                   	// #0
  20b3f0:	72a88664 	movk	w4, #0x4433, lsl #16
  20b3f4:	eb01005f 	cmp	x2, x1
  20b3f8:	540015c8 	b.hi	20b6b0 <complex_mem_test+0x364>  // b.pmore
  20b3fc:	52844225 	mov	w5, #0x2211                	// #8721
  20b400:	5294b4a6 	mov	w6, #0xa5a5                	// #42405
  20b404:	d2800001 	mov	x1, #0x0                   	// #0
  20b408:	72a88665 	movk	w5, #0x4433, lsl #16
  20b40c:	72b4b4a6 	movk	w6, #0xa5a5, lsl #16
  20b410:	eb01005f 	cmp	x2, x1
  20b414:	54001548 	b.hi	20b6bc <complex_mem_test+0x370>  // b.pmore
  20b418:	5294b4a5 	mov	w5, #0xa5a5                	// #42405
  20b41c:	d2800001 	mov	x1, #0x0                   	// #0
  20b420:	72b4b4a5 	movk	w5, #0xa5a5, lsl #16
  20b424:	eb01005f 	cmp	x2, x1
  20b428:	54001588 	b.hi	20b6d8 <complex_mem_test+0x38c>  // b.pmore
  20b42c:	91000801 	add	x1, x0, #0x2
  20b430:	5294a006 	mov	w6, #0xa500                	// #42240
  20b434:	aa0103e5 	mov	x5, x1
  20b438:	d2800004 	mov	x4, #0x0                   	// #0
  20b43c:	72b4b4a6 	movk	w6, #0xa5a5, lsl #16
  20b440:	eb04005f 	cmp	x2, x4
  20b444:	54001588 	b.hi	20b6f4 <complex_mem_test+0x3a8>  // b.pmore
  20b448:	5294a006 	mov	w6, #0xa500                	// #42240
  20b44c:	91000405 	add	x5, x0, #0x1
  20b450:	d2800004 	mov	x4, #0x0                   	// #0
  20b454:	72b4a006 	movk	w6, #0xa500, lsl #16
  20b458:	eb04005f 	cmp	x2, x4
  20b45c:	54001588 	b.hi	20b70c <complex_mem_test+0x3c0>  // b.pmore
  20b460:	91000c05 	add	x5, x0, #0x3
  20b464:	d2800004 	mov	x4, #0x0                   	// #0
  20b468:	52b4a006 	mov	w6, #0xa5000000            	// #-1526726656
  20b46c:	eb04005f 	cmp	x2, x4
  20b470:	540015a8 	b.hi	20b724 <complex_mem_test+0x3d8>  // b.pmore
  20b474:	d2800004 	mov	x4, #0x0                   	// #0
  20b478:	12800005 	mov	w5, #0xffffffff            	// #-1
  20b47c:	eb04005f 	cmp	x2, x4
  20b480:	540015e8 	b.hi	20b73c <complex_mem_test+0x3f0>  // b.pmore
  20b484:	d2800001 	mov	x1, #0x0                   	// #0
  20b488:	12800005 	mov	w5, #0xffffffff            	// #-1
  20b48c:	eb01005f 	cmp	x2, x1
  20b490:	54001608 	b.hi	20b750 <complex_mem_test+0x404>  // b.pmore
  20b494:	d2800001 	mov	x1, #0x0                   	// #0
  20b498:	eb01005f 	cmp	x2, x1
  20b49c:	54001688 	b.hi	20b76c <complex_mem_test+0x420>  // b.pmore
  20b4a0:	528b4b44 	mov	w4, #0x5a5a                	// #23130
  20b4a4:	d2800001 	mov	x1, #0x0                   	// #0
  20b4a8:	72ab4b44 	movk	w4, #0x5a5a, lsl #16
  20b4ac:	eb01005f 	cmp	x2, x1
  20b4b0:	54001688 	b.hi	20b780 <complex_mem_test+0x434>  // b.pmore
  20b4b4:	528b4b45 	mov	w5, #0x5a5a                	// #23130
  20b4b8:	5294b4a6 	mov	w6, #0xa5a5                	// #42405
  20b4bc:	d2800001 	mov	x1, #0x0                   	// #0
  20b4c0:	72ab4b45 	movk	w5, #0x5a5a, lsl #16
  20b4c4:	72b4b4a6 	movk	w6, #0xa5a5, lsl #16
  20b4c8:	eb01005f 	cmp	x2, x1
  20b4cc:	54001608 	b.hi	20b78c <complex_mem_test+0x440>  // b.pmore
  20b4d0:	5294b4a5 	mov	w5, #0xa5a5                	// #42405
  20b4d4:	528b4b46 	mov	w6, #0x5a5a                	// #23130
  20b4d8:	d2800001 	mov	x1, #0x0                   	// #0
  20b4dc:	72b4b4a5 	movk	w5, #0xa5a5, lsl #16
  20b4e0:	72ab4b46 	movk	w6, #0x5a5a, lsl #16
  20b4e4:	eb01005f 	cmp	x2, x1
  20b4e8:	54001608 	b.hi	20b7a8 <complex_mem_test+0x45c>  // b.pmore
  20b4ec:	528b4b45 	mov	w5, #0x5a5a                	// #23130
  20b4f0:	5294b4a6 	mov	w6, #0xa5a5                	// #42405
  20b4f4:	d2800001 	mov	x1, #0x0                   	// #0
  20b4f8:	72ab4b45 	movk	w5, #0x5a5a, lsl #16
  20b4fc:	72b4b4a6 	movk	w6, #0xa5a5, lsl #16
  20b500:	eb01005f 	cmp	x2, x1
  20b504:	54001608 	b.hi	20b7c4 <complex_mem_test+0x478>  // b.pmore
  20b508:	5294b4a5 	mov	w5, #0xa5a5                	// #42405
  20b50c:	528b4b46 	mov	w6, #0x5a5a                	// #23130
  20b510:	d2800001 	mov	x1, #0x0                   	// #0
  20b514:	72b4b4a5 	movk	w5, #0xa5a5, lsl #16
  20b518:	72ab4b46 	movk	w6, #0x5a5a, lsl #16
  20b51c:	eb01005f 	cmp	x2, x1
  20b520:	54001608 	b.hi	20b7e0 <complex_mem_test+0x494>  // b.pmore
  20b524:	528b4b44 	mov	w4, #0x5a5a                	// #23130
  20b528:	d2800001 	mov	x1, #0x0                   	// #0
  20b52c:	72ab4b44 	movk	w4, #0x5a5a, lsl #16
  20b530:	eb01005f 	cmp	x2, x1
  20b534:	54001648 	b.hi	20b7fc <complex_mem_test+0x4b0>  // b.pmore
  20b538:	531e7466 	lsl	w6, w3, #2
  20b53c:	528acf05 	mov	w5, #0x5678                	// #22136
  20b540:	531e7464 	lsl	w4, w3, #2
  20b544:	8b0000c6 	add	x6, x6, x0
  20b548:	aa0003e1 	mov	x1, x0
  20b54c:	52800f07 	mov	w7, #0x78                  	// #120
  20b550:	52800ac8 	mov	w8, #0x56                  	// #86
  20b554:	52824689 	mov	w9, #0x1234                	// #4660
  20b558:	72a24685 	movk	w5, #0x1234, lsl #16
  20b55c:	528acf0a 	mov	w10, #0x5678                	// #22136
  20b560:	5280068b 	mov	w11, #0x34                  	// #52
  20b564:	5280024c 	mov	w12, #0x12                  	// #18
  20b568:	eb0100df 	cmp	x6, x1
  20b56c:	54001528 	b.hi	20b810 <complex_mem_test+0x4c4>  // b.pmore
  20b570:	528acf05 	mov	w5, #0x5678                	// #22136
  20b574:	d2800001 	mov	x1, #0x0                   	// #0
  20b578:	72a24685 	movk	w5, #0x1234, lsl #16
  20b57c:	eb01005f 	cmp	x2, x1
  20b580:	540016c8 	b.hi	20b858 <complex_mem_test+0x50c>  // b.pmore
  20b584:	2a0403e6 	mov	w6, w4
  20b588:	51000484 	sub	w4, w4, #0x1
  20b58c:	d2800001 	mov	x1, #0x0                   	// #0
  20b590:	3900001f 	strb	wzr, [x0]
  20b594:	eb0100df 	cmp	x6, x1
  20b598:	540016a8 	b.hi	20b86c <complex_mem_test+0x520>  // b.pmore
  20b59c:	531f7864 	lsl	w4, w3, #1
  20b5a0:	531f7866 	lsl	w6, w3, #1
  20b5a4:	51000484 	sub	w4, w4, #0x1
  20b5a8:	aa0003e5 	mov	x5, x0
  20b5ac:	d2800001 	mov	x1, #0x0                   	// #0
  20b5b0:	7900001f 	strh	wzr, [x0]
  20b5b4:	eb0100df 	cmp	x6, x1
  20b5b8:	54001708 	b.hi	20b898 <complex_mem_test+0x54c>  // b.pmore
  20b5bc:	51000463 	sub	w3, w3, #0x1
  20b5c0:	d2800001 	mov	x1, #0x0                   	// #0
  20b5c4:	b900001f 	str	wzr, [x0]
  20b5c8:	eb01005f 	cmp	x2, x1
  20b5cc:	54001788 	b.hi	20b8bc <complex_mem_test+0x570>  // b.pmore
  20b5d0:	52800000 	mov	w0, #0x0                   	// #0
  20b5d4:	d65f03c0 	ret
  20b5d8:	b823781f 	str	wzr, [x0, x3, lsl #2]
  20b5dc:	91000463 	add	x3, x3, #0x1
  20b5e0:	17ffff5e 	b	20b358 <complex_mem_test+0xc>
  20b5e4:	d37ef464 	lsl	x4, x3, #2
  20b5e8:	b8606886 	ldr	w6, [x4, x0]
  20b5ec:	350017a6 	cbnz	w6, 20b8e0 <complex_mem_test+0x594>
  20b5f0:	91000463 	add	x3, x3, #0x1
  20b5f4:	b8206885 	str	w5, [x4, x0]
  20b5f8:	17ffff5c 	b	20b368 <complex_mem_test+0x1c>
  20b5fc:	d37ef464 	lsl	x4, x3, #2
  20b600:	b8606885 	ldr	w5, [x4, x0]
  20b604:	310004bf 	cmn	w5, #0x1
  20b608:	54001701 	b.ne	20b8e8 <complex_mem_test+0x59c>  // b.any
  20b60c:	91000463 	add	x3, x3, #0x1
  20b610:	b820689f 	str	wzr, [x4, x0]
  20b614:	17ffff58 	b	20b374 <complex_mem_test+0x28>
  20b618:	38206864 	strb	w4, [x3, x0]
  20b61c:	91000463 	add	x3, x3, #0x1
  20b620:	17ffff58 	b	20b380 <complex_mem_test+0x34>
  20b624:	38606864 	ldrb	w4, [x3, x0]
  20b628:	6b23009f 	cmp	w4, w3, uxtb
  20b62c:	54001621 	b.ne	20b8f0 <complex_mem_test+0x5a4>  // b.any
  20b630:	91000463 	add	x3, x3, #0x1
  20b634:	17ffff57 	b	20b390 <complex_mem_test+0x44>
  20b638:	38606869 	ldrb	w9, [x3, x0]
  20b63c:	d37f7c87 	ubfiz	x7, x4, #1, #32
  20b640:	12003ca6 	and	w6, w5, #0xffff
  20b644:	6b05013f 	cmp	w9, w5
  20b648:	540000a1 	b.ne	20b65c <complex_mem_test+0x310>  // b.any
  20b64c:	78276806 	strh	w6, [x0, x7]
  20b650:	91000863 	add	x3, x3, #0x2
  20b654:	11000484 	add	w4, w4, #0x1
  20b658:	17ffff52 	b	20b3a0 <complex_mem_test+0x54>
  20b65c:	78676805 	ldrh	w5, [x0, x7]
  20b660:	6b0600bf 	cmp	w5, w6
  20b664:	54ffff60 	b.eq	20b650 <complex_mem_test+0x304>  // b.none
  20b668:	12800060 	mov	w0, #0xfffffffc            	// #-4
  20b66c:	17ffffda 	b	20b5d4 <complex_mem_test+0x288>
  20b670:	78237804 	strh	w4, [x0, x3, lsl #1]
  20b674:	91000463 	add	x3, x3, #0x1
  20b678:	17ffff4f 	b	20b3b4 <complex_mem_test+0x68>
  20b67c:	78617804 	ldrh	w4, [x0, x1, lsl #1]
  20b680:	6b21209f 	cmp	w4, w1, uxth
  20b684:	540013a1 	b.ne	20b8f8 <complex_mem_test+0x5ac>  // b.any
  20b688:	91000421 	add	x1, x1, #0x1
  20b68c:	17ffff4e 	b	20b3c4 <complex_mem_test+0x78>
  20b690:	b8217801 	str	w1, [x0, x1, lsl #2]
  20b694:	91000421 	add	x1, x1, #0x1
  20b698:	17ffff4e 	b	20b3d0 <complex_mem_test+0x84>
  20b69c:	b8647805 	ldr	w5, [x0, x4, lsl #2]
  20b6a0:	6b0400bf 	cmp	w5, w4
  20b6a4:	540012e1 	b.ne	20b900 <complex_mem_test+0x5b4>  // b.any
  20b6a8:	91000484 	add	x4, x4, #0x1
  20b6ac:	17ffff4d 	b	20b3e0 <complex_mem_test+0x94>
  20b6b0:	b8217804 	str	w4, [x0, x1, lsl #2]
  20b6b4:	91000421 	add	x1, x1, #0x1
  20b6b8:	17ffff4f 	b	20b3f4 <complex_mem_test+0xa8>
  20b6bc:	d37ef424 	lsl	x4, x1, #2
  20b6c0:	b8606887 	ldr	w7, [x4, x0]
  20b6c4:	6b0500ff 	cmp	w7, w5
  20b6c8:	54001201 	b.ne	20b908 <complex_mem_test+0x5bc>  // b.any
  20b6cc:	91000421 	add	x1, x1, #0x1
  20b6d0:	b8206886 	str	w6, [x4, x0]
  20b6d4:	17ffff4f 	b	20b410 <complex_mem_test+0xc4>
  20b6d8:	d37ef424 	lsl	x4, x1, #2
  20b6dc:	b8606886 	ldr	w6, [x4, x0]
  20b6e0:	6b0500df 	cmp	w6, w5
  20b6e4:	54001161 	b.ne	20b910 <complex_mem_test+0x5c4>  // b.any
  20b6e8:	91000421 	add	x1, x1, #0x1
  20b6ec:	3820689f 	strb	wzr, [x4, x0]
  20b6f0:	17ffff4d 	b	20b424 <complex_mem_test+0xd8>
  20b6f4:	b85fe0a7 	ldur	w7, [x5, #-2]
  20b6f8:	6b0600ff 	cmp	w7, w6
  20b6fc:	540010e1 	b.ne	20b918 <complex_mem_test+0x5cc>  // b.any
  20b700:	91000484 	add	x4, x4, #0x1
  20b704:	380044bf 	strb	wzr, [x5], #4
  20b708:	17ffff4e 	b	20b440 <complex_mem_test+0xf4>
  20b70c:	b85ff0a7 	ldur	w7, [x5, #-1]
  20b710:	6b0600ff 	cmp	w7, w6
  20b714:	54001061 	b.ne	20b920 <complex_mem_test+0x5d4>  // b.any
  20b718:	91000484 	add	x4, x4, #0x1
  20b71c:	380044bf 	strb	wzr, [x5], #4
  20b720:	17ffff4e 	b	20b458 <complex_mem_test+0x10c>
  20b724:	b85fd0a7 	ldur	w7, [x5, #-3]
  20b728:	6b0600ff 	cmp	w7, w6
  20b72c:	54000fe1 	b.ne	20b928 <complex_mem_test+0x5dc>  // b.any
  20b730:	91000484 	add	x4, x4, #0x1
  20b734:	380044bf 	strb	wzr, [x5], #4
  20b738:	17ffff4d 	b	20b46c <complex_mem_test+0x120>
  20b73c:	b85fe026 	ldur	w6, [x1, #-2]
  20b740:	35000f86 	cbnz	w6, 20b930 <complex_mem_test+0x5e4>
  20b744:	91000484 	add	x4, x4, #0x1
  20b748:	78004425 	strh	w5, [x1], #4
  20b74c:	17ffff4c 	b	20b47c <complex_mem_test+0x130>
  20b750:	d37ef424 	lsl	x4, x1, #2
  20b754:	b8606886 	ldr	w6, [x4, x0]
  20b758:	314040df 	cmn	w6, #0x10, lsl #12
  20b75c:	54000ee1 	b.ne	20b938 <complex_mem_test+0x5ec>  // b.any
  20b760:	91000421 	add	x1, x1, #0x1
  20b764:	78206885 	strh	w5, [x4, x0]
  20b768:	17ffff49 	b	20b48c <complex_mem_test+0x140>
  20b76c:	b8617804 	ldr	w4, [x0, x1, lsl #2]
  20b770:	3100049f 	cmn	w4, #0x1
  20b774:	54000e61 	b.ne	20b940 <complex_mem_test+0x5f4>  // b.any
  20b778:	91000421 	add	x1, x1, #0x1
  20b77c:	17ffff47 	b	20b498 <complex_mem_test+0x14c>
  20b780:	b8217804 	str	w4, [x0, x1, lsl #2]
  20b784:	91000421 	add	x1, x1, #0x1
  20b788:	17ffff49 	b	20b4ac <complex_mem_test+0x160>
  20b78c:	d37ef424 	lsl	x4, x1, #2
  20b790:	b8606887 	ldr	w7, [x4, x0]
  20b794:	6b0500ff 	cmp	w7, w5
  20b798:	54000d81 	b.ne	20b948 <complex_mem_test+0x5fc>  // b.any
  20b79c:	91000421 	add	x1, x1, #0x1
  20b7a0:	b8206886 	str	w6, [x4, x0]
  20b7a4:	17ffff49 	b	20b4c8 <complex_mem_test+0x17c>
  20b7a8:	d37ef424 	lsl	x4, x1, #2
  20b7ac:	b8606887 	ldr	w7, [x4, x0]
  20b7b0:	6b0500ff 	cmp	w7, w5
  20b7b4:	54000ce1 	b.ne	20b950 <complex_mem_test+0x604>  // b.any
  20b7b8:	91000421 	add	x1, x1, #0x1
  20b7bc:	b8206886 	str	w6, [x4, x0]
  20b7c0:	17ffff49 	b	20b4e4 <complex_mem_test+0x198>
  20b7c4:	d37ef424 	lsl	x4, x1, #2
  20b7c8:	b8606887 	ldr	w7, [x4, x0]
  20b7cc:	6b0500ff 	cmp	w7, w5
  20b7d0:	54000c41 	b.ne	20b958 <complex_mem_test+0x60c>  // b.any
  20b7d4:	91000421 	add	x1, x1, #0x1
  20b7d8:	b8206886 	str	w6, [x4, x0]
  20b7dc:	17ffff49 	b	20b500 <complex_mem_test+0x1b4>
  20b7e0:	d37ef424 	lsl	x4, x1, #2
  20b7e4:	b8606887 	ldr	w7, [x4, x0]
  20b7e8:	6b0500ff 	cmp	w7, w5
  20b7ec:	54000ba1 	b.ne	20b960 <complex_mem_test+0x614>  // b.any
  20b7f0:	91000421 	add	x1, x1, #0x1
  20b7f4:	b8206886 	str	w6, [x4, x0]
  20b7f8:	17ffff49 	b	20b51c <complex_mem_test+0x1d0>
  20b7fc:	b8617805 	ldr	w5, [x0, x1, lsl #2]
  20b800:	6b0400bf 	cmp	w5, w4
  20b804:	54000b21 	b.ne	20b968 <complex_mem_test+0x61c>  // b.any
  20b808:	91000421 	add	x1, x1, #0x1
  20b80c:	17ffff49 	b	20b530 <complex_mem_test+0x1e4>
  20b810:	91008021 	add	x1, x1, #0x20
  20b814:	381e0027 	sturb	w7, [x1, #-32]
  20b818:	381e1028 	sturb	w8, [x1, #-31]
  20b81c:	781e2029 	sturh	w9, [x1, #-30]
  20b820:	b81e4025 	stur	w5, [x1, #-28]
  20b824:	781e802a 	sturh	w10, [x1, #-24]
  20b828:	381ea02b 	sturb	w11, [x1, #-22]
  20b82c:	381eb02c 	sturb	w12, [x1, #-21]
  20b830:	b81ec025 	stur	w5, [x1, #-20]
  20b834:	381f0027 	sturb	w7, [x1, #-16]
  20b838:	381f1028 	sturb	w8, [x1, #-15]
  20b83c:	781f2029 	sturh	w9, [x1, #-14]
  20b840:	b81f4025 	stur	w5, [x1, #-12]
  20b844:	781f802a 	sturh	w10, [x1, #-8]
  20b848:	381fa02b 	sturb	w11, [x1, #-6]
  20b84c:	381fb02c 	sturb	w12, [x1, #-5]
  20b850:	b81fc025 	stur	w5, [x1, #-4]
  20b854:	17ffff45 	b	20b568 <complex_mem_test+0x21c>
  20b858:	b8617806 	ldr	w6, [x0, x1, lsl #2]
  20b85c:	6b0500df 	cmp	w6, w5
  20b860:	54000881 	b.ne	20b970 <complex_mem_test+0x624>  // b.any
  20b864:	91000421 	add	x1, x1, #0x1
  20b868:	17ffff45 	b	20b57c <complex_mem_test+0x230>
  20b86c:	eb01009f 	cmp	x4, x1
  20b870:	54000089 	b.ls	20b880 <complex_mem_test+0x534>  // b.plast
  20b874:	11000425 	add	w5, w1, #0x1
  20b878:	92401ca7 	and	x7, x5, #0xff
  20b87c:	38276805 	strb	w5, [x0, x7]
  20b880:	92401c25 	and	x5, x1, #0xff
  20b884:	38656805 	ldrb	w5, [x0, x5]
  20b888:	6b2100bf 	cmp	w5, w1, uxtb
  20b88c:	54000761 	b.ne	20b978 <complex_mem_test+0x62c>  // b.any
  20b890:	91000421 	add	x1, x1, #0x1
  20b894:	17ffff40 	b	20b594 <complex_mem_test+0x248>
  20b898:	eb01009f 	cmp	x4, x1
  20b89c:	54000069 	b.ls	20b8a8 <complex_mem_test+0x55c>  // b.plast
  20b8a0:	11000427 	add	w7, w1, #0x1
  20b8a4:	790004a7 	strh	w7, [x5, #2]
  20b8a8:	784024a7 	ldrh	w7, [x5], #2
  20b8ac:	6b2120ff 	cmp	w7, w1, uxth
  20b8b0:	54000681 	b.ne	20b980 <complex_mem_test+0x634>  // b.any
  20b8b4:	91000421 	add	x1, x1, #0x1
  20b8b8:	17ffff3f 	b	20b5b4 <complex_mem_test+0x268>
  20b8bc:	eb01007f 	cmp	x3, x1
  20b8c0:	54000069 	b.ls	20b8cc <complex_mem_test+0x580>  // b.plast
  20b8c4:	11000424 	add	w4, w1, #0x1
  20b8c8:	b9000404 	str	w4, [x0, #4]
  20b8cc:	b8404404 	ldr	w4, [x0], #4
  20b8d0:	6b01009f 	cmp	w4, w1
  20b8d4:	540005a1 	b.ne	20b988 <complex_mem_test+0x63c>  // b.any
  20b8d8:	91000421 	add	x1, x1, #0x1
  20b8dc:	17ffff3b 	b	20b5c8 <complex_mem_test+0x27c>
  20b8e0:	12800000 	mov	w0, #0xffffffff            	// #-1
  20b8e4:	17ffff3c 	b	20b5d4 <complex_mem_test+0x288>
  20b8e8:	12800020 	mov	w0, #0xfffffffe            	// #-2
  20b8ec:	17ffff3a 	b	20b5d4 <complex_mem_test+0x288>
  20b8f0:	12800040 	mov	w0, #0xfffffffd            	// #-3
  20b8f4:	17ffff38 	b	20b5d4 <complex_mem_test+0x288>
  20b8f8:	12800080 	mov	w0, #0xfffffffb            	// #-5
  20b8fc:	17ffff36 	b	20b5d4 <complex_mem_test+0x288>
  20b900:	128000a0 	mov	w0, #0xfffffffa            	// #-6
  20b904:	17ffff34 	b	20b5d4 <complex_mem_test+0x288>
  20b908:	128000c0 	mov	w0, #0xfffffff9            	// #-7
  20b90c:	17ffff32 	b	20b5d4 <complex_mem_test+0x288>
  20b910:	128000e0 	mov	w0, #0xfffffff8            	// #-8
  20b914:	17ffff30 	b	20b5d4 <complex_mem_test+0x288>
  20b918:	12800100 	mov	w0, #0xfffffff7            	// #-9
  20b91c:	17ffff2e 	b	20b5d4 <complex_mem_test+0x288>
  20b920:	12800120 	mov	w0, #0xfffffff6            	// #-10
  20b924:	17ffff2c 	b	20b5d4 <complex_mem_test+0x288>
  20b928:	12800140 	mov	w0, #0xfffffff5            	// #-11
  20b92c:	17ffff2a 	b	20b5d4 <complex_mem_test+0x288>
  20b930:	12800160 	mov	w0, #0xfffffff4            	// #-12
  20b934:	17ffff28 	b	20b5d4 <complex_mem_test+0x288>
  20b938:	12800180 	mov	w0, #0xfffffff3            	// #-13
  20b93c:	17ffff26 	b	20b5d4 <complex_mem_test+0x288>
  20b940:	128001a0 	mov	w0, #0xfffffff2            	// #-14
  20b944:	17ffff24 	b	20b5d4 <complex_mem_test+0x288>
  20b948:	128001c0 	mov	w0, #0xfffffff1            	// #-15
  20b94c:	17ffff22 	b	20b5d4 <complex_mem_test+0x288>
  20b950:	128001e0 	mov	w0, #0xfffffff0            	// #-16
  20b954:	17ffff20 	b	20b5d4 <complex_mem_test+0x288>
  20b958:	12800200 	mov	w0, #0xffffffef            	// #-17
  20b95c:	17ffff1e 	b	20b5d4 <complex_mem_test+0x288>
  20b960:	12800220 	mov	w0, #0xffffffee            	// #-18
  20b964:	17ffff1c 	b	20b5d4 <complex_mem_test+0x288>
  20b968:	12800240 	mov	w0, #0xffffffed            	// #-19
  20b96c:	17ffff1a 	b	20b5d4 <complex_mem_test+0x288>
  20b970:	12800260 	mov	w0, #0xffffffec            	// #-20
  20b974:	17ffff18 	b	20b5d4 <complex_mem_test+0x288>
  20b978:	12800280 	mov	w0, #0xffffffeb            	// #-21
  20b97c:	17ffff16 	b	20b5d4 <complex_mem_test+0x288>
  20b980:	128002a0 	mov	w0, #0xffffffea            	// #-22
  20b984:	17ffff14 	b	20b5d4 <complex_mem_test+0x288>
  20b988:	128002c0 	mov	w0, #0xffffffe9            	// #-23
  20b98c:	17ffff12 	b	20b5d4 <complex_mem_test+0x288>

000000000020b990 <mtk_mem_init>:
  20b990:	a9be7bfd 	stp	x29, x30, [sp, #-32]!
  20b994:	910003fd 	mov	x29, sp
  20b998:	f9000bf3 	str	x19, [sp, #16]
  20b99c:	9400002f 	bl	20ba58 <dram_reserve_mode_enabled>
  20b9a0:	12001c13 	and	w19, w0, #0xff
  20b9a4:	94000034 	bl	20ba74 <check_dram_reserve_mode>
  20b9a8:	72001c1f 	tst	w0, #0xff
  20b9ac:	540001c0 	b.eq	20b9e4 <mtk_mem_init+0x54>  // b.none
  20b9b0:	97fffe55 	bl	20b304 <mtk_set_emi_reserve_mode>
  20b9b4:	d2840001 	mov	x1, #0x2000                	// #8192
  20b9b8:	d2a80000 	mov	x0, #0x40000000            	// #1073741824
  20b9bc:	97fffe64 	bl	20b34c <complex_mem_test>
  20b9c0:	2a0003e1 	mov	w1, w0
  20b9c4:	34000320 	cbz	w0, 20ba28 <mtk_mem_init+0x98>
  20b9c8:	f0000000 	adrp	x0, 20e000 <mtk_pin_info_pu+0x36c>
  20b9cc:	9135d000 	add	x0, x0, #0xd74
  20b9d0:	97ffecce 	bl	206d08 <tf_log>
  20b9d4:	f0000000 	adrp	x0, 20e000 <mtk_pin_info_pu+0x36c>
  20b9d8:	91366c00 	add	x0, x0, #0xd9b
  20b9dc:	97ffeccb 	bl	206d08 <tf_log>
  20b9e0:	9400001a 	bl	20ba48 <disable_dram_reserve_mode>
  20b9e4:	97fff5e5 	bl	209178 <mtk_set_emi_dram>
  20b9e8:	d2840001 	mov	x1, #0x2000                	// #8192
  20b9ec:	d2a80000 	mov	x0, #0x40000000            	// #1073741824
  20b9f0:	97fffe57 	bl	20b34c <complex_mem_test>
  20b9f4:	2a0003e1 	mov	w1, w0
  20b9f8:	34000100 	cbz	w0, 20ba18 <mtk_mem_init+0x88>
  20b9fc:	f0000000 	adrp	x0, 20e000 <mtk_pin_info_pu+0x36c>
  20ba00:	9135d000 	add	x0, x0, #0xd74
  20ba04:	97ffecc1 	bl	206d08 <tf_log>
  20ba08:	34000113 	cbz	w19, 20ba28 <mtk_mem_init+0x98>
  20ba0c:	f9400bf3 	ldr	x19, [sp, #16]
  20ba10:	a8c27bfd 	ldp	x29, x30, [sp], #32
  20ba14:	14000008 	b	20ba34 <enable_dram_reserve_mode>
  20ba18:	f0000000 	adrp	x0, 20e000 <mtk_pin_info_pu+0x36c>
  20ba1c:	9136f800 	add	x0, x0, #0xdbe
  20ba20:	97ffecba 	bl	206d08 <tf_log>
  20ba24:	17fffff9 	b	20ba08 <mtk_mem_init+0x78>
  20ba28:	f9400bf3 	ldr	x19, [sp, #16]
  20ba2c:	a8c27bfd 	ldp	x29, x30, [sp], #32
  20ba30:	d65f03c0 	ret

000000000020ba34 <enable_dram_reserve_mode>:
  20ba34:	52801002 	mov	w2, #0x80                  	// #128
  20ba38:	52800001 	mov	w1, #0x0                   	// #0
  20ba3c:	72a44002 	movk	w2, #0x2200, lsl #16
  20ba40:	d2800000 	mov	x0, #0x0                   	// #0
  20ba44:	17ffec28 	b	206ae4 <wdt_rmw>

000000000020ba48 <disable_dram_reserve_mode>:
  20ba48:	52a44002 	mov	w2, #0x22000000            	// #570425344
  20ba4c:	52801001 	mov	w1, #0x80                  	// #128
  20ba50:	d2800000 	mov	x0, #0x0                   	// #0
  20ba54:	17ffec24 	b	206ae4 <wdt_rmw>

000000000020ba58 <dram_reserve_mode_enabled>:
  20ba58:	a9bf7bfd 	stp	x29, x30, [sp, #-16]!
  20ba5c:	d2800000 	mov	x0, #0x0                   	// #0
  20ba60:	910003fd 	mov	x29, sp
  20ba64:	97ffec1c 	bl	206ad4 <wdt_read>
  20ba68:	53071c00 	ubfx	w0, w0, #7, #1
  20ba6c:	a8c17bfd 	ldp	x29, x30, [sp], #16
  20ba70:	d65f03c0 	ret

000000000020ba74 <check_dram_reserve_mode>:
  20ba74:	a9bd7bfd 	stp	x29, x30, [sp, #-48]!
  20ba78:	910003fd 	mov	x29, sp
  20ba7c:	a90153f3 	stp	x19, x20, [sp, #16]
  20ba80:	f90013f5 	str	x21, [sp, #32]
  20ba84:	97fffff5 	bl	20ba58 <dram_reserve_mode_enabled>
  20ba88:	72001c14 	ands	w20, w0, #0xff
  20ba8c:	540000e1 	b.ne	20baa8 <check_dram_reserve_mode+0x34>  // b.any
  20ba90:	52800013 	mov	w19, #0x0                   	// #0
  20ba94:	2a1303e0 	mov	w0, w19
  20ba98:	a94153f3 	ldp	x19, x20, [sp, #16]
  20ba9c:	f94013f5 	ldr	x21, [sp, #32]
  20baa0:	a8c37bfd 	ldp	x29, x30, [sp], #48
  20baa4:	d65f03c0 	ret
  20baa8:	d2800800 	mov	x0, #0x40                  	// #64
  20baac:	97ffec0a 	bl	206ad4 <wdt_read>
  20bab0:	378000a0 	tbnz	w0, #16, 20bac4 <check_dram_reserve_mode+0x50>
  20bab4:	f0000000 	adrp	x0, 20e000 <mtk_pin_info_pu+0x36c>
  20bab8:	91378400 	add	x0, x0, #0xde1
  20babc:	97ffec93 	bl	206d08 <tf_log>
  20bac0:	17fffff4 	b	20ba90 <check_dram_reserve_mode+0x1c>
  20bac4:	5290d433 	mov	w19, #0x86a1                	// #34465
  20bac8:	72a00033 	movk	w19, #0x1, lsl #16
  20bacc:	71000673 	subs	w19, w19, #0x1
  20bad0:	54000080 	b.eq	20bae0 <check_dram_reserve_mode+0x6c>  // b.none
  20bad4:	d2800800 	mov	x0, #0x40                  	// #64
  20bad8:	97ffebff 	bl	206ad4 <wdt_read>
  20badc:	368fff80 	tbz	w0, #17, 20bacc <check_dram_reserve_mode+0x58>
  20bae0:	d2800800 	mov	x0, #0x40                  	// #64
  20bae4:	97ffebfc 	bl	206ad4 <wdt_read>
  20bae8:	368802e0 	tbz	w0, #17, 20bb44 <check_dram_reserve_mode+0xd0>
  20baec:	52800013 	mov	w19, #0x0                   	// #0
  20baf0:	52ab2002 	mov	w2, #0x59000000            	// #1493172224
  20baf4:	52808001 	mov	w1, #0x400                 	// #1024
  20baf8:	d2800800 	mov	x0, #0x40                  	// #64
  20bafc:	97ffebfa 	bl	206ae4 <wdt_rmw>
  20bb00:	52ab2002 	mov	w2, #0x59000000            	// #1493172224
  20bb04:	52804001 	mov	w1, #0x200                 	// #512
  20bb08:	d2800800 	mov	x0, #0x40                  	// #64
  20bb0c:	97ffebf6 	bl	206ae4 <wdt_rmw>
  20bb10:	52ab2002 	mov	w2, #0x59000000            	// #1493172224
  20bb14:	52802001 	mov	w1, #0x100                 	// #256
  20bb18:	d2800800 	mov	x0, #0x40                  	// #64
  20bb1c:	97ffebf2 	bl	206ae4 <wdt_rmw>
  20bb20:	35fffb93 	cbnz	w19, 20ba90 <check_dram_reserve_mode+0x1c>
  20bb24:	5290d435 	mov	w21, #0x86a1                	// #34465
  20bb28:	72a00035 	movk	w21, #0x1, lsl #16
  20bb2c:	710006b5 	subs	w21, w21, #0x1
  20bb30:	54000141 	b.ne	20bb58 <check_dram_reserve_mode+0xe4>  // b.any
  20bb34:	f0000000 	adrp	x0, 20e000 <mtk_pin_info_pu+0x36c>
  20bb38:	91399000 	add	x0, x0, #0xe64
  20bb3c:	97ffec73 	bl	206d08 <tf_log>
  20bb40:	17ffffd5 	b	20ba94 <check_dram_reserve_mode+0x20>
  20bb44:	f0000000 	adrp	x0, 20e000 <mtk_pin_info_pu+0x36c>
  20bb48:	2a1403f3 	mov	w19, w20
  20bb4c:	91380000 	add	x0, x0, #0xe00
  20bb50:	97ffec6e 	bl	206d08 <tf_log>
  20bb54:	17ffffe7 	b	20baf0 <check_dram_reserve_mode+0x7c>
  20bb58:	d2800800 	mov	x0, #0x40                  	// #64
  20bb5c:	97ffebde 	bl	206ad4 <wdt_read>
  20bb60:	378ffe60 	tbnz	w0, #17, 20bb2c <check_dram_reserve_mode+0xb8>
  20bb64:	f0000000 	adrp	x0, 20e000 <mtk_pin_info_pu+0x36c>
  20bb68:	2a1403f3 	mov	w19, w20
  20bb6c:	91390800 	add	x0, x0, #0xe42
  20bb70:	97ffec66 	bl	206d08 <tf_log>
  20bb74:	17ffffc8 	b	20ba94 <check_dram_reserve_mode+0x20>

000000000020bb78 <memcmp>:
  20bb78:	d1000421 	sub	x1, x1, #0x1
  20bb7c:	d2800004 	mov	x4, #0x0                   	// #0
  20bb80:	eb04005f 	cmp	x2, x4
  20bb84:	54000061 	b.ne	20bb90 <memcmp+0x18>  // b.any
  20bb88:	52800000 	mov	w0, #0x0                   	// #0
  20bb8c:	14000007 	b	20bba8 <memcmp+0x30>
  20bb90:	38646803 	ldrb	w3, [x0, x4]
  20bb94:	91000484 	add	x4, x4, #0x1
  20bb98:	38646825 	ldrb	w5, [x1, x4]
  20bb9c:	6b05007f 	cmp	w3, w5
  20bba0:	54ffff00 	b.eq	20bb80 <memcmp+0x8>  // b.none
  20bba4:	4b050060 	sub	w0, w3, w5
  20bba8:	d65f03c0 	ret

000000000020bbac <memcpy>:
  20bbac:	d2800003 	mov	x3, #0x0                   	// #0
  20bbb0:	eb03005f 	cmp	x2, x3
  20bbb4:	54000041 	b.ne	20bbbc <memcpy+0x10>  // b.any
  20bbb8:	d65f03c0 	ret
  20bbbc:	38636824 	ldrb	w4, [x1, x3]
  20bbc0:	38236804 	strb	w4, [x0, x3]
  20bbc4:	91000463 	add	x3, x3, #0x1
  20bbc8:	17fffffa 	b	20bbb0 <memcpy+0x4>

000000000020bbcc <memmove>:
  20bbcc:	cb010006 	sub	x6, x0, x1
  20bbd0:	aa0003e5 	mov	x5, x0
  20bbd4:	eb0200df 	cmp	x6, x2
  20bbd8:	54000043 	b.cc	20bbe0 <memmove+0x14>  // b.lo, b.ul, b.last
  20bbdc:	17fffff4 	b	20bbac <memcpy>
  20bbe0:	8b020024 	add	x4, x1, x2
  20bbe4:	8b020000 	add	x0, x0, x2
  20bbe8:	eb05001f 	cmp	x0, x5
  20bbec:	54000041 	b.ne	20bbf4 <memmove+0x28>  // b.any
  20bbf0:	d65f03c0 	ret
  20bbf4:	385ffc81 	ldrb	w1, [x4, #-1]!
  20bbf8:	381ffc01 	strb	w1, [x0, #-1]!
  20bbfc:	17fffffb 	b	20bbe8 <memmove+0x1c>

000000000020bc00 <memset>:
  20bc00:	b4000342 	cbz	x2, 20bc68 <memset+0x68>
  20bc04:	12001c24 	and	w4, w1, #0xff
  20bc08:	aa0003e5 	mov	x5, x0
  20bc0c:	f24008a6 	ands	x6, x5, #0x7
  20bc10:	54000261 	b.ne	20bc5c <memset+0x5c>  // b.any
  20bc14:	d3781c83 	ubfiz	x3, x4, #8, #8
  20bc18:	92401c81 	and	x1, x4, #0xff
  20bc1c:	aa010061 	orr	x1, x3, x1
  20bc20:	d2800003 	mov	x3, #0x0                   	// #0
  20bc24:	aa014021 	orr	x1, x1, x1, lsl #16
  20bc28:	aa018021 	orr	x1, x1, x1, lsl #32
  20bc2c:	cb030047 	sub	x7, x2, x3
  20bc30:	f1001cff 	cmp	x7, #0x7
  20bc34:	540001c8 	b.hi	20bc6c <memset+0x6c>  // b.pmore
  20bc38:	d343fc41 	lsr	x1, x2, #3
  20bc3c:	928000e3 	mov	x3, #0xfffffffffffffff8    	// #-8
  20bc40:	9b030822 	madd	x2, x1, x3, x2
  20bc44:	8b010ca1 	add	x1, x5, x1, lsl #3
  20bc48:	eb06005f 	cmp	x2, x6
  20bc4c:	540000e0 	b.eq	20bc68 <memset+0x68>  // b.none
  20bc50:	38266824 	strb	w4, [x1, x6]
  20bc54:	910004c6 	add	x6, x6, #0x1
  20bc58:	17fffffc 	b	20bc48 <memset+0x48>
  20bc5c:	380014a4 	strb	w4, [x5], #1
  20bc60:	f1000442 	subs	x2, x2, #0x1
  20bc64:	54fffd41 	b.ne	20bc0c <memset+0xc>  // b.any
  20bc68:	d65f03c0 	ret
  20bc6c:	f82368a1 	str	x1, [x5, x3]
  20bc70:	91002063 	add	x3, x3, #0x8
  20bc74:	17ffffee 	b	20bc2c <memset+0x2c>

000000000020bc78 <unsigned_num_print.part.0>:
  20bc78:	a9ba7bfd 	stp	x29, x30, [sp, #-96]!
  20bc7c:	2a0103e1 	mov	w1, w1
  20bc80:	910003fd 	mov	x29, sp
  20bc84:	a9025bf5 	stp	x21, x22, [sp, #32]
  20bc88:	910123f5 	add	x21, sp, #0x48
  20bc8c:	f9001bf7 	str	x23, [sp, #48]
  20bc90:	12001c57 	and	w23, w2, #0xff
  20bc94:	a90153f3 	stp	x19, x20, [sp, #16]
  20bc98:	2a0303f3 	mov	w19, w3
  20bc9c:	d2800003 	mov	x3, #0x0                   	// #0
  20bca0:	9ac10807 	udiv	x7, x0, x1
  20bca4:	11000474 	add	w20, w3, #0x1
  20bca8:	9b0180e6 	msub	x6, x7, x1, x0
  20bcac:	12001cc4 	and	w4, w6, #0xff
  20bcb0:	f10024df 	cmp	x6, #0x9
  20bcb4:	1100c085 	add	w5, w4, #0x30
  20bcb8:	11015c84 	add	w4, w4, #0x57
  20bcbc:	12001ca5 	and	w5, w5, #0xff
  20bcc0:	12001c84 	and	w4, w4, #0xff
  20bcc4:	1a858084 	csel	w4, w4, w5, hi  // hi = pmore
  20bcc8:	38356864 	strb	w4, [x3, x21]
  20bccc:	91000463 	add	x3, x3, #0x1
  20bcd0:	eb00003f 	cmp	x1, x0
  20bcd4:	540001c9 	b.ls	20bd0c <unsigned_num_print.part.0+0x94>  // b.plast
  20bcd8:	7100027f 	cmp	w19, #0x0
  20bcdc:	540002cc 	b.gt	20bd34 <unsigned_num_print.part.0+0xbc>
  20bce0:	52800013 	mov	w19, #0x0                   	// #0
  20bce4:	93407e96 	sxtw	x22, w20
  20bce8:	d10006d6 	sub	x22, x22, #0x1
  20bcec:	310006df 	cmn	w22, #0x1
  20bcf0:	54000261 	b.ne	20bd3c <unsigned_num_print.part.0+0xc4>  // b.any
  20bcf4:	0b140260 	add	w0, w19, w20
  20bcf8:	a94153f3 	ldp	x19, x20, [sp, #16]
  20bcfc:	a9425bf5 	ldp	x21, x22, [sp, #32]
  20bd00:	f9401bf7 	ldr	x23, [sp, #48]
  20bd04:	a8c67bfd 	ldp	x29, x30, [sp], #96
  20bd08:	d65f03c0 	ret
  20bd0c:	aa0703e0 	mov	x0, x7
  20bd10:	17ffffe4 	b	20bca0 <unsigned_num_print.part.0+0x28>
  20bd14:	510006d6 	sub	w22, w22, #0x1
  20bd18:	2a1703e0 	mov	w0, w23
  20bd1c:	97ffec5f 	bl	206e98 <putchar>
  20bd20:	6b1402df 	cmp	w22, w20
  20bd24:	54ffff8c 	b.gt	20bd14 <unsigned_num_print.part.0+0x9c>
  20bd28:	6b140260 	subs	w0, w19, w20
  20bd2c:	1a9fa013 	csel	w19, w0, wzr, ge  // ge = tcont
  20bd30:	17ffffed 	b	20bce4 <unsigned_num_print.part.0+0x6c>
  20bd34:	2a1303f6 	mov	w22, w19
  20bd38:	17fffffa 	b	20bd20 <unsigned_num_print.part.0+0xa8>
  20bd3c:	38766aa0 	ldrb	w0, [x21, x22]
  20bd40:	97ffec56 	bl	206e98 <putchar>
  20bd44:	17ffffe9 	b	20bce8 <unsigned_num_print.part.0+0x70>

000000000020bd48 <vprintf>:
  20bd48:	a9b97bfd 	stp	x29, x30, [sp, #-112]!
  20bd4c:	910003fd 	mov	x29, sp
  20bd50:	a90153f3 	stp	x19, x20, [sp, #16]
  20bd54:	b9401834 	ldr	w20, [x1, #24]
  20bd58:	a90363f7 	stp	x23, x24, [sp, #48]
  20bd5c:	a9405c33 	ldp	x19, x23, [x1]
  20bd60:	a9025bf5 	stp	x21, x22, [sp, #32]
  20bd64:	aa0003f6 	mov	x22, x0
  20bd68:	a9046bf9 	stp	x25, x26, [sp, #64]
  20bd6c:	f000001a 	adrp	x26, 20e000 <mtk_pin_info_pu+0x36c>
  20bd70:	9105e35a 	add	x26, x26, #0x178
  20bd74:	52800015 	mov	w21, #0x0                   	// #0
  20bd78:	52800019 	mov	w25, #0x0                   	// #0
  20bd7c:	a90573fb 	stp	x27, x28, [sp, #80]
  20bd80:	394002c0 	ldrb	w0, [x22]
  20bd84:	35000120 	cbnz	w0, 20bda8 <vprintf+0x60>
  20bd88:	2a1503e0 	mov	w0, w21
  20bd8c:	a94153f3 	ldp	x19, x20, [sp, #16]
  20bd90:	a9425bf5 	ldp	x21, x22, [sp, #32]
  20bd94:	a94363f7 	ldp	x23, x24, [sp, #48]
  20bd98:	a9446bf9 	ldp	x25, x26, [sp, #64]
  20bd9c:	a94573fb 	ldp	x27, x28, [sp, #80]
  20bda0:	a8c77bfd 	ldp	x29, x30, [sp], #112
  20bda4:	d65f03c0 	ret
  20bda8:	910006d6 	add	x22, x22, #0x1
  20bdac:	7100941f 	cmp	w0, #0x25
  20bdb0:	54001e81 	b.ne	20c180 <vprintf+0x438>  // b.any
  20bdb4:	52800018 	mov	w24, #0x0                   	// #0
  20bdb8:	52800001 	mov	w1, #0x0                   	// #0
  20bdbc:	14000002 	b	20bdc4 <vprintf+0x7c>
  20bdc0:	52800619 	mov	w25, #0x30                  	// #48
  20bdc4:	394002c0 	ldrb	w0, [x22]
  20bdc8:	7101e81f 	cmp	w0, #0x7a
  20bdcc:	540000e8 	b.hi	20bde8 <vprintf+0xa0>  // b.pmore
  20bdd0:	7101881f 	cmp	w0, #0x62
  20bdd4:	540000e8 	b.hi	20bdf0 <vprintf+0xa8>  // b.pmore
  20bdd8:	7100941f 	cmp	w0, #0x25
  20bddc:	54000180 	b.eq	20be0c <vprintf+0xc4>  // b.none
  20bde0:	7100c01f 	cmp	w0, #0x30
  20bde4:	54001b80 	b.eq	20c154 <vprintf+0x40c>  // b.none
  20bde8:	12800015 	mov	w21, #0xffffffff            	// #-1
  20bdec:	17ffffe7 	b	20bd88 <vprintf+0x40>
  20bdf0:	51018c00 	sub	w0, w0, #0x63
  20bdf4:	71005c1f 	cmp	w0, #0x17
  20bdf8:	54ffff88 	b.hi	20bde8 <vprintf+0xa0>  // b.pmore
  20bdfc:	78605b40 	ldrh	w0, [x26, w0, uxtw #1]
  20be00:	10000062 	adr	x2, 20be0c <vprintf+0xc4>
  20be04:	8b20a840 	add	x0, x2, w0, sxth #2
  20be08:	d61f0000 	br	x0
  20be0c:	97ffec23 	bl	206e98 <putchar>
  20be10:	910006d6 	add	x22, x22, #0x1
  20be14:	17ffffdb 	b	20bd80 <vprintf+0x38>
  20be18:	7100043f 	cmp	w1, #0x1
  20be1c:	5400022d 	b.le	20be60 <vprintf+0x118>
  20be20:	37f802f4 	tbnz	w20, #31, 20be7c <vprintf+0x134>
  20be24:	91003e60 	add	x0, x19, #0xf
  20be28:	2a1403e1 	mov	w1, w20
  20be2c:	927df000 	and	x0, x0, #0xfffffffffffffff8
  20be30:	f940027c 	ldr	x28, [x19]
  20be34:	2a0103f4 	mov	w20, w1
  20be38:	aa0003f3 	mov	x19, x0
  20be3c:	b6f8045c 	tbz	x28, #63, 20bec4 <vprintf+0x17c>
  20be40:	528005a0 	mov	w0, #0x2d                  	// #45
  20be44:	97ffec15 	bl	206e98 <putchar>
  20be48:	cb1c03e0 	neg	x0, x28
  20be4c:	51000718 	sub	w24, w24, #0x1
  20be50:	2a1803e3 	mov	w3, w24
  20be54:	2a1903e2 	mov	w2, w25
  20be58:	52800141 	mov	w1, #0xa                   	// #10
  20be5c:	14000079 	b	20c040 <vprintf+0x2f8>
  20be60:	54fffe00 	b.eq	20be20 <vprintf+0xd8>  // b.none
  20be64:	37f801f4 	tbnz	w20, #31, 20bea0 <vprintf+0x158>
  20be68:	91002e60 	add	x0, x19, #0xb
  20be6c:	2a1403e1 	mov	w1, w20
  20be70:	927df000 	and	x0, x0, #0xfffffffffffffff8
  20be74:	b980027c 	ldrsw	x28, [x19]
  20be78:	17ffffef 	b	20be34 <vprintf+0xec>
  20be7c:	11002281 	add	w1, w20, #0x8
  20be80:	7100003f 	cmp	w1, #0x0
  20be84:	5400008d 	b.le	20be94 <vprintf+0x14c>
  20be88:	91003e60 	add	x0, x19, #0xf
  20be8c:	927df000 	and	x0, x0, #0xfffffffffffffff8
  20be90:	17ffffe8 	b	20be30 <vprintf+0xe8>
  20be94:	aa1303e0 	mov	x0, x19
  20be98:	8b34c2f3 	add	x19, x23, w20, sxtw
  20be9c:	17ffffe5 	b	20be30 <vprintf+0xe8>
  20bea0:	11002281 	add	w1, w20, #0x8
  20bea4:	7100003f 	cmp	w1, #0x0
  20bea8:	5400008d 	b.le	20beb8 <vprintf+0x170>
  20beac:	91002e60 	add	x0, x19, #0xb
  20beb0:	927df000 	and	x0, x0, #0xfffffffffffffff8
  20beb4:	17fffff0 	b	20be74 <vprintf+0x12c>
  20beb8:	aa1303e0 	mov	x0, x19
  20bebc:	8b34c2f3 	add	x19, x23, w20, sxtw
  20bec0:	17ffffed 	b	20be74 <vprintf+0x12c>
  20bec4:	aa1c03e0 	mov	x0, x28
  20bec8:	17ffffe2 	b	20be50 <vprintf+0x108>
  20becc:	37f80154 	tbnz	w20, #31, 20bef4 <vprintf+0x1ac>
  20bed0:	91002e78 	add	x24, x19, #0xb
  20bed4:	2a1403fc 	mov	w28, w20
  20bed8:	927df318 	and	x24, x24, #0xfffffffffffffff8
  20bedc:	b9400260 	ldr	w0, [x19]
  20bee0:	110006b5 	add	w21, w21, #0x1
  20bee4:	97ffebed 	bl	206e98 <putchar>
  20bee8:	2a1c03f4 	mov	w20, w28
  20beec:	aa1803f3 	mov	x19, x24
  20bef0:	17ffffc8 	b	20be10 <vprintf+0xc8>
  20bef4:	1100229c 	add	w28, w20, #0x8
  20bef8:	7100039f 	cmp	w28, #0x0
  20befc:	5400008d 	b.le	20bf0c <vprintf+0x1c4>
  20bf00:	91002e78 	add	x24, x19, #0xb
  20bf04:	927df318 	and	x24, x24, #0xfffffffffffffff8
  20bf08:	17fffff5 	b	20bedc <vprintf+0x194>
  20bf0c:	aa1303f8 	mov	x24, x19
  20bf10:	8b34c2f3 	add	x19, x23, w20, sxtw
  20bf14:	17fffff2 	b	20bedc <vprintf+0x194>
  20bf18:	37f801b4 	tbnz	w20, #31, 20bf4c <vprintf+0x204>
  20bf1c:	91003e78 	add	x24, x19, #0xf
  20bf20:	2a1403fc 	mov	w28, w20
  20bf24:	927df318 	and	x24, x24, #0xfffffffffffffff8
  20bf28:	f9400274 	ldr	x20, [x19]
  20bf2c:	d2800013 	mov	x19, #0x0                   	// #0
  20bf30:	d1000694 	sub	x20, x20, #0x1
  20bf34:	2a1303e1 	mov	w1, w19
  20bf38:	91000673 	add	x19, x19, #0x1
  20bf3c:	38736a80 	ldrb	w0, [x20, x19]
  20bf40:	35000180 	cbnz	w0, 20bf70 <vprintf+0x228>
  20bf44:	0b0102b5 	add	w21, w21, w1
  20bf48:	17ffffe8 	b	20bee8 <vprintf+0x1a0>
  20bf4c:	1100229c 	add	w28, w20, #0x8
  20bf50:	7100039f 	cmp	w28, #0x0
  20bf54:	5400008d 	b.le	20bf64 <vprintf+0x21c>
  20bf58:	91003e78 	add	x24, x19, #0xf
  20bf5c:	927df318 	and	x24, x24, #0xfffffffffffffff8
  20bf60:	17fffff2 	b	20bf28 <vprintf+0x1e0>
  20bf64:	aa1303f8 	mov	x24, x19
  20bf68:	8b34c2f3 	add	x19, x23, w20, sxtw
  20bf6c:	17ffffef 	b	20bf28 <vprintf+0x1e0>
  20bf70:	97ffebca 	bl	206e98 <putchar>
  20bf74:	17fffff0 	b	20bf34 <vprintf+0x1ec>
  20bf78:	37f801f4 	tbnz	w20, #31, 20bfb4 <vprintf+0x26c>
  20bf7c:	91003e7c 	add	x28, x19, #0xf
  20bf80:	2a1403fb 	mov	w27, w20
  20bf84:	927df39c 	and	x28, x28, #0xfffffffffffffff8
  20bf88:	f9400265 	ldr	x5, [x19]
  20bf8c:	b50003a5 	cbnz	x5, 20c000 <vprintf+0x2b8>
  20bf90:	2a1803e3 	mov	w3, w24
  20bf94:	2a1903e2 	mov	w2, w25
  20bf98:	aa0503e0 	mov	x0, x5
  20bf9c:	52800201 	mov	w1, #0x10                  	// #16
  20bfa0:	2a1b03f4 	mov	w20, w27
  20bfa4:	97ffff35 	bl	20bc78 <unsigned_num_print.part.0>
  20bfa8:	aa1c03f3 	mov	x19, x28
  20bfac:	0b0002b5 	add	w21, w21, w0
  20bfb0:	17ffff98 	b	20be10 <vprintf+0xc8>
  20bfb4:	1100229b 	add	w27, w20, #0x8
  20bfb8:	7100037f 	cmp	w27, #0x0
  20bfbc:	5400008d 	b.le	20bfcc <vprintf+0x284>
  20bfc0:	91003e7c 	add	x28, x19, #0xf
  20bfc4:	927df39c 	and	x28, x28, #0xfffffffffffffff8
  20bfc8:	17fffff0 	b	20bf88 <vprintf+0x240>
  20bfcc:	aa1303fc 	mov	x28, x19
  20bfd0:	8b34c2f3 	add	x19, x23, w20, sxtw
  20bfd4:	17ffffed 	b	20bf88 <vprintf+0x240>
  20bfd8:	f90037e5 	str	x5, [sp, #104]
  20bfdc:	97ffebaf 	bl	206e98 <putchar>
  20bfe0:	f94037e5 	ldr	x5, [sp, #104]
  20bfe4:	2a1303e1 	mov	w1, w19
  20bfe8:	91000673 	add	x19, x19, #0x1
  20bfec:	38746a60 	ldrb	w0, [x19, x20]
  20bff0:	35ffff40 	cbnz	w0, 20bfd8 <vprintf+0x290>
  20bff4:	0b0102b5 	add	w21, w21, w1
  20bff8:	51000b18 	sub	w24, w24, #0x2
  20bffc:	17ffffe5 	b	20bf90 <vprintf+0x248>
  20c000:	d0000014 	adrp	x20, 20e000 <mtk_pin_info_pu+0x36c>
  20c004:	d2800013 	mov	x19, #0x0                   	// #0
  20c008:	913a4294 	add	x20, x20, #0xe90
  20c00c:	17fffff6 	b	20bfe4 <vprintf+0x29c>
  20c010:	7100043f 	cmp	w1, #0x1
  20c014:	540001cd 	b.le	20c04c <vprintf+0x304>
  20c018:	37f80294 	tbnz	w20, #31, 20c068 <vprintf+0x320>
  20c01c:	91003e61 	add	x1, x19, #0xf
  20c020:	2a1403e2 	mov	w2, w20
  20c024:	927df021 	and	x1, x1, #0xfffffffffffffff8
  20c028:	f9400260 	ldr	x0, [x19]
  20c02c:	2a0203f4 	mov	w20, w2
  20c030:	2a1803e3 	mov	w3, w24
  20c034:	2a1903e2 	mov	w2, w25
  20c038:	aa0103f3 	mov	x19, x1
  20c03c:	52800201 	mov	w1, #0x10                  	// #16
  20c040:	97ffff0e 	bl	20bc78 <unsigned_num_print.part.0>
  20c044:	0b0002b5 	add	w21, w21, w0
  20c048:	17ffff72 	b	20be10 <vprintf+0xc8>
  20c04c:	54fffe60 	b.eq	20c018 <vprintf+0x2d0>  // b.none
  20c050:	37f801f4 	tbnz	w20, #31, 20c08c <vprintf+0x344>
  20c054:	91002e61 	add	x1, x19, #0xb
  20c058:	2a1403e2 	mov	w2, w20
  20c05c:	927df021 	and	x1, x1, #0xfffffffffffffff8
  20c060:	b9400260 	ldr	w0, [x19]
  20c064:	17fffff2 	b	20c02c <vprintf+0x2e4>
  20c068:	11002282 	add	w2, w20, #0x8
  20c06c:	7100005f 	cmp	w2, #0x0
  20c070:	5400008d 	b.le	20c080 <vprintf+0x338>
  20c074:	91003e61 	add	x1, x19, #0xf
  20c078:	927df021 	and	x1, x1, #0xfffffffffffffff8
  20c07c:	17ffffeb 	b	20c028 <vprintf+0x2e0>
  20c080:	aa1303e1 	mov	x1, x19
  20c084:	8b34c2f3 	add	x19, x23, w20, sxtw
  20c088:	17ffffe8 	b	20c028 <vprintf+0x2e0>
  20c08c:	11002282 	add	w2, w20, #0x8
  20c090:	7100005f 	cmp	w2, #0x0
  20c094:	5400008d 	b.le	20c0a4 <vprintf+0x35c>
  20c098:	91002e61 	add	x1, x19, #0xb
  20c09c:	927df021 	and	x1, x1, #0xfffffffffffffff8
  20c0a0:	17fffff0 	b	20c060 <vprintf+0x318>
  20c0a4:	aa1303e1 	mov	x1, x19
  20c0a8:	8b34c2f3 	add	x19, x23, w20, sxtw
  20c0ac:	17ffffed 	b	20c060 <vprintf+0x318>
  20c0b0:	910006d6 	add	x22, x22, #0x1
  20c0b4:	52800041 	mov	w1, #0x2                   	// #2
  20c0b8:	17ffff43 	b	20bdc4 <vprintf+0x7c>
  20c0bc:	11000421 	add	w1, w1, #0x1
  20c0c0:	910006d6 	add	x22, x22, #0x1
  20c0c4:	17ffff40 	b	20bdc4 <vprintf+0x7c>
  20c0c8:	7100043f 	cmp	w1, #0x1
  20c0cc:	5400012d 	b.le	20c0f0 <vprintf+0x3a8>
  20c0d0:	37f801f4 	tbnz	w20, #31, 20c10c <vprintf+0x3c4>
  20c0d4:	91003e61 	add	x1, x19, #0xf
  20c0d8:	2a1403e2 	mov	w2, w20
  20c0dc:	927df021 	and	x1, x1, #0xfffffffffffffff8
  20c0e0:	f9400260 	ldr	x0, [x19]
  20c0e4:	2a0203f4 	mov	w20, w2
  20c0e8:	aa0103f3 	mov	x19, x1
  20c0ec:	17ffff59 	b	20be50 <vprintf+0x108>
  20c0f0:	54ffff00 	b.eq	20c0d0 <vprintf+0x388>  // b.none
  20c0f4:	37f801f4 	tbnz	w20, #31, 20c130 <vprintf+0x3e8>
  20c0f8:	91002e61 	add	x1, x19, #0xb
  20c0fc:	2a1403e2 	mov	w2, w20
  20c100:	927df021 	and	x1, x1, #0xfffffffffffffff8
  20c104:	b9400260 	ldr	w0, [x19]
  20c108:	17fffff7 	b	20c0e4 <vprintf+0x39c>
  20c10c:	11002282 	add	w2, w20, #0x8
  20c110:	7100005f 	cmp	w2, #0x0
  20c114:	5400008d 	b.le	20c124 <vprintf+0x3dc>
  20c118:	91003e61 	add	x1, x19, #0xf
  20c11c:	927df021 	and	x1, x1, #0xfffffffffffffff8
  20c120:	17fffff0 	b	20c0e0 <vprintf+0x398>
  20c124:	aa1303e1 	mov	x1, x19
  20c128:	8b34c2f3 	add	x19, x23, w20, sxtw
  20c12c:	17ffffed 	b	20c0e0 <vprintf+0x398>
  20c130:	11002282 	add	w2, w20, #0x8
  20c134:	7100005f 	cmp	w2, #0x0
  20c138:	5400008d 	b.le	20c148 <vprintf+0x400>
  20c13c:	91002e61 	add	x1, x19, #0xb
  20c140:	927df021 	and	x1, x1, #0xfffffffffffffff8
  20c144:	17fffff0 	b	20c104 <vprintf+0x3bc>
  20c148:	aa1303e1 	mov	x1, x19
  20c14c:	8b34c2f3 	add	x19, x23, w20, sxtw
  20c150:	17ffffed 	b	20c104 <vprintf+0x3bc>
  20c154:	910006d6 	add	x22, x22, #0x1
  20c158:	52800018 	mov	w24, #0x0                   	// #0
  20c15c:	394002c0 	ldrb	w0, [x22]
  20c160:	5100c000 	sub	w0, w0, #0x30
  20c164:	12001c02 	and	w2, w0, #0xff
  20c168:	7100245f 	cmp	w2, #0x9
  20c16c:	54ffe2a8 	b.hi	20bdc0 <vprintf+0x78>  // b.pmore
  20c170:	52800142 	mov	w2, #0xa                   	// #10
  20c174:	910006d6 	add	x22, x22, #0x1
  20c178:	1b020318 	madd	w24, w24, w2, w0
  20c17c:	17fffff8 	b	20c15c <vprintf+0x414>
  20c180:	110006b5 	add	w21, w21, #0x1
  20c184:	97ffeb45 	bl	206e98 <putchar>
  20c188:	17fffefe 	b	20bd80 <vprintf+0x38>

000000000020c18c <printf>:
  20c18c:	a9b77bfd 	stp	x29, x30, [sp, #-144]!
  20c190:	910003fd 	mov	x29, sp
  20c194:	a9058be1 	stp	x1, x2, [sp, #88]
  20c198:	910243e1 	add	x1, sp, #0x90
  20c19c:	a90307e1 	stp	x1, x1, [sp, #48]
  20c1a0:	910143e1 	add	x1, sp, #0x50
  20c1a4:	f90023e1 	str	x1, [sp, #64]
  20c1a8:	128006e1 	mov	w1, #0xffffffc8            	// #-56
  20c1ac:	b9004be1 	str	w1, [sp, #72]
  20c1b0:	910043e1 	add	x1, sp, #0x10
  20c1b4:	b9004fff 	str	wzr, [sp, #76]
  20c1b8:	a90693e3 	stp	x3, x4, [sp, #104]
  20c1bc:	a9430fe2 	ldp	x2, x3, [sp, #48]
  20c1c0:	a9010fe2 	stp	x2, x3, [sp, #16]
  20c1c4:	a9440fe2 	ldp	x2, x3, [sp, #64]
  20c1c8:	a9020fe2 	stp	x2, x3, [sp, #32]
  20c1cc:	a9079be5 	stp	x5, x6, [sp, #120]
  20c1d0:	f90047e7 	str	x7, [sp, #136]
  20c1d4:	97fffedd 	bl	20bd48 <vprintf>
  20c1d8:	a8c97bfd 	ldp	x29, x30, [sp], #144
  20c1dc:	d65f03c0 	ret

000000000020c1e0 <strcmp>:
  20c1e0:	d2800003 	mov	x3, #0x0                   	// #0
  20c1e4:	38636802 	ldrb	w2, [x0, x3]
  20c1e8:	38636824 	ldrb	w4, [x1, x3]
  20c1ec:	6b04005f 	cmp	w2, w4
  20c1f0:	54000060 	b.eq	20c1fc <strcmp+0x1c>  // b.none
  20c1f4:	4b040040 	sub	w0, w2, w4
  20c1f8:	d65f03c0 	ret
  20c1fc:	91000463 	add	x3, x3, #0x1
  20c200:	35ffff22 	cbnz	w2, 20c1e4 <strcmp+0x4>
  20c204:	52800000 	mov	w0, #0x0                   	// #0
  20c208:	17fffffc 	b	20c1f8 <strcmp+0x18>
  20c20c:	00000000 	udf	#0

000000000020c210 <block_dev_connector>:
  20c210:	00201f64 00000000                       d. .....

000000000020c218 <block_dev_funcs>:
  20c218:	00201c48 00000000 00201c50 00000000     H. .....P. .....
  20c228:	00201c6c 00000000 00000000 00000000     l. .............
  20c238:	00201e04 00000000 00201ca8 00000000     .. ....... .....
  20c248:	00201c9c 00000000 00000000 00000000     .. .............
  20c258:	00201f00 00000000                       .. .....

000000000020c260 <fip_dev_connector>:
  20c260:	002021c0 00000000                       .! .....

000000000020c268 <fip_dev_funcs>:
  20c268:	00201ffc 00000000 00202220 00000000     .. ..... " .....
	...
  20c280:	00202004 00000000 00202108 00000000     .  ......! .....
	...
  20c298:	00202018 00000000 00202054 00000000     .  .....T  .....
  20c2a8:	00202314 00000000                       .# .....

000000000020c2b0 <mmc_dev_gpt_spec>:
	...
  20c2b8:	00004400 00000000                       .D......

000000000020c2c0 <mtk_mmc_ops>:
  20c2c0:	00205714 00000000 0020593c 00000000     .W .....<Y .....
  20c2d0:	0020554c 00000000 00205370 00000000     LU .....pS .....
  20c2e0:	002053d0 00000000 002053c8 00000000     .S ......S .....
  20c2f0:	00205358 00000000                       XS .....

000000000020c2f8 <bl2_initcalls>:
  20c2f8:	00206a70 00000000 00201bf8 00000000     pj ....... .....
  20c308:	00205c30 00000000 00205c20 00000000     0\ ..... \ .....
  20c318:	00205e64 00000000 00205e70 00000000     d^ .....p^ .....
  20c328:	002068b8 00000000 00206604 00000000     .h ......f .....
  20c338:	0020b990 00000000 00000000 00000000     .. .............

000000000020c348 <mtk_pin_ops>:
	...
  20c358:	00205de0 00000000 00205d10 00000000     .] ......] .....
  20c368:	00205d78 00000000 00205cac 00000000     x] ......\ .....
  20c378:	00205cb8 00000000 00205d84 00000000     .\ ......] .....

000000000020c388 <wdt_rst_reason>:
	...
  20c390:	0020e72b 00000000 00000001 00000000     +. .............
  20c3a0:	0020e747 00000000 00000012 00000000     G. .............
  20c3b0:	0020e759 00000000 0000001c 00000000     Y. .............
  20c3c0:	0020e771 00000000 0000001e 00000000     q. .............
  20c3d0:	0020e77e 00000000 0000001f 00000000     ~. .............
  20c3e0:	0020e796 00000000                       .. .....

000000000020c3e8 <plat_prefix_str>:
  20c3e8:	0020e7a7 00000000 0020e7b1 00000000     .. ....... .....
  20c3f8:	0020e7bb 00000000 0020e7c5 00000000     .. ....... .....
  20c408:	0020e7cf 00000000 006e002b 00820078     .. .....+.n.x...
  20c418:	0094008a ff9f00bc 00000000 0038000f     ..............8.
  20c428:	0098004a 00e100dd 01240000 0165014f     J.........$.O.e.
  20c438:	480b480b 0b484848 09484848 48484802     .H.HHHH.HHH..HHH
  20c448:	02094848                                HH..

000000000020c44c <msdc1_pins>:
  20c44c:	00000010 00000011 00000012 00000013     ................
  20c45c:	00000014 00000015                       ........

000000000020c464 <mt7622_msdc1_compat>:
  20c464:	0101010c 01000101 00000000              ............

000000000020c470 <mtk_pin_info_datain>:
  20c470:	00000000 00000200 00000100 00000001     ................
  20c480:	00000200 00000101 00000002 00000200     ................
  20c490:	00000102 00000003 00000200 00000103     ................
  20c4a0:	00000004 00000200 00000104 00000005     ................
  20c4b0:	00000200 00000105 00000006 00000200     ................
  20c4c0:	00000106 00000007 00000200 00000107     ................
  20c4d0:	00000008 00000200 00000108 00000009     ................
  20c4e0:	00000200 00000109 0000000a 00000200     ................
  20c4f0:	0000010a 0000000b 00000200 0000010b     ................
  20c500:	0000000c 00000200 0000010c 0000000d     ................
  20c510:	00000200 0000010d 0000000e 00000200     ................
  20c520:	0000010e 0000000f 00000200 0000010f     ................
  20c530:	00000010 00000200 00000110 00000011     ................
  20c540:	00000200 00000111 00000012 00000200     ................
  20c550:	00000112 00000013 00000200 00000113     ................
  20c560:	00000014 00000200 00000114 00000015     ................
  20c570:	00000200 00000115 00000016 00000200     ................
  20c580:	00000116 00000017 00000200 00000117     ................
  20c590:	00000018 00000200 00000118 00000019     ................
  20c5a0:	00000200 00000119 0000001a 00000200     ................
  20c5b0:	0000011a 0000001b 00000200 0000011b     ................
  20c5c0:	0000001c 00000200 0000011c 0000001d     ................
  20c5d0:	00000200 0000011d 0000001e 00000200     ................
  20c5e0:	0000011e 0000001f 00000200 0000011f     ................
  20c5f0:	00000020 00000210 00000100 00000021      ...........!...
  20c600:	00000210 00000101 00000022 00000210     ........".......
  20c610:	00000102 00000023 00000210 00000103     ....#...........
  20c620:	00000024 00000210 00000104 00000025     $...........%...
  20c630:	00000210 00000105 00000026 00000210     ........&.......
  20c640:	00000106 00000027 00000210 00000107     ....'...........
  20c650:	00000028 00000210 00000108 00000029     (...........)...
  20c660:	00000210 00000109 0000002a 00000210     ........*.......
  20c670:	0000010a 0000002b 00000210 0000010b     ....+...........
  20c680:	0000002c 00000210 0000010c 0000002d     ,...........-...
  20c690:	00000210 0000010d 0000002e 00000210     ................
  20c6a0:	0000010e 0000002f 00000210 0000010f     ..../...........
  20c6b0:	00000030 00000210 00000110 00000031     0...........1...
  20c6c0:	00000210 00000111 00000032 00000210     ........2.......
  20c6d0:	00000112 00000033 00000210 00000113     ....3...........
  20c6e0:	00000034 00000210 00000114 00000035     4...........5...
  20c6f0:	00000210 00000115 00000036 00000210     ........6.......
  20c700:	00000116 00000037 00000210 00000117     ....7...........
  20c710:	00000038 00000210 00000118 00000039     8...........9...
  20c720:	00000210 00000119 0000003a 00000210     ........:.......
  20c730:	0000011a 0000003b 00000210 0000011b     ....;...........
  20c740:	0000003c 00000210 0000011c 0000003d     <...........=...
  20c750:	00000210 0000011d 0000003e 00000210     ........>.......
  20c760:	0000011e 0000003f 00000210 0000011f     ....?...........
  20c770:	00000040 00000220 00000100 00000041     @... .......A...
  20c780:	00000220 00000101 00000042 00000220      .......B... ...
  20c790:	00000102 00000043 00000220 00000103     ....C... .......
  20c7a0:	00000044 00000220 00000104 00000045     D... .......E...
  20c7b0:	00000220 00000105 00000046 00000220      .......F... ...
  20c7c0:	00000106 00000047 00000220 00000107     ....G... .......
  20c7d0:	00000048 00000220 00000108 00000049     H... .......I...
  20c7e0:	00000220 00000109 0000004a 00000220      .......J... ...
  20c7f0:	0000010a 0000004b 00000220 0000010b     ....K... .......
  20c800:	0000004c 00000220 0000010c 0000004d     L... .......M...
  20c810:	00000220 0000010d 0000004e 00000220      .......N... ...
  20c820:	0000010e 0000004f 00000220 0000010f     ....O... .......
  20c830:	00000050 00000220 00000110 00000051     P... .......Q...
  20c840:	00000220 00000111 00000052 00000220      .......R... ...
  20c850:	00000112 00000053 00000220 00000113     ....S... .......
  20c860:	00000054 00000220 00000114 00000055     T... .......U...
  20c870:	00000220 00000115 00000056 00000220      .......V... ...
  20c880:	00000116 00000057 00000220 00000117     ....W... .......
  20c890:	00000058 00000220 00000118 00000059     X... .......Y...
  20c8a0:	00000220 00000119 0000005a 00000220      .......Z... ...
  20c8b0:	0000011a 0000005b 00000220 0000011b     ....[... .......
  20c8c0:	0000005c 00000220 0000011c 0000005d     \... .......]...
  20c8d0:	00000220 0000011d 0000005e 00000220      .......^... ...
  20c8e0:	0000011e 0000005f 00000220 0000011f     ...._... .......
  20c8f0:	00000060 00000230 00000100 00000061     `...0.......a...
  20c900:	00000230 00000101 00000062 00000230     0.......b...0...
  20c910:	00000102 00000063 00000230 00000103     ....c...0.......
  20c920:	00000064 00000230 00000104 00000065     d...0.......e...
  20c930:	00000230 00000105 00000066 00000230     0.......f...0...
  20c940:	00000106                                ....

000000000020c944 <mtk_pin_info_dataout>:
  20c944:	00000000 00000100 00000100 00000001     ................
  20c954:	00000100 00000101 00000002 00000100     ................
  20c964:	00000102 00000003 00000100 00000103     ................
  20c974:	00000004 00000100 00000104 00000005     ................
  20c984:	00000100 00000105 00000006 00000100     ................
  20c994:	00000106 00000007 00000100 00000107     ................
  20c9a4:	00000008 00000100 00000108 00000009     ................
  20c9b4:	00000100 00000109 0000000a 00000100     ................
  20c9c4:	0000010a 0000000b 00000100 0000010b     ................
  20c9d4:	0000000c 00000100 0000010c 0000000d     ................
  20c9e4:	00000100 0000010d 0000000e 00000100     ................
  20c9f4:	0000010e 0000000f 00000100 0000010f     ................
  20ca04:	00000010 00000100 00000110 00000011     ................
  20ca14:	00000100 00000111 00000012 00000100     ................
  20ca24:	00000112 00000013 00000100 00000113     ................
  20ca34:	00000014 00000100 00000114 00000015     ................
  20ca44:	00000100 00000115 00000016 00000100     ................
  20ca54:	00000116 00000017 00000100 00000117     ................
  20ca64:	00000018 00000100 00000118 00000019     ................
  20ca74:	00000100 00000119 0000001a 00000100     ................
  20ca84:	0000011a 0000001b 00000100 0000011b     ................
  20ca94:	0000001c 00000100 0000011c 0000001d     ................
  20caa4:	00000100 0000011d 0000001e 00000100     ................
  20cab4:	0000011e 0000001f 00000100 0000011f     ................
  20cac4:	00000020 00000110 00000100 00000021      ...........!...
  20cad4:	00000110 00000101 00000022 00000110     ........".......
  20cae4:	00000102 00000023 00000110 00000103     ....#...........
  20caf4:	00000024 00000110 00000104 00000025     $...........%...
  20cb04:	00000110 00000105 00000026 00000110     ........&.......
  20cb14:	00000106 00000027 00000110 00000107     ....'...........
  20cb24:	00000028 00000110 00000108 00000029     (...........)...
  20cb34:	00000110 00000109 0000002a 00000110     ........*.......
  20cb44:	0000010a 0000002b 00000110 0000010b     ....+...........
  20cb54:	0000002c 00000110 0000010c 0000002d     ,...........-...
  20cb64:	00000110 0000010d 0000002e 00000110     ................
  20cb74:	0000010e 0000002f 00000110 0000010f     ..../...........
  20cb84:	00000030 00000110 00000110 00000031     0...........1...
  20cb94:	00000110 00000111 00000032 00000110     ........2.......
  20cba4:	00000112 00000033 00000110 00000113     ....3...........
  20cbb4:	00000034 00000110 00000114 00000035     4...........5...
  20cbc4:	00000110 00000115 00000036 00000110     ........6.......
  20cbd4:	00000116 00000037 00000110 00000117     ....7...........
  20cbe4:	00000038 00000110 00000118 00000039     8...........9...
  20cbf4:	00000110 00000119 0000003a 00000110     ........:.......
  20cc04:	0000011a 0000003b 00000110 0000011b     ....;...........
  20cc14:	0000003c 00000110 0000011c 0000003d     <...........=...
  20cc24:	00000110 0000011d 0000003e 00000110     ........>.......
  20cc34:	0000011e 0000003f 00000110 0000011f     ....?...........
  20cc44:	00000040 00000120 00000100 00000041     @... .......A...
  20cc54:	00000120 00000101 00000042 00000120      .......B... ...
  20cc64:	00000102 00000043 00000120 00000103     ....C... .......
  20cc74:	00000044 00000120 00000104 00000045     D... .......E...
  20cc84:	00000120 00000105 00000046 00000120      .......F... ...
  20cc94:	00000106 00000047 00000120 00000107     ....G... .......
  20cca4:	00000048 00000120 00000108 00000049     H... .......I...
  20ccb4:	00000120 00000109 0000004a 00000120      .......J... ...
  20ccc4:	0000010a 0000004b 00000120 0000010b     ....K... .......
  20ccd4:	0000004c 00000120 0000010c 0000004d     L... .......M...
  20cce4:	00000120 0000010d 0000004e 00000120      .......N... ...
  20ccf4:	0000010e 0000004f 00000120 0000010f     ....O... .......
  20cd04:	00000050 00000120 00000110 00000051     P... .......Q...
  20cd14:	00000120 00000111 00000052 00000120      .......R... ...
  20cd24:	00000112 00000053 00000120 00000113     ....S... .......
  20cd34:	00000054 00000120 00000114 00000055     T... .......U...
  20cd44:	00000120 00000115 00000056 00000120      .......V... ...
  20cd54:	00000116 00000057 00000120 00000117     ....W... .......
  20cd64:	00000058 00000120 00000118 00000059     X... .......Y...
  20cd74:	00000120 00000119 0000005a 00000120      .......Z... ...
  20cd84:	0000011a 0000005b 00000120 0000011b     ....[... .......
  20cd94:	0000005c 00000120 0000011c 0000005d     \... .......]...
  20cda4:	00000120 0000011d 0000005e 00000120      .......^... ...
  20cdb4:	0000011e 0000005f 00000120 0000011f     ...._... .......
  20cdc4:	00000060 00000130 00000100 00000061     `...0.......a...
  20cdd4:	00000130 00000101 00000062 00000130     0.......b...0...
  20cde4:	00000102 00000063 00000130 00000103     ....c...0.......
  20cdf4:	00000064 00000130 00000104 00000065     d...0.......e...
  20ce04:	00000130 00000105 00000066 00000130     0.......f...0...
  20ce14:	00000106                                ....

000000000020ce18 <mtk_pin_info_dir>:
	...
  20ce20:	00000100 00000001 00000000 00000101     ................
  20ce30:	00000002 00000000 00000102 00000003     ................
  20ce40:	00000000 00000103 00000004 00000000     ................
  20ce50:	00000104 00000005 00000000 00000105     ................
  20ce60:	00000006 00000000 00000106 00000007     ................
  20ce70:	00000000 00000107 00000008 00000000     ................
  20ce80:	00000108 00000009 00000000 00000109     ................
  20ce90:	0000000a 00000000 0000010a 0000000b     ................
  20cea0:	00000000 0000010b 0000000c 00000000     ................
  20ceb0:	0000010c 0000000d 00000000 0000010d     ................
  20cec0:	0000000e 00000000 0000010e 0000000f     ................
  20ced0:	00000000 0000010f 00000010 00000000     ................
  20cee0:	00000110 00000011 00000000 00000111     ................
  20cef0:	00000012 00000000 00000112 00000013     ................
  20cf00:	00000000 00000113 00000014 00000000     ................
  20cf10:	00000114 00000015 00000000 00000115     ................
  20cf20:	00000016 00000000 00000116 00000017     ................
  20cf30:	00000000 00000117 00000018 00000000     ................
  20cf40:	00000118 00000019 00000000 00000119     ................
  20cf50:	0000001a 00000000 0000011a 0000001b     ................
  20cf60:	00000000 0000011b 0000001c 00000000     ................
  20cf70:	0000011c 0000001d 00000000 0000011d     ................
  20cf80:	0000001e 00000000 0000011e 0000001f     ................
  20cf90:	00000000 0000011f 00000020 00000010     ........ .......
  20cfa0:	00000100 00000021 00000010 00000101     ....!...........
  20cfb0:	00000022 00000010 00000102 00000023     "...........#...
  20cfc0:	00000010 00000103 00000024 00000010     ........$.......
  20cfd0:	00000104 00000025 00000010 00000105     ....%...........
  20cfe0:	00000026 00000010 00000106 00000027     &...........'...
  20cff0:	00000010 00000107 00000028 00000010     ........(.......
  20d000:	00000108 00000029 00000010 00000109     ....)...........
  20d010:	0000002a 00000010 0000010a 0000002b     *...........+...
  20d020:	00000010 0000010b 0000002c 00000010     ........,.......
  20d030:	0000010c 0000002d 00000010 0000010d     ....-...........
  20d040:	0000002e 00000010 0000010e 0000002f     ............/...
  20d050:	00000010 0000010f 00000030 00000010     ........0.......
  20d060:	00000110 00000031 00000010 00000111     ....1...........
  20d070:	00000032 00000010 00000112 00000033     2...........3...
  20d080:	00000010 00000113 00000034 00000010     ........4.......
  20d090:	00000114 00000035 00000010 00000115     ....5...........
  20d0a0:	00000036 00000010 00000116 00000037     6...........7...
  20d0b0:	00000010 00000117 00000038 00000010     ........8.......
  20d0c0:	00000118 00000039 00000010 00000119     ....9...........
  20d0d0:	0000003a 00000010 0000011a 0000003b     :...........;...
  20d0e0:	00000010 0000011b 0000003c 00000010     ........<.......
  20d0f0:	0000011c 0000003d 00000010 0000011d     ....=...........
  20d100:	0000003e 00000010 0000011e 0000003f     >...........?...
  20d110:	00000010 0000011f 00000040 00000020     ........@... ...
  20d120:	00000100 00000041 00000020 00000101     ....A... .......
  20d130:	00000042 00000020 00000102 00000043     B... .......C...
  20d140:	00000020 00000103 00000044 00000020      .......D... ...
  20d150:	00000104 00000045 00000020 00000105     ....E... .......
  20d160:	00000046 00000020 00000106 00000047     F... .......G...
  20d170:	00000020 00000107 00000048 00000020      .......H... ...
  20d180:	00000108 00000049 00000020 00000109     ....I... .......
  20d190:	0000004a 00000020 0000010a 0000004b     J... .......K...
  20d1a0:	00000020 0000010b 0000004c 00000020      .......L... ...
  20d1b0:	0000010c 0000004d 00000020 0000010d     ....M... .......
  20d1c0:	0000004e 00000020 0000010e 0000004f     N... .......O...
  20d1d0:	00000020 0000010f 00000050 00000020      .......P... ...
  20d1e0:	00000110 00000051 00000020 00000111     ....Q... .......
  20d1f0:	00000052 00000020 00000112 00000053     R... .......S...
  20d200:	00000020 00000113 00000054 00000020      .......T... ...
  20d210:	00000114 00000055 00000020 00000115     ....U... .......
  20d220:	00000056 00000020 00000116 00000057     V... .......W...
  20d230:	00000020 00000117 00000058 00000020      .......X... ...
  20d240:	00000118 00000059 00000020 00000119     ....Y... .......
  20d250:	0000005a 00000020 0000011a 0000005b     Z... .......[...
  20d260:	00000020 0000011b 0000005c 00000020      .......\... ...
  20d270:	0000011c 0000005d 00000020 0000011d     ....]... .......
  20d280:	0000005e 00000020 0000011e 0000005f     ^... ......._...
  20d290:	00000020 0000011f 00000060 00000030      .......`...0...
  20d2a0:	00000100 00000061 00000030 00000101     ....a...0.......
  20d2b0:	00000062 00000030 00000102 00000063     b...0.......c...
  20d2c0:	00000030 00000103 00000064 00000030     0.......d...0...
  20d2d0:	00000104 00000065 00000030 00000105     ....e...0.......
  20d2e0:	00000066 00000030 00000106              f...0.......

000000000020d2ec <mtk_pin_info_mode>:
  20d2ec:	00000000 00000320 00000410 00000001     .... ...........
  20d2fc:	000003a0 00000410 00000002 000003a0     ................
  20d30c:	00000414 00000003 000003a0 00000418     ................
  20d31c:	00000004 000003a0 0000041c 00000005     ................
  20d32c:	00000320 00000400 00000006 00000300      ...............
  20d33c:	00000404 00000007 00000300 00000404     ................
  20d34c:	00000008 00000350 00000414 00000009     ....P...........
  20d35c:	00000350 00000418 0000000a 00000300     P...............
  20d36c:	00000408 0000000b 00000300 00000408     ................
  20d37c:	0000000c 00000300 00000408 0000000d     ................
  20d38c:	00000300 00000408 0000000e 00000320     ............ ...
  20d39c:	00000404 0000000f 00000320 00000408     ........ .......
  20d3ac:	00000010 00000320 00000414 00000011     .... ...........
  20d3bc:	00000320 00000418 00000012 00000310      ...............
  20d3cc:	00000410 00000013 00000310 00000414     ................
  20d3dc:	00000014 00000310 00000418 00000015     ................
  20d3ec:	00000310 0000041c 00000016 00000380     ................
  20d3fc:	00000410 00000017 00000300 00000418     ................
  20d40c:	00000018 00000300 00000418 00000019     ................
  20d41c:	00000300 0000040c 0000001a 00000300     ................
  20d42c:	0000040c 0000001b 00000300 0000040c     ................
  20d43c:	0000001c 00000300 0000040c 0000001d     ................
  20d44c:	00000300 0000040c 0000001e 00000300     ................
  20d45c:	0000040c 0000001f 00000300 0000040c     ................
  20d46c:	00000020 00000300 0000040c 00000021      ...........!...
  20d47c:	00000300 0000040c 00000022 00000300     ........".......
  20d48c:	0000040c 00000023 00000300 0000040c     ....#...........
  20d49c:	00000024 00000300 0000040c 00000025     $...........%...
  20d4ac:	00000300 00000414 00000026 00000300     ........&.......
  20d4bc:	00000414 00000027 00000300 00000414     ....'...........
  20d4cc:	00000028 00000300 00000414 00000029     (...........)...
  20d4dc:	00000300 00000414 0000002a 00000300     ........*.......
  20d4ec:	00000414 0000002b 00000300 00000414     ....+...........
  20d4fc:	0000002c 00000300 00000414 0000002d     ,...........-...
  20d50c:	00000300 00000414 0000002e 00000300     ................
  20d51c:	00000414 0000002f 00000300 00000414     ..../...........
  20d52c:	00000030 00000300 00000414 00000031     0...........1...
  20d53c:	00000300 00000414 00000032 00000300     ........2.......
  20d54c:	00000414 00000033 00000330 00000404     ....3...0.......
  20d55c:	00000034 00000330 00000408 00000035     4...0.......5...
  20d56c:	00000330 0000040c 00000036 00000330     0.......6...0...
  20d57c:	00000410 00000037 00000330 00000414     ....7...0.......
  20d58c:	00000038 00000330 00000418 00000039     8...0.......9...
  20d59c:	00000330 0000041c 0000003a 00000340     0.......:...@...
  20d5ac:	00000400 0000003b 00000340 00000404     ....;...@.......
  20d5bc:	0000003c 00000340 00000408 0000003d     <...@.......=...
  20d5cc:	00000340 0000040c 0000003e 00000340     @.......>...@...
  20d5dc:	00000410 0000003f 00000340 00000414     ....?...@.......
  20d5ec:	00000040 00000340 00000418 00000041     @...@.......A...
  20d5fc:	00000340 0000041c 00000042 00000350     @.......B...P...
  20d60c:	00000400 00000043 00000350 00000404     ....C...P.......
  20d61c:	00000044 00000350 00000408 00000045     D...P.......E...
  20d62c:	00000350 0000040c 00000046 00000350     P.......F...P...
  20d63c:	00000410 00000047 00000300 00000410     ....G...........
  20d64c:	00000048 00000300 00000410 00000049     H...........I...
  20d65c:	00000310 00000400 0000004a 00000310     ........J.......
  20d66c:	00000404 0000004b 00000310 00000408     ....K...........
  20d67c:	0000004c 00000310 0000040c 0000004d     L...........M...
  20d68c:	00000320 0000041c 0000004e 00000320      .......N... ...
  20d69c:	0000040c 0000004f 000003a0 00000400     ....O...........
  20d6ac:	00000050 000003a0 00000404 00000051     P...........Q...
  20d6bc:	000003a0 00000408 00000052 000003a0     ........R.......
  20d6cc:	0000040c 00000053 00000350 0000041c     ....S...P.......
  20d6dc:	00000054 00000330 00000400 00000055     T...0.......U...
  20d6ec:	00000360 00000404 00000056 00000360     `.......V...`...
  20d6fc:	00000408 00000057 00000360 0000040c     ....W...`.......
  20d70c:	00000058 00000360 00000410 00000059     X...`.......Y...
  20d71c:	00000360 00000414 0000005a 00000360     `.......Z...`...
  20d72c:	00000418 0000005b 00000390 00000410     ....[...........
  20d73c:	0000005c 00000390 00000414 0000005d     \...........]...
  20d74c:	00000390 00000418 0000005e 00000390     ........^.......
  20d75c:	0000041c 0000005f 00000380 00000414     ...._...........
  20d76c:	00000060 00000380 00000418 00000061     `...........a...
  20d77c:	00000380 0000041c 00000062 00000390     ........b.......
  20d78c:	00000400 00000063 00000390 00000404     ....c...........
  20d79c:	00000064 00000390 00000408 00000065     d...........e...
  20d7ac:	00000390 0000040c 00000066 00000360     ........f...`...
  20d7bc:	00000400                                ....

000000000020d7c0 <mtk_pin_info_pd>:
  20d7c0:	00000000 00000940 00000100 00000001     ....@...........
  20d7d0:	00000940 00000101 00000002 00000940     @...........@...
  20d7e0:	00000102 00000003 00000940 00000103     ........@.......
  20d7f0:	00000004 00000940 00000104 00000005     ....@...........
  20d800:	00000940 00000105 00000006 00000940     @...........@...
  20d810:	00000106 00000007 00000940 00000107     ........@.......
  20d820:	00000008 00000940 00000108 00000009     ....@...........
  20d830:	00000940 00000109 0000000a 00000940     @...........@...
  20d840:	0000010a 0000000b 00000940 0000010b     ........@.......
  20d850:	0000000c 00000940 0000010c 0000000d     ....@...........
  20d860:	00000940 0000010d 0000000e 00000940     @...........@...
  20d870:	0000010e 0000000f 00000940 0000010f     ........@.......
  20d880:	00000010 00000940 00000110 00000011     ....@...........
  20d890:	00000940 00000111 00000012 00000940     @...........@...
  20d8a0:	00000112 00000013 00000940 00000113     ........@.......
  20d8b0:	00000014 00000940 00000114 00000015     ....@...........
  20d8c0:	00000940 00000115 00000016 00000940     @...........@...
  20d8d0:	00000116 00000017 00000940 00000117     ........@.......
  20d8e0:	00000018 00000940 00000118 00000019     ....@...........
  20d8f0:	00000940 00000119 0000001a 00000940     @...........@...
  20d900:	0000011a 0000001b 00000940 0000011b     ........@.......
  20d910:	0000001c 00000940 0000011c 0000001d     ....@...........
  20d920:	00000940 0000011d 0000001e 00000940     @...........@...
  20d930:	0000011e 0000001f 00000940 0000011f     ........@.......
  20d940:	00000020 00000a40 00000100 00000021      ...@.......!...
  20d950:	00000a40 00000101 00000022 00000a40     @......."...@...
  20d960:	00000102 00000023 00000a40 00000103     ....#...@.......
  20d970:	00000024 00000a40 00000104 00000025     $...@.......%...
  20d980:	00000a40 00000105 00000026 00000a40     @.......&...@...
  20d990:	00000106 00000027 00000a40 00000107     ....'...@.......
  20d9a0:	00000028 00000a40 00000108 00000029     (...@.......)...
  20d9b0:	00000a40 00000109 0000002a 00000a40     @.......*...@...
  20d9c0:	0000010a 0000002b 00000a40 0000010b     ....+...@.......
  20d9d0:	0000002c 00000a40 0000010c 0000002d     ,...@.......-...
  20d9e0:	00000a40 0000010d 0000002e 00000a40     @...........@...
  20d9f0:	0000010e 0000002f 00000a40 0000010f     ..../...@.......
  20da00:	00000030 00000a40 00000110 00000031     0...@.......1...
  20da10:	00000a40 00000111 00000032 00000a40     @.......2...@...
  20da20:	00000112 00000033 00000840 00000100     ....3...@.......
  20da30:	00000034 00000840 00000101 00000035     4...@.......5...
  20da40:	00000840 00000102 00000036 00000840     @.......6...@...
  20da50:	00000103 00000037 00000840 00000104     ....7...@.......
  20da60:	00000038 00000840 00000105 00000039     8...@.......9...
  20da70:	00000840 00000106 0000003a 00000840     @.......:...@...
  20da80:	00000107 0000003b 00000840 0000010a     ....;...@.......
  20da90:	0000003c 00000840 0000010b 0000003d     <...@.......=...
  20daa0:	00000840 00000108 0000003e 00000840     @.......>...@...
  20dab0:	00000109 0000003f 00000840 0000010c     ....?...@.......
  20dac0:	00000040 00000840 0000010d 00000041     @...@.......A...
  20dad0:	00000840 0000010e 00000042 00000840     @.......B...@...
  20dae0:	0000010f 00000043 00000840 00000112     ....C...@.......
  20daf0:	00000044 00000840 00000113 00000045     D...@.......E...
  20db00:	00000840 00000110 00000046 00000840     @.......F...@...
  20db10:	00000111 00000047 00000b40 00000100     ....G...@.......
  20db20:	00000048 00000b40 00000101 00000049     H...@.......I...
  20db30:	00000b40 00000104 0000004a 00000b40     @.......J...@...
  20db40:	00000105 0000004b 00000b40 00000106     ....K...@.......
  20db50:	0000004c 00000b40 00000107 0000004d     L...@.......M...
  20db60:	00000b40 00000108 0000004e 00000b40     @.......N...@...
  20db70:	00000109 0000004f 00000b40 0000010a     ....O...@.......
  20db80:	00000050 00000b40 0000010b 00000051     P...@.......Q...
  20db90:	00000b40 0000010c 00000052 00000b40     @.......R...@...
  20dba0:	0000010d 00000053 00000b40 0000010e     ....S...@.......
  20dbb0:	00000054 00000b40 0000010f 00000055     T...@.......U...
  20dbc0:	00000b40 00000110 00000056 00000b40     @.......V...@...
  20dbd0:	00000111 00000057 00000c40 00000100     ....W...@.......
  20dbe0:	00000058 00000c40 00000101 00000059     X...@.......Y...
  20dbf0:	00000c40 00000102 0000005a 00000c40     @.......Z...@...
  20dc00:	00000103 0000005b 00000b40 00000112     ....[...@.......
  20dc10:	0000005c 00000b40 00000113 0000005d     \...@.......]...
  20dc20:	00000b40 00000114 0000005e 00000b40     @.......^...@...
  20dc30:	00000115 0000005f 00000b40 00000116     ...._...@.......
  20dc40:	00000060 00000b40 00000117 00000061     `...@.......a...
  20dc50:	00000b40 00000118 00000062 00000b40     @.......b...@...
  20dc60:	00000119 00000063 00000b40 0000011a     ....c...@.......
  20dc70:	00000064 00000b40 0000011b 00000065     d...@.......e...
  20dc80:	00000b40 0000011c 00000066 00000b40     @.......f...@...
  20dc90:	0000011d                                ....

000000000020dc94 <mtk_pin_info_pu>:
  20dc94:	00000000 00000930 00000100 00000001     ....0...........
  20dca4:	00000930 00000101 00000002 00000930     0...........0...
  20dcb4:	00000102 00000003 00000930 00000103     ........0.......
  20dcc4:	00000004 00000930 00000104 00000005     ....0...........
  20dcd4:	00000930 00000105 00000006 00000930     0...........0...
  20dce4:	00000106 00000007 00000930 00000107     ........0.......
  20dcf4:	00000008 00000930 00000108 00000009     ....0...........
  20dd04:	00000930 00000109 0000000a 00000930     0...........0...
  20dd14:	0000010a 0000000b 00000930 0000010b     ........0.......
  20dd24:	0000000c 00000930 0000010c 0000000d     ....0...........
  20dd34:	00000930 0000010d 0000000e 00000930     0...........0...
  20dd44:	0000010e 0000000f 00000930 0000010f     ........0.......
  20dd54:	00000010 00000930 00000110 00000011     ....0...........
  20dd64:	00000930 00000111 00000012 00000930     0...........0...
  20dd74:	00000112 00000013 00000930 00000113     ........0.......
  20dd84:	00000014 00000930 00000114 00000015     ....0...........
  20dd94:	00000930 00000115 00000016 00000930     0...........0...
  20dda4:	00000116 00000017 00000930 00000117     ........0.......
  20ddb4:	00000018 00000930 00000118 00000019     ....0...........
  20ddc4:	00000930 00000119 0000001a 00000930     0...........0...
  20ddd4:	0000011a 0000001b 00000930 0000011b     ........0.......
  20dde4:	0000001c 00000930 0000011c 0000001d     ....0...........
  20ddf4:	00000930 0000011d 0000001e 00000930     0...........0...
  20de04:	0000011e 0000001f 00000930 0000011f     ........0.......
  20de14:	00000020 00000a30 00000100 00000021      ...0.......!...
  20de24:	00000a30 00000101 00000022 00000a30     0......."...0...
  20de34:	00000102 00000023 00000a30 00000103     ....#...0.......
  20de44:	00000024 00000a30 00000104 00000025     $...0.......%...
  20de54:	00000a30 00000105 00000026 00000a30     0.......&...0...
  20de64:	00000106 00000027 00000a30 00000107     ....'...0.......
  20de74:	00000028 00000a30 00000108 00000029     (...0.......)...
  20de84:	00000a30 00000109 0000002a 00000a30     0.......*...0...
  20de94:	0000010a 0000002b 00000a30 0000010b     ....+...0.......
  20dea4:	0000002c 00000a30 0000010c 0000002d     ,...0.......-...
  20deb4:	00000a30 0000010d 0000002e 00000a30     0...........0...
  20dec4:	0000010e 0000002f 00000a30 0000010f     ..../...0.......
  20ded4:	00000030 00000a30 00000110 00000031     0...0.......1...
  20dee4:	00000a30 00000111 00000032 00000a30     0.......2...0...
  20def4:	00000112 00000033 00000830 00000100     ....3...0.......
  20df04:	00000034 00000830 00000101 00000035     4...0.......5...
  20df14:	00000830 00000102 00000036 00000830     0.......6...0...
  20df24:	00000103 00000037 00000830 00000104     ....7...0.......
  20df34:	00000038 00000830 00000105 00000039     8...0.......9...
  20df44:	00000830 00000106 0000003a 00000830     0.......:...0...
  20df54:	00000107 0000003b 00000830 0000010a     ....;...0.......
  20df64:	0000003c 00000830 0000010b 0000003d     <...0.......=...
  20df74:	00000830 00000108 0000003e 00000830     0.......>...0...
  20df84:	00000109 0000003f 00000830 0000010c     ....?...0.......
  20df94:	00000040 00000830 0000010d 00000041     @...0.......A...
  20dfa4:	00000830 0000010e 00000042 00000830     0.......B...0...
  20dfb4:	0000010f 00000043 00000830 00000112     ....C...0.......
  20dfc4:	00000044 00000830 00000113 00000045     D...0.......E...
  20dfd4:	00000830 00000110 00000046 00000830     0.......F...0...
  20dfe4:	00000111 00000047 00000b30 00000100     ....G...0.......
  20dff4:	00000048 00000b30 00000101 00000049     H...0.......I...
  20e004:	00000b30 00000104 0000004a 00000b30     0.......J...0...
  20e014:	00000105 0000004b 00000b30 00000106     ....K...0.......
  20e024:	0000004c 00000b30 00000107 0000004d     L...0.......M...
  20e034:	00000b30 00000108 0000004e 00000b30     0.......N...0...
  20e044:	00000109 0000004f 00000b30 0000010a     ....O...0.......
  20e054:	00000050 00000b30 0000010b 00000051     P...0.......Q...
  20e064:	00000b30 0000010c 00000052 00000b30     0.......R...0...
  20e074:	0000010d 00000053 00000b30 0000010e     ....S...0.......
  20e084:	00000054 00000b30 0000010f 00000055     T...0.......U...
  20e094:	00000b30 00000110 00000056 00000b30     0.......V...0...
  20e0a4:	00000111 00000057 00000c30 00000100     ....W...0.......
  20e0b4:	00000058 00000c30 00000101 00000059     X...0.......Y...
  20e0c4:	00000c30 00000102 0000005a 00000c30     0.......Z...0...
  20e0d4:	00000103 0000005b 00000b30 00000112     ....[...0.......
  20e0e4:	0000005c 00000b30 00000113 0000005d     \...0.......]...
  20e0f4:	00000b30 00000114 0000005e 00000b30     0.......^...0...
  20e104:	00000115 0000005f 00000b30 00000116     ...._...0.......
  20e114:	00000060 00000b30 00000117 00000061     `...0.......a...
  20e124:	00000b30 00000118 00000062 00000b30     0.......b...0...
  20e134:	00000119 00000063 00000b30 0000011a     ....c...0.......
  20e144:	00000064 00000b30 0000011b 00000065     d...0.......e...
  20e154:	00000b30 0000011c 00000066 00000b30     0.......f...0...
  20e164:	0000011d                                ....

000000000020e168 <wait_time>:
  20e168:	0000001e 00000000 00000005 000000c8     ................
  20e178:	00030030 fff7fff7 fff7fff7 fff70003     0...............
  20e188:	00acfff7 fff7fff7 005bfff7 fff7fff7     ..........[.....
  20e198:	fff70043 fff700af 0081fff7 00a9fff7     C...............

000000000020e1a8 <build_message>:
  20e1a8:	6c697542 203a2074 353a3032 35313a35     Built : 20:55:15
  20e1b8:	754a202c 3820206c 32303220               , Jul  8 2023.

000000000020e1c6 <version_string>:
  20e1c6:	392e3276 6c657228 65736165 32763a29     v2.9(release):v2
  20e1d6:	302e382e 3333312d 63672d35 66326631     .8.0-1335-gc1f2f
  20e1e6:	66636361 20323263 6d6d6473 420a0063     accfc22 sdmmc..B
  20e1f6:	203a324c 6c696146 20657275 70206e69     L2: Failure in p
  20e206:	69206572 6567616d 616f6c20 61682064     re image load ha
  20e216:	696c646e 2820676e 0a296925 4c420a00     ndling (%i)...BL
  20e226:	46203a32 656c6961 6f742064 616f6c20     2: Failed to loa
  20e236:	6d692064 20656761 25206469 25282075     d image id %u (%
  20e246:	000a2969 324c420a 6146203a 72756c69     i)...BL2: Failur
  20e256:	6e692065 736f7020 6d692074 20656761     e in post image 
  20e266:	64616f6c 6e616820 6e696c64 25282067     load handling (%
  20e276:	000a2969 324c420a 6146203a 72756c69     i)...BL2: Failur
  20e286:	6e692065 64707520 6e697461 6e612067     e in updating an
  20e296:	722d6974 626c6c6f 206b6361 73726576     ti-rollback vers
  20e2a6:	206e6f69 29692528 4214000a 203a324c     ion (%i)...BL2: 
  20e2b6:	000a7325 324c4214 6f42203a 6e69746f     %s...BL2: Bootin
  20e2c6:	4c422067 000a3133 6961460a 2064656c     g BL31...Failed 
  20e2d6:	64206f74 6d6f6365 73657270 6d692073     to decompress im
  20e2e6:	20656761 72726528 2964253d               age (err=%d)..

000000000020e2f4 <uuid_null.0>:
	...
  20e304:	444d430a 66203331 656c6961 66612064     .CMD13 failed af
  20e314:	20726574 72206425 69727465 000a7365     ter %d retries..
  20e324:	444d430a 61662031 64656c69 74666120     .CMD1 failed aft
  20e334:	25207265 65722064 65697274 0a000a73     er %d retries...
  20e344:	444d4341 66203134 656c6961 66612064     ACMD41 failed af
  20e354:	20726574 72206425 69727465 000a7365     ter %d retries..
  20e364:	4d43410a 20313544 6c696166 61206465     .ACMD51 failed a
  20e374:	72657466 20642520 72746572 20736569     fter %d retries 
  20e384:	74657228 2964253d                        (ret=%d)..

000000000020e38e <sd_tran_speed_base>:
  20e38e:	0d0c0a00 1e19140f 322d2823 50463c37     ........#(-27<FP

000000000020e39e <tran_speed_base>:
  20e39e:	0d0c0a00 1e1a140f 342d2823 50463c37     ........#(-47<FP
  20e3ae:	20494645 54524150 6e490a00 696c6176     EFI PART..Invali
  20e3be:	50472064 65482054 72656461 43524320     d GPT Header CRC
  20e3ce:	7845203a 74636570 30206465 20782578     : Expected 0x%x 
  20e3de:	20747562 20746f67 78257830 0a000a2e     but got 0x%x....
  20e3ee:	203a7a78 645f7a78 695f6365 2874696e     xz: xz_dec_init(
  20e3fe:	61662029 64656c69 780a000a 78203a7a     ) failed...xz: x
  20e40e:	65645f7a 75725f63 2029286e 6c696166     z_dec_run() fail
  20e41e:	28206465 20727265 7525203d fd000a29     ed (err = %u)...
  20e42e:	5a587a37 005a5900 00706966 7261500a     7zXZ.YZ.fip..Par
  20e43e:	69746974 27206e6f 27706966 746f6e20     tition 'fip' not
  20e44e:	756f6620 000a646e 5049460a 6f6f6220      found...FIP boo
  20e45e:	6f732074 65637275 696e6920 6c616974     t source initial
  20e46e:	74617a69 206e6f69 6c696166 77206465     ization failed w
  20e47e:	20687469 000a6425                       ith %d..

000000000020e486 <bl31_uuid_spec>:
  20e486:	6d08d447 4698fe4c 5029959b 005abdcb     G..mL..F..)P..Z.

000000000020e496 <bl32_uuid_spec>:
  20e496:	89e1d005 4713dc53 0a502b8d 383e7a4b     ....S..G.+P.Kz>8

000000000020e4a6 <bl33_uuid_spec>:
  20e4a6:	a7eed0d6 4bd5eafc 34998297 e4b634f2     .......K...4.4..
  20e4b6:	44534d0a 52203a43 20646165 61746164     .MSDC: Read data
  20e4c6:	7a697320 78652065 64656563 72702073      size exceeds pr
  20e4d6:	72617065 73206465 0a657a69 534d0a00     epared size...MS
  20e4e6:	203a4344 20435243 6f727265 636f2072     DC: CRC error oc
  20e4f6:	65727563 68772064 20656c69 64616572     cured while read
  20e506:	20676e69 61746164 74697720 6d632068     ing data with cm
  20e516:	64253d64 7261202c 78303d67 000a7825     d=%d, arg=0x%x..
  20e526:	44534d0a 74203a43 6f656d69 6f207475     .MSDC: timeout o
  20e536:	72756363 77206465 656c6968 61657220     ccured while rea
  20e546:	676e6964 74616420 69772061 63206874     ding data with c
  20e556:	253d646d 61202c64 303d6772 0a782578     md=%d, arg=0x%x.
  20e566:	534d0a00 203a4344 61746144 20736920     ..MSDC: Data is 
  20e576:	20746f6e 6c6c7566 65722079 000a6461     not fully read..
  20e586:	44534d0a 43203a43 616d6d6f 6820646e     .MSDC: Command h
  20e596:	74207361 64656d69 74756f20 74697720     as timed out wit
  20e5a6:	6d632068 64253d64 7261202c 78303d67     h cmd=%d, arg=0x
  20e5b6:	000a7825 44534d0a 43203a43 616d6d6f     %x...MSDC: Comma
  20e5c6:	6820646e 43207361 65204352 726f7272     nd has CRC error
  20e5d6:	74697720 6d632068 64253d64 7261202c      with cmd=%d, ar
  20e5e6:	78303d67 000a7825 44534d0a 52203a43     g=0x%x...MSDC: R
  20e5f6:	65696365 75206576 7078656e 65746365     ecieve unexpecte
  20e606:	65722064 6e6f7073 49206573 7720544e     d response INT w
  20e616:	20687469 3d646d63 202c6425 3d677261     ith cmd=%d, arg=
  20e626:	78257830                                 0x%x..

000000000020e62c <CSWTCH.46>:
  20e62c:	00000003 00020000 00000000 00000001     ................
	...
  20e648:	50431407 4d203a55 0a782554 41570a00     ..CPU: MT%x...WA
  20e658:	465f5343 3d204d53 494d5020 52575f43     CS_FSM = PMIC_WR
  20e668:	575f5041 5f534341 43444c56 000a524c     AP_WACS_VLDCLR..
  20e678:	4341570a 53465f53 203d204d 53434157     .WACS_FSM = WACS
  20e688:	4d53465f 4446575f 000a454c 4341570a     _FSM_WFDLE...WAC
  20e698:	53465f53 203d204d 53434157 4d53465f     S_FSM = WACS_FSM
  20e6a8:	5145525f 770a000a 5f746961 5f726f66     _REQ...wait_for_
  20e6b8:	5f6d7366 656c6469 69616620 6425206c     fsm_idle fail %d
  20e6c8:	5714000a 203a5444 62616e65 2064656c     ...WDT: enabled 
  20e6d8:	64207962 75616665 000a746c 54445714     by default...WDT
  20e6e8:	6f6e203a 6e652074 656c6261 14000a64     : not enabled...
  20e6f8:	3a544457 73696420 656c6261 14000a64     WDT: disabled...
  20e708:	3a544457 6c6f4320 6f622064 000a746f     WDT: Cold boot..
  20e718:	54445714 255b203a 5d783830 202c0020     .WDT: [%08x] ., 
  20e728:	53007325 742d4d50 6d726568 742d6c61     %s.SPM-thermal-t
  20e738:	67676972 64657265 73657220 53007465     riggered reset.S
  20e748:	742d4d50 67676972 72207265 74657365     PM-trigger reset
  20e758:	65685400 6c616d72 6972742d 72656767     .Thermal-trigger
  20e768:	72206465 74657365 63655300 20657275     ed reset.Secure 
  20e778:	65736572 6f530074 61777466 72206572     reset.Software r
  20e788:	74657365 65722820 746f6f62 61570029     eset (reboot).Wa
  20e798:	64686374 7420676f 6f656d69 45007475     tchdog timeout.E
  20e7a8:	524f5252 2020203a 544f4e00 3a454349     RROR:   .NOTICE:
  20e7b8:	57002020 494e5241 203a474e 464e4900       .WARNING: .INF
  20e7c8:	20203a4f 56002020 4f425245 203a4553     O:    .VERBOSE: 
	...

000000000020e7d9 <cortex_a53_errata_list_end>:
  20e7d9:	50          	.byte	0x50
  20e7da:	4e41      	.short	0x4e41
  20e7dc:	61204349 	.word	0x61204349
  20e7e0:	43502074 	.word	0x43502074
  20e7e4:	30203a20 	.word	0x30203a20
  20e7e8:	450a0078 	.word	0x450a0078
  20e7ec:	203a494d 	.word	0x203a494d
  20e7f0:	746e6f43 	.word	0x746e6f43
  20e7f4:	20747865 	.word	0x20747865
  20e7f8:	4e207369 	.word	0x4e207369
  20e7fc:	0a4c4c55 	.word	0x0a4c4c55
  20e800:	6f4e0a00 	.word	0x6f4e0a00
  20e804:	75732074 	.word	0x75732074
  20e808:	726f7070 	.word	0x726f7070
  20e80c:	20646574 	.word	0x20646574
  20e810:	74736574 	.word	0x74736574
  20e814:	74617020 	.word	0x74617020
  20e818:	6e726574 	.word	0x6e726574
  20e81c:	7355202e 	.word	0x7355202e
  20e820:	75612065 	.word	0x75612065
  20e824:	206f6964 	.word	0x206f6964
  20e828:	74746170 	.word	0x74746170
  20e82c:	206e7265 	.word	0x206e7265
  20e830:	64207962 	.word	0x64207962
  20e834:	75616665 	.word	0x75616665
  20e838:	0a2e746c 	.word	0x0a2e746c
  20e83c:	4d450a00 	.word	0x4d450a00
  20e840:	6e203a49 	.word	0x6e203a49
  20e844:	7320746f 	.word	0x7320746f
  20e848:	6f707075 	.word	0x6f707075
  20e84c:	64657472 	.word	0x64657472
  20e850:	73657420 	.word	0x73657420
  20e854:	61702074 	.word	0x61702074
  20e858:	72657474 	.word	0x72657474
  20e85c:	0a000a6e 	.word	0x0a000a6e
  20e860:	20746f4e 	.word	0x20746f4e
  20e864:	70707573 	.word	0x70707573
  20e868:	2074726f 	.word	0x2074726f
  20e86c:	74736574 	.word	0x74736574
  20e870:	74617020 	.word	0x74617020
  20e874:	6e726574 	.word	0x6e726574
  20e878:	55202121 	.word	0x55202121
  20e87c:	61206573 	.word	0x61206573
  20e880:	6f696475 	.word	0x6f696475
  20e884:	74617020 	.word	0x74617020
  20e888:	6e726574 	.word	0x6e726574
  20e88c:	20796220 	.word	0x20796220
  20e890:	61666564 	.word	0x61666564
  20e894:	2e746c75 	.word	0x2e746c75
  20e898:	6e0a000a 	.word	0x6e0a000a
  20e89c:	4144206f 	.word	0x4144206f
  20e8a0:	54414c54 	.word	0x54414c54
  20e8a4:	70617420 	.word	0x70617420
  20e8a8:	61702073 	.word	0x61702073
  20e8ac:	202c7373 	.word	0x202c7373
  20e8b0:	4c544144 	.word	0x4c544144
  20e8b4:	63205441 	.word	0x63205441
  20e8b8:	62696c61 	.word	0x62696c61
  20e8bc:	69746172 	.word	0x69746172
  20e8c0:	66206e6f 	.word	0x66206e6f
  20e8c4:	216c6961 	.word	0x216c6961
  20e8c8:	440a000a 	.word	0x440a000a
  20e8cc:	414c5441 	.word	0x414c5441
  20e8d0:	61632054 	.word	0x61632054
  20e8d4:	7262696c 	.word	0x7262696c
  20e8d8:	6f697461 	.word	0x6f697461
  20e8dc:	6166206e 	.word	0x6166206e
  20e8e0:	202c6c69 	.word	0x202c6c69
  20e8e4:	74697277 	.word	0x74697277
  20e8e8:	61622065 	.word	0x61622065
  20e8ec:	74206b63 	.word	0x74206b63
  20e8f0:	3220206f 	.word	0x3220206f
  20e8f4:	000a2130 	.word	0x000a2130
  20e8f8:	6c6e6f0a 	.word	0x6c6e6f0a
  20e8fc:	6e6f2079 	.word	0x6e6f2079
  20e900:	61702065 	.word	0x61702065
  20e904:	74207373 	.word	0x74207373
  20e908:	0a217061 	.word	0x0a217061
  20e90c:	6f630a00 	.word	0x6f630a00
  20e910:	7865746e 	.word	0x7865746e
  20e914:	73692074 	.word	0x73692074
  20e918:	4c554e20 	.word	0x4c554e20
  20e91c:	0a000a4c 	.word	0x0a000a4c
  20e920:	20746f4e 	.word	0x20746f4e
  20e924:	70707573 	.word	0x70707573
  20e928:	6574726f 	.word	0x6574726f
  20e92c:	65742064 	.word	0x65742064
  20e930:	70207473 	.word	0x70207473
  20e934:	65747461 	.word	0x65747461
  20e938:	21216e72 	.word	0x21216e72
  20e93c:	65735520 	.word	0x65735520
  20e940:	64756120 	.word	0x64756120
  20e944:	70206f69 	.word	0x70206f69
  20e948:	65747461 	.word	0x65747461
  20e94c:	62206e72 	.word	0x62206e72
  20e950:	65642079 	.word	0x65642079
  20e954:	6c756166 	.word	0x6c756166
  20e958:	000a2e74 	.word	0x000a2e74
  20e95c:	3141540a 	.word	0x3141540a
  20e960:	66666f20 	.word	0x66666f20
  20e964:	20746573 	.word	0x20746573
  20e968:	7473756d 	.word	0x7473756d
  20e96c:	20656220 	.word	0x20656220
  20e970:	66377830 	.word	0x66377830
  20e974:	0a212166 	.word	0x0a212166
  20e978:	61700a00 	.word	0x61700a00
  20e97c:	656d6172 	.word	0x656d6172
  20e980:	20726574 	.word	0x20726574
  20e984:	61747327 	.word	0x61747327
  20e988:	27737574 	.word	0x27737574
  20e98c:	6f687320 	.word	0x6f687320
  20e990:	20646c75 	.word	0x20646c75
  20e994:	65206562 	.word	0x65206562
  20e998:	6c617571 	.word	0x6c617571
  20e99c:	20726f20 	.word	0x20726f20
  20e9a0:	61657267 	.word	0x61657267
  20e9a4:	20726574 	.word	0x20726574
  20e9a8:	6e616874 	.word	0x6e616874
  20e9ac:	000a3020 	.word	0x000a3020
  20e9b0:	6f72770a 	.word	0x6f72770a
  20e9b4:	7020676e 	.word	0x7020676e
  20e9b8:	6d617261 	.word	0x6d617261
  20e9bc:	72657465 	.word	0x72657465
  20e9c0:	0a000a21 	.word	0x0a000a21
  20e9c4:	706f6f6c 	.word	0x706f6f6c
  20e9c8:	65726f66 	.word	0x65726f66
  20e9cc:	09726576 	.word	0x09726576
  20e9d0:	69726570 	.word	0x69726570
  20e9d4:	2009646f 	.word	0x2009646f
  20e9d8:	61747320 	.word	0x61747320
  20e9dc:	09737574 	.word	0x09737574
  20e9e0:	6e61656d 	.word	0x6e61656d
  20e9e4:	0a000a20 	.word	0x0a000a20
  20e9e8:	20202009 	.word	0x20202009
  20e9ec:	09090930 	.word	0x09090930
  20e9f0:	09097809 	.word	0x09097809
  20e9f4:	09093109 	.word	0x09093109
  20e9f8:	65722020 	.word	0x65722020
  20e9fc:	772f6461 	.word	0x772f6461
  20ea00:	65746972 	.word	0x65746972
  20ea04:	656e6f20 	.word	0x656e6f20
  20ea08:	6d697420 	.word	0x6d697420
  20ea0c:	742c2065 	.word	0x742c2065
  20ea10:	206e6568 	.word	0x206e6568
  20ea14:	74697865 	.word	0x74697865
  20ea18:	6f642c20 	.word	0x6f642c20
  20ea1c:	2074276e 	.word	0x2074276e
  20ea20:	74697277 	.word	0x74697277
  20ea24:	6f6c2065 	.word	0x6f6c2065
  20ea28:	0a000a67 	.word	0x0a000a67
  20ea2c:	303e2009 	.word	0x303e2009
  20ea30:	09090920 	.word	0x09090920
  20ea34:	78202020 	.word	0x78202020
  20ea38:	20200909 	.word	0x20200909
  20ea3c:	09093220 	.word	0x09093220
  20ea40:	61657220 	.word	0x61657220
  20ea44:	72772f64 	.word	0x72772f64
  20ea48:	20657469 	.word	0x20657469
  20ea4c:	61206e69 	.word	0x61206e69
  20ea50:	6f6f6c20 	.word	0x6f6f6c20
  20ea54:	66612c70 	.word	0x66612c70
  20ea58:	20726574 	.word	0x20726574
  20ea5c:	6f6f6c5b 	.word	0x6f6f6c5b
  20ea60:	726f6670 	.word	0x726f6670
  20ea64:	72657665 	.word	0x72657665
  20ea68:	6573205d 	.word	0x6573205d
  20ea6c:	646e6f63 	.word	0x646e6f63
  20ea70:	642c2073 	.word	0x642c2073
  20ea74:	62617369 	.word	0x62617369
  20ea78:	6920656c 	.word	0x6920656c
  20ea7c:	722c2074 	.word	0x722c2074
  20ea80:	72757465 	.word	0x72757465
  20ea84:	6874206e 	.word	0x6874206e
  20ea88:	2f522065 	.word	0x2f522065
  20ea8c:	74732057 	.word	0x74732057
  20ea90:	73757461 	.word	0x73757461
  20ea94:	090a000a 	.word	0x090a000a
  20ea98:	20312d20 	.word	0x20312d20
  20ea9c:	20090909 	.word	0x20090909
  20eaa0:	0920303e 	.word	0x0920303e
  20eaa4:	33202009 	.word	0x33202009
  20eaa8:	72090920 	.word	0x72090920
  20eaac:	2f646165 	.word	0x2f646165
  20eab0:	74697277 	.word	0x74697277
  20eab4:	6e692065 	.word	0x6e692065
  20eab8:	6c206120 	.word	0x6c206120
  20eabc:	2c706f6f 	.word	0x2c706f6f
  20eac0:	72657665 	.word	0x72657665
  20eac4:	705b2079 	.word	0x705b2079
  20eac8:	6f697265 	.word	0x6f697265
  20eacc:	73205d64 	.word	0x73205d64
  20ead0:	6e6f6365 	.word	0x6e6f6365
  20ead4:	2c207364 	.word	0x2c207364
  20ead8:	63656863 	.word	0x63656863
  20eadc:	6572206b 	.word	0x6572206b
  20eae0:	746c7573 	.word	0x746c7573
  20eae4:	6e6f2c20 	.word	0x6e6f2c20
  20eae8:	7720796c 	.word	0x7720796c
  20eaec:	206e6568 	.word	0x206e6568
  20eaf0:	66206577 	.word	0x66206577
  20eaf4:	20646e69 	.word	0x20646e69
  20eaf8:	6f727265 	.word	0x6f727265
  20eafc:	72772c72 	.word	0x72772c72
  20eb00:	20657469 	.word	0x20657469
  20eb04:	20676f6c 	.word	0x20676f6c
  20eb08:	20646e61 	.word	0x20646e61
  20eb0c:	74697865 	.word	0x74697865
  20eb10:	090a000a 	.word	0x090a000a
  20eb14:	20322d20 	.word	0x20322d20
  20eb18:	20090909 	.word	0x20090909
  20eb1c:	0920303e 	.word	0x0920303e
  20eb20:	34202009 	.word	0x34202009
  20eb24:	72090920 	.word	0x72090920
  20eb28:	2f646165 	.word	0x2f646165
  20eb2c:	74697277 	.word	0x74697277
  20eb30:	6e692065 	.word	0x6e692065
  20eb34:	6c206120 	.word	0x6c206120
  20eb38:	2c706f6f 	.word	0x2c706f6f
  20eb3c:	72657665 	.word	0x72657665
  20eb40:	705b2079 	.word	0x705b2079
  20eb44:	6f697265 	.word	0x6f697265
  20eb48:	73205d64 	.word	0x73205d64
  20eb4c:	6e6f6365 	.word	0x6e6f6365
  20eb50:	2c207364 	.word	0x2c207364
  20eb54:	74697277 	.word	0x74697277
  20eb58:	6f6c2065 	.word	0x6f6c2065
  20eb5c:	6f2c2067 	.word	0x6f2c2067
  20eb60:	20796c6e 	.word	0x20796c6e
  20eb64:	6e656877 	.word	0x6e656877
  20eb68:	20657720 	.word	0x20657720
  20eb6c:	646e6966 	.word	0x646e6966
  20eb70:	72726520 	.word	0x72726520
  20eb74:	772c726f 	.word	0x772c726f
  20eb78:	65746972 	.word	0x65746972
  20eb7c:	676f6c20 	.word	0x676f6c20
  20eb80:	646e6120 	.word	0x646e6120
  20eb84:	69786520 	.word	0x69786520
  20eb88:	0a000a74 	.word	0x0a000a74
  20eb8c:	332d2009 	.word	0x332d2009
  20eb90:	09090920 	.word	0x09090920
  20eb94:	78202020 	.word	0x78202020
  20eb98:	20200909 	.word	0x20200909
  20eb9c:	09093520 	.word	0x09093520
  20eba0:	73756a20 	.word	0x73756a20
  20eba4:	6e652074 	.word	0x6e652074
  20eba8:	656c6261 	.word	0x656c6261
  20ebac:	6f6f6c20 	.word	0x6f6f6c20
  20ebb0:	6f662070 	.word	0x6f662070
  20ebb4:	65766572 	.word	0x65766572
  20ebb8:	202c2072 	.word	0x202c2072
  20ebbc:	6e656874 	.word	0x6e656874
  20ebc0:	69786520 	.word	0x69786520
  20ebc4:	73282074 	.word	0x73282074
  20ebc8:	6577206f 	.word	0x6577206f
  20ebcc:	6f687320 	.word	0x6f687320
  20ebd0:	20646c75 	.word	0x20646c75
  20ebd4:	61736964 	.word	0x61736964
  20ebd8:	20656c62 	.word	0x20656c62
  20ebdc:	69676e65 	.word	0x69676e65
  20ebe0:	2031656e 	.word	0x2031656e
  20ebe4:	7374756f 	.word	0x7374756f
  20ebe8:	20656469 	.word	0x20656469
  20ebec:	20656874 	.word	0x20656874
  20ebf0:	636e7566 	.word	0x636e7566
  20ebf4:	6e6f6974 	.word	0x6e6f6974
  20ebf8:	0a000a29 	.word	0x0a000a29
  20ebfc:	6e6f7277 	.word	0x6e6f7277
  20ec00:	61702067 	.word	0x61702067
  20ec04:	656d6172 	.word	0x656d6172
  20ec08:	20726574 	.word	0x20726574
  20ec0c:	32676f6c 	.word	0x32676f6c
  20ec10:	706f6f6c 	.word	0x706f6f6c
  20ec14:	6e756f63 	.word	0x6e756f63
  20ec18:	20203a74 	.word	0x20203a74
  20ec1c:	6f6c2020 	.word	0x6f6c2020
  20ec20:	6f6c3267 	.word	0x6f6c3267
  20ec24:	6f63706f 	.word	0x6f63706f
  20ec28:	20746e75 	.word	0x20746e75
  20ec2c:	7473756a 	.word	0x7473756a
  20ec30:	74203020 	.word	0x74203020
  20ec34:	3531206f 	.word	0x3531206f
  20ec38:	000a2120 	.word	0x000a2120
  20ec3c:	7261700a 	.word	0x7261700a
  20ec40:	74656d61 	.word	0x74656d61
  20ec44:	27207265 	.word	0x27207265
  20ec48:	69726570 	.word	0x69726570
  20ec4c:	2027646f 	.word	0x2027646f
  20ec50:	756f6873 	.word	0x756f6873
  20ec54:	6220646c 	.word	0x6220646c
  20ec58:	71652065 	.word	0x71652065
  20ec5c:	206c6175 	.word	0x206c6175
  20ec60:	6720726f 	.word	0x6720726f
  20ec64:	74616572 	.word	0x74616572
  20ec68:	74207265 	.word	0x74207265
  20ec6c:	206e6168 	.word	0x206e6168
  20ec70:	0a000a30 	.word	0x0a000a30
  20ec74:	61726170 	.word	0x61726170
  20ec78:	6574656d 	.word	0x6574656d
  20ec7c:	6c272072 	.word	0x6c272072
  20ec80:	66706f6f 	.word	0x66706f6f
  20ec84:	7665726f 	.word	0x7665726f
  20ec88:	20277265 	.word	0x20277265
  20ec8c:	756f6873 	.word	0x756f6873
  20ec90:	6220646c 	.word	0x6220646c
  20ec94:	20302065 	.word	0x20302065
  20ec98:	2d20312d 	.word	0x2d20312d
  20ec9c:	332d2032 	.word	0x332d2032
  20eca0:	20726f20 	.word	0x20726f20
  20eca4:	61657267 	.word	0x61657267
  20eca8:	20726574 	.word	0x20726574
  20ecac:	6e616874 	.word	0x6e616874
  20ecb0:	000a3020 	.word	0x000a3020
  20ecb4:	746f6e0a 	.word	0x746f6e0a
  20ecb8:	70757320 	.word	0x70757320
  20ecbc:	74726f70 	.word	0x74726f70
  20ecc0:	726f6620 	.word	0x726f6620
  20ecc4:	776f6e20 	.word	0x776f6e20
  20ecc8:	430a000a 	.word	0x430a000a
  20eccc:	69746972 	.word	0x69746972
  20ecd0:	206c6163 	.word	0x206c6163
  20ecd4:	6f727265 	.word	0x6f727265
  20ecd8:	20212172 	.word	0x20212172
  20ecdc:	5f737164 	.word	0x5f737164
  20ece0:	635f7767 	.word	0x635f7767
  20ece4:	7372616f 	.word	0x7372616f
  20ece8:	203e2065 	.word	0x203e2065
  20ecec:	5f535144 	.word	0x5f535144
  20ecf0:	4c5f5747 	.word	0x4c5f5747
  20ecf4:	000a4e45 	.word	0x000a4e45
  20ecf8:	6e61430a 	.word	0x6e61430a
  20ecfc:	20746f6e 	.word	0x20746f6e
  20ed00:	646e6966 	.word	0x646e6966
  20ed04:	796e6120 	.word	0x796e6120
  20ed08:	73617020 	.word	0x73617020
  20ed0c:	69772d73 	.word	0x69772d73
  20ed10:	776f646e 	.word	0x776f646e
  20ed14:	450a000a 	.word	0x450a000a
  20ed18:	203a494d 	.word	0x203a494d
  20ed1c:	20656854 	.word	0x20656854
  20ed20:	4d415244 	.word	0x4d415244
  20ed24:	70797420 	.word	0x70797420
  20ed28:	73692065 	.word	0x73692065
  20ed2c:	746f6e20 	.word	0x746f6e20
  20ed30:	70757320 	.word	0x70757320
  20ed34:	74726f70 	.word	0x74726f70
  20ed38:	0a006465 	.word	0x0a006465
  20ed3c:	3a494d45 	.word	0x3a494d45
  20ed40:	41524420 	.word	0x41524420
  20ed44:	7974204d 	.word	0x7974204d
  20ed48:	65206570 	.word	0x65206570
  20ed4c:	726f7272 	.word	0x726f7272
  20ed50:	6425203a 	.word	0x6425203a
  20ed54:	4528000a 	.word	0x4528000a
  20ed58:	203a494d 	.word	0x203a494d
  20ed5c:	4d415244 	.word	0x4d415244
  20ed60:	61632043 	.word	0x61632043
  20ed64:	7262696c 	.word	0x7262696c
  20ed68:	6f697461 	.word	0x6f697461
  20ed6c:	6f64206e 	.word	0x6f64206e
  20ed70:	000a656e 	.word	0x000a656e
  20ed74:	494d450a 	.word	0x494d450a
  20ed78:	6f63203a 	.word	0x6f63203a
  20ed7c:	656c706d 	.word	0x656c706d
  20ed80:	2f522078 	.word	0x2f522078
  20ed84:	656d2057 	.word	0x656d2057
  20ed88:	6574206d 	.word	0x6574206d
  20ed8c:	66207473 	.word	0x66207473
  20ed90:	656c6961 	.word	0x656c6961
  20ed94:	25203a64 	.word	0x25203a64
  20ed98:	0a000a64 	.word	0x0a000a64
  20ed9c:	3a494d45 	.word	0x3a494d45
  20eda0:	41524420 	.word	0x41524420
  20eda4:	6977204d 	.word	0x6977204d
  20eda8:	62206c6c 	.word	0x62206c6c
  20edac:	65722065 	.word	0x65722065
  20edb0:	696e692d 	.word	0x696e692d
  20edb4:	6c616974 	.word	0x6c616974
  20edb8:	64657a69 	.word	0x64657a69
  20edbc:	4528000a 	.word	0x4528000a
  20edc0:	203a494d 	.word	0x203a494d
  20edc4:	706d6f63 	.word	0x706d6f63
  20edc8:	2078656c 	.word	0x2078656c
  20edcc:	20572f52 	.word	0x20572f52
  20edd0:	206d656d 	.word	0x206d656d
  20edd4:	74736574 	.word	0x74736574
  20edd8:	73617020 	.word	0x73617020
  20eddc:	0a646573 	.word	0x0a646573
  20ede0:	4d450a00 	.word	0x4d450a00
  20ede4:	44203a49 	.word	0x44203a49
  20ede8:	72205244 	.word	0x72205244
  20edec:	72657365 	.word	0x72657365
  20edf0:	6d206576 	.word	0x6d206576
  20edf4:	2065646f 	.word	0x2065646f
  20edf8:	6c696166 	.word	0x6c696166
  20edfc:	000a6465 	.word	0x000a6465
  20ee00:	494d450a 	.word	0x494d450a
  20ee04:	4444203a 	.word	0x4444203a
  20ee08:	65722052 	.word	0x65722052
  20ee0c:	76726573 	.word	0x76726573
  20ee10:	6f6d2065 	.word	0x6f6d2065
  20ee14:	65206564 	.word	0x65206564
  20ee18:	6c62616e 	.word	0x6c62616e
  20ee1c:	202c6465 	.word	0x202c6465
  20ee20:	20747562 	.word	0x20747562
  20ee24:	20524444 	.word	0x20524444
  20ee28:	20746f6e 	.word	0x20746f6e
  20ee2c:	73206e69 	.word	0x73206e69
  20ee30:	2d666c65 	.word	0x2d666c65
  20ee34:	72666572 	.word	0x72666572
  20ee38:	20687365 	.word	0x20687365
  20ee3c:	65646f6d 	.word	0x65646f6d
  20ee40:	4528000a 	.word	0x4528000a
  20ee44:	203a494d 	.word	0x203a494d
  20ee48:	20524444 	.word	0x20524444
  20ee4c:	65736572 	.word	0x65736572
  20ee50:	20657672 	.word	0x20657672
  20ee54:	65646f6d 	.word	0x65646f6d
  20ee58:	74636120 	.word	0x74636120
  20ee5c:	74617669 	.word	0x74617669
  20ee60:	000a6465 	.word	0x000a6465
  20ee64:	494d450a 	.word	0x494d450a
  20ee68:	4444203a 	.word	0x4444203a
  20ee6c:	61662052 	.word	0x61662052
  20ee70:	64656c69 	.word	0x64656c69
  20ee74:	206f7420 	.word	0x206f7420
  20ee78:	7661656c 	.word	0x7661656c
  20ee7c:	65732065 	.word	0x65732065
  20ee80:	722d666c 	.word	0x722d666c
  20ee84:	65726665 	.word	0x65726665
  20ee88:	6d206873 	.word	0x6d206873
  20ee8c:	0a65646f 	.word	0x0a65646f
  20ee90:	00783000 	.word	0x00783000
  20ee94:	00000000 	.word	0x00000000

000000000020ee98 <__CPU_OPS_START__>:
  20ee98:	410fd030 	.word	0x410fd030
  20ee9c:	00000000 	.word	0x00000000
  20eea0:	002011ac 	.word	0x002011ac
	...
  20eec8:	0020e7d9 	.word	0x0020e7d9
  20eecc:	00000000 	.word	0x00000000
  20eed0:	0020e7d9 	.word	0x0020e7d9
  20eed4:	00000000 	.word	0x00000000

000000000020eed8 <__CPU_OPS_END__>:
	...

000000000020f000 <SynchronousExceptionSP0>:
  20f000:	d2800000 	mov	x0, #0x0                   	// #0
  20f004:	97ffc996 	bl	20165c <plat_report_exception>
  20f008:	97ffc997 	bl	201664 <plat_panic_handler>
	...

000000000020f080 <IrqSP0>:
  20f080:	d2800020 	mov	x0, #0x1                   	// #1
  20f084:	97ffc976 	bl	20165c <plat_report_exception>
  20f088:	97ffc977 	bl	201664 <plat_panic_handler>
	...

000000000020f100 <FiqSP0>:
  20f100:	d2800040 	mov	x0, #0x2                   	// #2
  20f104:	97ffc956 	bl	20165c <plat_report_exception>
  20f108:	97ffc957 	bl	201664 <plat_panic_handler>
	...

000000000020f180 <SErrorSP0>:
  20f180:	d2800060 	mov	x0, #0x3                   	// #3
  20f184:	97ffc936 	bl	20165c <plat_report_exception>
  20f188:	97ffc937 	bl	201664 <plat_panic_handler>
	...

000000000020f200 <SynchronousExceptionSPx>:
  20f200:	d2800080 	mov	x0, #0x4                   	// #4
  20f204:	97ffc916 	bl	20165c <plat_report_exception>
  20f208:	97ffc917 	bl	201664 <plat_panic_handler>
	...

000000000020f280 <IrqSPx>:
  20f280:	d28000a0 	mov	x0, #0x5                   	// #5
  20f284:	97ffc8f6 	bl	20165c <plat_report_exception>
  20f288:	97ffc8f7 	bl	201664 <plat_panic_handler>
	...

000000000020f300 <FiqSPx>:
  20f300:	d28000c0 	mov	x0, #0x6                   	// #6
  20f304:	97ffc8d6 	bl	20165c <plat_report_exception>
  20f308:	97ffc8d7 	bl	201664 <plat_panic_handler>
	...

000000000020f380 <SErrorSPx>:
  20f380:	d28000e0 	mov	x0, #0x7                   	// #7
  20f384:	97ffc8b6 	bl	20165c <plat_report_exception>
  20f388:	97ffc8b7 	bl	201664 <plat_panic_handler>
	...

000000000020f400 <SynchronousExceptionA64>:
  20f400:	d2800100 	mov	x0, #0x8                   	// #8
  20f404:	97ffc896 	bl	20165c <plat_report_exception>
  20f408:	97ffc897 	bl	201664 <plat_panic_handler>
	...

000000000020f480 <IrqA64>:
  20f480:	d2800120 	mov	x0, #0x9                   	// #9
  20f484:	97ffc876 	bl	20165c <plat_report_exception>
  20f488:	97ffc877 	bl	201664 <plat_panic_handler>
	...

000000000020f500 <FiqA64>:
  20f500:	d2800140 	mov	x0, #0xa                   	// #10
  20f504:	97ffc856 	bl	20165c <plat_report_exception>
  20f508:	97ffc857 	bl	201664 <plat_panic_handler>
	...

000000000020f580 <SErrorA64>:
  20f580:	d2800160 	mov	x0, #0xb                   	// #11
  20f584:	97ffc836 	bl	20165c <plat_report_exception>
  20f588:	97ffc837 	bl	201664 <plat_panic_handler>
	...

000000000020f600 <SynchronousExceptionA32>:
  20f600:	d2800180 	mov	x0, #0xc                   	// #12
  20f604:	97ffc816 	bl	20165c <plat_report_exception>
  20f608:	97ffc817 	bl	201664 <plat_panic_handler>
	...

000000000020f680 <IrqA32>:
  20f680:	d28001a0 	mov	x0, #0xd                   	// #13
  20f684:	97ffc7f6 	bl	20165c <plat_report_exception>
  20f688:	97ffc7f7 	bl	201664 <plat_panic_handler>
	...

000000000020f700 <FiqA32>:
  20f700:	d28001c0 	mov	x0, #0xe                   	// #14
  20f704:	97ffc7d6 	bl	20165c <plat_report_exception>
  20f708:	97ffc7d7 	bl	201664 <plat_panic_handler>
	...

000000000020f780 <SErrorA32>:
  20f780:	d28001e0 	mov	x0, #0xf                   	// #15
  20f784:	97ffc7b6 	bl	20165c <plat_report_exception>
  20f788:	97ffc7b7 	bl	201664 <plat_panic_handler>
	...

000000000020f800 <__RO_END_UNALIGNED__>:
	...
