
/media/data_nvme/git/uboot/u-boot/build/mt7622/release/bl2/bl2.elf:     file format elf64-littleaarch64
/media/data_nvme/git/uboot/u-boot/build/mt7622/release/bl2/bl2.elf
architecture: aarch64, flags 0x00000112:
EXEC_P, HAS_SYMS, D_PAGED
start address 0x0000000000201000

Program Header:
    LOAD off    0x0000000000001000 vaddr 0x0000000000201000 paddr 0x0000000000201000 align 2**12
         filesz 0x000000000000f000 memsz 0x000000000000f000 flags r-x
    LOAD off    0x0000000000010000 vaddr 0x0000000000210000 paddr 0x0000000000210000 align 2**12
         filesz 0x000000000000071d memsz 0x0000000000004e80 flags rw-
   STACK off    0x0000000000000000 vaddr 0x0000000000000000 paddr 0x0000000000000000 align 2**4
         filesz 0x0000000000000000 memsz 0x0000000000000000 flags rw-
private flags = 0x0:

Sections:
Idx Name          Size      VMA               LMA               File off  Algn
  0 .ro           0000f000  0000000000201000  0000000000201000  00001000  2**11
                  CONTENTS, ALLOC, LOAD, READONLY, CODE
  1 .data         0000071d  0000000000210000  0000000000210000  00010000  2**3
                  CONTENTS, ALLOC, LOAD, DATA
  2 .stacks       00001000  0000000000210740  0000000000210740  0001071d  2**6
                  ALLOC
  3 .bss          00003740  0000000000211740  0000000000211740  0001071d  2**4
                  ALLOC
  4 .coherent_ram 00000000  0000000000215000  0000000000215000  00011000  2**12
                  CONTENTS
  5 .debug_info   0001bfac  0000000000000000  0000000000000000  00011000  2**0
                  CONTENTS, READONLY, DEBUGGING, OCTETS
  6 .debug_abbrev 0000563f  0000000000000000  0000000000000000  0002cfac  2**0
                  CONTENTS, READONLY, DEBUGGING, OCTETS
  7 .debug_aranges 00001900  0000000000000000  0000000000000000  000325f0  2**4
                  CONTENTS, READONLY, DEBUGGING, OCTETS
  8 .debug_line   0000c6a2  0000000000000000  0000000000000000  00033ef0  2**0
                  CONTENTS, READONLY, DEBUGGING, OCTETS
  9 .debug_str    00004a10  0000000000000000  0000000000000000  00040592  2**0
                  CONTENTS, READONLY, DEBUGGING, OCTETS
 10 .comment      0000003c  0000000000000000  0000000000000000  00044fa2  2**0
                  CONTENTS, READONLY
 11 .debug_loc    0001ad24  0000000000000000  0000000000000000  00044fde  2**0
                  CONTENTS, READONLY, DEBUGGING, OCTETS
 12 .debug_ranges 00005770  0000000000000000  0000000000000000  0005fd10  2**4
                  CONTENTS, READONLY, DEBUGGING, OCTETS
 13 .debug_frame  00000a20  0000000000000000  0000000000000000  00065480  2**3
                  CONTENTS, READONLY, DEBUGGING, OCTETS
SYMBOL TABLE:
0000000000201000 l    d  .ro	0000000000000000 .ro
0000000000210000 l    d  .data	0000000000000000 .data
0000000000210740 l    d  .stacks	0000000000000000 .stacks
0000000000211740 l    d  .bss	0000000000000000 .bss
0000000000215000 l    d  .coherent_ram	0000000000000000 .coherent_ram
0000000000000000 l    d  .debug_info	0000000000000000 .debug_info
0000000000000000 l    d  .debug_abbrev	0000000000000000 .debug_abbrev
0000000000000000 l    d  .debug_aranges	0000000000000000 .debug_aranges
0000000000000000 l    d  .debug_line	0000000000000000 .debug_line
0000000000000000 l    d  .debug_str	0000000000000000 .debug_str
0000000000000000 l    d  .comment	0000000000000000 .comment
0000000000000000 l    d  .debug_loc	0000000000000000 .debug_loc
0000000000000000 l    d  .debug_ranges	0000000000000000 .debug_ranges
0000000000000000 l    d  .debug_frame	0000000000000000 .debug_frame
0000000000000000 l    df *ABS*	0000000000000000 bl2_el3_entrypoint.o
0000000000201094 l       .ro	0000000000000000 do_primary_cold_boot
0000000000000000 l    df *ABS*	0000000000000000 bl2_run_next_image.o
0000000000000000 l    df *ABS*	0000000000000000 cortex_a53.o
000000000020113c l     F .ro	0000000000000020 errata_a53_826319_wa
000000000020115c l     F .ro	0000000000000008 check_errata_826319
0000000000201164 l     F .ro	000000000000001c a53_disable_non_temporal_hint
0000000000201180 l     F .ro	0000000000000008 check_errata_disable_non_temporal_hint
0000000000201188 l     F .ro	000000000000001c errata_a53_855873_wa
00000000002011a4 l     F .ro	0000000000000008 check_errata_855873
00000000002011ac l     F .ro	0000000000000038 cortex_a53_reset_func
000000000020e7d9 l       .ro	0000000000000000 cortex_a53_errata_list_start
000000000020e7d9 l       .ro	0000000000000000 cortex_a53_errata_list_end
0000000000000000 l    df *ABS*	0000000000000000 cpu_helpers.o
0000000000201240 l       .ro	0000000000000000 search_def_ptr
0000000000000000 l    df *ABS*	0000000000000000 platform_up_stack.o
0000000000210740 l       .stacks	0000000000000000 platform_normal_stacks
0000000000000006 l       *ABS*	0000000000000000 TZ_COUNT
0000000000000000 l    df *ABS*	0000000000000000 hsuart.o
000000000020133c l       .ro	0000000000000000 init_fail
00000000002012c4 l       .ro	0000000000000000 set_baud_force_high_speed
00000000002012ec l       .ro	0000000000000000 set_baud_low_speed
0000000000201300 l       .ro	0000000000000000 set_divisor
0000000000201354 l       .ro	0000000000000000 no_char
00000000002013ac l     F .ro	0000000000000008 console_hsuart_getc
00000000002013b4 l     F .ro	0000000000000008 console_hsuart_putc
00000000002013bc l     F .ro	0000000000000008 console_hsuart_flush
0000000000201418 l       .ro	0000000000000000 register_fail
00000000002013e0 l       .ro	0000000000000000 register_hsuart
0000000000000000 l    df *ABS*	0000000000000000 plat_helpers.o
000000000020141c l       .ro	0000000000000000 cb_panic
0000000000000000 l    df *ABS*	0000000000000000 debug.o
000000000020e7d9 l       .ro	0000000000000000 panic_msg
00000000002014a8 l       .ro	0000000000000000 panic_common
00000000002014d0 l       .ro	0000000000000000 _panic_handler
0000000000000000 l    df *ABS*	0000000000000000 cache_helpers.o
000000000020150c l       .ro	0000000000000000 exit_loop_civac
00000000002014f8 l       .ro	0000000000000000 loop_civac
0000000000201544 l       .ro	0000000000000000 exit_loop_ivac
0000000000201530 l       .ro	0000000000000000 loop_ivac
0000000000000000 l    df *ABS*	0000000000000000 misc_helpers.o
0000000000201550 l     F .ro	00000000000000e8 zeromem_dczva
000000000020163c l       .ro	0000000000000000 do_disable_mmu_el3
0000000000000000 l    df *ABS*	0000000000000000 platform_helpers.o
0000000000000000 l    df *ABS*	0000000000000000 bl2_arch_setup.c
0000000000000000 l    df *ABS*	0000000000000000 bl2_image_load_v2.c
0000000000000000 l    df *ABS*	0000000000000000 bl2_main.c
0000000000000000 l    df *ABS*	0000000000000000 desc_image_load.c
0000000000211948 l     O .bss	0000000000000010 bl_load_info
0000000000211958 l     O .bss	0000000000000010 next_bl_params
0000000000000000 l    df *ABS*	0000000000000000 image_decompress.c
0000000000211968 l     O .bss	0000000000000008 decompressor
0000000000211970 l     O .bss	0000000000000008 decompressor_buf_base
0000000000214780 l     O .bss	0000000000000004 decompressor_buf_size
0000000000211978 l     O .bss	0000000000000018 saved_image_info
0000000000000000 l    df *ABS*	0000000000000000 tf_crc32.c
0000000000000000 l    df *ABS*	0000000000000000 delay_timer.c
0000000000211990 l     O .bss	0000000000000008 timer_ops
0000000000000000 l    df *ABS*	0000000000000000 generic_delay_timer.c
0000000000201bcc l     F .ro	000000000000000c get_timer_value
0000000000211998 l     O .bss	0000000000000010 ops
0000000000000000 l    df *ABS*	0000000000000000 gpio.c
00000000002119a8 l     O .bss	0000000000000008 ops
0000000000000000 l    df *ABS*	0000000000000000 io_block.c
0000000000201c50 l     F .ro	000000000000001c block_open
0000000000201c6c l     F .ro	0000000000000030 block_seek
0000000000201c9c l     F .ro	000000000000000c block_close
0000000000201ca8 l     F .ro	000000000000015c block_write
0000000000201e04 l     F .ro	00000000000000fc block_read
0000000000201f00 l     F .ro	0000000000000064 block_dev_close
0000000000201f64 l     F .ro	0000000000000060 block_dev_open
0000000000214784 l     O .bss	0000000000000004 block_dev_count
00000000002119b0 l     O .bss	0000000000000010 dev_info_pool
00000000002119c0 l     O .bss	0000000000000020 state_pool
000000000020c210 l     O .ro	0000000000000008 block_dev_connector
000000000020c218 l     O .ro	0000000000000048 block_dev_funcs
0000000000000000 l    df *ABS*	0000000000000000 io_fip.c
0000000000201ffc l     F .ro	0000000000000008 device_type_fip
0000000000202004 l     F .ro	0000000000000014 fip_file_len
0000000000202018 l     F .ro	000000000000003c fip_file_close
0000000000202054 l     F .ro	00000000000000b4 fip_dev_init
0000000000202108 l     F .ro	00000000000000b8 fip_file_read
00000000002021c0 l     F .ro	0000000000000060 fip_dev_open
0000000000202220 l     F .ro	00000000000000f4 fip_file_open
0000000000202314 l     F .ro	000000000000005c fip_dev_close
00000000002119e0 l     O .bss	0000000000000008 backend_dev_handle
00000000002119e8 l     O .bss	0000000000000008 backend_image_spec
00000000002119f0 l     O .bss	0000000000000030 current_fip_file
0000000000211a20 l     O .bss	0000000000000010 dev_info_pool
0000000000214788 l     O .bss	0000000000000004 fip_dev_count
0000000000211a30 l     O .bss	0000000000000010 state_pool
000000000020c260 l     O .ro	0000000000000008 fip_dev_connector
000000000020c268 l     O .ro	0000000000000048 fip_dev_funcs
000000000020e2f4 l     O .ro	0000000000000010 uuid_null.0
0000000000000000 l    df *ABS*	0000000000000000 io_storage.c
00000000002023a8 l     F .ro	0000000000000044 free_entity.isra.0
000000000021478c l     O .bss	0000000000000004 dev_count
0000000000214790 l     O .bss	0000000000000004 entity_count
0000000000211a40 l     O .bss	0000000000000020 entity_map
0000000000211a60 l     O .bss	0000000000000040 entity_pool
0000000000000000 l    df *ABS*	0000000000000000 mmc.c
00000000002025e0 l     F .ro	00000000000000f0 mmc_send_cmd
00000000002026d0 l     F .ro	0000000000000074 mmc_device_state
0000000000202744 l     F .ro	000000000000009c sd_switch.constprop.0
0000000000214794 l     O .bss	0000000000000010 mmc_csd
0000000000211aa0 l     O .bss	0000000000000008 mmc_dev_info
0000000000211740 l     O .bss	0000000000000200 mmc_ext_csd
00000000002147a4 l     O .bss	0000000000000004 mmc_flags
00000000002147a8 l     O .bss	0000000000000004 mmc_ocr_value
0000000000211aa8 l     O .bss	0000000000000008 ops
00000000002147ac l     O .bss	0000000000000004 rca
0000000000211940 l     O .bss	0000000000000008 scr
0000000000214c34 l     O .bss	0000000000000040 sd_switch_func_status
000000000020e38e l     O .ro	0000000000000010 sd_tran_speed_base
000000000020e39e l     O .ro	0000000000000010 tran_speed_base
0000000000000000 l    df *ABS*	0000000000000000 gpt.c
0000000000000000 l    df *ABS*	0000000000000000 partition.c
0000000000211ab0 l     O .bss	0000000000002c08 list
0000000000214c76 l     O .bss	0000000000000200 mbr_sector
0000000000000000 l    df *ABS*	0000000000000000 tf_unxz.c
0000000000214e76 l     O .bss	0000000000000001 xz_crc32_initialized
00000000002146b8 l     O .bss	0000000000000008 xzalloc_current
00000000002146c0 l     O .bss	0000000000000008 xzalloc_end
0000000000000000 l    df *ABS*	0000000000000000 xz_crc32.c
00000000002147b0 l     O .bss	0000000000000400 xz_crc32_table
0000000000000000 l    df *ABS*	0000000000000000 xz_dec_lzma2.c
0000000000203500 l     F .ro	00000000000000ac dict_repeat
00000000002035ac l     F .ro	00000000000001d4 lzma_len
0000000000203780 l     F .ro	00000000000008c8 lzma_main
0000000000000000 l    df *ABS*	0000000000000000 xz_dec_stream.c
0000000000204734 l     F .ro	0000000000000020 get_unaligned_le32
0000000000204754 l     F .ro	0000000000000078 dec_vli
00000000002047cc l     F .ro	0000000000000048 index_update
0000000000204814 l     F .ro	0000000000000094 fill_temp
0000000000000000 l    df *ABS*	0000000000000000 bl2_boot_mmc.c
00000000002146c8 l     O .bss	0000000000000010 mmc_dev_fip_spec
00000000002146d8 l     O .bss	0000000000000008 mmc_dev_handle
0000000000210000 l     O .data	0000000000000028 mmc_dev_spec
000000000020c2b0 l     O .ro	0000000000000010 mmc_dev_gpt_spec
0000000000000000 l    df *ABS*	0000000000000000 bl2_plat_setup.c
000000000020514c l     F .ro	0000000000000010 check_gpt_dev
000000000020515c l     F .ro	0000000000000010 check_boot_dev
000000000020516c l     F .ro	0000000000000048 check_fip
00000000002146e0 l     O .bss	0000000000000008 boot_dev_handle
00000000002146e8 l     O .bss	0000000000000030 console.0
0000000000214718 l     O .bss	0000000000000008 fip_dev_con
0000000000214720 l     O .bss	0000000000000008 fip_dev_handle
0000000000214728 l     O .bss	0000000000000008 gpt_dev_handle
0000000000210028 l     O .data	0000000000000170 bl2_mem_params_descs
00000000002101a0 l     O .data	00000000000002b8 policies
000000000020e486 l     O .ro	0000000000000010 bl31_uuid_spec
000000000020e496 l     O .ro	0000000000000010 bl32_uuid_spec
000000000020e4a6 l     O .ro	0000000000000010 bl33_uuid_spec
0000000000000000 l    df *ABS*	0000000000000000 mtk-sd.c
0000000000205358 l     F .ro	0000000000000018 msdc_card_busy
0000000000205370 l     F .ro	0000000000000058 mtk_mmc_prepare
00000000002053c8 l     F .ro	0000000000000008 mtk_mmc_write
00000000002053d0 l     F .ro	000000000000017c mtk_mmc_read
000000000020554c l     F .ro	00000000000001a8 msdc_ops_set_ios
00000000002056f4 l     F .ro	0000000000000020 msdc_reset_hw.constprop.0
0000000000205714 l     F .ro	0000000000000228 msdc_init_hw
000000000020593c l     F .ro	0000000000000224 mtk_mmc_send_cmd
0000000000214730 l     O .bss	0000000000000040 _host
0000000000214e77 l     O .bss	0000000000000001 new_xfer
0000000000214bb0 l     O .bss	0000000000000004 xfer_blocks
0000000000214bb4 l     O .bss	0000000000000004 xfer_blocksz
0000000000214770 l     O .bss	0000000000000008 xfer_size
0000000000210458 l     O .data	0000000000000018 mtk_mmc_device_info
000000000020e62c l     O .ro	000000000000001d CSWTCH.46
000000000020c2c0 l     O .ro	0000000000000038 mtk_mmc_ops
0000000000000000 l    df *ABS*	0000000000000000 platform_common.c
0000000000000000 l    df *ABS*	0000000000000000 bl2_dev_mmc.c
000000000020c44c l     O .ro	0000000000000018 msdc1_pins
000000000020c464 l     O .ro	000000000000000c mt7622_msdc1_compat
0000000000000000 l    df *ABS*	0000000000000000 bl2_plat_init.c
0000000000205c20 l     F .ro	0000000000000010 mtk_print_cpu
0000000000205c30 l     F .ro	0000000000000018 mtk_wdt_init
0000000000000000 l    df *ABS*	0000000000000000 pinctrl.c
0000000000205c54 l     F .ro	0000000000000058 mtk_set_pin_value.constprop.0
0000000000205cac l     F .ro	000000000000000c mtk_set_pin_out
0000000000205cb8 l     F .ro	0000000000000058 mtk_set_pin_pull
0000000000205d10 l     F .ro	000000000000000c mtk_set_pin_dir
0000000000205d1c l     F .ro	000000000000005c mtk_get_pin_value.constprop.0
0000000000205d78 l     F .ro	000000000000000c mtk_get_pin_in
0000000000205d84 l     F .ro	000000000000005c mtk_get_pin_pull
0000000000205de0 l     F .ro	000000000000000c mtk_get_pin_dir
000000000020c470 l     O .ro	00000000000004d4 mtk_pin_info_datain
000000000020c944 l     O .ro	00000000000004d4 mtk_pin_info_dataout
000000000020ce18 l     O .ro	00000000000004d4 mtk_pin_info_dir
000000000020d2ec l     O .ro	00000000000004d4 mtk_pin_info_mode
000000000020d7c0 l     O .ro	00000000000004d4 mtk_pin_info_pd
000000000020dc94 l     O .ro	00000000000004d4 mtk_pin_info_pu
000000000020c348 l     O .ro	0000000000000040 mtk_pin_ops
0000000000000000 l    df *ABS*	0000000000000000 pll.c
000000000020e168 l     O .ro	0000000000000010 wait_time
0000000000000000 l    df *ABS*	0000000000000000 pmic.c
00000000002065ac l     F .ro	0000000000000058 pmic_config_interface
0000000000000000 l    df *ABS*	0000000000000000 pmic_wrap.c
00000000002066b4 l     F .ro	000000000000008c wait_for_state_idle.constprop.0
0000000000000000 l    df *ABS*	0000000000000000 mtcmos.c
0000000000206944 l     F .ro	00000000000000e4 mtcmos_power_on.constprop.0
0000000000210474 l     O .data	000000000000003c scp_domain_mt7622
0000000000000000 l    df *ABS*	0000000000000000 cpuxgpt.c
0000000000000000 l    df *ABS*	0000000000000000 mtk_wdt.c
000000000020c388 l     O .ro	0000000000000060 wdt_rst_reason
0000000000000000 l    df *ABS*	0000000000000000 bl_common.c
0000000000000000 l    df *ABS*	0000000000000000 tf_log.c
00000000002104b0 l     O .data	0000000000000004 max_log_level
0000000000000000 l    df *ABS*	0000000000000000 multi_console.c
000000000021070c l     O .data	0000000000000001 console_state
0000000000000000 l    df *ABS*	0000000000000000 plat_bl_common.c
0000000000000000 l    df *ABS*	0000000000000000 plat_log_common.c
000000000020c3e8 l     O .ro	0000000000000028 plat_prefix_str
0000000000000000 l    df *ABS*	0000000000000000 dram-flyby.o
0000000000000000 l    df *ABS*	0000000000000000 memcmp.c
0000000000000000 l    df *ABS*	0000000000000000 memcpy.c
0000000000000000 l    df *ABS*	0000000000000000 memmove.c
0000000000000000 l    df *ABS*	0000000000000000 memset.c
0000000000000000 l    df *ABS*	0000000000000000 printf.c
000000000020bc78 l     F .ro	00000000000000d0 unsigned_num_print.part.0
0000000000000000 l    df *ABS*	0000000000000000 strcmp.c
0000000000000000 l    df *ABS*	0000000000000000 
0000000000000000 l    df *ABS*	0000000000000000 bl2_el3_exceptions.o
000000000020f000 l     F .ro	0000000000000000 SynchronousExceptionSP0
000000000020f080 l     F .ro	0000000000000000 IrqSP0
000000000020f100 l     F .ro	0000000000000000 FiqSP0
000000000020f180 l     F .ro	0000000000000000 SErrorSP0
000000000020f200 l     F .ro	0000000000000000 SynchronousExceptionSPx
000000000020f280 l     F .ro	0000000000000000 IrqSPx
000000000020f300 l     F .ro	0000000000000000 FiqSPx
000000000020f380 l     F .ro	0000000000000000 SErrorSPx
000000000020f400 l     F .ro	0000000000000000 SynchronousExceptionA64
000000000020f480 l     F .ro	0000000000000000 IrqA64
000000000020f500 l     F .ro	0000000000000000 FiqA64
000000000020f580 l     F .ro	0000000000000000 SErrorA64
000000000020f600 l     F .ro	0000000000000000 SynchronousExceptionA32
000000000020f680 l     F .ro	0000000000000000 IrqA32
000000000020f700 l     F .ro	0000000000000000 FiqA32
000000000020f780 l     F .ro	0000000000000000 SErrorA32
0000000000206e98 g     F .ro	0000000000000028 putchar
0000000000201394 g     F .ro	0000000000000018 console_hsuart_core_flush
0000000000201bb4 g     F .ro	000000000000000c mdelay
0000000000214e80 g       .bss	0000000000000000 __PMF_TIMESTAMP_START__
0000000000206dc8 g     F .ro	0000000000000034 console_register
0000000000215000 g       .coherent_ram	0000000000000000 __COHERENT_RAM_END__
00000000002011e4 g     F .ro	0000000000000020 reset_handler
0000000000201548 g     F .ro	0000000000000008 zeromem
000000000020e1c6 g     O .ro	000000000000002e version_string
00000000002014a0 g     F .ro	0000000000000008 asm_print_newline
0000000000202fc8 g     F .ro	0000000000000298 load_partition_table
0000000000206d04 g     F .ro	0000000000000004 print_entry_point_info
000000000020c18c g     F .ro	0000000000000054 printf
0000000000210000 g       .ro	0000000000000000 __RW_START__
0000000000214e80 g       .coherent_ram	0000000000000000 __XLAT_TABLE_START__
00000000002052a4 g     F .ro	0000000000000028 bl2_el3_early_platform_setup
000000000020bbcc g     F .ro	0000000000000034 memmove
00000000002087f4 g     F .ro	00000000000002a8 dramc_engine1
000000000020b304 g     F .ro	0000000000000048 mtk_set_emi_reserve_mode
0000000000206f28  w    F .ro	0000000000000030 plat_log_get_prefix
000000000020165c  w    F .ro	0000000000000004 plat_report_exception
00000000002048a8 g     F .ro	0000000000000050 xz_dec_reset
0000000000203344 g     F .ro	000000000000013c unxz
000000000020e1a8 g     O .ro	000000000000001e build_message
0000000000210000 g       .data	0000000000000000 __DATA_START__
00000000002018a8 g     F .ro	0000000000000030 get_bl_mem_params_node
0000000000205bbc g     F .ro	0000000000000064 mtk_plat_mmc_setup
00000000002052cc g     F .ro	000000000000008c bl2_platform_setup
0000000000201fc4 g     F .ro	0000000000000038 register_io_dev_block
000000000020ba58 g     F .ro	000000000000001c dram_reserve_mode_enabled
000000000020166c g       .ro	0000000000000000 __TEXT_RESIDENT_END__
000000000020bbac g     F .ro	0000000000000020 memcpy
0000000000201840 g     F .ro	000000000000001c flush_bl_params_desc
0000000000201550 g     F .ro	00000000000000e8 zero_normalmem
0000000000204ff8 g     F .ro	0000000000000064 xz_dec_init
00000000002052a0 g     F .ro	0000000000000004 platform_mem_init
00000000002046e4 g     F .ro	000000000000004c xz_dec_lzma2_reset
000000000020b990 g     F .ro	00000000000000a4 mtk_mem_init
0000000000205bb4 g     F .ro	0000000000000008 plat_get_syscnt_freq2
0000000000201664  w    F .ro	0000000000000008 plat_panic_handler
000000000020529c g     F .ro	0000000000000004 plat_flush_next_bl_params
000000000020ee98 g       .ro	0000000000000000 __RT_SVC_DESCS_START__
0000000000206fcc g     F .ro	00000000000001fc dramc_phy_reset
0000000000211740 g       .stacks	0000000000000000 __STACKS_END__
000000000020506c g     F .ro	000000000000006c mtk_mmc_gpt_image_setup
0000000000206ae4 g     F .ro	000000000000001c wdt_rmw
0000000000210198 g     O .data	0000000000000008 bl_mem_params_desc_ptr
0000000000202558 g     F .ro	0000000000000020 io_size
0000000000204048 g     F .ro	0000000000000668 xz_dec_lzma2_run
0000000000202414 g     F .ro	0000000000000018 io_dev_open
000000000020127c  w    F .ro	0000000000000010 plat_set_my_stack
000000000020ee98 g       .ro	0000000000000000 __RT_SVC_DESCS_END__
000000000020185c g     F .ro	000000000000004c get_bl_params_node_index
0000000000201470 g     F .ro	0000000000000030 asm_print_hex
0000000000003740 g       *ABS*	0000000000000000 __BSS_SIZE__
0000000000201458 g     F .ro	0000000000000018 asm_print_str
0000000000201638 g     F .ro	000000000000001c disable_mmu_el3
000000000020144c g     F .ro	000000000000000c plat_crash_console_flush
0000000000206f18  w    F .ro	0000000000000008 plat_error_handler
00000000002050d8 g     F .ro	0000000000000074 mtk_fip_image_setup
000000000020525c g     F .ro	0000000000000038 bl2_plat_handle_post_image_load
000000000020f800 g       .ro	0000000000000000 __RO_END_UNALIGNED__
0000000000206ad4 g     F .ro	0000000000000010 wdt_read
0000000000201000 g       .ro	0000000000000000 RAM_REGION_START
0000000000206dfc g     F .ro	000000000000009c console_putc
000000000020141c g     F .ro	0000000000000004 plat_secondary_cold_boot_setup
0000000000206604 g     F .ro	00000000000000b0 mtk_pmic_init
000000000020ba48 g     F .ro	0000000000000010 disable_dram_reserve_mode
0000000000208a9c g     F .ro	000000000000033c dramc_engine2
0000000000201420 g     F .ro	0000000000000020 plat_crash_console_init
00000000002014d8 g     F .ro	0000000000000038 flush_dcache_range
00000000002048f8 g     F .ro	0000000000000700 xz_dec_run
0000000000206a28 g     F .ro	0000000000000048 mtcmos_non_cpu_ctrl
0000000000201bc0 g     F .ro	000000000000000c timer_init
000000000020194c g     F .ro	00000000000000d8 get_next_bl_params_from_mem_params_desc
000000000020ee98 g       .ro	0000000000000000 __PMF_SVC_DESCS_END__
000000000020128c g     F .ro	00000000000000b8 console_hsuart_init
0000000000210720 g       .data	0000000000000000 __RELA_END__
0000000000210720 g       .data	0000000000000000 __RELA_START__
0000000000215000 g       .bss	0000000000000000 RAM_REGION_END
000000000020bd48 g     F .ro	0000000000000444 vprintf
00000000002046b0 g     F .ro	0000000000000034 xz_dec_lzma2_create
0000000000206f8c g     F .ro	0000000000000040 dram_reg_read
0000000000202904 g     F .ro	00000000000005f8 mmc_init
00000000002013c4 g     F .ro	0000000000000058 console_hsuart_register
0000000000201660  w    F .ro	0000000000000004 plat_reset_handler
0000000000201204 g     F .ro	0000000000000040 get_cpu_ops_ptr
0000000000205294 g     F .ro	0000000000000004 plat_get_bl_image_load_info
000000000020b34c g     F .ro	0000000000000644 complex_mem_test
0000000000206c18 g     F .ro	00000000000000ec load_auth_image
0000000000215000 g       .bss	0000000000000000 __BL2_END__
000000000020ba74 g     F .ro	0000000000000104 check_dram_reserve_mode
000000000020505c g     F .ro	0000000000000010 xz_dec_end
0000000000201a7c g     F .ro	00000000000000a8 image_decompress
000000000021071d g       .data	0000000000000000 __DATA_RAM_END__
0000000000214e80 g       .bss	0000000000000000 __PMF_PERCPU_TIMESTAMP_END__
00000000002017a4 g     F .ro	000000000000006c bl2_main
000000000021071d g       .data	0000000000000000 __DATA_END__
0000000000201a40 g     F .ro	000000000000003c image_decompress_prepare
0000000000203480 g     F .ro	0000000000000044 xz_crc32_init
0000000000201474 g       .ro	0000000000000000 asm_print_hex_bits
0000000000214e80 g       .bss	0000000000000000 __BASE_XLAT_TABLE_START__
000000000020ee98 g       .ro	0000000000000000 __CPU_OPS_START__
0000000000201b4c g     F .ro	0000000000000068 udelay
0000000000206740 g     F .ro	00000000000000e4 pwrap_read
0000000000201510 g     F .ro	0000000000000038 inv_dcache_range
0000000000201678  w    F .ro	0000000000000008 mtk_ar_update_bl_ar_ver
0000000000201000 g     F .ro	0000000000000104 bl2_entrypoint
0000000000201bf8 g     F .ro	0000000000000044 generic_delay_timer_init
0000000000206f14  w    F .ro	0000000000000004 bl2_el3_plat_prepare_exit
0000000000206f58 g     F .ro	0000000000000034 dram_reg_write
0000000000201bd8 g     F .ro	0000000000000020 generic_delay_timer_init_args
000000000020bb78 g     F .ro	0000000000000034 memcmp
0000000000201244 g     F .ro	0000000000000010 cpu_get_rev_var
0000000000205c4c g     F .ro	0000000000000008 plat_is_my_cpu_primary
0000000000214e80 g       .bss	0000000000000000 __BSS_END__
000000000020eed8 g       .ro	0000000000000000 __CPU_OPS_END__
0000000000202538 g     F .ro	0000000000000020 io_seek
0000000000202598 g     F .ro	0000000000000048 io_close
000000000020c2f8 g     O .ro	0000000000000050 bl2_initcalls
0000000000215000 g       .coherent_ram	0000000000000000 __COHERENT_RAM_START__
000000000020eed8 g       .ro	0000000000000000 __GOT_END__
000000000020bc00 g     F .ro	0000000000000078 memset
0000000000206a70 g     F .ro	0000000000000064 plat_mt_cpuxgpt_init
00000000002032d8 g     F .ro	0000000000000004 partition_init
000000000020ee98 g       .ro	0000000000000000 __PARSER_LIB_DESCS_END__
0000000000205c48 g     F .ro	0000000000000004 bl2_el3_plat_arch_setup
0000000000201104 g     F .ro	0000000000000038 bl2_run_next_image
0000000000000000 g       *ABS*	0000000000000000 __COHERENT_RAM_UNALIGNED_SIZE__
0000000000201654 g     F .ro	0000000000000008 disable_mmu_icache_el3
0000000000210470 g     O .data	0000000000000004 bl_mem_params_desc_num
0000000000206824 g     F .ro	0000000000000094 pwrap_write
000000000020521c g     F .ro	0000000000000014 bl2_plat_preload_setup
0000000000209178 g     F .ro	000000000000218c mtk_set_emi_dram
0000000000201680 g     F .ro	0000000000000110 bl2_load_images
000000000020f000 g       .ro	0000000000000000 bl2_el3_exceptions
000000000020166c g     F .ro	000000000000000c bl2_arch_setup
000000000020eed8 g       .ro	0000000000000000 __GOT_START__
0000000000000000 g       *ABS*	0000000000000000 __PERCPU_TIMESTAMP_SIZE__
000000000020c1e0 g     F .ro	000000000000002c strcmp
00000000002034c4 g     F .ro	000000000000003c xz_crc32
000000000020ee98 g       .ro	0000000000000000 __FCONF_POPULATOR_END__
000000000021070d g     O .data	0000000000000010 bit_doq_mapping_4bit_mux
0000000000201810 g     F .ro	0000000000000030 flush_bl_params_desc_args
00000000002068b8 g     F .ro	000000000000008c mtk_pwrap_init
00000000002032dc g     F .ro	0000000000000068 xz_malloc
0000000000214e80 g       .bss	0000000000000000 __BASE_XLAT_TABLE_END__
0000000000206ec0 g     F .ro	0000000000000054 console_flush
0000000000210000 g       .ro	0000000000000000 __RO_END__
000000000020242c g     F .ro	000000000000001c io_dev_init
0000000000202578 g     F .ro	0000000000000020 io_read
0000000000211740 g       .bss	0000000000000000 __BSS_START__
0000000000210000 g       .data	0000000000000000 __DATA_RAM_START__
0000000000201000 g       .ro	0000000000000000 __RO_START__
0000000000206f20  w    F .ro	0000000000000008 plat_try_next_boot_source
000000000020ee98 g       .ro	0000000000000000 __PMF_SVC_DESCS_START__
0000000000201440 g     F .ro	000000000000000c plat_crash_console_putc
0000000000201268 g     F .ro	0000000000000014 cpu_rev_var_hs
0000000000202464 g     F .ro	00000000000000d4 io_open
00000000002071c8 g     F .ro	00000000000000bc dle_factor_handler
00000000002027e0 g     F .ro	0000000000000124 mmc_read_blocks
0000000000201790 g     F .ro	0000000000000014 bl2_el3_setup
0000000000206d9c g     F .ro	000000000000002c console_is_registered
00000000002051b4 g     F .ro	0000000000000068 plat_get_image_source
0000000000206d08 g     F .ro	0000000000000094 tf_log
00000000002023ec g     F .ro	0000000000000028 io_register_device
000000000020ee98 g       .ro	0000000000000000 __FCONF_POPULATOR_START__
000000000003f000 g       *ABS*	0000000000000000 RAM_REGION_LENGTH
0000000000201254 g     F .ro	0000000000000014 cpu_rev_var_ls
0000000000201344 g     F .ro	0000000000000018 console_hsuart_core_getc
0000000000215000 g       .bss	0000000000000000 __RW_END__
0000000000215000 g       .coherent_ram	0000000000000000 __COHERENT_RAM_END_UNALIGNED__
000000000020135c g     F .ro	0000000000000038 console_hsuart_core_putc
00000000002018d8 g     F .ro	0000000000000074 get_bl_load_info_from_mem_params_desc
0000000000210740 g       .stacks	0000000000000000 __STACKS_START__
0000000000208dd8 g     F .ro	00000000000003a0 dramc_rxdqs_gating_cal
0000000000201b24 g     F .ro	0000000000000028 tf_crc32
0000000000207284 g     F .ro	00000000000013cc do_calib
0000000000214e80 g       .bss	0000000000000000 __PMF_TIMESTAMP_END__
0000000000201000 g       .ro	0000000000000000 __TEXT_RESIDENT_START__
0000000000202efc g     F .ro	00000000000000cc parse_gpt_entry
0000000000206b00 g     F .ro	0000000000000050 mtk_wdt_control
0000000000204730 g     F .ro	0000000000000004 xz_dec_lzma2_end
0000000000214e80 g       .coherent_ram	0000000000000000 __XLAT_TABLE_END__
0000000000205230 g     F .ro	000000000000002c bl2_plat_handle_pre_image_load
0000000000206b50 g     F .ro	00000000000000c8 mtk_wdt_print_status
0000000000205e70 g     F .ro	000000000000073c mtk_pll_init
0000000000202448 g     F .ro	000000000000001c io_dev_close
00000000002014a8 g     F .ro	0000000000000030 el3_panic
000000000020ba34 g     F .ro	0000000000000014 enable_dram_reserve_mode
0000000000205dec g     F .ro	0000000000000078 mtk_set_pin_mode
0000000000202370 g     F .ro	0000000000000038 register_io_dev_fip
0000000000201c3c g     F .ro	000000000000000c gpio_init
0000000000214778 g     O .bss	0000000000000008 console_list
0000000000201c48 g     F .ro	0000000000000008 device_type_block
0000000000205298 g     F .ro	0000000000000004 plat_get_next_bl_params
0000000000203260 g     F .ro	0000000000000078 get_partition_entry
0000000000205e64 g     F .ro	000000000000000c mtk_pin_init
0000000000201a24 g     F .ro	000000000000001c image_decompress_init
0000000000205b60 g     F .ro	0000000000000054 mtk_mmc_init
000000000020ee98 g       .ro	0000000000000000 __PARSER_LIB_DESCS_START__



Disassembly of section .ro:

0000000000201000 <bl2_entrypoint>:
  201000:	aa0003f4 	mov	x20, x0
  201004:	aa0103f5 	mov	x21, x1
  201008:	aa0203f6 	mov	x22, x2
  20100c:	aa0303f7 	mov	x23, x3
  201010:	d2810600 	mov	x0, #0x830                 	// #2096
  201014:	f2a618a0 	movk	x0, #0x30c5, lsl #16
  201018:	d51e1000 	msr	sctlr_el3, x0
  20101c:	d5033fdf 	isb
  201020:	1006ff00 	adr	x0, 20f000 <SynchronousExceptionSP0>
  201024:	d51ec000 	msr	vbar_el3, x0
  201028:	d5033fdf 	isb
  20102c:	9400006e 	bl	2011e4 <reset_handler>
  201030:	d2820141 	mov	x1, #0x100a                	// #4106
  201034:	d53e1000 	mrs	x0, sctlr_el3
  201038:	aa010000 	orr	x0, x0, x1
  20103c:	d51e1000 	msr	sctlr_el3, x0
  201040:	d5033fdf 	isb
  201044:	d2804700 	mov	x0, #0x238                 	// #568
  201048:	d51e1100 	msr	scr_el3, x0
  20104c:	d2900000 	mov	x0, #0x8000                	// #32768
  201050:	f2a20020 	movk	x0, #0x1001, lsl #16
  201054:	d5380501 	mrs	x1, id_aa64dfr0_el1
  201058:	d368ac21 	ubfx	x1, x1, #40, #4
  20105c:	b4000041 	cbz	x1, 201064 <bl2_entrypoint+0x64>
  201060:	b26d0000 	orr	x0, x0, #0x80000
  201064:	d51e1320 	msr	mdcr_el3, x0
  201068:	d50344ff 	msr	daifclr, #0x4
  20106c:	d2a80000 	mov	x0, #0x40000000            	// #1073741824
  201070:	d5380501 	mrs	x1, id_aa64dfr0_el1
  201074:	d3441c21 	ubfx	x1, x1, #4, #4
  201078:	b4000041 	cbz	x1, 201080 <bl2_entrypoint+0x80>
  20107c:	b26c0000 	orr	x0, x0, #0x100000
  201080:	d51e1140 	msr	cptr_el3, x0
  201084:	940012f2 	bl	205c4c <plat_is_my_cpu_primary>
  201088:	35000060 	cbnz	w0, 201094 <do_primary_cold_boot>
  20108c:	940000e4 	bl	20141c <plat_secondary_cold_boot_setup>
  201090:	94000106 	bl	2014a8 <el3_panic>

0000000000201094 <do_primary_cold_boot>:
  201094:	94001083 	bl	2052a0 <platform_mem_init>
  201098:	f0000060 	adrp	x0, 210000 <__RO_END__>
  20109c:	91000000 	add	x0, x0, #0x0
  2010a0:	900000a1 	adrp	x1, 215000 <RAM_REGION_END>
  2010a4:	91000021 	add	x1, x1, #0x0
  2010a8:	cb000021 	sub	x1, x1, x0
  2010ac:	94000119 	bl	201510 <inv_dcache_range>
  2010b0:	90000080 	adrp	x0, 211000 <__STACKS_START__+0x8c0>
  2010b4:	911d0000 	add	x0, x0, #0x740
  2010b8:	f0000081 	adrp	x1, 214000 <list+0x2550>
  2010bc:	913a0021 	add	x1, x1, #0xe80
  2010c0:	cb000021 	sub	x1, x1, x0
  2010c4:	94000121 	bl	201548 <zeromem>
  2010c8:	900000a0 	adrp	x0, 215000 <RAM_REGION_END>
  2010cc:	91000000 	add	x0, x0, #0x0
  2010d0:	900000a1 	adrp	x1, 215000 <RAM_REGION_END>
  2010d4:	91000021 	add	x1, x1, #0x0
  2010d8:	cb000021 	sub	x1, x1, x0
  2010dc:	9400011b 	bl	201548 <zeromem>
  2010e0:	d50040bf 	msr	spsel, #0x0
  2010e4:	94000066 	bl	20127c <plat_set_my_stack>
  2010e8:	aa1403e0 	mov	x0, x20
  2010ec:	aa1503e1 	mov	x1, x21
  2010f0:	aa1603e2 	mov	x2, x22
  2010f4:	aa1703e3 	mov	x3, x23
  2010f8:	940001a6 	bl	201790 <bl2_el3_setup>
  2010fc:	940001aa 	bl	2017a4 <bl2_main>
  201100:	94000159 	bl	201664 <plat_panic_handler>

0000000000201104 <bl2_run_next_image>:
  201104:	aa0003f4 	mov	x20, x0
  201108:	94000153 	bl	201654 <disable_mmu_icache_el3>
  20110c:	d50e871f 	tlbi	alle3
  201110:	94001781 	bl	206f14 <bl2_el3_plat_prepare_exit>
  201114:	a9408680 	ldp	x0, x1, [x20, #8]
  201118:	d51e4020 	msr	elr_el3, x0
  20111c:	d51e4001 	msr	spsr_el3, x1
  201120:	a9449e86 	ldp	x6, x7, [x20, #72]
  201124:	a9439684 	ldp	x4, x5, [x20, #56]
  201128:	a9428e82 	ldp	x2, x3, [x20, #40]
  20112c:	a9418680 	ldp	x0, x1, [x20, #24]
  201130:	d69f03e0 	eret
  201134:	d503379f 	dsb	nsh
  201138:	d5033fdf 	isb

000000000020113c <errata_a53_826319_wa>:
  20113c:	aa1e03f1 	mov	x17, x30
  201140:	94000007 	bl	20115c <check_errata_826319>
  201144:	b40000a0 	cbz	x0, 201158 <errata_a53_826319_wa+0x1c>
  201148:	d539f001 	mrs	x1, s3_1_c15_c0_0
  20114c:	9271f821 	and	x1, x1, #0xffffffffffffbfff
  201150:	b27d0021 	orr	x1, x1, #0x8
  201154:	d519f001 	msr	s3_1_c15_c0_0, x1
  201158:	d65f0220 	ret	x17

000000000020115c <check_errata_826319>:
  20115c:	d2800041 	mov	x1, #0x2                   	// #2
  201160:	1400003d 	b	201254 <cpu_rev_var_ls>

0000000000201164 <a53_disable_non_temporal_hint>:
  201164:	aa1e03f1 	mov	x17, x30
  201168:	94000006 	bl	201180 <check_errata_disable_non_temporal_hint>
  20116c:	b4000080 	cbz	x0, 20117c <a53_disable_non_temporal_hint+0x18>
  201170:	d539f201 	mrs	x1, s3_1_c15_c2_0
  201174:	b2680021 	orr	x1, x1, #0x1000000
  201178:	d519f201 	msr	s3_1_c15_c2_0, x1
  20117c:	d65f0220 	ret	x17

0000000000201180 <check_errata_disable_non_temporal_hint>:
  201180:	d2800061 	mov	x1, #0x3                   	// #3
  201184:	14000034 	b	201254 <cpu_rev_var_ls>

0000000000201188 <errata_a53_855873_wa>:
  201188:	aa1e03f1 	mov	x17, x30
  20118c:	94000006 	bl	2011a4 <check_errata_855873>
  201190:	b4000080 	cbz	x0, 2011a0 <errata_a53_855873_wa+0x18>
  201194:	d539f201 	mrs	x1, s3_1_c15_c2_0
  201198:	b2540021 	orr	x1, x1, #0x100000000000
  20119c:	d519f201 	msr	s3_1_c15_c2_0, x1
  2011a0:	d65f0220 	ret	x17

00000000002011a4 <check_errata_855873>:
  2011a4:	d2800061 	mov	x1, #0x3                   	// #3
  2011a8:	14000030 	b	201268 <cpu_rev_var_hs>

00000000002011ac <cortex_a53_reset_func>:
  2011ac:	aa1e03f3 	mov	x19, x30
  2011b0:	94000025 	bl	201244 <cpu_get_rev_var>
  2011b4:	aa0003f2 	mov	x18, x0
  2011b8:	aa1203e0 	mov	x0, x18
  2011bc:	97ffffe0 	bl	20113c <errata_a53_826319_wa>
  2011c0:	aa1203e0 	mov	x0, x18
  2011c4:	97ffffe8 	bl	201164 <a53_disable_non_temporal_hint>
  2011c8:	aa1203e0 	mov	x0, x18
  2011cc:	97ffffef 	bl	201188 <errata_a53_855873_wa>
  2011d0:	d539f220 	mrs	x0, s3_1_c15_c2_1
  2011d4:	b27a0000 	orr	x0, x0, #0x40
  2011d8:	d519f220 	msr	s3_1_c15_c2_1, x0
  2011dc:	d5033fdf 	isb
  2011e0:	d65f0260 	ret	x19

00000000002011e4 <reset_handler>:
  2011e4:	aa1e03f3 	mov	x19, x30
  2011e8:	9400011e 	bl	201660 <plat_reset_handler>
  2011ec:	94000006 	bl	201204 <get_cpu_ops_ptr>
  2011f0:	f9400402 	ldr	x2, [x0, #8]
  2011f4:	aa1303fe 	mov	x30, x19
  2011f8:	b4000042 	cbz	x2, 201200 <reset_handler+0x1c>
  2011fc:	d61f0040 	br	x2
  201200:	d65f03c0 	ret

0000000000201204 <get_cpu_ops_ptr>:
  201204:	d5380002 	mrs	x2, midr_el1
  201208:	d29ffe03 	mov	x3, #0xfff0                	// #65520
  20120c:	f2bfe003 	movk	x3, #0xff00, lsl #16
  201210:	0a030042 	and	w2, w2, w3
  201214:	1006e625 	adr	x5, 20eed8 <__CPU_OPS_END__>
  201218:	d2800000 	mov	x0, #0x0                   	// #0
  20121c:	1006e3e4 	adr	x4, 20ee98 <__CPU_OPS_START__>
  201220:	eb05009f 	cmp	x4, x5
  201224:	540000e0 	b.eq	201240 <search_def_ptr>  // b.none
  201228:	f8440481 	ldr	x1, [x4], #64
  20122c:	0a030021 	and	w1, w1, w3
  201230:	6b02003f 	cmp	w1, w2
  201234:	54ffff61 	b.ne	201220 <get_cpu_ops_ptr+0x1c>  // b.any
  201238:	d1010080 	sub	x0, x4, #0x40
  20123c:	d65f03c0 	ret

0000000000201240 <search_def_ptr>:
  201240:	d65f03c0 	ret

0000000000201244 <cpu_get_rev_var>:
  201244:	d5380001 	mrs	x1, midr_el1
  201248:	d3505c20 	ubfx	x0, x1, #16, #8
  20124c:	b3400c20 	bfxil	x0, x1, #0, #4
  201250:	d65f03c0 	ret

0000000000201254 <cpu_rev_var_ls>:
  201254:	d2800022 	mov	x2, #0x1                   	// #1
  201258:	d2800003 	mov	x3, #0x0                   	// #0
  20125c:	eb01001f 	cmp	x0, x1
  201260:	9a839040 	csel	x0, x2, x3, ls  // ls = plast
  201264:	d65f03c0 	ret

0000000000201268 <cpu_rev_var_hs>:
  201268:	d2800022 	mov	x2, #0x1                   	// #1
  20126c:	d2800003 	mov	x3, #0x0                   	// #0
  201270:	eb01001f 	cmp	x0, x1
  201274:	9a832040 	csel	x0, x2, x3, cs  // cs = hs, nlast
  201278:	d65f03c0 	ret

000000000020127c <plat_set_my_stack>:
  20127c:	90000080 	adrp	x0, 211000 <__STACKS_START__+0x8c0>
  201280:	911d0000 	add	x0, x0, #0x740
  201284:	9100001f 	mov	sp, x0
  201288:	d65f03c0 	ret

000000000020128c <console_hsuart_init>:
  20128c:	b4000580 	cbz	x0, 20133c <init_fail>
  201290:	34000561 	cbz	w1, 20133c <init_fail>
  201294:	34000542 	cbz	w2, 20133c <init_fail>
  201298:	b900041f 	str	wzr, [x0, #4]
  20129c:	52800064 	mov	w4, #0x3                   	// #3
  2012a0:	b9001004 	str	w4, [x0, #16]
  2012a4:	528000e4 	mov	w4, #0x7                   	// #7
  2012a8:	b9000804 	str	w4, [x0, #8]
  2012ac:	6b1f007f 	cmp	w3, wzr
  2012b0:	540000a1 	b.ne	2012c4 <set_baud_force_high_speed>  // b.any
  2012b4:	52984003 	mov	w3, #0xc200                	// #49664
  2012b8:	72a00023 	movk	w3, #0x1, lsl #16
  2012bc:	6b03005f 	cmp	w2, w3
  2012c0:	5400016d 	b.le	2012ec <set_baud_low_speed>

00000000002012c4 <set_baud_force_high_speed>:
  2012c4:	52800063 	mov	w3, #0x3                   	// #3
  2012c8:	b9002403 	str	w3, [x0, #36]
  2012cc:	51000423 	sub	w3, w1, #0x1
  2012d0:	53185c44 	lsl	w4, w2, #8
  2012d4:	0b040063 	add	w3, w3, w4
  2012d8:	1ac40863 	udiv	w3, w3, w4
  2012dc:	1b027c62 	mul	w2, w3, w2
  2012e0:	0b420421 	add	w1, w1, w2, lsr #1
  2012e4:	1ac20821 	udiv	w1, w1, w2
  2012e8:	14000006 	b	201300 <set_divisor>

00000000002012ec <set_baud_low_speed>:
  2012ec:	b900241f 	str	wzr, [x0, #36]
  2012f0:	0b020c21 	add	w1, w1, w2, lsl #3
  2012f4:	531c6c42 	lsl	w2, w2, #4
  2012f8:	1ac20823 	udiv	w3, w1, w2
  2012fc:	52800021 	mov	w1, #0x1                   	// #1

0000000000201300 <set_divisor>:
  201300:	52801062 	mov	w2, #0x83                  	// #131
  201304:	b9000c02 	str	w2, [x0, #12]
  201308:	12001c62 	and	w2, w3, #0xff
  20130c:	b9000002 	str	w2, [x0]
  201310:	53083c63 	ubfx	w3, w3, #8, #8
  201314:	b9000403 	str	w3, [x0, #4]
  201318:	52800062 	mov	w2, #0x3                   	// #3
  20131c:	b9000c02 	str	w2, [x0, #12]
  201320:	51000423 	sub	w3, w1, #0x1
  201324:	b9002803 	str	w3, [x0, #40]
  201328:	51000821 	sub	w1, w1, #0x2
  20132c:	13017c21 	asr	w1, w1, #1
  201330:	b9002c01 	str	w1, [x0, #44]
  201334:	52800020 	mov	w0, #0x1                   	// #1
  201338:	d65f03c0 	ret

000000000020133c <init_fail>:
  20133c:	2a1f03e0 	mov	w0, wzr
  201340:	d65f03c0 	ret

0000000000201344 <console_hsuart_core_getc>:
  201344:	b9401401 	ldr	w1, [x0, #20]
  201348:	36000061 	tbz	w1, #0, 201354 <no_char>
  20134c:	b9400000 	ldr	w0, [x0]
  201350:	d65f03c0 	ret

0000000000201354 <no_char>:
  201354:	12800000 	mov	w0, #0xffffffff            	// #-1
  201358:	d65f03c0 	ret

000000000020135c <console_hsuart_core_putc>:
  20135c:	7100281f 	cmp	w0, #0xa
  201360:	540000e1 	b.ne	20137c <console_hsuart_core_putc+0x20>  // b.any
  201364:	b9401422 	ldr	w2, [x1, #20]
  201368:	121b0442 	and	w2, w2, #0x60
  20136c:	7101805f 	cmp	w2, #0x60
  201370:	54ffffa1 	b.ne	201364 <console_hsuart_core_putc+0x8>  // b.any
  201374:	528001a2 	mov	w2, #0xd                   	// #13
  201378:	b9000022 	str	w2, [x1]
  20137c:	b9401422 	ldr	w2, [x1, #20]
  201380:	121b0442 	and	w2, w2, #0x60
  201384:	7101805f 	cmp	w2, #0x60
  201388:	54ffffa1 	b.ne	20137c <console_hsuart_core_putc+0x20>  // b.any
  20138c:	b9000020 	str	w0, [x1]
  201390:	d65f03c0 	ret

0000000000201394 <console_hsuart_core_flush>:
  201394:	b9401401 	ldr	w1, [x0, #20]
  201398:	121b0421 	and	w1, w1, #0x60
  20139c:	7101803f 	cmp	w1, #0x60
  2013a0:	54ffffa1 	b.ne	201394 <console_hsuart_core_flush>  // b.any
  2013a4:	2a1f03e0 	mov	w0, wzr
  2013a8:	d65f03c0 	ret

00000000002013ac <console_hsuart_getc>:
  2013ac:	f9401400 	ldr	x0, [x0, #40]
  2013b0:	17ffffe5 	b	201344 <console_hsuart_core_getc>

00000000002013b4 <console_hsuart_putc>:
  2013b4:	f9401421 	ldr	x1, [x1, #40]
  2013b8:	17ffffe9 	b	20135c <console_hsuart_core_putc>

00000000002013bc <console_hsuart_flush>:
  2013bc:	f9401400 	ldr	x0, [x0, #40]
  2013c0:	17fffff5 	b	201394 <console_hsuart_core_flush>

00000000002013c4 <console_hsuart_register>:
  2013c4:	aa1e03e7 	mov	x7, x30
  2013c8:	aa0403e6 	mov	x6, x4
  2013cc:	b4000266 	cbz	x6, 201418 <register_fail>
  2013d0:	f90014c0 	str	x0, [x6, #40]
  2013d4:	34000061 	cbz	w1, 2013e0 <register_hsuart>
  2013d8:	97ffffad 	bl	20128c <console_hsuart_init>
  2013dc:	b40001e0 	cbz	x0, 201418 <register_fail>

00000000002013e0 <register_hsuart>:
  2013e0:	aa0603e0 	mov	x0, x6
  2013e4:	aa0703fe 	mov	x30, x7
  2013e8:	90000001 	adrp	x1, 201000 <bl2_entrypoint>
  2013ec:	910ed021 	add	x1, x1, #0x3b4
  2013f0:	f9000801 	str	x1, [x0, #16]
  2013f4:	90000001 	adrp	x1, 201000 <bl2_entrypoint>
  2013f8:	910eb021 	add	x1, x1, #0x3ac
  2013fc:	f9000c01 	str	x1, [x0, #24]
  201400:	90000001 	adrp	x1, 201000 <bl2_entrypoint>
  201404:	910ef021 	add	x1, x1, #0x3bc
  201408:	f9001001 	str	x1, [x0, #32]
  20140c:	d28000a1 	mov	x1, #0x5                   	// #5
  201410:	f9000401 	str	x1, [x0, #8]
  201414:	1400166d 	b	206dc8 <console_register>

0000000000201418 <register_fail>:
  201418:	d65f00e0 	ret	x7

000000000020141c <plat_secondary_cold_boot_setup>:
  20141c:	14000000 	b	20141c <plat_secondary_cold_boot_setup>

0000000000201420 <plat_crash_console_init>:
  201420:	d2840000 	mov	x0, #0x2000                	// #8192
  201424:	f2a22000 	movk	x0, #0x1100, lsl #16
  201428:	d28f0801 	mov	x1, #0x7840                	// #30784
  20142c:	f2a02fa1 	movk	x1, #0x17d, lsl #16
  201430:	d2984002 	mov	x2, #0xc200                	// #49664
  201434:	f2a00022 	movk	x2, #0x1, lsl #16
  201438:	d2800023 	mov	x3, #0x1                   	// #1
  20143c:	17ffff94 	b	20128c <console_hsuart_init>

0000000000201440 <plat_crash_console_putc>:
  201440:	d2840001 	mov	x1, #0x2000                	// #8192
  201444:	f2a22001 	movk	x1, #0x1100, lsl #16
  201448:	17ffffc5 	b	20135c <console_hsuart_core_putc>

000000000020144c <plat_crash_console_flush>:
  20144c:	d2840000 	mov	x0, #0x2000                	// #8192
  201450:	f2a22000 	movk	x0, #0x1100, lsl #16
  201454:	17ffffd0 	b	201394 <console_hsuart_core_flush>

0000000000201458 <asm_print_str>:
  201458:	aa1e03e3 	mov	x3, x30
  20145c:	38401480 	ldrb	w0, [x4], #1
  201460:	b4000060 	cbz	x0, 20146c <asm_print_str+0x14>
  201464:	97fffff7 	bl	201440 <plat_crash_console_putc>
  201468:	17fffffd 	b	20145c <asm_print_str+0x4>
  20146c:	d65f0060 	ret	x3

0000000000201470 <asm_print_hex>:
  201470:	d2800805 	mov	x5, #0x40                  	// #64

0000000000201474 <asm_print_hex_bits>:
  201474:	aa1e03e3 	mov	x3, x30
  201478:	d10010a5 	sub	x5, x5, #0x4
  20147c:	9ac52480 	lsr	x0, x4, x5
  201480:	92400c00 	and	x0, x0, #0xf
  201484:	f100281f 	cmp	x0, #0xa
  201488:	54000043 	b.cc	201490 <asm_print_hex_bits+0x1c>  // b.lo, b.ul, b.last
  20148c:	91009c00 	add	x0, x0, #0x27
  201490:	9100c000 	add	x0, x0, #0x30
  201494:	97ffffeb 	bl	201440 <plat_crash_console_putc>
  201498:	b5ffff05 	cbnz	x5, 201478 <asm_print_hex_bits+0x4>
  20149c:	d65f0060 	ret	x3

00000000002014a0 <asm_print_newline>:
  2014a0:	d2800140 	mov	x0, #0xa                   	// #10
  2014a4:	17ffffe7 	b	201440 <plat_crash_console_putc>

00000000002014a8 <el3_panic>:
  2014a8:	aa1e03e6 	mov	x6, x30
  2014ac:	97ffffdd 	bl	201420 <plat_crash_console_init>
  2014b0:	b4000100 	cbz	x0, 2014d0 <_panic_handler>
  2014b4:	30069924 	adr	x4, 20e7d9 <cortex_a53_errata_list_end>
  2014b8:	97ffffe8 	bl	201458 <asm_print_str>
  2014bc:	aa0603e4 	mov	x4, x6
  2014c0:	d1001084 	sub	x4, x4, #0x4
  2014c4:	97ffffeb 	bl	201470 <asm_print_hex>
  2014c8:	97fffff6 	bl	2014a0 <asm_print_newline>
  2014cc:	97ffffe0 	bl	20144c <plat_crash_console_flush>

00000000002014d0 <_panic_handler>:
  2014d0:	aa0603fe 	mov	x30, x6
  2014d4:	14000064 	b	201664 <plat_panic_handler>

00000000002014d8 <flush_dcache_range>:
  2014d8:	b40001a1 	cbz	x1, 20150c <exit_loop_civac>
  2014dc:	d53b0023 	mrs	x3, ctr_el0
  2014e0:	d3504c63 	ubfx	x3, x3, #16, #4
  2014e4:	d2800082 	mov	x2, #0x4                   	// #4
  2014e8:	9ac32042 	lsl	x2, x2, x3
  2014ec:	8b010001 	add	x1, x0, x1
  2014f0:	d1000443 	sub	x3, x2, #0x1
  2014f4:	8a230000 	bic	x0, x0, x3

00000000002014f8 <loop_civac>:
  2014f8:	d50b7e20 	dc	civac, x0
  2014fc:	8b020000 	add	x0, x0, x2
  201500:	eb01001f 	cmp	x0, x1
  201504:	54ffffa3 	b.cc	2014f8 <loop_civac>  // b.lo, b.ul, b.last
  201508:	d5033f9f 	dsb	sy

000000000020150c <exit_loop_civac>:
  20150c:	d65f03c0 	ret

0000000000201510 <inv_dcache_range>:
  201510:	b40001a1 	cbz	x1, 201544 <exit_loop_ivac>
  201514:	d53b0023 	mrs	x3, ctr_el0
  201518:	d3504c63 	ubfx	x3, x3, #16, #4
  20151c:	d2800082 	mov	x2, #0x4                   	// #4
  201520:	9ac32042 	lsl	x2, x2, x3
  201524:	8b010001 	add	x1, x0, x1
  201528:	d1000443 	sub	x3, x2, #0x1
  20152c:	8a230000 	bic	x0, x0, x3

0000000000201530 <loop_ivac>:
  201530:	d5087620 	dc	ivac, x0
  201534:	8b020000 	add	x0, x0, x2
  201538:	eb01001f 	cmp	x0, x1
  20153c:	54ffffa3 	b.cc	201530 <loop_ivac>  // b.lo, b.ul, b.last
  201540:	d5033f9f 	dsb	sy

0000000000201544 <exit_loop_ivac>:
  201544:	d65f03c0 	ret

0000000000201548 <zeromem>:
  201548:	8b010002 	add	x2, x0, x1
  20154c:	14000030 	b	20160c <zero_normalmem+0xbc>

0000000000201550 <zero_normalmem>:
  201550:	8b010002 	add	x2, x0, x1
  201554:	d53b00e3 	mrs	x3, dczid_el0
  201558:	d3400c63 	ubfx	x3, x3, #0, #4
  20155c:	d2800085 	mov	x5, #0x4                   	// #4
  201560:	9ac320a3 	lsl	x3, x5, x3
  201564:	eb03003f 	cmp	x1, x3
  201568:	54000523 	b.cc	20160c <zero_normalmem+0xbc>  // b.lo, b.ul, b.last
  20156c:	d1000461 	sub	x1, x3, #0x1
  201570:	ea01001f 	tst	x0, x1
  201574:	54000260 	b.eq	2015c0 <zero_normalmem+0x70>  // b.none
  201578:	aa010004 	orr	x4, x0, x1
  20157c:	91000484 	add	x4, x4, #0x1
  201580:	b4000464 	cbz	x4, 20160c <zero_normalmem+0xbc>
  201584:	eb02009f 	cmp	x4, x2
  201588:	54000428 	b.hi	20160c <zero_normalmem+0xbc>  // b.pmore
  20158c:	f2400c1f 	tst	x0, #0xf
  201590:	540000e0 	b.eq	2015ac <zero_normalmem+0x5c>  // b.none
  201594:	b2400c05 	orr	x5, x0, #0xf
  201598:	910004a5 	add	x5, x5, #0x1
  20159c:	b4000385 	cbz	x5, 20160c <zero_normalmem+0xbc>
  2015a0:	3800141f 	strb	wzr, [x0], #1
  2015a4:	eb05001f 	cmp	x0, x5
  2015a8:	54ffffc1 	b.ne	2015a0 <zero_normalmem+0x50>  // b.any
  2015ac:	eb04001f 	cmp	x0, x4
  2015b0:	54000082 	b.cs	2015c0 <zero_normalmem+0x70>  // b.hs, b.nlast
  2015b4:	a8817c1f 	stp	xzr, xzr, [x0], #16
  2015b8:	eb04001f 	cmp	x0, x4
  2015bc:	54ffffc3 	b.cc	2015b4 <zero_normalmem+0x64>  // b.lo, b.ul, b.last
  2015c0:	8a210044 	bic	x4, x2, x1
  2015c4:	eb04001f 	cmp	x0, x4
  2015c8:	540000a2 	b.cs	2015dc <zero_normalmem+0x8c>  // b.hs, b.nlast
  2015cc:	d50b7420 	dc	zva, x0
  2015d0:	8b030000 	add	x0, x0, x3
  2015d4:	eb04001f 	cmp	x0, x4
  2015d8:	54ffffa3 	b.cc	2015cc <zero_normalmem+0x7c>  // b.lo, b.ul, b.last
  2015dc:	927cec44 	and	x4, x2, #0xfffffffffffffff0
  2015e0:	eb04001f 	cmp	x0, x4
  2015e4:	54000082 	b.cs	2015f4 <zero_normalmem+0xa4>  // b.hs, b.nlast
  2015e8:	a8817c1f 	stp	xzr, xzr, [x0], #16
  2015ec:	eb04001f 	cmp	x0, x4
  2015f0:	54ffffc3 	b.cc	2015e8 <zero_normalmem+0x98>  // b.lo, b.ul, b.last
  2015f4:	eb02001f 	cmp	x0, x2
  2015f8:	54000080 	b.eq	201608 <zero_normalmem+0xb8>  // b.none
  2015fc:	3800141f 	strb	wzr, [x0], #1
  201600:	eb02001f 	cmp	x0, x2
  201604:	54ffffc1 	b.ne	2015fc <zero_normalmem+0xac>  // b.any
  201608:	d65f03c0 	ret
  20160c:	f2400c1f 	tst	x0, #0xf
  201610:	54fffe60 	b.eq	2015dc <zero_normalmem+0x8c>  // b.none
  201614:	b2400c04 	orr	x4, x0, #0xf
  201618:	91000484 	add	x4, x4, #0x1
  20161c:	b4fffec4 	cbz	x4, 2015f4 <zero_normalmem+0xa4>
  201620:	eb02009f 	cmp	x4, x2
  201624:	54fffe82 	b.cs	2015f4 <zero_normalmem+0xa4>  // b.hs, b.nlast
  201628:	3800141f 	strb	wzr, [x0], #1
  20162c:	eb04001f 	cmp	x0, x4
  201630:	54ffffc1 	b.ne	201628 <zero_normalmem+0xd8>  // b.any
  201634:	17ffffea 	b	2015dc <zero_normalmem+0x8c>

0000000000201638 <disable_mmu_el3>:
  201638:	d28000a1 	mov	x1, #0x5                   	// #5

000000000020163c <do_disable_mmu_el3>:
  20163c:	d53e1000 	mrs	x0, sctlr_el3
  201640:	8a210000 	bic	x0, x0, x1
  201644:	d51e1000 	msr	sctlr_el3, x0
  201648:	d5033fdf 	isb
  20164c:	d5033f9f 	dsb	sy
  201650:	d65f03c0 	ret

0000000000201654 <disable_mmu_icache_el3>:
  201654:	d28200a1 	mov	x1, #0x1005                	// #4101
  201658:	17fffff9 	b	20163c <do_disable_mmu_el3>

000000000020165c <plat_report_exception>:
  20165c:	d65f03c0 	ret

0000000000201660 <plat_reset_handler>:
  201660:	d65f03c0 	ret

0000000000201664 <plat_panic_handler>:
  201664:	d503207f 	wfi
  201668:	17ffffff 	b	201664 <plat_panic_handler>

000000000020166c <bl2_arch_setup>:
  20166c:	d2a00600 	mov	x0, #0x300000              	// #3145728
  201670:	d5181040 	msr	cpacr_el1, x0
  201674:	d65f03c0 	ret

0000000000201678 <mtk_ar_update_bl_ar_ver>:
  201678:	52800000 	mov	w0, #0x0                   	// #0
  20167c:	d65f03c0 	ret

0000000000201680 <bl2_load_images>:
  201680:	a9bd7bfd 	stp	x29, x30, [sp, #-48]!
  201684:	910003fd 	mov	x29, sp
  201688:	a90153f3 	stp	x19, x20, [sp, #16]
  20168c:	f90013f5 	str	x21, [sp, #32]
  201690:	94000f01 	bl	205294 <plat_get_bl_image_load_info>
  201694:	f9400413 	ldr	x19, [x0, #8]
  201698:	52800015 	mov	w21, #0x0                   	// #0
  20169c:	b5000213 	cbnz	x19, 2016dc <bl2_load_images+0x5c>
  2016a0:	94000efe 	bl	205298 <plat_get_next_bl_params>
  2016a4:	aa0003f3 	mov	x19, x0
  2016a8:	f9400400 	ldr	x0, [x0, #8]
  2016ac:	f9400800 	ldr	x0, [x0, #16]
  2016b0:	f9400c01 	ldr	x1, [x0, #24]
  2016b4:	b5000041 	cbnz	x1, 2016bc <bl2_load_images+0x3c>
  2016b8:	f9000c13 	str	x19, [x0, #24]
  2016bc:	94000ef8 	bl	20529c <plat_flush_next_bl_params>
  2016c0:	97ffffee 	bl	201678 <mtk_ar_update_bl_ar_ver>
  2016c4:	2a0003f4 	mov	w20, w0
  2016c8:	34000580 	cbz	w0, 201778 <bl2_load_images+0xf8>
  2016cc:	2a0003e1 	mov	w1, w0
  2016d0:	b0000060 	adrp	x0, 20e000 <mtk_pin_info_pu+0x36c>
  2016d4:	9109e800 	add	x0, x0, #0x27a
  2016d8:	1400000e 	b	201710 <bl2_load_images+0x90>
  2016dc:	f9400660 	ldr	x0, [x19, #8]
  2016e0:	b9400400 	ldr	w0, [x0, #4]
  2016e4:	36100080 	tbz	w0, #2, 2016f4 <bl2_load_images+0x74>
  2016e8:	35000075 	cbnz	w21, 2016f4 <bl2_load_images+0x74>
  2016ec:	52800035 	mov	w21, #0x1                   	// #1
  2016f0:	94000ef7 	bl	2052cc <bl2_platform_setup>
  2016f4:	b9400260 	ldr	w0, [x19]
  2016f8:	94000ece 	bl	205230 <bl2_plat_handle_pre_image_load>
  2016fc:	2a0003f4 	mov	w20, w0
  201700:	340000c0 	cbz	w0, 201718 <bl2_load_images+0x98>
  201704:	2a0003e1 	mov	w1, w0
  201708:	b0000060 	adrp	x0, 20e000 <mtk_pin_info_pu+0x36c>
  20170c:	9107d000 	add	x0, x0, #0x1f4
  201710:	9400157e 	bl	206d08 <tf_log>
  201714:	1400000d 	b	201748 <bl2_load_images+0xc8>
  201718:	f9400661 	ldr	x1, [x19, #8]
  20171c:	b9400420 	ldr	w0, [x1, #4]
  201720:	37080180 	tbnz	w0, #1, 201750 <bl2_load_images+0xd0>
  201724:	b9400260 	ldr	w0, [x19]
  201728:	9400153c 	bl	206c18 <load_auth_image>
  20172c:	2a0003f4 	mov	w20, w0
  201730:	34000100 	cbz	w0, 201750 <bl2_load_images+0xd0>
  201734:	b9400261 	ldr	w1, [x19]
  201738:	2a0003e2 	mov	w2, w0
  20173c:	b0000060 	adrp	x0, 20e000 <mtk_pin_info_pu+0x36c>
  201740:	91088c00 	add	x0, x0, #0x223
  201744:	94001571 	bl	206d08 <tf_log>
  201748:	2a1403e0 	mov	w0, w20
  20174c:	940015f3 	bl	206f18 <plat_error_handler>
  201750:	b9400260 	ldr	w0, [x19]
  201754:	94000ec2 	bl	20525c <bl2_plat_handle_post_image_load>
  201758:	2a0003f4 	mov	w20, w0
  20175c:	340000a0 	cbz	w0, 201770 <bl2_load_images+0xf0>
  201760:	2a0003e1 	mov	w1, w0
  201764:	b0000060 	adrp	x0, 20e000 <mtk_pin_info_pu+0x36c>
  201768:	91092800 	add	x0, x0, #0x24a
  20176c:	17ffffe9 	b	201710 <bl2_load_images+0x90>
  201770:	f9400a73 	ldr	x19, [x19, #16]
  201774:	17ffffca 	b	20169c <bl2_load_images+0x1c>
  201778:	f9400660 	ldr	x0, [x19, #8]
  20177c:	a94153f3 	ldp	x19, x20, [sp, #16]
  201780:	f9400800 	ldr	x0, [x0, #16]
  201784:	f94013f5 	ldr	x21, [sp, #32]
  201788:	a8c37bfd 	ldp	x29, x30, [sp], #48
  20178c:	d65f03c0 	ret

0000000000201790 <bl2_el3_setup>:
  201790:	a9bf7bfd 	stp	x29, x30, [sp, #-16]!
  201794:	910003fd 	mov	x29, sp
  201798:	94000ec3 	bl	2052a4 <bl2_el3_early_platform_setup>
  20179c:	a8c17bfd 	ldp	x29, x30, [sp], #16
  2017a0:	1400112a 	b	205c48 <bl2_el3_plat_arch_setup>

00000000002017a4 <bl2_main>:
  2017a4:	a9be7bfd 	stp	x29, x30, [sp, #-32]!
  2017a8:	b0000061 	adrp	x1, 20e000 <mtk_pin_info_pu+0x36c>
  2017ac:	91071821 	add	x1, x1, #0x1c6
  2017b0:	910003fd 	mov	x29, sp
  2017b4:	f9000bf3 	str	x19, [sp, #16]
  2017b8:	b0000073 	adrp	x19, 20e000 <mtk_pin_info_pu+0x36c>
  2017bc:	910ac273 	add	x19, x19, #0x2b0
  2017c0:	aa1303e0 	mov	x0, x19
  2017c4:	94001551 	bl	206d08 <tf_log>
  2017c8:	aa1303e0 	mov	x0, x19
  2017cc:	b0000061 	adrp	x1, 20e000 <mtk_pin_info_pu+0x36c>
  2017d0:	9106a021 	add	x1, x1, #0x1a8
  2017d4:	9400154d 	bl	206d08 <tf_log>
  2017d8:	97ffffa5 	bl	20166c <bl2_arch_setup>
  2017dc:	94000e90 	bl	20521c <bl2_plat_preload_setup>
  2017e0:	97ffffa8 	bl	201680 <bl2_load_images>
  2017e4:	aa0003f3 	mov	x19, x0
  2017e8:	b0000060 	adrp	x0, 20e000 <mtk_pin_info_pu+0x36c>
  2017ec:	910ae800 	add	x0, x0, #0x2ba
  2017f0:	94001546 	bl	206d08 <tf_log>
  2017f4:	aa1303e0 	mov	x0, x19
  2017f8:	94001543 	bl	206d04 <print_entry_point_info>
  2017fc:	940015b1 	bl	206ec0 <console_flush>
  201800:	aa1303e0 	mov	x0, x19
  201804:	f9400bf3 	ldr	x19, [sp, #16]
  201808:	a8c27bfd 	ldp	x29, x30, [sp], #32
  20180c:	17fffe3e 	b	201104 <bl2_run_next_image>

0000000000201810 <flush_bl_params_desc_args>:
  201810:	a9be7bfd 	stp	x29, x30, [sp, #-32]!
  201814:	910003fd 	mov	x29, sp
  201818:	f9000bf3 	str	x19, [sp, #16]
  20181c:	aa0203f3 	mov	x19, x2
  201820:	52801702 	mov	w2, #0xb8                  	// #184
  201824:	9ba27c21 	umull	x1, w1, w2
  201828:	97ffff2c 	bl	2014d8 <flush_dcache_range>
  20182c:	aa1303e0 	mov	x0, x19
  201830:	d2800201 	mov	x1, #0x10                  	// #16
  201834:	f9400bf3 	ldr	x19, [sp, #16]
  201838:	a8c27bfd 	ldp	x29, x30, [sp], #32
  20183c:	17ffff27 	b	2014d8 <flush_dcache_range>

0000000000201840 <flush_bl_params_desc>:
  201840:	f0000060 	adrp	x0, 210000 <__RO_END__>
  201844:	90000082 	adrp	x2, 211000 <__STACKS_START__+0x8c0>
  201848:	91256042 	add	x2, x2, #0x958
  20184c:	b9447001 	ldr	w1, [x0, #1136]
  201850:	f0000060 	adrp	x0, 210000 <__RO_END__>
  201854:	f940cc00 	ldr	x0, [x0, #408]
  201858:	17ffffee 	b	201810 <flush_bl_params_desc_args>

000000000020185c <get_bl_params_node_index>:
  20185c:	2a0003e1 	mov	w1, w0
  201860:	f0000060 	adrp	x0, 210000 <__RO_END__>
  201864:	d2801703 	mov	x3, #0xb8                  	// #184
  201868:	b9447004 	ldr	w4, [x0, #1136]
  20186c:	f0000060 	adrp	x0, 210000 <__RO_END__>
  201870:	f940cc02 	ldr	x2, [x0, #408]
  201874:	d2800000 	mov	x0, #0x0                   	// #0
  201878:	d102e042 	sub	x2, x2, #0xb8
  20187c:	6b00009f 	cmp	w4, w0
  201880:	54000068 	b.hi	20188c <get_bl_params_node_index+0x30>  // b.pmore
  201884:	12800000 	mov	w0, #0xffffffff            	// #-1
  201888:	d65f03c0 	ret
  20188c:	9b030c06 	madd	x6, x0, x3, x3
  201890:	91000405 	add	x5, x0, #0x1
  201894:	b8666846 	ldr	w6, [x2, x6]
  201898:	6b0100df 	cmp	w6, w1
  20189c:	54ffff60 	b.eq	201888 <get_bl_params_node_index+0x2c>  // b.none
  2018a0:	aa0503e0 	mov	x0, x5
  2018a4:	17fffff6 	b	20187c <get_bl_params_node_index+0x20>

00000000002018a8 <get_bl_mem_params_node>:
  2018a8:	a9bf7bfd 	stp	x29, x30, [sp, #-16]!
  2018ac:	910003fd 	mov	x29, sp
  2018b0:	97ffffeb 	bl	20185c <get_bl_params_node_index>
  2018b4:	37f800e0 	tbnz	w0, #31, 2018d0 <get_bl_mem_params_node+0x28>
  2018b8:	f0000061 	adrp	x1, 210000 <__RO_END__>
  2018bc:	52801702 	mov	w2, #0xb8                  	// #184
  2018c0:	f940cc21 	ldr	x1, [x1, #408]
  2018c4:	9b220400 	smaddl	x0, w0, w2, x1
  2018c8:	a8c17bfd 	ldp	x29, x30, [sp], #16
  2018cc:	d65f03c0 	ret
  2018d0:	d2800000 	mov	x0, #0x0                   	// #0
  2018d4:	17fffffd 	b	2018c8 <get_bl_mem_params_node+0x20>

00000000002018d8 <get_bl_load_info_from_mem_params_desc>:
  2018d8:	f0000060 	adrp	x0, 210000 <__RO_END__>
  2018dc:	b9447004 	ldr	w4, [x0, #1136]
  2018e0:	34000324 	cbz	w4, 201944 <get_bl_load_info_from_mem_params_desc+0x6c>
  2018e4:	f0000060 	adrp	x0, 210000 <__RO_END__>
  2018e8:	90000083 	adrp	x3, 211000 <__STACKS_START__+0x8c0>
  2018ec:	d2804085 	mov	x5, #0x204                 	// #516
  2018f0:	f940cc01 	ldr	x1, [x0, #408]
  2018f4:	91252060 	add	x0, x3, #0x948
  2018f8:	f2a00205 	movk	x5, #0x10, lsl #16
  2018fc:	f904a465 	str	x5, [x3, #2376]
  201900:	91020022 	add	x2, x1, #0x80
  201904:	91002021 	add	x1, x1, #0x8
  201908:	52800003 	mov	w3, #0x0                   	// #0
  20190c:	f9000402 	str	x2, [x0, #8]
  201910:	b85f8025 	ldur	w5, [x1, #-8]
  201914:	11000463 	add	w3, w3, #0x1
  201918:	b9000045 	str	w5, [x2]
  20191c:	f9000441 	str	x1, [x2, #8]
  201920:	6b03009f 	cmp	w4, w3
  201924:	54000089 	b.ls	201934 <get_bl_load_info_from_mem_params_desc+0x5c>  // b.plast
  201928:	9104c025 	add	x5, x1, #0x130
  20192c:	f9000845 	str	x5, [x2, #16]
  201930:	aa0503e2 	mov	x2, x5
  201934:	9102e021 	add	x1, x1, #0xb8
  201938:	6b03009f 	cmp	w4, w3
  20193c:	54fffea1 	b.ne	201910 <get_bl_load_info_from_mem_params_desc+0x38>  // b.any
  201940:	d65f03c0 	ret
  201944:	d2800000 	mov	x0, #0x0                   	// #0
  201948:	17fffffe 	b	201940 <get_bl_load_info_from_mem_params_desc+0x68>

000000000020194c <get_next_bl_params_from_mem_params_desc>:
  20194c:	f0000060 	adrp	x0, 210000 <__RO_END__>
  201950:	b944700a 	ldr	w10, [x0, #1136]
  201954:	3400064a 	cbz	w10, 201a1c <get_next_bl_params_from_mem_params_desc+0xd0>
  201958:	a9bf7bfd 	stp	x29, x30, [sp, #-16]!
  20195c:	f0000060 	adrp	x0, 210000 <__RO_END__>
  201960:	d2c00303 	mov	x3, #0x1800000000          	// #103079215104
  201964:	910003fd 	mov	x29, sp
  201968:	f940cc0b 	ldr	x11, [x0, #408]
  20196c:	52800000 	mov	w0, #0x0                   	// #0
  201970:	aa0b03e1 	mov	x1, x11
  201974:	f9401022 	ldr	x2, [x1, #32]
  201978:	925d0442 	and	x2, x2, #0x1800000000
  20197c:	eb03005f 	cmp	x2, x3
  201980:	54000421 	b.ne	201a04 <get_next_bl_params_from_mem_params_desc+0xb8>  // b.any
  201984:	90000082 	adrp	x2, 211000 <__STACKS_START__+0x8c0>
  201988:	91026021 	add	x1, x1, #0x98
  20198c:	f904b041 	str	x1, [x2, #2400]
  201990:	90000087 	adrp	x7, 211000 <__STACKS_START__+0x8c0>
  201994:	d28040a1 	mov	x1, #0x205                 	// #517
  201998:	f2a00201 	movk	x1, #0x10, lsl #16
  20199c:	d2800008 	mov	x8, #0x0                   	// #0
  2019a0:	f904ace1 	str	x1, [x7, #2392]
  2019a4:	52800009 	mov	w9, #0x0                   	// #0
  2019a8:	5280170c 	mov	w12, #0xb8                  	// #184
  2019ac:	9bac7c00 	umull	x0, w0, w12
  2019b0:	aa0803e2 	mov	x2, x8
  2019b4:	8b000161 	add	x1, x11, x0
  2019b8:	91026028 	add	x8, x1, #0x98
  2019bc:	b8606960 	ldr	w0, [x11, x0]
  2019c0:	b9009820 	str	w0, [x1, #152]
  2019c4:	91002020 	add	x0, x1, #0x8
  2019c8:	f9000500 	str	x0, [x8, #8]
  2019cc:	91008020 	add	x0, x1, #0x20
  2019d0:	f9000900 	str	x0, [x8, #16]
  2019d4:	b4000042 	cbz	x2, 2019dc <get_next_bl_params_from_mem_params_desc+0x90>
  2019d8:	f9000c48 	str	x8, [x2, #24]
  2019dc:	b9407820 	ldr	w0, [x1, #120]
  2019e0:	3100041f 	cmn	w0, #0x1
  2019e4:	540000a0 	b.eq	2019f8 <get_next_bl_params_from_mem_params_desc+0xac>  // b.none
  2019e8:	11000529 	add	w9, w9, #0x1
  2019ec:	97ffff9c 	bl	20185c <get_bl_params_node_index>
  2019f0:	6b09015f 	cmp	w10, w9
  2019f4:	54fffdc1 	b.ne	2019ac <get_next_bl_params_from_mem_params_desc+0x60>  // b.any
  2019f8:	912560e0 	add	x0, x7, #0x958
  2019fc:	a8c17bfd 	ldp	x29, x30, [sp], #16
  201a00:	d65f03c0 	ret
  201a04:	11000400 	add	w0, w0, #0x1
  201a08:	9102e021 	add	x1, x1, #0xb8
  201a0c:	6b00015f 	cmp	w10, w0
  201a10:	54fffb21 	b.ne	201974 <get_next_bl_params_from_mem_params_desc+0x28>  // b.any
  201a14:	52800000 	mov	w0, #0x0                   	// #0
  201a18:	17ffffde 	b	201990 <get_next_bl_params_from_mem_params_desc+0x44>
  201a1c:	d2800000 	mov	x0, #0x0                   	// #0
  201a20:	d65f03c0 	ret

0000000000201a24 <image_decompress_init>:
  201a24:	90000083 	adrp	x3, 211000 <__STACKS_START__+0x8c0>
  201a28:	f904b860 	str	x0, [x3, #2416]
  201a2c:	f0000080 	adrp	x0, 214000 <list+0x2550>
  201a30:	b9078001 	str	w1, [x0, #1920]
  201a34:	90000080 	adrp	x0, 211000 <__STACKS_START__+0x8c0>
  201a38:	f904b402 	str	x2, [x0, #2408]
  201a3c:	d65f03c0 	ret

0000000000201a40 <image_decompress_prepare>:
  201a40:	90000082 	adrp	x2, 211000 <__STACKS_START__+0x8c0>
  201a44:	9125e041 	add	x1, x2, #0x978
  201a48:	f9400003 	ldr	x3, [x0]
  201a4c:	f904bc43 	str	x3, [x2, #2424]
  201a50:	f9400402 	ldr	x2, [x0, #8]
  201a54:	f9000422 	str	x2, [x1, #8]
  201a58:	f9400802 	ldr	x2, [x0, #16]
  201a5c:	f9000822 	str	x2, [x1, #16]
  201a60:	90000081 	adrp	x1, 211000 <__STACKS_START__+0x8c0>
  201a64:	f944b821 	ldr	x1, [x1, #2416]
  201a68:	f9000401 	str	x1, [x0, #8]
  201a6c:	f0000081 	adrp	x1, 214000 <list+0x2550>
  201a70:	b9478021 	ldr	w1, [x1, #1920]
  201a74:	b9001401 	str	w1, [x0, #20]
  201a78:	d65f03c0 	ret

0000000000201a7c <image_decompress>:
  201a7c:	a9bd7bfd 	stp	x29, x30, [sp, #-48]!
  201a80:	910003fd 	mov	x29, sp
  201a84:	b9401001 	ldr	w1, [x0, #16]
  201a88:	a90153f3 	stp	x19, x20, [sp, #16]
  201a8c:	aa0003f3 	mov	x19, x0
  201a90:	f9400404 	ldr	x4, [x0, #8]
  201a94:	90000080 	adrp	x0, 211000 <__STACKS_START__+0x8c0>
  201a98:	9125e002 	add	x2, x0, #0x978
  201a9c:	f944bc00 	ldr	x0, [x0, #2424]
  201aa0:	f9000260 	str	x0, [x19]
  201aa4:	f9400440 	ldr	x0, [x2, #8]
  201aa8:	f9000660 	str	x0, [x19, #8]
  201aac:	a90203e4 	stp	x4, x0, [sp, #32]
  201ab0:	f0000080 	adrp	x0, 214000 <list+0x2550>
  201ab4:	8b214084 	add	x4, x4, w1, uxtw
  201ab8:	b9478005 	ldr	w5, [x0, #1920]
  201abc:	90000080 	adrp	x0, 211000 <__STACKS_START__+0x8c0>
  201ac0:	f9400843 	ldr	x3, [x2, #16]
  201ac4:	f9000a63 	str	x3, [x19, #16]
  201ac8:	f944b406 	ldr	x6, [x0, #2408]
  201acc:	4b0100a5 	sub	w5, w5, w1
  201ad0:	d360fc63 	lsr	x3, x3, #32
  201ad4:	9100a3e2 	add	x2, sp, #0x28
  201ad8:	2a0103e1 	mov	w1, w1
  201adc:	910083e0 	add	x0, sp, #0x20
  201ae0:	d63f00c0 	blr	x6
  201ae4:	2a0003f4 	mov	w20, w0
  201ae8:	34000120 	cbz	w0, 201b0c <image_decompress+0x90>
  201aec:	2a0003e1 	mov	w1, w0
  201af0:	b0000060 	adrp	x0, 20e000 <mtk_pin_info_pu+0x36c>
  201af4:	910b3800 	add	x0, x0, #0x2ce
  201af8:	94001484 	bl	206d08 <tf_log>
  201afc:	2a1403e0 	mov	w0, w20
  201b00:	a94153f3 	ldp	x19, x20, [sp, #16]
  201b04:	a8c37bfd 	ldp	x29, x30, [sp], #48
  201b08:	d65f03c0 	ret
  201b0c:	f9400660 	ldr	x0, [x19, #8]
  201b10:	f94017e1 	ldr	x1, [sp, #40]
  201b14:	4b000021 	sub	w1, w1, w0
  201b18:	b9001261 	str	w1, [x19, #16]
  201b1c:	97fffe6f 	bl	2014d8 <flush_dcache_range>
  201b20:	17fffff7 	b	201afc <image_decompress+0x80>

0000000000201b24 <tf_crc32>:
  201b24:	2a2003e0 	mvn	w0, w0
  201b28:	d2800003 	mov	x3, #0x0                   	// #0
  201b2c:	eb03005f 	cmp	x2, x3
  201b30:	54000061 	b.ne	201b3c <tf_crc32+0x18>  // b.any
  201b34:	2a2003e0 	mvn	w0, w0
  201b38:	d65f03c0 	ret
  201b3c:	38636824 	ldrb	w4, [x1, x3]
  201b40:	91000463 	add	x3, x3, #0x1
  201b44:	1ac44000 	crc32b	w0, w0, w4
  201b48:	17fffff9 	b	201b2c <tf_crc32+0x8>

0000000000201b4c <udelay>:
  201b4c:	a9bd7bfd 	stp	x29, x30, [sp, #-48]!
  201b50:	910003fd 	mov	x29, sp
  201b54:	a90153f3 	stp	x19, x20, [sp, #16]
  201b58:	90000094 	adrp	x20, 211000 <__STACKS_START__+0x8c0>
  201b5c:	2a0003f3 	mov	w19, w0
  201b60:	f944ca80 	ldr	x0, [x20, #2448]
  201b64:	f9400000 	ldr	x0, [x0]
  201b68:	f90013f5 	str	x21, [sp, #32]
  201b6c:	d63f0000 	blr	x0
  201b70:	2a0003f5 	mov	w21, w0
  201b74:	f944ca82 	ldr	x2, [x20, #2448]
  201b78:	29410841 	ldp	w1, w2, [x2, #8]
  201b7c:	d1000420 	sub	x0, x1, #0x1
  201b80:	9ba20273 	umaddl	x19, w19, w2, x0
  201b84:	9ac10a73 	udiv	x19, x19, x1
  201b88:	91000673 	add	x19, x19, #0x1
  201b8c:	f944ca80 	ldr	x0, [x20, #2448]
  201b90:	f9400000 	ldr	x0, [x0]
  201b94:	d63f0000 	blr	x0
  201b98:	4b0002a1 	sub	w1, w21, w0
  201b9c:	eb13003f 	cmp	x1, x19
  201ba0:	54ffff63 	b.cc	201b8c <udelay+0x40>  // b.lo, b.ul, b.last
  201ba4:	a94153f3 	ldp	x19, x20, [sp, #16]
  201ba8:	f94013f5 	ldr	x21, [sp, #32]
  201bac:	a8c37bfd 	ldp	x29, x30, [sp], #48
  201bb0:	d65f03c0 	ret

0000000000201bb4 <mdelay>:
  201bb4:	52807d01 	mov	w1, #0x3e8                 	// #1000
  201bb8:	1b017c00 	mul	w0, w0, w1
  201bbc:	17ffffe4 	b	201b4c <udelay>

0000000000201bc0 <timer_init>:
  201bc0:	90000081 	adrp	x1, 211000 <__STACKS_START__+0x8c0>
  201bc4:	f904c820 	str	x0, [x1, #2448]
  201bc8:	d65f03c0 	ret

0000000000201bcc <get_timer_value>:
  201bcc:	d53be020 	mrs	x0, cntpct_el0
  201bd0:	2a2003e0 	mvn	w0, w0
  201bd4:	d65f03c0 	ret

0000000000201bd8 <generic_delay_timer_init_args>:
  201bd8:	2a0003e4 	mov	w4, w0
  201bdc:	90000083 	adrp	x3, 211000 <__STACKS_START__+0x8c0>
  201be0:	91266060 	add	x0, x3, #0x998
  201be4:	90000002 	adrp	x2, 201000 <bl2_entrypoint>
  201be8:	912f3042 	add	x2, x2, #0xbcc
  201bec:	f904cc62 	str	x2, [x3, #2456]
  201bf0:	29010404 	stp	w4, w1, [x0, #8]
  201bf4:	17fffff3 	b	201bc0 <timer_init>

0000000000201bf8 <generic_delay_timer_init>:
  201bf8:	a9bf7bfd 	stp	x29, x30, [sp, #-16]!
  201bfc:	910003fd 	mov	x29, sp
  201c00:	94000fed 	bl	205bb4 <plat_get_syscnt_freq2>
  201c04:	2a0003e1 	mov	w1, w0
  201c08:	52884800 	mov	w0, #0x4240                	// #16960
  201c0c:	528000c3 	mov	w3, #0x6                   	// #6
  201c10:	72a001e0 	movk	w0, #0xf, lsl #16
  201c14:	52800142 	mov	w2, #0xa                   	// #10
  201c18:	1ac20824 	udiv	w4, w1, w2
  201c1c:	1b028485 	msub	w5, w4, w2, w1
  201c20:	350000a5 	cbnz	w5, 201c34 <generic_delay_timer_init+0x3c>
  201c24:	1ac20800 	udiv	w0, w0, w2
  201c28:	2a0403e1 	mov	w1, w4
  201c2c:	71000463 	subs	w3, w3, #0x1
  201c30:	54ffff41 	b.ne	201c18 <generic_delay_timer_init+0x20>  // b.any
  201c34:	a8c17bfd 	ldp	x29, x30, [sp], #16
  201c38:	17ffffe8 	b	201bd8 <generic_delay_timer_init_args>

0000000000201c3c <gpio_init>:
  201c3c:	90000081 	adrp	x1, 211000 <__STACKS_START__+0x8c0>
  201c40:	f904d420 	str	x0, [x1, #2472]
  201c44:	d65f03c0 	ret

0000000000201c48 <device_type_block>:
  201c48:	52800080 	mov	w0, #0x4                   	// #4
  201c4c:	d65f03c0 	ret

0000000000201c50 <block_open>:
  201c50:	f9400400 	ldr	x0, [x0, #8]
  201c54:	a9400423 	ldp	x3, x1, [x1]
  201c58:	a900fc03 	stp	x3, xzr, [x0, #8]
  201c5c:	f9000c01 	str	x1, [x0, #24]
  201c60:	f9000440 	str	x0, [x2, #8]
  201c64:	52800000 	mov	w0, #0x0                   	// #0
  201c68:	d65f03c0 	ret

0000000000201c6c <block_seek>:
  201c6c:	f9400400 	ldr	x0, [x0, #8]
  201c70:	7100043f 	cmp	w1, #0x1
  201c74:	540000e0 	b.eq	201c90 <block_seek+0x24>  // b.none
  201c78:	71000c3f 	cmp	w1, #0x3
  201c7c:	54000060 	b.eq	201c88 <block_seek+0x1c>  // b.none
  201c80:	128002a0 	mov	w0, #0xffffffea            	// #-22
  201c84:	d65f03c0 	ret
  201c88:	f9400801 	ldr	x1, [x0, #16]
  201c8c:	8b020022 	add	x2, x1, x2
  201c90:	f9000802 	str	x2, [x0, #16]
  201c94:	52800000 	mov	w0, #0x0                   	// #0
  201c98:	17fffffb 	b	201c84 <block_seek+0x18>

0000000000201c9c <block_close>:
  201c9c:	f900041f 	str	xzr, [x0, #8]
  201ca0:	52800000 	mov	w0, #0x0                   	// #0
  201ca4:	d65f03c0 	ret

0000000000201ca8 <block_write>:
  201ca8:	a9b87bfd 	stp	x29, x30, [sp, #-128]!
  201cac:	910003fd 	mov	x29, sp
  201cb0:	a9025bf5 	stp	x21, x22, [sp, #32]
  201cb4:	d2800015 	mov	x21, #0x0                   	// #0
  201cb8:	f9400416 	ldr	x22, [x0, #8]
  201cbc:	a90573fb 	stp	x27, x28, [sp, #80]
  201cc0:	a9046bf9 	stp	x25, x26, [sp, #64]
  201cc4:	f94002db 	ldr	x27, [x22]
  201cc8:	a90153f3 	stp	x19, x20, [sp, #16]
  201ccc:	aa0203f4 	mov	x20, x2
  201cd0:	a90363f7 	stp	x23, x24, [sp, #48]
  201cd4:	f940137a 	ldr	x26, [x27, #32]
  201cd8:	f9003be3 	str	x3, [sp, #112]
  201cdc:	cb1a03f8 	neg	x24, x26
  201ce0:	d1000740 	sub	x0, x26, #0x1
  201ce4:	a90607e0 	stp	x0, x1, [sp, #96]
  201ce8:	b50000b4 	cbnz	x20, 201cfc <block_write+0x54>
  201cec:	f9403be0 	ldr	x0, [sp, #112]
  201cf0:	f9000015 	str	x21, [x0]
  201cf4:	52800000 	mov	w0, #0x0                   	// #0
  201cf8:	1400001c 	b	201d68 <block_write+0xc0>
  201cfc:	f9400ad9 	ldr	x25, [x22, #16]
  201d00:	f94033e0 	ldr	x0, [sp, #96]
  201d04:	f9400762 	ldr	x2, [x27, #8]
  201d08:	8a000333 	and	x19, x25, x0
  201d0c:	f94006c0 	ldr	x0, [x22, #8]
  201d10:	8b130297 	add	x23, x20, x19
  201d14:	8b000339 	add	x25, x25, x0
  201d18:	9ada0b39 	udiv	x25, x25, x26
  201d1c:	eb17005f 	cmp	x2, x23
  201d20:	54000083 	b.cc	201d30 <block_write+0x88>  // b.lo, b.ul, b.last
  201d24:	f94033e0 	ldr	x0, [sp, #96]
  201d28:	8b170002 	add	x2, x0, x23
  201d2c:	8a180042 	and	x2, x2, x24
  201d30:	91004360 	add	x0, x27, #0x10
  201d34:	f9003fe0 	str	x0, [sp, #120]
  201d38:	cb130044 	sub	x4, x2, x19
  201d3c:	eb04029f 	cmp	x20, x4
  201d40:	54000043 	b.cc	201d48 <block_write+0xa0>  // b.lo, b.ul, b.last
  201d44:	b40005d3 	cbz	x19, 201dfc <block_write+0x154>
  201d48:	f9400361 	ldr	x1, [x27]
  201d4c:	2a1903e0 	mov	w0, w25
  201d50:	f9400b64 	ldr	x4, [x27, #16]
  201d54:	d63f0080 	blr	x4
  201d58:	8a00031c 	and	x28, x24, x0
  201d5c:	eb1c027f 	cmp	x19, x28
  201d60:	54000123 	b.cc	201d84 <block_write+0xdc>  // b.lo, b.ul, b.last
  201d64:	12800080 	mov	w0, #0xfffffffb            	// #-5
  201d68:	a94153f3 	ldp	x19, x20, [sp, #16]
  201d6c:	a9425bf5 	ldp	x21, x22, [sp, #32]
  201d70:	a94363f7 	ldp	x23, x24, [sp, #48]
  201d74:	a9446bf9 	ldp	x25, x26, [sp, #64]
  201d78:	a94573fb 	ldp	x27, x28, [sp, #80]
  201d7c:	a8c87bfd 	ldp	x29, x30, [sp], #128
  201d80:	d65f03c0 	ret
  201d84:	cb130384 	sub	x4, x28, x19
  201d88:	cb140082 	sub	x2, x4, x20
  201d8c:	eb04029f 	cmp	x20, x4
  201d90:	9a9f3042 	csel	x2, x2, xzr, cc  // cc = lo, ul, last
  201d94:	cb020084 	sub	x4, x4, x2
  201d98:	f9400360 	ldr	x0, [x27]
  201d9c:	aa0403e2 	mov	x2, x4
  201da0:	f94037e1 	ldr	x1, [sp, #104]
  201da4:	8b000260 	add	x0, x19, x0
  201da8:	8b0102a1 	add	x1, x21, x1
  201dac:	94002780 	bl	20bbac <memcpy>
  201db0:	f9400361 	ldr	x1, [x27]
  201db4:	aa1c03e2 	mov	x2, x28
  201db8:	f9400f64 	ldr	x4, [x27, #24]
  201dbc:	2a1903e0 	mov	w0, w25
  201dc0:	d63f0080 	blr	x4
  201dc4:	eb00027f 	cmp	x19, x0
  201dc8:	54fffce2 	b.cs	201d64 <block_write+0xbc>  // b.hs, b.nlast
  201dcc:	cb130013 	sub	x19, x0, x19
  201dd0:	cb140261 	sub	x1, x19, x20
  201dd4:	eb13029f 	cmp	x20, x19
  201dd8:	9a9f3034 	csel	x20, x1, xzr, cc  // cc = lo, ul, last
  201ddc:	f9400ac1 	ldr	x1, [x22, #16]
  201de0:	cb140273 	sub	x19, x19, x20
  201de4:	cb000294 	sub	x20, x20, x0
  201de8:	8b1302b5 	add	x21, x21, x19
  201dec:	8b130021 	add	x1, x1, x19
  201df0:	8b170294 	add	x20, x20, x23
  201df4:	f9000ac1 	str	x1, [x22, #16]
  201df8:	17ffffbc 	b	201ce8 <block_write+0x40>
  201dfc:	aa0403fc 	mov	x28, x4
  201e00:	17ffffe6 	b	201d98 <block_write+0xf0>

0000000000201e04 <block_read>:
  201e04:	a9b87bfd 	stp	x29, x30, [sp, #-128]!
  201e08:	910003fd 	mov	x29, sp
  201e0c:	a9046bf9 	stp	x25, x26, [sp, #64]
  201e10:	f940041a 	ldr	x26, [x0, #8]
  201e14:	a9025bf5 	stp	x21, x22, [sp, #32]
  201e18:	a90153f3 	stp	x19, x20, [sp, #16]
  201e1c:	aa0203f3 	mov	x19, x2
  201e20:	f9400359 	ldr	x25, [x26]
  201e24:	a90363f7 	stp	x23, x24, [sp, #48]
  201e28:	a90573fb 	stp	x27, x28, [sp, #80]
  201e2c:	d280001c 	mov	x28, #0x0                   	// #0
  201e30:	f9401335 	ldr	x21, [x25, #32]
  201e34:	a9068fe1 	stp	x1, x3, [sp, #104]
  201e38:	d10006b7 	sub	x23, x21, #0x1
  201e3c:	cb1503f8 	neg	x24, x21
  201e40:	b5000173 	cbnz	x19, 201e6c <block_read+0x68>
  201e44:	f9403be0 	ldr	x0, [sp, #112]
  201e48:	f900001c 	str	x28, [x0]
  201e4c:	52800000 	mov	w0, #0x0                   	// #0
  201e50:	a94153f3 	ldp	x19, x20, [sp, #16]
  201e54:	a9425bf5 	ldp	x21, x22, [sp, #32]
  201e58:	a94363f7 	ldp	x23, x24, [sp, #48]
  201e5c:	a9446bf9 	ldp	x25, x26, [sp, #64]
  201e60:	a94573fb 	ldp	x27, x28, [sp, #80]
  201e64:	a8c87bfd 	ldp	x29, x30, [sp], #128
  201e68:	d65f03c0 	ret
  201e6c:	a9408341 	ldp	x1, x0, [x26, #8]
  201e70:	f9400722 	ldr	x2, [x25, #8]
  201e74:	8a170003 	and	x3, x0, x23
  201e78:	8b010000 	add	x0, x0, x1
  201e7c:	8b030276 	add	x22, x19, x3
  201e80:	9ad50800 	udiv	x0, x0, x21
  201e84:	eb16005f 	cmp	x2, x22
  201e88:	54000063 	b.cc	201e94 <block_read+0x90>  // b.lo, b.ul, b.last
  201e8c:	8b1602e2 	add	x2, x23, x22
  201e90:	8a180042 	and	x2, x2, x24
  201e94:	f9400321 	ldr	x1, [x25]
  201e98:	f9003fe3 	str	x3, [sp, #120]
  201e9c:	f9400b26 	ldr	x6, [x25, #16]
  201ea0:	d63f00c0 	blr	x6
  201ea4:	f9403fe3 	ldr	x3, [sp, #120]
  201ea8:	eb00007f 	cmp	x3, x0
  201eac:	54000262 	b.cs	201ef8 <block_read+0xf4>  // b.hs, b.nlast
  201eb0:	cb030014 	sub	x20, x0, x3
  201eb4:	cb130282 	sub	x2, x20, x19
  201eb8:	eb14027f 	cmp	x19, x20
  201ebc:	9a9f3053 	csel	x19, x2, xzr, cc  // cc = lo, ul, last
  201ec0:	cb130294 	sub	x20, x20, x19
  201ec4:	cb000273 	sub	x19, x19, x0
  201ec8:	f9400321 	ldr	x1, [x25]
  201ecc:	aa1403e2 	mov	x2, x20
  201ed0:	f94037e0 	ldr	x0, [sp, #104]
  201ed4:	8b010061 	add	x1, x3, x1
  201ed8:	8b160273 	add	x19, x19, x22
  201edc:	8b000380 	add	x0, x28, x0
  201ee0:	94002733 	bl	20bbac <memcpy>
  201ee4:	f9400b40 	ldr	x0, [x26, #16]
  201ee8:	8b14039c 	add	x28, x28, x20
  201eec:	8b140000 	add	x0, x0, x20
  201ef0:	f9000b40 	str	x0, [x26, #16]
  201ef4:	17ffffd3 	b	201e40 <block_read+0x3c>
  201ef8:	12800080 	mov	w0, #0xfffffffb            	// #-5
  201efc:	17ffffd5 	b	201e50 <block_read+0x4c>

0000000000201f00 <block_dev_close>:
  201f00:	a9be7bfd 	stp	x29, x30, [sp, #-32]!
  201f04:	90000081 	adrp	x1, 211000 <__STACKS_START__+0x8c0>
  201f08:	910003fd 	mov	x29, sp
  201f0c:	f9000bf3 	str	x19, [sp, #16]
  201f10:	aa0003f3 	mov	x19, x0
  201f14:	f9400400 	ldr	x0, [x0, #8]
  201f18:	f944e021 	ldr	x1, [x1, #2496]
  201f1c:	f9400002 	ldr	x2, [x0]
  201f20:	eb01005f 	cmp	x2, x1
  201f24:	540001c1 	b.ne	201f5c <block_dev_close+0x5c>  // b.any
  201f28:	d2800401 	mov	x1, #0x20                  	// #32
  201f2c:	97fffd87 	bl	201548 <zeromem>
  201f30:	aa1303e0 	mov	x0, x19
  201f34:	d2800201 	mov	x1, #0x10                  	// #16
  201f38:	97fffd84 	bl	201548 <zeromem>
  201f3c:	f0000081 	adrp	x1, 214000 <list+0x2550>
  201f40:	b9478420 	ldr	w0, [x1, #1924]
  201f44:	51000400 	sub	w0, w0, #0x1
  201f48:	b9078420 	str	w0, [x1, #1924]
  201f4c:	52800000 	mov	w0, #0x0                   	// #0
  201f50:	f9400bf3 	ldr	x19, [sp, #16]
  201f54:	a8c27bfd 	ldp	x29, x30, [sp], #32
  201f58:	d65f03c0 	ret
  201f5c:	12800020 	mov	w0, #0xfffffffe            	// #-2
  201f60:	17fffffc 	b	201f50 <block_dev_close+0x50>

0000000000201f64 <block_dev_open>:
  201f64:	f0000086 	adrp	x6, 214000 <list+0x2550>
  201f68:	aa0003e4 	mov	x4, x0
  201f6c:	b94784c0 	ldr	w0, [x6, #1924]
  201f70:	34000060 	cbz	w0, 201f7c <block_dev_open+0x18>
  201f74:	12800020 	mov	w0, #0xfffffffe            	// #-2
  201f78:	d65f03c0 	ret
  201f7c:	90000083 	adrp	x3, 211000 <__STACKS_START__+0x8c0>
  201f80:	12800022 	mov	w2, #0xfffffffe            	// #-2
  201f84:	90000087 	adrp	x7, 211000 <__STACKS_START__+0x8c0>
  201f88:	9126c0e5 	add	x5, x7, #0x9b0
  201f8c:	f944e060 	ldr	x0, [x3, #2496]
  201f90:	f100001f 	cmp	x0, #0x0
  201f94:	1a8203e0 	csel	w0, wzr, w2, eq  // eq = none
  201f98:	f0000042 	adrp	x2, 20c000 <vprintf+0x2b8>
  201f9c:	91086042 	add	x2, x2, #0x218
  201fa0:	f904d8e2 	str	x2, [x7, #2480]
  201fa4:	91270062 	add	x2, x3, #0x9c0
  201fa8:	f90004a2 	str	x2, [x5, #8]
  201fac:	52800022 	mov	w2, #0x1                   	// #1
  201fb0:	b90784c2 	str	w2, [x6, #1924]
  201fb4:	35fffe00 	cbnz	w0, 201f74 <block_dev_open+0x10>
  201fb8:	f904e064 	str	x4, [x3, #2496]
  201fbc:	f9000025 	str	x5, [x1]
  201fc0:	17ffffee 	b	201f78 <block_dev_open+0x14>

0000000000201fc4 <register_io_dev_block>:
  201fc4:	a9be7bfd 	stp	x29, x30, [sp, #-32]!
  201fc8:	910003fd 	mov	x29, sp
  201fcc:	f9000bf3 	str	x19, [sp, #16]
  201fd0:	aa0003f3 	mov	x19, x0
  201fd4:	90000080 	adrp	x0, 211000 <__STACKS_START__+0x8c0>
  201fd8:	9126c000 	add	x0, x0, #0x9b0
  201fdc:	94000104 	bl	2023ec <io_register_device>
  201fe0:	35000080 	cbnz	w0, 201ff0 <register_io_dev_block+0x2c>
  201fe4:	f0000041 	adrp	x1, 20c000 <vprintf+0x2b8>
  201fe8:	91084021 	add	x1, x1, #0x210
  201fec:	f9000261 	str	x1, [x19]
  201ff0:	f9400bf3 	ldr	x19, [sp, #16]
  201ff4:	a8c27bfd 	ldp	x29, x30, [sp], #32
  201ff8:	d65f03c0 	ret

0000000000201ffc <device_type_fip>:
  201ffc:	52800060 	mov	w0, #0x3                   	// #3
  202000:	d65f03c0 	ret

0000000000202004 <fip_file_len>:
  202004:	f9400400 	ldr	x0, [x0, #8]
  202008:	f9401000 	ldr	x0, [x0, #32]
  20200c:	f9000020 	str	x0, [x1]
  202010:	52800000 	mov	w0, #0x0                   	// #0
  202014:	d65f03c0 	ret

0000000000202018 <fip_file_close>:
  202018:	a9be7bfd 	stp	x29, x30, [sp, #-32]!
  20201c:	f0000061 	adrp	x1, 211000 <__STACKS_START__+0x8c0>
  202020:	910003fd 	mov	x29, sp
  202024:	f9000bf3 	str	x19, [sp, #16]
  202028:	aa0003f3 	mov	x19, x0
  20202c:	9127c020 	add	x0, x1, #0x9f0
  202030:	f9400c01 	ldr	x1, [x0, #24]
  202034:	b4000061 	cbz	x1, 202040 <fip_file_close+0x28>
  202038:	d2800601 	mov	x1, #0x30                  	// #48
  20203c:	97fffd43 	bl	201548 <zeromem>
  202040:	f900067f 	str	xzr, [x19, #8]
  202044:	52800000 	mov	w0, #0x0                   	// #0
  202048:	f9400bf3 	ldr	x19, [sp, #16]
  20204c:	a8c27bfd 	ldp	x29, x30, [sp], #32
  202050:	d65f03c0 	ret

0000000000202054 <fip_dev_init>:
  202054:	a9bb7bfd 	stp	x29, x30, [sp, #-80]!
  202058:	aa0103e3 	mov	x3, x1
  20205c:	910003fd 	mov	x29, sp
  202060:	a90153f3 	stp	x19, x20, [sp, #16]
  202064:	f0000074 	adrp	x20, 211000 <__STACKS_START__+0x8c0>
  202068:	f0000073 	adrp	x19, 211000 <__STACKS_START__+0x8c0>
  20206c:	9127a282 	add	x2, x20, #0x9e8
  202070:	91278261 	add	x1, x19, #0x9e0
  202074:	f90013f5 	str	x21, [sp, #32]
  202078:	f9400415 	ldr	x21, [x0, #8]
  20207c:	2a0303e0 	mov	w0, w3
  202080:	94000c4d 	bl	2051b4 <plat_get_image_source>
  202084:	340000e0 	cbz	w0, 2020a0 <fip_dev_init+0x4c>
  202088:	12800033 	mov	w19, #0xfffffffe            	// #-2
  20208c:	2a1303e0 	mov	w0, w19
  202090:	a94153f3 	ldp	x19, x20, [sp, #16]
  202094:	f94013f5 	ldr	x21, [sp, #32]
  202098:	a8c57bfd 	ldp	x29, x30, [sp], #80
  20209c:	d65f03c0 	ret
  2020a0:	f944f681 	ldr	x1, [x20, #2536]
  2020a4:	9100c3e2 	add	x2, sp, #0x30
  2020a8:	f944f260 	ldr	x0, [x19, #2528]
  2020ac:	940000ee 	bl	202464 <io_open>
  2020b0:	35fffec0 	cbnz	w0, 202088 <fip_dev_init+0x34>
  2020b4:	f9401be0 	ldr	x0, [sp, #48]
  2020b8:	9100e3e3 	add	x3, sp, #0x38
  2020bc:	910103e1 	add	x1, sp, #0x40
  2020c0:	d2800202 	mov	x2, #0x10                  	// #16
  2020c4:	9400012d 	bl	202578 <io_read>
  2020c8:	2a0003f3 	mov	w19, w0
  2020cc:	35000140 	cbnz	w0, 2020f4 <fip_dev_init+0xa0>
  2020d0:	b94043e1 	ldr	w1, [sp, #64]
  2020d4:	52800020 	mov	w0, #0x1                   	// #1
  2020d8:	72b54c80 	movk	w0, #0xaa64, lsl #16
  2020dc:	6b00003f 	cmp	w1, w0
  2020e0:	54000101 	b.ne	202100 <fip_dev_init+0xac>  // b.any
  2020e4:	b94047e0 	ldr	w0, [sp, #68]
  2020e8:	340000c0 	cbz	w0, 202100 <fip_dev_init+0xac>
  2020ec:	b9404fe0 	ldr	w0, [sp, #76]
  2020f0:	790012a0 	strh	w0, [x21, #8]
  2020f4:	f9401be0 	ldr	x0, [sp, #48]
  2020f8:	94000128 	bl	202598 <io_close>
  2020fc:	17ffffe4 	b	20208c <fip_dev_init+0x38>
  202100:	12800033 	mov	w19, #0xfffffffe            	// #-2
  202104:	17fffffc 	b	2020f4 <fip_dev_init+0xa0>

0000000000202108 <fip_file_read>:
  202108:	a9bc7bfd 	stp	x29, x30, [sp, #-64]!
  20210c:	910003fd 	mov	x29, sp
  202110:	a90153f3 	stp	x19, x20, [sp, #16]
  202114:	aa0003f4 	mov	x20, x0
  202118:	f0000060 	adrp	x0, 211000 <__STACKS_START__+0x8c0>
  20211c:	aa0103f3 	mov	x19, x1
  202120:	a9025bf5 	stp	x21, x22, [sp, #32]
  202124:	aa0203f6 	mov	x22, x2
  202128:	f944f401 	ldr	x1, [x0, #2536]
  20212c:	f0000060 	adrp	x0, 211000 <__STACKS_START__+0x8c0>
  202130:	aa0303f5 	mov	x21, x3
  202134:	9100e3e2 	add	x2, sp, #0x38
  202138:	f944f000 	ldr	x0, [x0, #2528]
  20213c:	940000ca 	bl	202464 <io_open>
  202140:	350003c0 	cbnz	w0, 2021b8 <fip_file_read+0xb0>
  202144:	f9400694 	ldr	x20, [x20, #8]
  202148:	52800021 	mov	w1, #0x1                   	// #1
  20214c:	f9400e80 	ldr	x0, [x20, #24]
  202150:	b9400282 	ldr	w2, [x20]
  202154:	8b000042 	add	x2, x2, x0
  202158:	f9401fe0 	ldr	x0, [sp, #56]
  20215c:	940000f7 	bl	202538 <io_seek>
  202160:	34000120 	cbz	w0, 202184 <fip_file_read+0x7c>
  202164:	12800033 	mov	w19, #0xfffffffe            	// #-2
  202168:	f9401fe0 	ldr	x0, [sp, #56]
  20216c:	9400010b 	bl	202598 <io_close>
  202170:	2a1303e0 	mov	w0, w19
  202174:	a94153f3 	ldp	x19, x20, [sp, #16]
  202178:	a9425bf5 	ldp	x21, x22, [sp, #32]
  20217c:	a8c47bfd 	ldp	x29, x30, [sp], #64
  202180:	d65f03c0 	ret
  202184:	f9401fe0 	ldr	x0, [sp, #56]
  202188:	aa1303e1 	mov	x1, x19
  20218c:	9100c3e3 	add	x3, sp, #0x30
  202190:	aa1603e2 	mov	x2, x22
  202194:	940000f9 	bl	202578 <io_read>
  202198:	2a0003f3 	mov	w19, w0
  20219c:	35fffe40 	cbnz	w0, 202164 <fip_file_read+0x5c>
  2021a0:	f9401be1 	ldr	x1, [sp, #48]
  2021a4:	b9400280 	ldr	w0, [x20]
  2021a8:	f90002a1 	str	x1, [x21]
  2021ac:	0b010000 	add	w0, w0, w1
  2021b0:	b9000280 	str	w0, [x20]
  2021b4:	17ffffed 	b	202168 <fip_file_read+0x60>
  2021b8:	12800033 	mov	w19, #0xfffffffe            	// #-2
  2021bc:	17ffffed 	b	202170 <fip_file_read+0x68>

00000000002021c0 <fip_dev_open>:
  2021c0:	d0000086 	adrp	x6, 214000 <list+0x2550>
  2021c4:	aa0003e4 	mov	x4, x0
  2021c8:	b94788c0 	ldr	w0, [x6, #1928]
  2021cc:	34000060 	cbz	w0, 2021d8 <fip_dev_open+0x18>
  2021d0:	12800160 	mov	w0, #0xfffffff4            	// #-12
  2021d4:	d65f03c0 	ret
  2021d8:	f0000063 	adrp	x3, 211000 <__STACKS_START__+0x8c0>
  2021dc:	12800022 	mov	w2, #0xfffffffe            	// #-2
  2021e0:	f0000067 	adrp	x7, 211000 <__STACKS_START__+0x8c0>
  2021e4:	912880e5 	add	x5, x7, #0xa20
  2021e8:	f9451860 	ldr	x0, [x3, #2608]
  2021ec:	f100001f 	cmp	x0, #0x0
  2021f0:	1a8203e0 	csel	w0, wzr, w2, eq  // eq = none
  2021f4:	d0000042 	adrp	x2, 20c000 <vprintf+0x2b8>
  2021f8:	9109a042 	add	x2, x2, #0x268
  2021fc:	f90510e2 	str	x2, [x7, #2592]
  202200:	9128c062 	add	x2, x3, #0xa30
  202204:	f90004a2 	str	x2, [x5, #8]
  202208:	52800022 	mov	w2, #0x1                   	// #1
  20220c:	b90788c2 	str	w2, [x6, #1928]
  202210:	35fffe00 	cbnz	w0, 2021d0 <fip_dev_open+0x10>
  202214:	f9051864 	str	x4, [x3, #2608]
  202218:	f9000025 	str	x5, [x1]
  20221c:	17ffffee 	b	2021d4 <fip_dev_open+0x14>

0000000000202220 <fip_file_open>:
  202220:	a9bb7bfd 	stp	x29, x30, [sp, #-80]!
  202224:	910003fd 	mov	x29, sp
  202228:	a90153f3 	stp	x19, x20, [sp, #16]
  20222c:	f0000074 	adrp	x20, 211000 <__STACKS_START__+0x8c0>
  202230:	9127c294 	add	x20, x20, #0x9f0
  202234:	a9025bf5 	stp	x21, x22, [sp, #32]
  202238:	f9400e80 	ldr	x0, [x20, #24]
  20223c:	a90363f7 	stp	x23, x24, [sp, #48]
  202240:	b50005c0 	cbnz	x0, 2022f8 <fip_file_open+0xd8>
  202244:	f0000060 	adrp	x0, 211000 <__STACKS_START__+0x8c0>
  202248:	aa0103f8 	mov	x24, x1
  20224c:	aa0203f5 	mov	x21, x2
  202250:	910103e2 	add	x2, sp, #0x40
  202254:	f944f401 	ldr	x1, [x0, #2536]
  202258:	f0000060 	adrp	x0, 211000 <__STACKS_START__+0x8c0>
  20225c:	f944f000 	ldr	x0, [x0, #2528]
  202260:	94000081 	bl	202464 <io_open>
  202264:	350004e0 	cbnz	w0, 202300 <fip_file_open+0xe0>
  202268:	f94023e0 	ldr	x0, [sp, #64]
  20226c:	d2800202 	mov	x2, #0x10                  	// #16
  202270:	52800021 	mov	w1, #0x1                   	// #1
  202274:	940000b1 	bl	202538 <io_seek>
  202278:	350002e0 	cbnz	w0, 2022d4 <fip_file_open+0xb4>
  20227c:	90000077 	adrp	x23, 20e000 <mtk_pin_info_pu+0x36c>
  202280:	91002296 	add	x22, x20, #0x8
  202284:	910bd2f7 	add	x23, x23, #0x2f4
  202288:	f94023e0 	ldr	x0, [sp, #64]
  20228c:	910123e3 	add	x3, sp, #0x48
  202290:	aa1603e1 	mov	x1, x22
  202294:	d2800502 	mov	x2, #0x28                  	// #40
  202298:	940000b8 	bl	202578 <io_read>
  20229c:	2a0003f3 	mov	w19, w0
  2022a0:	350001c0 	cbnz	w0, 2022d8 <fip_file_open+0xb8>
  2022a4:	aa1803e1 	mov	x1, x24
  2022a8:	aa1603e0 	mov	x0, x22
  2022ac:	d2800202 	mov	x2, #0x10                  	// #16
  2022b0:	94002632 	bl	20bb78 <memcmp>
  2022b4:	2a0003f3 	mov	w19, w0
  2022b8:	34000280 	cbz	w0, 202308 <fip_file_open+0xe8>
  2022bc:	aa1703e1 	mov	x1, x23
  2022c0:	aa1603e0 	mov	x0, x22
  2022c4:	d2800202 	mov	x2, #0x10                  	// #16
  2022c8:	9400262c 	bl	20bb78 <memcmp>
  2022cc:	35fffde0 	cbnz	w0, 202288 <fip_file_open+0x68>
  2022d0:	f9000e9f 	str	xzr, [x20, #24]
  2022d4:	12800033 	mov	w19, #0xfffffffe            	// #-2
  2022d8:	f94023e0 	ldr	x0, [sp, #64]
  2022dc:	940000af 	bl	202598 <io_close>
  2022e0:	2a1303e0 	mov	w0, w19
  2022e4:	a94153f3 	ldp	x19, x20, [sp, #16]
  2022e8:	a9425bf5 	ldp	x21, x22, [sp, #32]
  2022ec:	a94363f7 	ldp	x23, x24, [sp, #48]
  2022f0:	a8c57bfd 	ldp	x29, x30, [sp], #80
  2022f4:	d65f03c0 	ret
  2022f8:	128002d3 	mov	w19, #0xffffffe9            	// #-23
  2022fc:	17fffff9 	b	2022e0 <fip_file_open+0xc0>
  202300:	12800033 	mov	w19, #0xfffffffe            	// #-2
  202304:	17fffff7 	b	2022e0 <fip_file_open+0xc0>
  202308:	b900029f 	str	wzr, [x20]
  20230c:	f90006b4 	str	x20, [x21, #8]
  202310:	17fffff2 	b	2022d8 <fip_file_open+0xb8>

0000000000202314 <fip_dev_close>:
  202314:	f0000061 	adrp	x1, 211000 <__STACKS_START__+0x8c0>
  202318:	f9400400 	ldr	x0, [x0, #8]
  20231c:	f904f03f 	str	xzr, [x1, #2528]
  202320:	f0000061 	adrp	x1, 211000 <__STACKS_START__+0x8c0>
  202324:	f904f43f 	str	xzr, [x1, #2536]
  202328:	f0000061 	adrp	x1, 211000 <__STACKS_START__+0x8c0>
  20232c:	f9451822 	ldr	x2, [x1, #2608]
  202330:	f9400001 	ldr	x1, [x0]
  202334:	eb01005f 	cmp	x2, x1
  202338:	54000181 	b.ne	202368 <fip_dev_close+0x54>  // b.any
  20233c:	a9bf7bfd 	stp	x29, x30, [sp, #-16]!
  202340:	d2800201 	mov	x1, #0x10                  	// #16
  202344:	910003fd 	mov	x29, sp
  202348:	97fffc80 	bl	201548 <zeromem>
  20234c:	d0000081 	adrp	x1, 214000 <list+0x2550>
  202350:	a8c17bfd 	ldp	x29, x30, [sp], #16
  202354:	b9478820 	ldr	w0, [x1, #1928]
  202358:	51000400 	sub	w0, w0, #0x1
  20235c:	b9078820 	str	w0, [x1, #1928]
  202360:	52800000 	mov	w0, #0x0                   	// #0
  202364:	d65f03c0 	ret
  202368:	12800020 	mov	w0, #0xfffffffe            	// #-2
  20236c:	d65f03c0 	ret

0000000000202370 <register_io_dev_fip>:
  202370:	a9be7bfd 	stp	x29, x30, [sp, #-32]!
  202374:	910003fd 	mov	x29, sp
  202378:	f9000bf3 	str	x19, [sp, #16]
  20237c:	aa0003f3 	mov	x19, x0
  202380:	f0000060 	adrp	x0, 211000 <__STACKS_START__+0x8c0>
  202384:	91288000 	add	x0, x0, #0xa20
  202388:	94000019 	bl	2023ec <io_register_device>
  20238c:	35000080 	cbnz	w0, 20239c <register_io_dev_fip+0x2c>
  202390:	d0000041 	adrp	x1, 20c000 <vprintf+0x2b8>
  202394:	91098021 	add	x1, x1, #0x260
  202398:	f9000261 	str	x1, [x19]
  20239c:	f9400bf3 	ldr	x19, [sp, #16]
  2023a0:	a8c27bfd 	ldp	x29, x30, [sp], #32
  2023a4:	d65f03c0 	ret

00000000002023a8 <free_entity.isra.0>:
  2023a8:	f0000062 	adrp	x2, 211000 <__STACKS_START__+0x8c0>
  2023ac:	91290042 	add	x2, x2, #0xa40
  2023b0:	d2800001 	mov	x1, #0x0                   	// #0
  2023b4:	f8617844 	ldr	x4, [x2, x1, lsl #3]
  2023b8:	2a0103e3 	mov	w3, w1
  2023bc:	eb04001f 	cmp	x0, x4
  2023c0:	540000a0 	b.eq	2023d4 <free_entity.isra.0+0x2c>  // b.none
  2023c4:	91000421 	add	x1, x1, #0x1
  2023c8:	f100103f 	cmp	x1, #0x4
  2023cc:	54ffff41 	b.ne	2023b4 <free_entity.isra.0+0xc>  // b.any
  2023d0:	d65f03c0 	ret
  2023d4:	d0000081 	adrp	x1, 214000 <list+0x2550>
  2023d8:	f823585f 	str	xzr, [x2, w3, uxtw #3]
  2023dc:	b9479020 	ldr	w0, [x1, #1936]
  2023e0:	51000400 	sub	w0, w0, #0x1
  2023e4:	b9079020 	str	w0, [x1, #1936]
  2023e8:	17fffffa 	b	2023d0 <free_entity.isra.0+0x28>

00000000002023ec <io_register_device>:
  2023ec:	d0000081 	adrp	x1, 214000 <list+0x2550>
  2023f0:	b9478c20 	ldr	w0, [x1, #1932]
  2023f4:	7100081f 	cmp	w0, #0x2
  2023f8:	540000a8 	b.hi	20240c <io_register_device+0x20>  // b.pmore
  2023fc:	11000400 	add	w0, w0, #0x1
  202400:	b9078c20 	str	w0, [x1, #1932]
  202404:	52800000 	mov	w0, #0x0                   	// #0
  202408:	d65f03c0 	ret
  20240c:	12800160 	mov	w0, #0xfffffff4            	// #-12
  202410:	17fffffe 	b	202408 <io_register_device+0x1c>

0000000000202414 <io_dev_open>:
  202414:	aa0003e3 	mov	x3, x0
  202418:	aa0103e0 	mov	x0, x1
  20241c:	aa0203e1 	mov	x1, x2
  202420:	f9400063 	ldr	x3, [x3]
  202424:	aa0303f0 	mov	x16, x3
  202428:	d61f0200 	br	x16

000000000020242c <io_dev_init>:
  20242c:	f9400002 	ldr	x2, [x0]
  202430:	f9401c42 	ldr	x2, [x2, #56]
  202434:	b4000062 	cbz	x2, 202440 <io_dev_init+0x14>
  202438:	aa0203f0 	mov	x16, x2
  20243c:	d61f0200 	br	x16
  202440:	52800000 	mov	w0, #0x0                   	// #0
  202444:	d65f03c0 	ret

0000000000202448 <io_dev_close>:
  202448:	f9400001 	ldr	x1, [x0]
  20244c:	f9402021 	ldr	x1, [x1, #64]
  202450:	b4000061 	cbz	x1, 20245c <io_dev_close+0x14>
  202454:	aa0103f0 	mov	x16, x1
  202458:	d61f0200 	br	x16
  20245c:	52800000 	mov	w0, #0x0                   	// #0
  202460:	d65f03c0 	ret

0000000000202464 <io_open>:
  202464:	a9bc7bfd 	stp	x29, x30, [sp, #-64]!
  202468:	910003fd 	mov	x29, sp
  20246c:	a90153f3 	stp	x19, x20, [sp, #16]
  202470:	aa0003f3 	mov	x19, x0
  202474:	d0000080 	adrp	x0, 214000 <list+0x2550>
  202478:	a9025bf5 	stp	x21, x22, [sp, #32]
  20247c:	b9479004 	ldr	w4, [x0, #1936]
  202480:	f9001bf7 	str	x23, [sp, #48]
  202484:	71000c9f 	cmp	w4, #0x3
  202488:	54000548 	b.hi	202530 <io_open+0xcc>  // b.pmore
  20248c:	f0000066 	adrp	x6, 211000 <__STACKS_START__+0x8c0>
  202490:	aa0203f6 	mov	x22, x2
  202494:	912900c6 	add	x6, x6, #0xa40
  202498:	aa0003e3 	mov	x3, x0
  20249c:	d2800000 	mov	x0, #0x0                   	// #0
  2024a0:	f86078c5 	ldr	x5, [x6, x0, lsl #3]
  2024a4:	2a0003e2 	mov	w2, w0
  2024a8:	b40003a5 	cbz	x5, 20251c <io_open+0xb8>
  2024ac:	91000400 	add	x0, x0, #0x1
  2024b0:	f100101f 	cmp	x0, #0x4
  2024b4:	54ffff61 	b.ne	2024a0 <io_open+0x3c>  // b.any
  2024b8:	52800002 	mov	w2, #0x0                   	// #0
  2024bc:	12800025 	mov	w5, #0xfffffffe            	// #-2
  2024c0:	d37c7c57 	ubfiz	x23, x2, #4, #32
  2024c4:	f0000075 	adrp	x21, 211000 <__STACKS_START__+0x8c0>
  2024c8:	912982b5 	add	x21, x21, #0xa60
  2024cc:	11000484 	add	w4, w4, #0x1
  2024d0:	8b1702b4 	add	x20, x21, x23
  2024d4:	b9079064 	str	w4, [x3, #1936]
  2024d8:	f82258d4 	str	x20, [x6, w2, uxtw #3]
  2024dc:	35000145 	cbnz	w5, 202504 <io_open+0xa0>
  2024e0:	f9400260 	ldr	x0, [x19]
  2024e4:	aa1403e2 	mov	x2, x20
  2024e8:	f9400403 	ldr	x3, [x0, #8]
  2024ec:	aa1303e0 	mov	x0, x19
  2024f0:	d63f0060 	blr	x3
  2024f4:	2a0003e5 	mov	w5, w0
  2024f8:	35000160 	cbnz	w0, 202524 <io_open+0xc0>
  2024fc:	f8376ab3 	str	x19, [x21, x23]
  202500:	f90002d4 	str	x20, [x22]
  202504:	2a0503e0 	mov	w0, w5
  202508:	a94153f3 	ldp	x19, x20, [sp, #16]
  20250c:	a9425bf5 	ldp	x21, x22, [sp, #32]
  202510:	f9401bf7 	ldr	x23, [sp, #48]
  202514:	a8c47bfd 	ldp	x29, x30, [sp], #64
  202518:	d65f03c0 	ret
  20251c:	52800005 	mov	w5, #0x0                   	// #0
  202520:	17ffffe8 	b	2024c0 <io_open+0x5c>
  202524:	aa1403e0 	mov	x0, x20
  202528:	97ffffa0 	bl	2023a8 <free_entity.isra.0>
  20252c:	17fffff6 	b	202504 <io_open+0xa0>
  202530:	12800165 	mov	w5, #0xfffffff4            	// #-12
  202534:	17fffff4 	b	202504 <io_open+0xa0>

0000000000202538 <io_seek>:
  202538:	f9400003 	ldr	x3, [x0]
  20253c:	f9400063 	ldr	x3, [x3]
  202540:	f9400863 	ldr	x3, [x3, #16]
  202544:	b4000063 	cbz	x3, 202550 <io_seek+0x18>
  202548:	aa0303f0 	mov	x16, x3
  20254c:	d61f0200 	br	x16
  202550:	12800240 	mov	w0, #0xffffffed            	// #-19
  202554:	d65f03c0 	ret

0000000000202558 <io_size>:
  202558:	f9400002 	ldr	x2, [x0]
  20255c:	f9400042 	ldr	x2, [x2]
  202560:	f9400c42 	ldr	x2, [x2, #24]
  202564:	b4000062 	cbz	x2, 202570 <io_size+0x18>
  202568:	aa0203f0 	mov	x16, x2
  20256c:	d61f0200 	br	x16
  202570:	12800240 	mov	w0, #0xffffffed            	// #-19
  202574:	d65f03c0 	ret

0000000000202578 <io_read>:
  202578:	f9400004 	ldr	x4, [x0]
  20257c:	f9400084 	ldr	x4, [x4]
  202580:	f9401084 	ldr	x4, [x4, #32]
  202584:	b4000064 	cbz	x4, 202590 <io_read+0x18>
  202588:	aa0403f0 	mov	x16, x4
  20258c:	d61f0200 	br	x16
  202590:	12800240 	mov	w0, #0xffffffed            	// #-19
  202594:	d65f03c0 	ret

0000000000202598 <io_close>:
  202598:	a9be7bfd 	stp	x29, x30, [sp, #-32]!
  20259c:	910003fd 	mov	x29, sp
  2025a0:	f9400001 	ldr	x1, [x0]
  2025a4:	f9400021 	ldr	x1, [x1]
  2025a8:	f9401821 	ldr	x1, [x1, #48]
  2025ac:	f9000bf3 	str	x19, [sp, #16]
  2025b0:	aa0003f3 	mov	x19, x0
  2025b4:	b4000121 	cbz	x1, 2025d8 <io_close+0x40>
  2025b8:	d63f0020 	blr	x1
  2025bc:	2a0003e5 	mov	w5, w0
  2025c0:	aa1303e0 	mov	x0, x19
  2025c4:	97ffff79 	bl	2023a8 <free_entity.isra.0>
  2025c8:	2a0503e0 	mov	w0, w5
  2025cc:	f9400bf3 	ldr	x19, [sp, #16]
  2025d0:	a8c27bfd 	ldp	x29, x30, [sp], #32
  2025d4:	d65f03c0 	ret
  2025d8:	52800005 	mov	w5, #0x0                   	// #0
  2025dc:	17fffff9 	b	2025c0 <io_close+0x28>

00000000002025e0 <mmc_send_cmd>:
  2025e0:	a9bb7bfd 	stp	x29, x30, [sp, #-80]!
  2025e4:	910003fd 	mov	x29, sp
  2025e8:	a90153f3 	stp	x19, x20, [sp, #16]
  2025ec:	2a0103f4 	mov	w20, w1
  2025f0:	aa0303f3 	mov	x19, x3
  2025f4:	d2800381 	mov	x1, #0x1c                  	// #28
  2025f8:	a9025bf5 	stp	x21, x22, [sp, #32]
  2025fc:	2a0203f5 	mov	w21, w2
  202600:	2a0003f6 	mov	w22, w0
  202604:	9100c3e0 	add	x0, sp, #0x30
  202608:	97fffbd0 	bl	201548 <zeromem>
  20260c:	290653f6 	stp	w22, w20, [sp, #48]
  202610:	f0000074 	adrp	x20, 211000 <__STACKS_START__+0x8c0>
  202614:	b9003bf5 	str	w21, [sp, #56]
  202618:	f9455680 	ldr	x0, [x20, #2728]
  20261c:	f9400401 	ldr	x1, [x0, #8]
  202620:	9100c3e0 	add	x0, sp, #0x30
  202624:	d63f0020 	blr	x1
  202628:	7100001f 	cmp	w0, #0x0
  20262c:	fa400a64 	ccmp	x19, #0x0, #0x4, eq  // eq = none
  202630:	54000120 	b.eq	202654 <mmc_send_cmd+0x74>  // b.none
  202634:	b9403fe1 	ldr	w1, [sp, #60]
  202638:	b9000261 	str	w1, [x19]
  20263c:	b94043e1 	ldr	w1, [sp, #64]
  202640:	b9000661 	str	w1, [x19, #4]
  202644:	b94047e1 	ldr	w1, [sp, #68]
  202648:	b9000a61 	str	w1, [x19, #8]
  20264c:	b9404be1 	ldr	w1, [sp, #72]
  202650:	b9000e61 	str	w1, [x19, #12]
  202654:	710076bf 	cmp	w21, #0x1d
  202658:	54000301 	b.ne	2026b8 <mmc_send_cmd+0xd8>  // b.any
  20265c:	f9455680 	ldr	x0, [x20, #2728]
  202660:	f9401800 	ldr	x0, [x0, #48]
  202664:	b4000320 	cbz	x0, 2026c8 <mmc_send_cmd+0xe8>
  202668:	d53be013 	mrs	x19, cntfrq_el0
  20266c:	d53be020 	mrs	x0, cntpct_el0
  202670:	d2820001 	mov	x1, #0x1000                	// #4096
  202674:	f2a004e1 	movk	x1, #0x27, lsl #16
  202678:	9b017e73 	mul	x19, x19, x1
  20267c:	d2884801 	mov	x1, #0x4240                	// #16960
  202680:	f2a001e1 	movk	x1, #0xf, lsl #16
  202684:	9ac10a73 	udiv	x19, x19, x1
  202688:	8b000273 	add	x19, x19, x0
  20268c:	d53be020 	mrs	x0, cntpct_el0
  202690:	eb13001f 	cmp	x0, x19
  202694:	54000069 	b.ls	2026a0 <mmc_send_cmd+0xc0>  // b.plast
  202698:	12800760 	mov	w0, #0xffffffc4            	// #-60
  20269c:	14000007 	b	2026b8 <mmc_send_cmd+0xd8>
  2026a0:	f9455680 	ldr	x0, [x20, #2728]
  2026a4:	f9401800 	ldr	x0, [x0, #48]
  2026a8:	d63f0000 	blr	x0
  2026ac:	7100001f 	cmp	w0, #0x0
  2026b0:	5400004b 	b.lt	2026b8 <mmc_send_cmd+0xd8>  // b.tstop
  2026b4:	54fffec1 	b.ne	20268c <mmc_send_cmd+0xac>  // b.any
  2026b8:	a94153f3 	ldp	x19, x20, [sp, #16]
  2026bc:	a9425bf5 	ldp	x21, x22, [sp, #32]
  2026c0:	a8c57bfd 	ldp	x29, x30, [sp], #80
  2026c4:	d65f03c0 	ret
  2026c8:	12800580 	mov	w0, #0xffffffd3            	// #-45
  2026cc:	17fffffb 	b	2026b8 <mmc_send_cmd+0xd8>

00000000002026d0 <mmc_device_state>:
  2026d0:	a9bd7bfd 	stp	x29, x30, [sp, #-48]!
  2026d4:	910003fd 	mov	x29, sp
  2026d8:	a90153f3 	stp	x19, x20, [sp, #16]
  2026dc:	d0000094 	adrp	x20, 214000 <list+0x2550>
  2026e0:	911eb294 	add	x20, x20, #0x7ac
  2026e4:	52800093 	mov	w19, #0x4                   	// #4
  2026e8:	b9400281 	ldr	w1, [x20]
  2026ec:	528001a2 	mov	w2, #0xd                   	// #13
  2026f0:	910083e3 	add	x3, sp, #0x20
  2026f4:	2a0203e0 	mov	w0, w2
  2026f8:	53103c21 	lsl	w1, w1, #16
  2026fc:	97ffffb9 	bl	2025e0 <mmc_send_cmd>
  202700:	b94023e1 	ldr	w1, [sp, #32]
  202704:	35000040 	cbnz	w0, 20270c <mmc_device_state+0x3c>
  202708:	373801a1 	tbnz	w1, #7, 20273c <mmc_device_state+0x6c>
  20270c:	364000a1 	tbz	w1, #8, 202720 <mmc_device_state+0x50>
  202710:	d3493020 	ubfx	x0, x1, #9, #4
  202714:	a94153f3 	ldp	x19, x20, [sp, #16]
  202718:	a8c37bfd 	ldp	x29, x30, [sp], #48
  20271c:	d65f03c0 	ret
  202720:	51000673 	sub	w19, w19, #0x1
  202724:	3100067f 	cmn	w19, #0x1
  202728:	54fffe01 	b.ne	2026e8 <mmc_device_state+0x18>  // b.any
  20272c:	90000060 	adrp	x0, 20e000 <mtk_pin_info_pu+0x36c>
  202730:	528000a1 	mov	w1, #0x5                   	// #5
  202734:	910c1000 	add	x0, x0, #0x304
  202738:	94001174 	bl	206d08 <tf_log>
  20273c:	12800080 	mov	w0, #0xfffffffb            	// #-5
  202740:	17fffff5 	b	202714 <mmc_device_state+0x44>

0000000000202744 <sd_switch.constprop.0>:
  202744:	a9bd7bfd 	stp	x29, x30, [sp, #-48]!
  202748:	d2800802 	mov	x2, #0x40                  	// #64
  20274c:	910003fd 	mov	x29, sp
  202750:	f90013f5 	str	x21, [sp, #32]
  202754:	f0000075 	adrp	x21, 211000 <__STACKS_START__+0x8c0>
  202758:	a90153f3 	stp	x19, x20, [sp, #16]
  20275c:	2a0003f4 	mov	w20, w0
  202760:	d0000093 	adrp	x19, 214000 <list+0x2550>
  202764:	f94556a0 	ldr	x0, [x21, #2728]
  202768:	9130d273 	add	x19, x19, #0xc34
  20276c:	aa1303e1 	mov	x1, x19
  202770:	f9400c03 	ldr	x3, [x0, #24]
  202774:	52800000 	mov	w0, #0x0                   	// #0
  202778:	d63f0060 	blr	x3
  20277c:	35000260 	cbnz	w0, 2027c8 <sd_switch.constprop.0+0x84>
  202780:	528001a2 	mov	w2, #0xd                   	// #13
  202784:	529ffe21 	mov	w1, #0xfff1                	// #65521
  202788:	d2800003 	mov	x3, #0x0                   	// #0
  20278c:	72a01fe1 	movk	w1, #0xff, lsl #16
  202790:	528000c0 	mov	w0, #0x6                   	// #6
  202794:	2a010281 	orr	w1, w20, w1
  202798:	97ffff92 	bl	2025e0 <mmc_send_cmd>
  20279c:	2a0003e2 	mov	w2, w0
  2027a0:	35000160 	cbnz	w0, 2027cc <sd_switch.constprop.0+0x88>
  2027a4:	f94556a1 	ldr	x1, [x21, #2728]
  2027a8:	d2800802 	mov	x2, #0x40                  	// #64
  2027ac:	f94013f5 	ldr	x21, [sp, #32]
  2027b0:	f9401023 	ldr	x3, [x1, #32]
  2027b4:	aa1303e1 	mov	x1, x19
  2027b8:	a94153f3 	ldp	x19, x20, [sp, #16]
  2027bc:	aa0303f0 	mov	x16, x3
  2027c0:	a8c37bfd 	ldp	x29, x30, [sp], #48
  2027c4:	d61f0200 	br	x16
  2027c8:	2a0003e2 	mov	w2, w0
  2027cc:	2a0203e0 	mov	w0, w2
  2027d0:	a94153f3 	ldp	x19, x20, [sp, #16]
  2027d4:	f94013f5 	ldr	x21, [sp, #32]
  2027d8:	a8c37bfd 	ldp	x29, x30, [sp], #48
  2027dc:	d65f03c0 	ret

00000000002027e0 <mmc_read_blocks>:
  2027e0:	a9bc7bfd 	stp	x29, x30, [sp, #-64]!
  2027e4:	910003fd 	mov	x29, sp
  2027e8:	a9025bf5 	stp	x21, x22, [sp, #32]
  2027ec:	f0000076 	adrp	x22, 211000 <__STACKS_START__+0x8c0>
  2027f0:	f94556c3 	ldr	x3, [x22, #2728]
  2027f4:	a90153f3 	stp	x19, x20, [sp, #16]
  2027f8:	2a0003f4 	mov	w20, w0
  2027fc:	aa0203f3 	mov	x19, x2
  202800:	f9400c63 	ldr	x3, [x3, #24]
  202804:	f9001bf7 	str	x23, [sp, #48]
  202808:	aa0103f7 	mov	x23, x1
  20280c:	d63f0060 	blr	x3
  202810:	34000100 	cbz	w0, 202830 <mmc_read_blocks+0x50>
  202814:	d2800013 	mov	x19, #0x0                   	// #0
  202818:	aa1303e0 	mov	x0, x19
  20281c:	a94153f3 	ldp	x19, x20, [sp, #16]
  202820:	a9425bf5 	ldp	x21, x22, [sp, #32]
  202824:	f9401bf7 	ldr	x23, [sp, #48]
  202828:	a8c47bfd 	ldp	x29, x30, [sp], #64
  20282c:	d65f03c0 	ret
  202830:	d0000080 	adrp	x0, 214000 <list+0x2550>
  202834:	aa0003f5 	mov	x21, x0
  202838:	b947a401 	ldr	w1, [x0, #1956]
  20283c:	360005c1 	tbz	w1, #0, 2028f4 <mmc_read_blocks+0x114>
  202840:	d349a261 	ubfx	x1, x19, #9, #32
  202844:	d2800003 	mov	x3, #0x0                   	// #0
  202848:	528001a2 	mov	w2, #0xd                   	// #13
  20284c:	528002e0 	mov	w0, #0x17                  	// #23
  202850:	97ffff64 	bl	2025e0 <mmc_send_cmd>
  202854:	35fffe00 	cbnz	w0, 202814 <mmc_read_blocks+0x34>
  202858:	52800240 	mov	w0, #0x12                  	// #18
  20285c:	d0000082 	adrp	x2, 214000 <list+0x2550>
  202860:	2a1403e1 	mov	w1, w20
  202864:	b947a842 	ldr	w2, [x2, #1960]
  202868:	7203045f 	tst	w2, #0x60000000
  20286c:	540000e1 	b.ne	202888 <mmc_read_blocks+0xa8>  // b.any
  202870:	f0000062 	adrp	x2, 211000 <__STACKS_START__+0x8c0>
  202874:	f9455042 	ldr	x2, [x2, #2720]
  202878:	b9401442 	ldr	w2, [x2, #20]
  20287c:	7100085f 	cmp	w2, #0x2
  202880:	54000040 	b.eq	202888 <mmc_read_blocks+0xa8>  // b.none
  202884:	53175a81 	lsl	w1, w20, #9
  202888:	d2800003 	mov	x3, #0x0                   	// #0
  20288c:	528001a2 	mov	w2, #0xd                   	// #13
  202890:	97ffff54 	bl	2025e0 <mmc_send_cmd>
  202894:	35fffc00 	cbnz	w0, 202814 <mmc_read_blocks+0x34>
  202898:	f94556c0 	ldr	x0, [x22, #2728]
  20289c:	aa1303e2 	mov	x2, x19
  2028a0:	aa1703e1 	mov	x1, x23
  2028a4:	f9401003 	ldr	x3, [x0, #32]
  2028a8:	2a1403e0 	mov	w0, w20
  2028ac:	d63f0060 	blr	x3
  2028b0:	35fffb20 	cbnz	w0, 202814 <mmc_read_blocks+0x34>
  2028b4:	97ffff87 	bl	2026d0 <mmc_device_state>
  2028b8:	37fffae0 	tbnz	w0, #31, 202814 <mmc_read_blocks+0x34>
  2028bc:	51001000 	sub	w0, w0, #0x4
  2028c0:	7100041f 	cmp	w0, #0x1
  2028c4:	54ffff88 	b.hi	2028b4 <mmc_read_blocks+0xd4>  // b.pmore
  2028c8:	b947a6a0 	ldr	w0, [x21, #1956]
  2028cc:	3707fa60 	tbnz	w0, #0, 202818 <mmc_read_blocks+0x38>
  2028d0:	f108027f 	cmp	x19, #0x200
  2028d4:	54fffa29 	b.ls	202818 <mmc_read_blocks+0x38>  // b.plast
  2028d8:	d2800003 	mov	x3, #0x0                   	// #0
  2028dc:	528003a2 	mov	w2, #0x1d                  	// #29
  2028e0:	52800001 	mov	w1, #0x0                   	// #0
  2028e4:	52800180 	mov	w0, #0xc                   	// #12
  2028e8:	97ffff3e 	bl	2025e0 <mmc_send_cmd>
  2028ec:	34fff960 	cbz	w0, 202818 <mmc_read_blocks+0x38>
  2028f0:	17ffffc9 	b	202814 <mmc_read_blocks+0x34>
  2028f4:	f108027f 	cmp	x19, #0x200
  2028f8:	54fffb08 	b.hi	202858 <mmc_read_blocks+0x78>  // b.pmore
  2028fc:	52800220 	mov	w0, #0x11                  	// #17
  202900:	17ffffd7 	b	20285c <mmc_read_blocks+0x7c>

0000000000202904 <mmc_init>:
  202904:	a9b77bfd 	stp	x29, x30, [sp, #-144]!
  202908:	910003fd 	mov	x29, sp
  20290c:	a9025bf5 	stp	x21, x22, [sp, #32]
  202910:	f0000075 	adrp	x21, 211000 <__STACKS_START__+0x8c0>
  202914:	2a0203f6 	mov	w22, w2
  202918:	f90556a0 	str	x0, [x21, #2728]
  20291c:	f9400000 	ldr	x0, [x0]
  202920:	a90153f3 	stp	x19, x20, [sp, #16]
  202924:	f0000073 	adrp	x19, 211000 <__STACKS_START__+0x8c0>
  202928:	a90363f7 	stp	x23, x24, [sp, #48]
  20292c:	a9046bf9 	stp	x25, x26, [sp, #64]
  202930:	d0000099 	adrp	x25, 214000 <list+0x2550>
  202934:	a90573fb 	stp	x27, x28, [sp, #80]
  202938:	b907a723 	str	w3, [x25, #1956]
  20293c:	f9055264 	str	x4, [x19, #2720]
  202940:	b9006be1 	str	w1, [sp, #104]
  202944:	d63f0000 	blr	x0
  202948:	d2800003 	mov	x3, #0x0                   	// #0
  20294c:	52800002 	mov	w2, #0x0                   	// #0
  202950:	52800001 	mov	w1, #0x0                   	// #0
  202954:	52800000 	mov	w0, #0x0                   	// #0
  202958:	97ffff22 	bl	2025e0 <mmc_send_cmd>
  20295c:	2a0003f8 	mov	w24, w0
  202960:	35000ec0 	cbnz	w0, 202b38 <mmc_init+0x234>
  202964:	52800040 	mov	w0, #0x2                   	// #2
  202968:	97fffc93 	bl	201bb4 <mdelay>
  20296c:	f9455260 	ldr	x0, [x19, #2720]
  202970:	b9401400 	ldr	w0, [x0, #20]
  202974:	35000f20 	cbnz	w0, 202b58 <mmc_init+0x254>
  202978:	52901017 	mov	w23, #0x8080                	// #32896
  20297c:	52800c94 	mov	w20, #0x64                  	// #100
  202980:	72a81ff7 	movk	w23, #0x40ff, lsl #16
  202984:	52800022 	mov	w2, #0x1                   	// #1
  202988:	910203e3 	add	x3, sp, #0x80
  20298c:	2a1703e1 	mov	w1, w23
  202990:	2a0203e0 	mov	w0, w2
  202994:	97ffff13 	bl	2025e0 <mmc_send_cmd>
  202998:	2a0003f8 	mov	w24, w0
  20299c:	35000ce0 	cbnz	w0, 202b38 <mmc_init+0x234>
  2029a0:	b94083e0 	ldr	w0, [sp, #128]
  2029a4:	36f80b80 	tbz	w0, #31, 202b14 <mmc_init+0x210>
  2029a8:	d0000081 	adrp	x1, 214000 <list+0x2550>
  2029ac:	b907a820 	str	w0, [x1, #1960]
  2029b0:	d2800003 	mov	x3, #0x0                   	// #0
  2029b4:	528000e2 	mov	w2, #0x7                   	// #7
  2029b8:	52800001 	mov	w1, #0x0                   	// #0
  2029bc:	52800040 	mov	w0, #0x2                   	// #2
  2029c0:	97ffff08 	bl	2025e0 <mmc_send_cmd>
  2029c4:	2a0003f8 	mov	w24, w0
  2029c8:	35000b80 	cbnz	w0, 202b38 <mmc_init+0x234>
  2029cc:	f9455260 	ldr	x0, [x19, #2720]
  2029d0:	b9401400 	ldr	w0, [x0, #20]
  2029d4:	350011e0 	cbnz	w0, 202c10 <mmc_init+0x30c>
  2029d8:	d0000080 	adrp	x0, 214000 <list+0x2550>
  2029dc:	528000c1 	mov	w1, #0x6                   	// #6
  2029e0:	d2800003 	mov	x3, #0x0                   	// #0
  2029e4:	528001a2 	mov	w2, #0xd                   	// #13
  2029e8:	b907ac01 	str	w1, [x0, #1964]
  2029ec:	52a000c1 	mov	w1, #0x60000               	// #393216
  2029f0:	52800060 	mov	w0, #0x3                   	// #3
  2029f4:	97fffefb 	bl	2025e0 <mmc_send_cmd>
  2029f8:	2a0003f8 	mov	w24, w0
  2029fc:	350009e0 	cbnz	w0, 202b38 <mmc_init+0x234>
  202a00:	d0000097 	adrp	x23, 214000 <list+0x2550>
  202a04:	9101c3e3 	add	x3, sp, #0x70
  202a08:	528000e2 	mov	w2, #0x7                   	// #7
  202a0c:	52800120 	mov	w0, #0x9                   	// #9
  202a10:	b947aee1 	ldr	w1, [x23, #1964]
  202a14:	53103c21 	lsl	w1, w1, #16
  202a18:	97fffef2 	bl	2025e0 <mmc_send_cmd>
  202a1c:	2a0003f8 	mov	w24, w0
  202a20:	350008c0 	cbnz	w0, 202b38 <mmc_init+0x234>
  202a24:	d0000094 	adrp	x20, 214000 <list+0x2550>
  202a28:	911e5294 	add	x20, x20, #0x794
  202a2c:	9101c3e1 	add	x1, sp, #0x70
  202a30:	d2800202 	mov	x2, #0x10                  	// #16
  202a34:	aa1403e0 	mov	x0, x20
  202a38:	9400245d 	bl	20bbac <memcpy>
  202a3c:	b947aee1 	ldr	w1, [x23, #1964]
  202a40:	d2800003 	mov	x3, #0x0                   	// #0
  202a44:	528001a2 	mov	w2, #0xd                   	// #13
  202a48:	528000e0 	mov	w0, #0x7                   	// #7
  202a4c:	53103c21 	lsl	w1, w1, #16
  202a50:	97fffee4 	bl	2025e0 <mmc_send_cmd>
  202a54:	2a0003f8 	mov	w24, w0
  202a58:	35000700 	cbnz	w0, 202b38 <mmc_init+0x234>
  202a5c:	97ffff1d 	bl	2026d0 <mmc_device_state>
  202a60:	2a0003f8 	mov	w24, w0
  202a64:	37f806a0 	tbnz	w0, #31, 202b38 <mmc_init+0x234>
  202a68:	7100101f 	cmp	w0, #0x4
  202a6c:	54ffff81 	b.ne	202a5c <mmc_init+0x158>  // b.any
  202a70:	f9455260 	ldr	x0, [x19, #2720]
  202a74:	b9401400 	ldr	w0, [x0, #20]
  202a78:	34001da0 	cbz	w0, 202e2c <mmc_init+0x528>
  202a7c:	f94556a0 	ldr	x0, [x21, #2728]
  202a80:	71000adf 	cmp	w22, #0x2
  202a84:	f000007a 	adrp	x26, 211000 <__STACKS_START__+0x8c0>
  202a88:	9125035c 	add	x28, x26, #0x940
  202a8c:	1a9f16db 	csinc	w27, w22, wzr, ne  // ne = any
  202a90:	aa1c03e1 	mov	x1, x28
  202a94:	f9400c03 	ldr	x3, [x0, #24]
  202a98:	d2800102 	mov	x2, #0x8                   	// #8
  202a9c:	52800000 	mov	w0, #0x0                   	// #0
  202aa0:	d63f0060 	blr	x3
  202aa4:	2a0003f8 	mov	w24, w0
  202aa8:	35000480 	cbnz	w0, 202b38 <mmc_init+0x234>
  202aac:	b947aee1 	ldr	w1, [x23, #1964]
  202ab0:	d2800003 	mov	x3, #0x0                   	// #0
  202ab4:	528001a2 	mov	w2, #0xd                   	// #13
  202ab8:	528006e0 	mov	w0, #0x37                  	// #55
  202abc:	53103c21 	lsl	w1, w1, #16
  202ac0:	97fffec8 	bl	2025e0 <mmc_send_cmd>
  202ac4:	2a0003f8 	mov	w24, w0
  202ac8:	35000380 	cbnz	w0, 202b38 <mmc_init+0x234>
  202acc:	528000a5 	mov	w5, #0x5                   	// #5
  202ad0:	d2800003 	mov	x3, #0x0                   	// #0
  202ad4:	528001a2 	mov	w2, #0xd                   	// #13
  202ad8:	52800001 	mov	w1, #0x0                   	// #0
  202adc:	52800660 	mov	w0, #0x33                  	// #51
  202ae0:	b9006fe5 	str	w5, [sp, #108]
  202ae4:	97fffebf 	bl	2025e0 <mmc_send_cmd>
  202ae8:	b9406fe5 	ldr	w5, [sp, #108]
  202aec:	7100001f 	cmp	w0, #0x0
  202af0:	2a0003f8 	mov	w24, w0
  202af4:	7a4018a0 	ccmp	w5, #0x0, #0x0, ne  // ne = any
  202af8:	54000a21 	b.ne	202c3c <mmc_init+0x338>  // b.any
  202afc:	2a0003e2 	mov	w2, w0
  202b00:	528000a1 	mov	w1, #0x5                   	// #5
  202b04:	90000060 	adrp	x0, 20e000 <mtk_pin_info_pu+0x36c>
  202b08:	910d9000 	add	x0, x0, #0x364
  202b0c:	9400107f 	bl	206d08 <tf_log>
  202b10:	1400000a 	b	202b38 <mmc_init+0x234>
  202b14:	52800140 	mov	w0, #0xa                   	// #10
  202b18:	97fffc27 	bl	201bb4 <mdelay>
  202b1c:	71000694 	subs	w20, w20, #0x1
  202b20:	54fff321 	b.ne	202984 <mmc_init+0x80>  // b.any
  202b24:	90000060 	adrp	x0, 20e000 <mtk_pin_info_pu+0x36c>
  202b28:	910c9000 	add	x0, x0, #0x324
  202b2c:	52800c81 	mov	w1, #0x64                  	// #100
  202b30:	12800098 	mov	w24, #0xfffffffb            	// #-5
  202b34:	94001075 	bl	206d08 <tf_log>
  202b38:	2a1803e0 	mov	w0, w24
  202b3c:	a94153f3 	ldp	x19, x20, [sp, #16]
  202b40:	a9425bf5 	ldp	x21, x22, [sp, #32]
  202b44:	a94363f7 	ldp	x23, x24, [sp, #48]
  202b48:	a9446bf9 	ldp	x25, x26, [sp, #64]
  202b4c:	a94573fb 	ldp	x27, x28, [sp, #80]
  202b50:	a8c97bfd 	ldp	x29, x30, [sp], #144
  202b54:	d65f03c0 	ret
  202b58:	9101c3e3 	add	x3, sp, #0x70
  202b5c:	528001a2 	mov	w2, #0xd                   	// #13
  202b60:	52803541 	mov	w1, #0x1aa                 	// #426
  202b64:	52800100 	mov	w0, #0x8                   	// #8
  202b68:	97fffe9e 	bl	2025e0 <mmc_send_cmd>
  202b6c:	2a0003f8 	mov	w24, w0
  202b70:	35fffe40 	cbnz	w0, 202b38 <mmc_init+0x234>
  202b74:	3941c3e0 	ldrb	w0, [sp, #112]
  202b78:	7102a81f 	cmp	w0, #0xaa
  202b7c:	54fff1a1 	b.ne	2029b0 <mmc_init+0xac>  // b.any
  202b80:	52800c94 	mov	w20, #0x64                  	// #100
  202b84:	d2800003 	mov	x3, #0x0                   	// #0
  202b88:	528001a2 	mov	w2, #0xd                   	// #13
  202b8c:	52800001 	mov	w1, #0x0                   	// #0
  202b90:	528006e0 	mov	w0, #0x37                  	// #55
  202b94:	97fffe93 	bl	2025e0 <mmc_send_cmd>
  202b98:	2a0003f8 	mov	w24, w0
  202b9c:	35fffce0 	cbnz	w0, 202b38 <mmc_init+0x234>
  202ba0:	f9455260 	ldr	x0, [x19, #2720]
  202ba4:	910203e3 	add	x3, sp, #0x80
  202ba8:	52800022 	mov	w2, #0x1                   	// #1
  202bac:	912a8277 	add	x23, x19, #0xaa0
  202bb0:	b9401001 	ldr	w1, [x0, #16]
  202bb4:	52800520 	mov	w0, #0x29                  	// #41
  202bb8:	32020021 	orr	w1, w1, #0x40000000
  202bbc:	97fffe89 	bl	2025e0 <mmc_send_cmd>
  202bc0:	2a0003f8 	mov	w24, w0
  202bc4:	35fffba0 	cbnz	w0, 202b38 <mmc_init+0x234>
  202bc8:	b94083e0 	ldr	w0, [sp, #128]
  202bcc:	36f80120 	tbz	w0, #31, 202bf0 <mmc_init+0x2ec>
  202bd0:	d0000081 	adrp	x1, 214000 <list+0x2550>
  202bd4:	f262001f 	tst	x0, #0x40000000
  202bd8:	b907a820 	str	w0, [x1, #1960]
  202bdc:	52800040 	mov	w0, #0x2                   	// #2
  202be0:	f94002e1 	ldr	x1, [x23]
  202be4:	1a9f1400 	csinc	w0, w0, wzr, ne  // ne = any
  202be8:	b9001420 	str	w0, [x1, #20]
  202bec:	17ffff71 	b	2029b0 <mmc_init+0xac>
  202bf0:	52800140 	mov	w0, #0xa                   	// #10
  202bf4:	97fffbf0 	bl	201bb4 <mdelay>
  202bf8:	71000694 	subs	w20, w20, #0x1
  202bfc:	54fffc41 	b.ne	202b84 <mmc_init+0x280>  // b.any
  202c00:	90000060 	adrp	x0, 20e000 <mtk_pin_info_pu+0x36c>
  202c04:	52800c81 	mov	w1, #0x64                  	// #100
  202c08:	910d0c00 	add	x0, x0, #0x343
  202c0c:	17ffffc9 	b	202b30 <mmc_init+0x22c>
  202c10:	9101c3e3 	add	x3, sp, #0x70
  202c14:	528001a2 	mov	w2, #0xd                   	// #13
  202c18:	52800001 	mov	w1, #0x0                   	// #0
  202c1c:	52800060 	mov	w0, #0x3                   	// #3
  202c20:	97fffe70 	bl	2025e0 <mmc_send_cmd>
  202c24:	2a0003f8 	mov	w24, w0
  202c28:	35fff880 	cbnz	w0, 202b38 <mmc_init+0x234>
  202c2c:	d0000080 	adrp	x0, 214000 <list+0x2550>
  202c30:	7940e7e1 	ldrh	w1, [sp, #114]
  202c34:	b907ac01 	str	w1, [x0, #1964]
  202c38:	17ffff72 	b	202a00 <mmc_init+0xfc>
  202c3c:	510004a5 	sub	w5, w5, #0x1
  202c40:	35fff480 	cbnz	w0, 202ad0 <mmc_init+0x1cc>
  202c44:	f94556a1 	ldr	x1, [x21, #2728]
  202c48:	d2800102 	mov	x2, #0x8                   	// #8
  202c4c:	f9401023 	ldr	x3, [x1, #32]
  202c50:	aa1c03e1 	mov	x1, x28
  202c54:	d63f0060 	blr	x3
  202c58:	2a0003f8 	mov	w24, w0
  202c5c:	35fff6e0 	cbnz	w0, 202b38 <mmc_init+0x234>
  202c60:	b9494340 	ldr	w0, [x26, #2368]
  202c64:	1216001a 	and	w26, w0, #0x400
  202c68:	36500080 	tbz	w0, #10, 202c78 <mmc_init+0x374>
  202c6c:	7100077f 	cmp	w27, #0x1
  202c70:	1a9f17fa 	cset	w26, eq  // eq = none
  202c74:	531f7b5a 	lsl	w26, w26, #1
  202c78:	b947aee1 	ldr	w1, [x23, #1964]
  202c7c:	d2800003 	mov	x3, #0x0                   	// #0
  202c80:	528001a2 	mov	w2, #0xd                   	// #13
  202c84:	528006e0 	mov	w0, #0x37                  	// #55
  202c88:	53103c21 	lsl	w1, w1, #16
  202c8c:	97fffe55 	bl	2025e0 <mmc_send_cmd>
  202c90:	2a0003f8 	mov	w24, w0
  202c94:	35fff520 	cbnz	w0, 202b38 <mmc_init+0x234>
  202c98:	2a1a03e1 	mov	w1, w26
  202c9c:	d2800003 	mov	x3, #0x0                   	// #0
  202ca0:	528001a2 	mov	w2, #0xd                   	// #13
  202ca4:	528000c0 	mov	w0, #0x6                   	// #6
  202ca8:	97fffe4e 	bl	2025e0 <mmc_send_cmd>
  202cac:	2a0003f8 	mov	w24, w0
  202cb0:	35fff440 	cbnz	w0, 202b38 <mmc_init+0x234>
  202cb4:	97fffe87 	bl	2026d0 <mmc_device_state>
  202cb8:	2a0003f8 	mov	w24, w0
  202cbc:	37fff3e0 	tbnz	w0, #31, 202b38 <mmc_init+0x234>
  202cc0:	71001c1f 	cmp	w0, #0x7
  202cc4:	54ffff80 	b.eq	202cb4 <mmc_init+0x3b0>  // b.none
  202cc8:	f94556a0 	ldr	x0, [x21, #2728]
  202ccc:	2a1b03e1 	mov	w1, w27
  202cd0:	f9400802 	ldr	x2, [x0, #16]
  202cd4:	b9406be0 	ldr	w0, [sp, #104]
  202cd8:	d63f0040 	blr	x2
  202cdc:	2a0003f8 	mov	w24, w0
  202ce0:	35fff2c0 	cbnz	w0, 202b38 <mmc_init+0x234>
  202ce4:	f9455262 	ldr	x2, [x19, #2720]
  202ce8:	b9401441 	ldr	w1, [x2, #20]
  202cec:	7100043f 	cmp	w1, #0x1
  202cf0:	54000c00 	b.eq	202e70 <mmc_init+0x56c>  // b.none
  202cf4:	7100083f 	cmp	w1, #0x2
  202cf8:	54000da0 	b.eq	202eac <mmc_init+0x5a8>  // b.none
  202cfc:	35000f81 	cbnz	w1, 202eec <mmc_init+0x5e8>
  202d00:	52804001 	mov	w1, #0x200                 	// #512
  202d04:	b9000841 	str	w1, [x2, #8]
  202d08:	f94556a1 	ldr	x1, [x21, #2728]
  202d0c:	f0000077 	adrp	x23, 211000 <__STACKS_START__+0x8c0>
  202d10:	911d02f7 	add	x23, x23, #0x740
  202d14:	d2804002 	mov	x2, #0x200                 	// #512
  202d18:	f9400c23 	ldr	x3, [x1, #24]
  202d1c:	aa1703e1 	mov	x1, x23
  202d20:	d63f0060 	blr	x3
  202d24:	35000800 	cbnz	w0, 202e24 <mmc_init+0x520>
  202d28:	d2800003 	mov	x3, #0x0                   	// #0
  202d2c:	528001a2 	mov	w2, #0xd                   	// #13
  202d30:	52800001 	mov	w1, #0x0                   	// #0
  202d34:	52800100 	mov	w0, #0x8                   	// #8
  202d38:	97fffe2a 	bl	2025e0 <mmc_send_cmd>
  202d3c:	35000dc0 	cbnz	w0, 202ef4 <mmc_init+0x5f0>
  202d40:	f94556a1 	ldr	x1, [x21, #2728]
  202d44:	d2804002 	mov	x2, #0x200                 	// #512
  202d48:	f9401023 	ldr	x3, [x1, #32]
  202d4c:	aa1703e1 	mov	x1, x23
  202d50:	d63f0060 	blr	x3
  202d54:	35000680 	cbnz	w0, 202e24 <mmc_init+0x520>
  202d58:	97fffe5e 	bl	2026d0 <mmc_device_state>
  202d5c:	37f80640 	tbnz	w0, #31, 202e24 <mmc_init+0x520>
  202d60:	7100101f 	cmp	w0, #0x4
  202d64:	54ffffa1 	b.ne	202d58 <mmc_init+0x454>  // b.any
  202d68:	f9455261 	ldr	x1, [x19, #2720]
  202d6c:	b940d6e0 	ldr	w0, [x23, #212]
  202d70:	b9400822 	ldr	w2, [x1, #8]
  202d74:	9ba27c00 	umull	x0, w0, w2
  202d78:	f9000020 	str	x0, [x1]
  202d7c:	f9455261 	ldr	x1, [x19, #2720]
  202d80:	39403280 	ldrb	w0, [x20, #12]
  202d84:	39403282 	ldrb	w2, [x20, #12]
  202d88:	b9401425 	ldr	w5, [x1, #20]
  202d8c:	d3431800 	ubfx	x0, x0, #3, #4
  202d90:	35000a05 	cbnz	w5, 202ed0 <mmc_init+0x5cc>
  202d94:	90000063 	adrp	x3, 20e000 <mtk_pin_info_pu+0x36c>
  202d98:	910e7863 	add	x3, x3, #0x39e
  202d9c:	38606860 	ldrb	w0, [x3, x0]
  202da0:	12000842 	and	w2, w2, #0x7
  202da4:	52800143 	mov	w3, #0xa                   	// #10
  202da8:	b9000c20 	str	w0, [x1, #12]
  202dac:	b9400c20 	ldr	w0, [x1, #12]
  202db0:	35000962 	cbnz	w2, 202edc <mmc_init+0x5d8>
  202db4:	5284e202 	mov	w2, #0x2710                	// #10000
  202db8:	1b027c00 	mul	w0, w0, w2
  202dbc:	b9000c20 	str	w0, [x1, #12]
  202dc0:	b947a720 	ldr	w0, [x25, #1956]
  202dc4:	360feba0 	tbz	w0, #1, 202b38 <mmc_init+0x234>
  202dc8:	710008bf 	cmp	w5, #0x2
  202dcc:	54ffeb61 	b.ne	202b38 <mmc_init+0x234>  // b.any
  202dd0:	52800000 	mov	w0, #0x0                   	// #0
  202dd4:	97fffe5c 	bl	202744 <sd_switch.constprop.0>
  202dd8:	35000260 	cbnz	w0, 202e24 <mmc_init+0x520>
  202ddc:	d0000094 	adrp	x20, 214000 <list+0x2550>
  202de0:	9130d294 	add	x20, x20, #0xc34
  202de4:	79401a80 	ldrh	w0, [x20, #12]
  202de8:	364fea80 	tbz	w0, #9, 202b38 <mmc_init+0x234>
  202dec:	52b00000 	mov	w0, #0x80000000            	// #-2147483648
  202df0:	97fffe55 	bl	202744 <sd_switch.constprop.0>
  202df4:	35000180 	cbnz	w0, 202e24 <mmc_init+0x520>
  202df8:	39404280 	ldrb	w0, [x20, #16]
  202dfc:	3607e9e0 	tbz	w0, #0, 202b38 <mmc_init+0x234>
  202e00:	f9455260 	ldr	x0, [x19, #2720]
  202e04:	529e1001 	mov	w1, #0xf080                	// #61568
  202e08:	72a05f41 	movk	w1, #0x2fa, lsl #16
  202e0c:	b9000c01 	str	w1, [x0, #12]
  202e10:	2a1603e1 	mov	w1, w22
  202e14:	f94556a0 	ldr	x0, [x21, #2728]
  202e18:	f9400802 	ldr	x2, [x0, #16]
  202e1c:	b9406be0 	ldr	w0, [sp, #104]
  202e20:	d63f0040 	blr	x2
  202e24:	2a0003f8 	mov	w24, w0
  202e28:	17ffff44 	b	202b38 <mmc_init+0x234>
  202e2c:	53181ec0 	ubfiz	w0, w22, #8, #8
  202e30:	52800021 	mov	w1, #0x1                   	// #1
  202e34:	d2800003 	mov	x3, #0x0                   	// #0
  202e38:	528003a2 	mov	w2, #0x1d                  	// #29
  202e3c:	72a076e1 	movk	w1, #0x3b7, lsl #16
  202e40:	2a010001 	orr	w1, w0, w1
  202e44:	528000c0 	mov	w0, #0x6                   	// #6
  202e48:	97fffde6 	bl	2025e0 <mmc_send_cmd>
  202e4c:	2a0003f8 	mov	w24, w0
  202e50:	35ffe740 	cbnz	w0, 202b38 <mmc_init+0x234>
  202e54:	97fffe1f 	bl	2026d0 <mmc_device_state>
  202e58:	2a0003f8 	mov	w24, w0
  202e5c:	37ffe6e0 	tbnz	w0, #31, 202b38 <mmc_init+0x234>
  202e60:	71001c1f 	cmp	w0, #0x7
  202e64:	54ffff80 	b.eq	202e54 <mmc_init+0x550>  // b.none
  202e68:	2a1603fb 	mov	w27, w22
  202e6c:	17ffff97 	b	202cc8 <mmc_init+0x3c4>
  202e70:	29408283 	ldp	w3, w0, [x20, #4]
  202e74:	d3504c00 	ubfx	x0, x0, #16, #4
  202e78:	531e7c65 	lsr	w5, w3, #30
  202e7c:	d34f4463 	ubfx	x3, x3, #15, #3
  202e80:	1ac02021 	lsl	w1, w1, w0
  202e84:	b9400a80 	ldr	w0, [x20, #8]
  202e88:	11000863 	add	w3, w3, #0x2
  202e8c:	b9000841 	str	w1, [x2, #8]
  202e90:	d37e2400 	ubfiz	x0, x0, #2, #10
  202e94:	aa050000 	orr	x0, x0, x5
  202e98:	91000400 	add	x0, x0, #0x1
  202e9c:	9ac32000 	lsl	x0, x0, x3
  202ea0:	9b017c00 	mul	x0, x0, x1
  202ea4:	f9000040 	str	x0, [x2]
  202ea8:	17ffffb5 	b	202d7c <mmc_init+0x478>
  202eac:	52804000 	mov	w0, #0x200                 	// #512
  202eb0:	b9000840 	str	w0, [x2, #8]
  202eb4:	b9400a80 	ldr	w0, [x20, #8]
  202eb8:	79400e81 	ldrh	w1, [x20, #6]
  202ebc:	d3701400 	ubfiz	x0, x0, #16, #6
  202ec0:	aa010000 	orr	x0, x0, x1
  202ec4:	91000400 	add	x0, x0, #0x1
  202ec8:	d36db000 	lsl	x0, x0, #19
  202ecc:	17fffff6 	b	202ea4 <mmc_init+0x5a0>
  202ed0:	90000063 	adrp	x3, 20e000 <mtk_pin_info_pu+0x36c>
  202ed4:	910e3863 	add	x3, x3, #0x38e
  202ed8:	17ffffb1 	b	202d9c <mmc_init+0x498>
  202edc:	1b037c00 	mul	w0, w0, w3
  202ee0:	51000442 	sub	w2, w2, #0x1
  202ee4:	b9000c20 	str	w0, [x1, #12]
  202ee8:	17ffffb1 	b	202dac <mmc_init+0x4a8>
  202eec:	128002b8 	mov	w24, #0xffffffea            	// #-22
  202ef0:	17ffff12 	b	202b38 <mmc_init+0x234>
  202ef4:	2a0003f8 	mov	w24, w0
  202ef8:	17ffff10 	b	202b38 <mmc_init+0x234>

0000000000202efc <parse_gpt_entry>:
  202efc:	a9be7bfd 	stp	x29, x30, [sp, #-32]!
  202f00:	910003fd 	mov	x29, sp
  202f04:	a90153f3 	stp	x19, x20, [sp, #16]
  202f08:	aa0003f3 	mov	x19, x0
  202f0c:	aa0103f4 	mov	x20, x1
  202f10:	f9401000 	ldr	x0, [x0, #32]
  202f14:	b5000060 	cbnz	x0, 202f20 <parse_gpt_entry+0x24>
  202f18:	f9401660 	ldr	x0, [x19, #40]
  202f1c:	b40004e0 	cbz	x0, 202fb8 <parse_gpt_entry+0xbc>
  202f20:	aa1403e0 	mov	x0, x20
  202f24:	d2800b01 	mov	x1, #0x58                  	// #88
  202f28:	97fff988 	bl	201548 <zeromem>
  202f2c:	9100da61 	add	x1, x19, #0x36
  202f30:	d2800060 	mov	x0, #0x3                   	// #3
  202f34:	38606822 	ldrb	w2, [x1, x0]
  202f38:	35000402 	cbnz	w2, 202fb8 <parse_gpt_entry+0xbc>
  202f3c:	91000800 	add	x0, x0, #0x2
  202f40:	f1012c1f 	cmp	x0, #0x4b
  202f44:	54ffff81 	b.ne	202f34 <parse_gpt_entry+0x38>  // b.any
  202f48:	91004282 	add	x2, x20, #0x10
  202f4c:	9100e263 	add	x3, x19, #0x38
  202f50:	d2800000 	mov	x0, #0x0                   	// #0
  202f54:	13017c04 	asr	w4, w0, #1
  202f58:	38606861 	ldrb	w1, [x3, x0]
  202f5c:	3824c841 	strb	w1, [x2, w4, sxtw]
  202f60:	34000081 	cbz	w1, 202f70 <parse_gpt_entry+0x74>
  202f64:	91000800 	add	x0, x0, #0x2
  202f68:	f101201f 	cmp	x0, #0x48
  202f6c:	54ffff41 	b.ne	202f54 <parse_gpt_entry+0x58>  // b.any
  202f70:	f9401261 	ldr	x1, [x19, #32]
  202f74:	d2800202 	mov	x2, #0x10                  	// #16
  202f78:	d377d820 	lsl	x0, x1, #9
  202f7c:	f9000280 	str	x0, [x20]
  202f80:	f9401660 	ldr	x0, [x19, #40]
  202f84:	91000400 	add	x0, x0, #0x1
  202f88:	cb010000 	sub	x0, x0, x1
  202f8c:	8b020261 	add	x1, x19, x2
  202f90:	d377d800 	lsl	x0, x0, #9
  202f94:	f9000680 	str	x0, [x20, #8]
  202f98:	9100d280 	add	x0, x20, #0x34
  202f9c:	94002304 	bl	20bbac <memcpy>
  202fa0:	aa1303e1 	mov	x1, x19
  202fa4:	91011280 	add	x0, x20, #0x44
  202fa8:	d2800202 	mov	x2, #0x10                  	// #16
  202fac:	94002300 	bl	20bbac <memcpy>
  202fb0:	52800000 	mov	w0, #0x0                   	// #0
  202fb4:	14000002 	b	202fbc <parse_gpt_entry+0xc0>
  202fb8:	128002a0 	mov	w0, #0xffffffea            	// #-22
  202fbc:	a94153f3 	ldp	x19, x20, [sp, #16]
  202fc0:	a8c27bfd 	ldp	x29, x30, [sp], #32
  202fc4:	d65f03c0 	ret

0000000000202fc8 <load_partition_table>:
  202fc8:	a9b07bfd 	stp	x29, x30, [sp, #-256]!
  202fcc:	910003fd 	mov	x29, sp
  202fd0:	910183e2 	add	x2, sp, #0x60
  202fd4:	910143e1 	add	x1, sp, #0x50
  202fd8:	a90153f3 	stp	x19, x20, [sp, #16]
  202fdc:	a9025bf5 	stp	x21, x22, [sp, #32]
  202fe0:	a90363f7 	stp	x23, x24, [sp, #48]
  202fe4:	f90023f9 	str	x25, [sp, #64]
  202fe8:	f90033ff 	str	xzr, [sp, #96]
  202fec:	94000872 	bl	2051b4 <plat_get_image_source>
  202ff0:	2a0003f3 	mov	w19, w0
  202ff4:	35000360 	cbnz	w0, 203060 <load_partition_table+0x98>
  202ff8:	f9402be0 	ldr	x0, [sp, #80]
  202ffc:	910163e2 	add	x2, sp, #0x58
  203000:	f94033e1 	ldr	x1, [sp, #96]
  203004:	97fffd18 	bl	202464 <io_open>
  203008:	2a0003f3 	mov	w19, w0
  20300c:	350002a0 	cbnz	w0, 203060 <load_partition_table+0x98>
  203010:	f9402ff4 	ldr	x20, [sp, #88]
  203014:	d2800002 	mov	x2, #0x0                   	// #0
  203018:	52800021 	mov	w1, #0x1                   	// #1
  20301c:	aa1403e0 	mov	x0, x20
  203020:	97fffd46 	bl	202538 <io_seek>
  203024:	2a0003f3 	mov	w19, w0
  203028:	350001c0 	cbnz	w0, 203060 <load_partition_table+0x98>
  20302c:	b0000095 	adrp	x21, 214000 <list+0x2550>
  203030:	9131dab5 	add	x21, x21, #0xc76
  203034:	910203e3 	add	x3, sp, #0x80
  203038:	aa1503e1 	mov	x1, x21
  20303c:	aa1403e0 	mov	x0, x20
  203040:	d2804002 	mov	x2, #0x200                 	// #512
  203044:	97fffd4d 	bl	202578 <io_read>
  203048:	2a0003f3 	mov	w19, w0
  20304c:	350000a0 	cbnz	w0, 203060 <load_partition_table+0x98>
  203050:	3947faa0 	ldrb	w0, [x21, #510]
  203054:	7101541f 	cmp	w0, #0x55
  203058:	54000120 	b.eq	20307c <load_partition_table+0xb4>  // b.none
  20305c:	12800033 	mov	w19, #0xfffffffe            	// #-2
  203060:	2a1303e0 	mov	w0, w19
  203064:	a94153f3 	ldp	x19, x20, [sp, #16]
  203068:	a9425bf5 	ldp	x21, x22, [sp, #32]
  20306c:	a94363f7 	ldp	x23, x24, [sp, #48]
  203070:	f94023f9 	ldr	x25, [sp, #64]
  203074:	a8d07bfd 	ldp	x29, x30, [sp], #256
  203078:	d65f03c0 	ret
  20307c:	3947fea0 	ldrb	w0, [x21, #511]
  203080:	7102a81f 	cmp	w0, #0xaa
  203084:	54fffec1 	b.ne	20305c <load_partition_table+0x94>  // b.any
  203088:	9106fab7 	add	x23, x21, #0x1be
  20308c:	9101c3e0 	add	x0, sp, #0x70
  203090:	aa1703e1 	mov	x1, x23
  203094:	d2800202 	mov	x2, #0x10                  	// #16
  203098:	940022c5 	bl	20bbac <memcpy>
  20309c:	d0000074 	adrp	x20, 211000 <__STACKS_START__+0x8c0>
  2030a0:	3941d3e0 	ldrb	w0, [sp, #116]
  2030a4:	912ac294 	add	x20, x20, #0xab0
  2030a8:	f9402ff8 	ldr	x24, [sp, #88]
  2030ac:	7103b81f 	cmp	w0, #0xee
  2030b0:	54000881 	b.ne	2031c0 <load_partition_table+0x1f8>  // b.any
  2030b4:	aa1803e0 	mov	x0, x24
  2030b8:	d2804002 	mov	x2, #0x200                 	// #512
  2030bc:	52800021 	mov	w1, #0x1                   	// #1
  2030c0:	97fffd1e 	bl	202538 <io_seek>
  2030c4:	35000380 	cbnz	w0, 203134 <load_partition_table+0x16c>
  2030c8:	9101a3e3 	add	x3, sp, #0x68
  2030cc:	910203e1 	add	x1, sp, #0x80
  2030d0:	aa1803e0 	mov	x0, x24
  2030d4:	d2800c02 	mov	x2, #0x60                  	// #96
  2030d8:	97fffd28 	bl	202578 <io_read>
  2030dc:	350002c0 	cbnz	w0, 203134 <load_partition_table+0x16c>
  2030e0:	f94037e0 	ldr	x0, [sp, #104]
  2030e4:	f101801f 	cmp	x0, #0x60
  2030e8:	54000261 	b.ne	203134 <load_partition_table+0x16c>  // b.any
  2030ec:	f0000041 	adrp	x1, 20e000 <mtk_pin_info_pu+0x36c>
  2030f0:	910203e0 	add	x0, sp, #0x80
  2030f4:	910eb821 	add	x1, x1, #0x3ae
  2030f8:	d2800102 	mov	x2, #0x8                   	// #8
  2030fc:	9400229f 	bl	20bb78 <memcmp>
  203100:	350001a0 	cbnz	w0, 203134 <load_partition_table+0x16c>
  203104:	b94093f5 	ldr	w21, [sp, #144]
  203108:	d2800b82 	mov	x2, #0x5c                  	// #92
  20310c:	910203e1 	add	x1, sp, #0x80
  203110:	b90093ff 	str	wzr, [sp, #144]
  203114:	97fffa84 	bl	201b24 <tf_crc32>
  203118:	2a0003e2 	mov	w2, w0
  20311c:	6b0002bf 	cmp	w21, w0
  203120:	54000380 	b.eq	203190 <load_partition_table+0x1c8>  // b.none
  203124:	f0000040 	adrp	x0, 20e000 <mtk_pin_info_pu+0x36c>
  203128:	2a1503e1 	mov	w1, w21
  20312c:	910edc00 	add	x0, x0, #0x3b7
  203130:	94000ef6 	bl	206d08 <tf_log>
  203134:	f9402fe0 	ldr	x0, [sp, #88]
  203138:	d2808002 	mov	x2, #0x400                 	// #1024
  20313c:	52800021 	mov	w1, #0x1                   	// #1
  203140:	aa1403f6 	mov	x22, x20
  203144:	52800015 	mov	w21, #0x0                   	// #0
  203148:	97fffcfc 	bl	202538 <io_seek>
  20314c:	f9402ff7 	ldr	x23, [sp, #88]
  203150:	b96c0280 	ldr	w0, [x20, #11264]
  203154:	6b0002bf 	cmp	w21, w0
  203158:	5400016a 	b.ge	203184 <load_partition_table+0x1bc>  // b.tcont
  20315c:	9101a3e3 	add	x3, sp, #0x68
  203160:	d2801002 	mov	x2, #0x80                  	// #128
  203164:	aa1703e0 	mov	x0, x23
  203168:	8b2263e1 	add	x1, sp, x2
  20316c:	97fffd03 	bl	202578 <io_read>
  203170:	aa1603e1 	mov	x1, x22
  203174:	910203e0 	add	x0, sp, #0x80
  203178:	910162d6 	add	x22, x22, #0x58
  20317c:	97ffff60 	bl	202efc <parse_gpt_entry>
  203180:	34000140 	cbz	w0, 2031a8 <load_partition_table+0x1e0>
  203184:	35000175 	cbnz	w21, 2031b0 <load_partition_table+0x1e8>
  203188:	128002b3 	mov	w19, #0xffffffea            	// #-22
  20318c:	1400000a 	b	2031b4 <load_partition_table+0x1ec>
  203190:	b940d3e0 	ldr	w0, [sp, #208]
  203194:	52801001 	mov	w1, #0x80                  	// #128
  203198:	7102041f 	cmp	w0, #0x81
  20319c:	1a81b000 	csel	w0, w0, w1, lt  // lt = tstop
  2031a0:	b92c0280 	str	w0, [x20, #11264]
  2031a4:	17ffffe4 	b	203134 <load_partition_table+0x16c>
  2031a8:	110006b5 	add	w21, w21, #0x1
  2031ac:	17ffffe9 	b	203150 <load_partition_table+0x188>
  2031b0:	b92c0295 	str	w21, [x20, #11264]
  2031b4:	f9402fe0 	ldr	x0, [sp, #88]
  2031b8:	97fffcf8 	bl	202598 <io_close>
  2031bc:	17ffffa9 	b	203060 <load_partition_table+0x98>
  2031c0:	aa1403f6 	mov	x22, x20
  2031c4:	52800080 	mov	w0, #0x4                   	// #4
  2031c8:	52800019 	mov	w25, #0x0                   	// #0
  2031cc:	b92c0280 	str	w0, [x20, #11264]
  2031d0:	aa1803e0 	mov	x0, x24
  2031d4:	d2800002 	mov	x2, #0x0                   	// #0
  2031d8:	52800021 	mov	w1, #0x1                   	// #1
  2031dc:	97fffcd7 	bl	202538 <io_seek>
  2031e0:	35000220 	cbnz	w0, 203224 <load_partition_table+0x25c>
  2031e4:	9101a3e3 	add	x3, sp, #0x68
  2031e8:	aa1503e1 	mov	x1, x21
  2031ec:	aa1803e0 	mov	x0, x24
  2031f0:	d2804002 	mov	x2, #0x200                 	// #512
  2031f4:	97fffce1 	bl	202578 <io_read>
  2031f8:	35000160 	cbnz	w0, 203224 <load_partition_table+0x25c>
  2031fc:	3947faa0 	ldrb	w0, [x21, #510]
  203200:	7101541f 	cmp	w0, #0x55
  203204:	54000101 	b.ne	203224 <load_partition_table+0x25c>  // b.any
  203208:	3947fea0 	ldrb	w0, [x21, #511]
  20320c:	7102a81f 	cmp	w0, #0xaa
  203210:	540000a1 	b.ne	203224 <load_partition_table+0x25c>  // b.any
  203214:	aa1703e1 	mov	x1, x23
  203218:	910203e0 	add	x0, sp, #0x80
  20321c:	d2800202 	mov	x2, #0x10                  	// #16
  203220:	94002263 	bl	20bbac <memcpy>
  203224:	b9408be0 	ldr	w0, [sp, #136]
  203228:	11000739 	add	w25, w25, #0x1
  20322c:	910042f7 	add	x23, x23, #0x10
  203230:	910162d6 	add	x22, x22, #0x58
  203234:	53175800 	lsl	w0, w0, #9
  203238:	f81a82c0 	stur	x0, [x22, #-88]
  20323c:	b9408fe0 	ldr	w0, [sp, #140]
  203240:	53175800 	lsl	w0, w0, #9
  203244:	f81b02c0 	stur	x0, [x22, #-80]
  203248:	394213e0 	ldrb	w0, [sp, #132]
  20324c:	381b82c0 	sturb	w0, [x22, #-72]
  203250:	b96c0280 	ldr	w0, [x20, #11264]
  203254:	6b00033f 	cmp	w25, w0
  203258:	54fffbcb 	b.lt	2031d0 <load_partition_table+0x208>  // b.tstop
  20325c:	17ffffd6 	b	2031b4 <load_partition_table+0x1ec>

0000000000203260 <get_partition_entry>:
  203260:	a9bc7bfd 	stp	x29, x30, [sp, #-64]!
  203264:	910003fd 	mov	x29, sp
  203268:	a90153f3 	stp	x19, x20, [sp, #16]
  20326c:	d0000073 	adrp	x19, 211000 <__STACKS_START__+0x8c0>
  203270:	912b0273 	add	x19, x19, #0xac0
  203274:	a9025bf5 	stp	x21, x22, [sp, #32]
  203278:	d0000076 	adrp	x22, 211000 <__STACKS_START__+0x8c0>
  20327c:	912ac2d6 	add	x22, x22, #0xab0
  203280:	a90363f7 	stp	x23, x24, [sp, #48]
  203284:	aa0003f7 	mov	x23, x0
  203288:	d2800015 	mov	x21, #0x0                   	// #0
  20328c:	d2800b18 	mov	x24, #0x58                  	// #88
  203290:	b96c02c0 	ldr	w0, [x22, #11264]
  203294:	6b15001f 	cmp	w0, w21
  203298:	5400006c 	b.gt	2032a4 <get_partition_entry+0x44>
  20329c:	d2800000 	mov	x0, #0x0                   	// #0
  2032a0:	14000009 	b	2032c4 <get_partition_entry+0x64>
  2032a4:	aa1303e1 	mov	x1, x19
  2032a8:	9b187eb4 	mul	x20, x21, x24
  2032ac:	aa1703e0 	mov	x0, x23
  2032b0:	910006b5 	add	x21, x21, #0x1
  2032b4:	91016273 	add	x19, x19, #0x58
  2032b8:	940023ca 	bl	20c1e0 <strcmp>
  2032bc:	35fffea0 	cbnz	w0, 203290 <get_partition_entry+0x30>
  2032c0:	8b160280 	add	x0, x20, x22
  2032c4:	a94153f3 	ldp	x19, x20, [sp, #16]
  2032c8:	a9425bf5 	ldp	x21, x22, [sp, #32]
  2032cc:	a94363f7 	ldp	x23, x24, [sp, #48]
  2032d0:	a8c47bfd 	ldp	x29, x30, [sp], #64
  2032d4:	d65f03c0 	ret

00000000002032d8 <partition_init>:
  2032d8:	17ffff3c 	b	202fc8 <load_partition_table>

00000000002032dc <xz_malloc>:
  2032dc:	a9bd7bfd 	stp	x29, x30, [sp, #-48]!
  2032e0:	aa0003e2 	mov	x2, x0
  2032e4:	910003fd 	mov	x29, sp
  2032e8:	a90153f3 	stp	x19, x20, [sp, #16]
  2032ec:	b0000094 	adrp	x20, 214000 <list+0x2550>
  2032f0:	f9435e93 	ldr	x19, [x20, #1720]
  2032f4:	f90013f5 	str	x21, [sp, #32]
  2032f8:	d1000673 	sub	x19, x19, #0x1
  2032fc:	b2400a73 	orr	x19, x19, #0x7
  203300:	91000673 	add	x19, x19, #0x1
  203304:	8b000275 	add	x21, x19, x0
  203308:	b0000080 	adrp	x0, 214000 <list+0x2550>
  20330c:	f9436000 	ldr	x0, [x0, #1728]
  203310:	eb15001f 	cmp	x0, x21
  203314:	54000143 	b.cc	20333c <xz_malloc+0x60>  // b.lo, b.ul, b.last
  203318:	aa1303e0 	mov	x0, x19
  20331c:	52800001 	mov	w1, #0x0                   	// #0
  203320:	94002238 	bl	20bc00 <memset>
  203324:	f9035e95 	str	x21, [x20, #1720]
  203328:	aa1303e0 	mov	x0, x19
  20332c:	a94153f3 	ldp	x19, x20, [sp, #16]
  203330:	f94013f5 	ldr	x21, [sp, #32]
  203334:	a8c37bfd 	ldp	x29, x30, [sp], #48
  203338:	d65f03c0 	ret
  20333c:	d2800013 	mov	x19, #0x0                   	// #0
  203340:	17fffffa 	b	203328 <xz_malloc+0x4c>

0000000000203344 <unxz>:
  203344:	a9b87bfd 	stp	x29, x30, [sp, #-128]!
  203348:	910003fd 	mov	x29, sp
  20334c:	f90023f9 	str	x25, [sp, #64]
  203350:	b0000099 	adrp	x25, 214000 <list+0x2550>
  203354:	a90153f3 	stp	x19, x20, [sp, #16]
  203358:	aa0003f4 	mov	x20, x0
  20335c:	3979db20 	ldrb	w0, [x25, #3702]
  203360:	a9025bf5 	stp	x21, x22, [sp, #32]
  203364:	aa0203f3 	mov	x19, x2
  203368:	aa0103f5 	mov	x21, x1
  20336c:	a90363f7 	stp	x23, x24, [sp, #48]
  203370:	aa0503f6 	mov	x22, x5
  203374:	aa0303f8 	mov	x24, x3
  203378:	aa0403f7 	mov	x23, x4
  20337c:	35000080 	cbnz	w0, 20338c <unxz+0x48>
  203380:	94000040 	bl	203480 <xz_crc32_init>
  203384:	52800020 	mov	w0, #0x1                   	// #1
  203388:	3939db20 	strb	w0, [x25, #3702]
  20338c:	b0000080 	adrp	x0, 214000 <list+0x2550>
  203390:	8b1602f6 	add	x22, x23, x22
  203394:	52800001 	mov	w1, #0x0                   	// #0
  203398:	f9036016 	str	x22, [x0, #1728]
  20339c:	b0000080 	adrp	x0, 214000 <list+0x2550>
  2033a0:	f9035c17 	str	x23, [x0, #1720]
  2033a4:	52800000 	mov	w0, #0x0                   	// #0
  2033a8:	94000714 	bl	204ff8 <xz_dec_init>
  2033ac:	aa0003f6 	mov	x22, x0
  2033b0:	b5000160 	cbnz	x0, 2033dc <unxz+0x98>
  2033b4:	f0000040 	adrp	x0, 20e000 <mtk_pin_info_pu+0x36c>
  2033b8:	910fb400 	add	x0, x0, #0x3ed
  2033bc:	94000e53 	bl	206d08 <tf_log>
  2033c0:	12800160 	mov	w0, #0xfffffff4            	// #-12
  2033c4:	a94153f3 	ldp	x19, x20, [sp, #16]
  2033c8:	a9425bf5 	ldp	x21, x22, [sp, #32]
  2033cc:	a94363f7 	ldp	x23, x24, [sp, #48]
  2033d0:	f94023f9 	ldr	x25, [sp, #64]
  2033d4:	a8c87bfd 	ldp	x29, x30, [sp], #128
  2033d8:	d65f03c0 	ret
  2033dc:	f9400281 	ldr	x1, [x20]
  2033e0:	a9057fe1 	stp	x1, xzr, [sp, #80]
  2033e4:	f9400261 	ldr	x1, [x19]
  2033e8:	f90037e1 	str	x1, [sp, #104]
  2033ec:	910143e1 	add	x1, sp, #0x50
  2033f0:	f90033f5 	str	x21, [sp, #96]
  2033f4:	a90763ff 	stp	xzr, x24, [sp, #112]
  2033f8:	94000540 	bl	2048f8 <xz_dec_run>
  2033fc:	2a0003e1 	mov	w1, w0
  203400:	7100141f 	cmp	w0, #0x5
  203404:	540001a1 	b.ne	203438 <unxz+0xf4>  // b.any
  203408:	f9400281 	ldr	x1, [x20]
  20340c:	aa1503e2 	mov	x2, x21
  203410:	f9400260 	ldr	x0, [x19]
  203414:	940021e6 	bl	20bbac <memcpy>
  203418:	f9400280 	ldr	x0, [x20]
  20341c:	8b150000 	add	x0, x0, x21
  203420:	f9000280 	str	x0, [x20]
  203424:	f9400261 	ldr	x1, [x19]
  203428:	8b150035 	add	x21, x1, x21
  20342c:	f9000275 	str	x21, [x19]
  203430:	52800000 	mov	w0, #0x0                   	// #0
  203434:	17ffffe4 	b	2033c4 <unxz+0x80>
  203438:	7100041f 	cmp	w0, #0x1
  20343c:	54000181 	b.ne	20346c <unxz+0x128>  // b.any
  203440:	aa1603e0 	mov	x0, x22
  203444:	94000706 	bl	20505c <xz_dec_end>
  203448:	f9400280 	ldr	x0, [x20]
  20344c:	f9402fe1 	ldr	x1, [sp, #88]
  203450:	8b010000 	add	x0, x0, x1
  203454:	f9000280 	str	x0, [x20]
  203458:	f9403be1 	ldr	x1, [sp, #112]
  20345c:	f9400260 	ldr	x0, [x19]
  203460:	8b010000 	add	x0, x0, x1
  203464:	f9000260 	str	x0, [x19]
  203468:	17fffff2 	b	203430 <unxz+0xec>
  20346c:	f0000040 	adrp	x0, 20e000 <mtk_pin_info_pu+0x36c>
  203470:	91102000 	add	x0, x0, #0x408
  203474:	94000e25 	bl	206d08 <tf_log>
  203478:	12800080 	mov	w0, #0xfffffffb            	// #-5
  20347c:	17ffffd2 	b	2033c4 <unxz+0x80>

0000000000203480 <xz_crc32_init>:
  203480:	52906405 	mov	w5, #0x8320                	// #33568
  203484:	b0000083 	adrp	x3, 214000 <list+0x2550>
  203488:	911ec063 	add	x3, x3, #0x7b0
  20348c:	d2800000 	mov	x0, #0x0                   	// #0
  203490:	72bdb705 	movk	w5, #0xedb8, lsl #16
  203494:	2a0003e1 	mov	w1, w0
  203498:	52800102 	mov	w2, #0x8                   	// #8
  20349c:	93400024 	sbfx	x4, x1, #0, #1
  2034a0:	71000442 	subs	w2, w2, #0x1
  2034a4:	0a050084 	and	w4, w4, w5
  2034a8:	4a410481 	eor	w1, w4, w1, lsr #1
  2034ac:	54ffff81 	b.ne	20349c <xz_crc32_init+0x1c>  // b.any
  2034b0:	b8207861 	str	w1, [x3, x0, lsl #2]
  2034b4:	91000400 	add	x0, x0, #0x1
  2034b8:	f104001f 	cmp	x0, #0x100
  2034bc:	54fffec1 	b.ne	203494 <xz_crc32_init+0x14>  // b.any
  2034c0:	d65f03c0 	ret

00000000002034c4 <xz_crc32>:
  2034c4:	b0000085 	adrp	x5, 214000 <list+0x2550>
  2034c8:	2a2203e2 	mvn	w2, w2
  2034cc:	911ec0a5 	add	x5, x5, #0x7b0
  2034d0:	d2800004 	mov	x4, #0x0                   	// #0
  2034d4:	eb04003f 	cmp	x1, x4
  2034d8:	54000061 	b.ne	2034e4 <xz_crc32+0x20>  // b.any
  2034dc:	2a2203e0 	mvn	w0, w2
  2034e0:	d65f03c0 	ret
  2034e4:	38646803 	ldrb	w3, [x0, x4]
  2034e8:	91000484 	add	x4, x4, #0x1
  2034ec:	ca030043 	eor	x3, x2, x3
  2034f0:	92401c63 	and	x3, x3, #0xff
  2034f4:	b86378a3 	ldr	w3, [x5, x3, lsl #2]
  2034f8:	4a422062 	eor	w2, w3, w2, lsr #8
  2034fc:	17fffff6 	b	2034d4 <xz_crc32+0x10>

0000000000203500 <dict_repeat>:
  203500:	f9400c03 	ldr	x3, [x0, #24]
  203504:	2a0203e6 	mov	w6, w2
  203508:	eb22407f 	cmp	x3, w2, uxtw
  20350c:	540004c9 	b.ls	2035a4 <dict_repeat+0xa4>  // b.plast
  203510:	b9403003 	ldr	w3, [x0, #48]
  203514:	6b02007f 	cmp	w3, w2
  203518:	54000469 	b.ls	2035a4 <dict_repeat+0xa4>  // b.plast
  20351c:	f9400805 	ldr	x5, [x0, #16]
  203520:	f9401002 	ldr	x2, [x0, #32]
  203524:	b9400023 	ldr	w3, [x1]
  203528:	cb050042 	sub	x2, x2, x5
  20352c:	2a0303e4 	mov	w4, w3
  203530:	eb23405f 	cmp	x2, w3, uxtw
  203534:	9a849042 	csel	x2, x2, x4, ls  // ls = plast
  203538:	2a0203e4 	mov	w4, w2
  20353c:	4b020062 	sub	w2, w3, w2
  203540:	b9000022 	str	w2, [x1]
  203544:	d10004a1 	sub	x1, x5, #0x1
  203548:	cb060021 	sub	x1, x1, x6
  20354c:	eb0500df 	cmp	x6, x5
  203550:	54000063 	b.cc	20355c <dict_repeat+0x5c>  // b.lo, b.ul, b.last
  203554:	f9401402 	ldr	x2, [x0, #40]
  203558:	8b020021 	add	x1, x1, x2
  20355c:	f9400803 	ldr	x3, [x0, #16]
  203560:	91000422 	add	x2, x1, #0x1
  203564:	f9400005 	ldr	x5, [x0]
  203568:	91000466 	add	x6, x3, #0x1
  20356c:	f9000806 	str	x6, [x0, #16]
  203570:	386168a1 	ldrb	w1, [x5, x1]
  203574:	382368a1 	strb	w1, [x5, x3]
  203578:	f9401401 	ldr	x1, [x0, #40]
  20357c:	eb02003f 	cmp	x1, x2
  203580:	9a9f1041 	csel	x1, x2, xzr, ne  // ne = any
  203584:	71000484 	subs	w4, w4, #0x1
  203588:	54fffea1 	b.ne	20355c <dict_repeat+0x5c>  // b.any
  20358c:	a9410801 	ldp	x1, x2, [x0, #16]
  203590:	eb01005f 	cmp	x2, x1
  203594:	54000042 	b.cs	20359c <dict_repeat+0x9c>  // b.hs, b.nlast
  203598:	f9000c01 	str	x1, [x0, #24]
  20359c:	52800020 	mov	w0, #0x1                   	// #1
  2035a0:	14000002 	b	2035a8 <dict_repeat+0xa8>
  2035a4:	52800000 	mov	w0, #0x0                   	// #0
  2035a8:	d65f03c0 	ret

00000000002035ac <lzma_len>:
  2035ac:	b9400003 	ldr	w3, [x0]
  2035b0:	12bfe004 	mov	w4, #0xffffff              	// #16777215
  2035b4:	6b04007f 	cmp	w3, w4
  2035b8:	54000168 	b.hi	2035e4 <lzma_len+0x38>  // b.pmore
  2035bc:	53185c63 	lsl	w3, w3, #8
  2035c0:	b9000003 	str	w3, [x0]
  2035c4:	f9400c03 	ldr	x3, [x0, #24]
  2035c8:	f9400805 	ldr	x5, [x0, #16]
  2035cc:	91000466 	add	x6, x3, #0x1
  2035d0:	f9000c06 	str	x6, [x0, #24]
  2035d4:	b9400404 	ldr	w4, [x0, #4]
  2035d8:	386368a3 	ldrb	w3, [x5, x3]
  2035dc:	0b042063 	add	w3, w3, w4, lsl #8
  2035e0:	b9000403 	str	w3, [x0, #4]
  2035e4:	b9400003 	ldr	w3, [x0]
  2035e8:	79400025 	ldrh	w5, [x1]
  2035ec:	530b7c64 	lsr	w4, w3, #11
  2035f0:	1b057c86 	mul	w6, w4, w5
  2035f4:	b9400404 	ldr	w4, [x0, #4]
  2035f8:	6b0400df 	cmp	w6, w4
  2035fc:	540005e9 	b.ls	2036b8 <lzma_len+0x10c>  // b.plast
  203600:	52810003 	mov	w3, #0x800                 	// #2048
  203604:	4b050063 	sub	w3, w3, w5
  203608:	b9000006 	str	w6, [x0]
  20360c:	0b8314a5 	add	w5, w5, w3, asr #5
  203610:	d2800083 	mov	x3, #0x4                   	// #4
  203614:	8b225062 	add	x2, x3, w2, uxtw #4
  203618:	79000025 	strh	w5, [x1]
  20361c:	8b020021 	add	x1, x1, x2
  203620:	52800042 	mov	w2, #0x2                   	// #2
  203624:	52800105 	mov	w5, #0x8                   	// #8
  203628:	b9009002 	str	w2, [x0, #144]
  20362c:	52800022 	mov	w2, #0x1                   	// #1
  203630:	12bfe009 	mov	w9, #0xffffff              	// #16777215
  203634:	5281000a 	mov	w10, #0x800                 	// #2048
  203638:	b9400003 	ldr	w3, [x0]
  20363c:	8b224428 	add	x8, x1, w2, uxtw #1
  203640:	6b09007f 	cmp	w3, w9
  203644:	54000168 	b.hi	203670 <lzma_len+0xc4>  // b.pmore
  203648:	53185c63 	lsl	w3, w3, #8
  20364c:	b9000003 	str	w3, [x0]
  203650:	f9400c03 	ldr	x3, [x0, #24]
  203654:	f9400806 	ldr	x6, [x0, #16]
  203658:	91000467 	add	x7, x3, #0x1
  20365c:	f9000c07 	str	x7, [x0, #24]
  203660:	b9400404 	ldr	w4, [x0, #4]
  203664:	386368c3 	ldrb	w3, [x6, x3]
  203668:	0b042063 	add	w3, w3, w4, lsl #8
  20366c:	b9000403 	str	w3, [x0, #4]
  203670:	29401807 	ldp	w7, w6, [x0]
  203674:	531f7842 	lsl	w2, w2, #1
  203678:	79400103 	ldrh	w3, [x8]
  20367c:	530b7ce4 	lsr	w4, w7, #11
  203680:	1b037c84 	mul	w4, w4, w3
  203684:	6b06009f 	cmp	w4, w6
  203688:	540006e9 	b.ls	203764 <lzma_len+0x1b8>  // b.plast
  20368c:	b9000004 	str	w4, [x0]
  203690:	4b030144 	sub	w4, w10, w3
  203694:	0b841463 	add	w3, w3, w4, asr #5
  203698:	79000103 	strh	w3, [x8]
  20369c:	6b0200bf 	cmp	w5, w2
  2036a0:	54fffcc8 	b.hi	203638 <lzma_len+0x8c>  // b.pmore
  2036a4:	b9409001 	ldr	w1, [x0, #144]
  2036a8:	4b050021 	sub	w1, w1, w5
  2036ac:	0b020022 	add	w2, w1, w2
  2036b0:	b9009002 	str	w2, [x0, #144]
  2036b4:	d65f03c0 	ret
  2036b8:	4b060063 	sub	w3, w3, w6
  2036bc:	4b060084 	sub	w4, w4, w6
  2036c0:	29001003 	stp	w3, w4, [x0]
  2036c4:	4b4514a5 	sub	w5, w5, w5, lsr #5
  2036c8:	79000025 	strh	w5, [x1]
  2036cc:	12bfe005 	mov	w5, #0xffffff              	// #16777215
  2036d0:	6b05007f 	cmp	w3, w5
  2036d4:	54000148 	b.hi	2036fc <lzma_len+0x150>  // b.pmore
  2036d8:	53185c63 	lsl	w3, w3, #8
  2036dc:	b9000003 	str	w3, [x0]
  2036e0:	f9400c03 	ldr	x3, [x0, #24]
  2036e4:	f9400805 	ldr	x5, [x0, #16]
  2036e8:	91000466 	add	x6, x3, #0x1
  2036ec:	f9000c06 	str	x6, [x0, #24]
  2036f0:	386368a3 	ldrb	w3, [x5, x3]
  2036f4:	0b042064 	add	w4, w3, w4, lsl #8
  2036f8:	b9000404 	str	w4, [x0, #4]
  2036fc:	29401406 	ldp	w6, w5, [x0]
  203700:	79400423 	ldrh	w3, [x1, #2]
  203704:	530b7cc4 	lsr	w4, w6, #11
  203708:	1b037c84 	mul	w4, w4, w3
  20370c:	6b05009f 	cmp	w4, w5
  203710:	54000169 	b.ls	20373c <lzma_len+0x190>  // b.plast
  203714:	d37c7c42 	ubfiz	x2, x2, #4, #32
  203718:	b9000004 	str	w4, [x0]
  20371c:	52810004 	mov	w4, #0x800                 	// #2048
  203720:	4b030084 	sub	w4, w4, w3
  203724:	91041042 	add	x2, x2, #0x104
  203728:	0b841463 	add	w3, w3, w4, asr #5
  20372c:	79000423 	strh	w3, [x1, #2]
  203730:	8b020021 	add	x1, x1, x2
  203734:	52800142 	mov	w2, #0xa                   	// #10
  203738:	17ffffbb 	b	203624 <lzma_len+0x78>
  20373c:	4b0400c6 	sub	w6, w6, w4
  203740:	4b0400a4 	sub	w4, w5, w4
  203744:	29001006 	stp	w6, w4, [x0]
  203748:	4b431463 	sub	w3, w3, w3, lsr #5
  20374c:	79000423 	strh	w3, [x1, #2]
  203750:	52800242 	mov	w2, #0x12                  	// #18
  203754:	91081021 	add	x1, x1, #0x204
  203758:	52802005 	mov	w5, #0x100                 	// #256
  20375c:	b9009002 	str	w2, [x0, #144]
  203760:	17ffffb3 	b	20362c <lzma_len+0x80>
  203764:	4b0400e7 	sub	w7, w7, w4
  203768:	4b0400c4 	sub	w4, w6, w4
  20376c:	29001007 	stp	w7, w4, [x0]
  203770:	4b431463 	sub	w3, w3, w3, lsr #5
  203774:	11000442 	add	w2, w2, #0x1
  203778:	79000103 	strh	w3, [x8]
  20377c:	17ffffc8 	b	20369c <lzma_len+0xf0>

0000000000203780 <lzma_main>:
  203780:	9100a00c 	add	x12, x0, #0x28
  203784:	a9bf7bfd 	stp	x29, x30, [sp, #-16]!
  203788:	aa0003eb 	mov	x11, x0
  20378c:	910003fd 	mov	x29, sp
  203790:	f9400981 	ldr	x1, [x12, #16]
  203794:	f9401180 	ldr	x0, [x12, #32]
  203798:	eb00003f 	cmp	x1, x0
  20379c:	540000e2 	b.cs	2037b8 <lzma_main+0x38>  // b.hs, b.nlast
  2037a0:	b9409160 	ldr	w0, [x11, #144]
  2037a4:	340000a0 	cbz	w0, 2037b8 <lzma_main+0x38>
  2037a8:	b9407d62 	ldr	w2, [x11, #124]
  2037ac:	91024161 	add	x1, x11, #0x90
  2037b0:	aa0c03e0 	mov	x0, x12
  2037b4:	97ffff53 	bl	203500 <dict_repeat>
  2037b8:	12bfe00d 	mov	w13, #0xffffff              	// #16777215
  2037bc:	5281000f 	mov	w15, #0x800                 	// #2048
  2037c0:	5280002e 	mov	w14, #0x1                   	// #1
  2037c4:	f9400983 	ldr	x3, [x12, #16]
  2037c8:	f9401181 	ldr	x1, [x12, #32]
  2037cc:	b9400160 	ldr	w0, [x11]
  2037d0:	eb01007f 	cmp	x3, x1
  2037d4:	54000082 	b.cs	2037e4 <lzma_main+0x64>  // b.hs, b.nlast
  2037d8:	a9418961 	ldp	x1, x2, [x11, #24]
  2037dc:	eb02003f 	cmp	x1, x2
  2037e0:	540001e9 	b.ls	20381c <lzma_main+0x9c>  // b.plast
  2037e4:	12bfe001 	mov	w1, #0xffffff              	// #16777215
  2037e8:	6b01001f 	cmp	w0, w1
  2037ec:	54000148 	b.hi	203814 <lzma_main+0x94>  // b.pmore
  2037f0:	a9410562 	ldp	x2, x1, [x11, #16]
  2037f4:	53185c00 	lsl	w0, w0, #8
  2037f8:	b9000160 	str	w0, [x11]
  2037fc:	b9400560 	ldr	w0, [x11, #4]
  203800:	91000423 	add	x3, x1, #0x1
  203804:	f9000d63 	str	x3, [x11, #24]
  203808:	38616841 	ldrb	w1, [x2, x1]
  20380c:	0b002020 	add	w0, w1, w0, lsl #8
  203810:	b9000560 	str	w0, [x11, #4]
  203814:	52800020 	mov	w0, #0x1                   	// #1
  203818:	140000f8 	b	203bf8 <lzma_main+0x478>
  20381c:	b9409d62 	ldr	w2, [x11, #156]
  203820:	b9408d64 	ldr	w4, [x11, #140]
  203824:	0a030042 	and	w2, w2, w3
  203828:	6b0d001f 	cmp	w0, w13
  20382c:	54000148 	b.hi	203854 <lzma_main+0xd4>  // b.pmore
  203830:	53185c00 	lsl	w0, w0, #8
  203834:	b9000160 	str	w0, [x11]
  203838:	f9400960 	ldr	x0, [x11, #16]
  20383c:	91000426 	add	x6, x1, #0x1
  203840:	f9000d66 	str	x6, [x11, #24]
  203844:	b9400565 	ldr	w5, [x11, #4]
  203848:	38616800 	ldrb	w0, [x0, x1]
  20384c:	0b052000 	add	w0, w0, w5, lsl #8
  203850:	b9000560 	str	w0, [x11, #4]
  203854:	d37c7c86 	ubfiz	x6, x4, #4, #32
  203858:	b9400160 	ldr	w0, [x11]
  20385c:	8b2240c6 	add	x6, x6, w2, uxtw
  203860:	2a0403e5 	mov	w5, w4
  203864:	8b060566 	add	x6, x11, x6, lsl #1
  203868:	530b7c01 	lsr	w1, w0, #11
  20386c:	794140c7 	ldrh	w7, [x6, #160]
  203870:	1b077c28 	mul	w8, w1, w7
  203874:	b9400561 	ldr	w1, [x11, #4]
  203878:	6b01011f 	cmp	w8, w1
  20387c:	54001109 	b.ls	203a9c <lzma_main+0x31c>  // b.plast
  203880:	4b0701e0 	sub	w0, w15, w7
  203884:	b9000168 	str	w8, [x11]
  203888:	d1000462 	sub	x2, x3, #0x1
  20388c:	0b8014e7 	add	w7, w7, w0, asr #5
  203890:	790140c7 	strh	w7, [x6, #160]
  203894:	b5000763 	cbnz	x3, 203980 <lzma_main+0x200>
  203898:	f9401580 	ldr	x0, [x12, #40]
  20389c:	d1000400 	sub	x0, x0, #0x1
  2038a0:	f9400d86 	ldr	x6, [x12, #24]
  2038a4:	f9400188 	ldr	x8, [x12]
  2038a8:	b4000706 	cbz	x6, 203988 <lzma_main+0x208>
  2038ac:	38606901 	ldrb	w1, [x8, x0]
  2038b0:	29528167 	ldp	w7, w0, [x11, #148]
  2038b4:	8a030000 	and	x0, x0, x3
  2038b8:	9ac72005 	lsl	x5, x0, x7
  2038bc:	52800100 	mov	w0, #0x8                   	// #8
  2038c0:	4b070000 	sub	w0, w0, w7
  2038c4:	1ac02420 	lsr	w0, w1, w0
  2038c8:	0b050000 	add	w0, w0, w5
  2038cc:	5280c001 	mov	w1, #0x600                 	// #1536
  2038d0:	9ba12c00 	umaddl	x0, w0, w1, x11
  2038d4:	913c3000 	add	x0, x0, #0xf0c
  2038d8:	7100189f 	cmp	w4, #0x6
  2038dc:	54000688 	b.hi	2039ac <lzma_main+0x22c>  // b.pmore
  2038e0:	52800021 	mov	w1, #0x1                   	// #1
  2038e4:	b9400162 	ldr	w2, [x11]
  2038e8:	d37f7c27 	ubfiz	x7, x1, #1, #32
  2038ec:	6b0d005f 	cmp	w2, w13
  2038f0:	54000168 	b.hi	20391c <lzma_main+0x19c>  // b.pmore
  2038f4:	53185c42 	lsl	w2, w2, #8
  2038f8:	b9000162 	str	w2, [x11]
  2038fc:	f9400d62 	ldr	x2, [x11, #24]
  203900:	f9400965 	ldr	x5, [x11, #16]
  203904:	91000446 	add	x6, x2, #0x1
  203908:	f9000d66 	str	x6, [x11, #24]
  20390c:	b9400564 	ldr	w4, [x11, #4]
  203910:	386268a2 	ldrb	w2, [x5, x2]
  203914:	0b042042 	add	w2, w2, w4, lsl #8
  203918:	b9000562 	str	w2, [x11, #4]
  20391c:	29401566 	ldp	w6, w5, [x11]
  203920:	531f7821 	lsl	w1, w1, #1
  203924:	78676802 	ldrh	w2, [x0, x7]
  203928:	530b7cc4 	lsr	w4, w6, #11
  20392c:	1b027c84 	mul	w4, w4, w2
  203930:	6b05009f 	cmp	w4, w5
  203934:	540002e9 	b.ls	203990 <lzma_main+0x210>  // b.plast
  203938:	b9000164 	str	w4, [x11]
  20393c:	4b0201e4 	sub	w4, w15, w2
  203940:	0b841442 	add	w2, w2, w4, asr #5
  203944:	78276802 	strh	w2, [x0, x7]
  203948:	7103fc3f 	cmp	w1, #0xff
  20394c:	54fffcc9 	b.ls	2038e4 <lzma_main+0x164>  // b.plast
  203950:	91000460 	add	x0, x3, #0x1
  203954:	f9000980 	str	x0, [x12, #16]
  203958:	38236901 	strb	w1, [x8, x3]
  20395c:	a9410580 	ldp	x0, x1, [x12, #16]
  203960:	eb00003f 	cmp	x1, x0
  203964:	54000042 	b.cs	20396c <lzma_main+0x1ec>  // b.hs, b.nlast
  203968:	f9000d80 	str	x0, [x12, #24]
  20396c:	b9408d60 	ldr	w0, [x11, #140]
  203970:	71000c1f 	cmp	w0, #0x3
  203974:	54000888 	b.hi	203a84 <lzma_main+0x304>  // b.pmore
  203978:	b9008d7f 	str	wzr, [x11, #140]
  20397c:	17ffff92 	b	2037c4 <lzma_main+0x44>
  203980:	aa0203e0 	mov	x0, x2
  203984:	17ffffc7 	b	2038a0 <lzma_main+0x120>
  203988:	52800001 	mov	w1, #0x0                   	// #0
  20398c:	17ffffc9 	b	2038b0 <lzma_main+0x130>
  203990:	4b0400c6 	sub	w6, w6, w4
  203994:	4b0400a4 	sub	w4, w5, w4
  203998:	29001166 	stp	w6, w4, [x11]
  20399c:	4b421442 	sub	w2, w2, w2, lsr #5
  2039a0:	11000421 	add	w1, w1, #0x1
  2039a4:	78276802 	strh	w2, [x0, x7]
  2039a8:	17ffffe8 	b	203948 <lzma_main+0x1c8>
  2039ac:	b9407d64 	ldr	w4, [x11, #124]
  2039b0:	cb040041 	sub	x1, x2, x4
  2039b4:	eb04007f 	cmp	x3, x4
  2039b8:	54000068 	b.hi	2039c4 <lzma_main+0x244>  // b.pmore
  2039bc:	f9401582 	ldr	x2, [x12, #40]
  2039c0:	8b020021 	add	x1, x1, x2
  2039c4:	b40004c6 	cbz	x6, 203a5c <lzma_main+0x2dc>
  2039c8:	3861690a 	ldrb	w10, [x8, x1]
  2039cc:	531f794a 	lsl	w10, w10, #1
  2039d0:	52802006 	mov	w6, #0x100                 	// #256
  2039d4:	52800021 	mov	w1, #0x1                   	// #1
  2039d8:	0a060150 	and	w16, w10, w6
  2039dc:	0b0100c2 	add	w2, w6, w1
  2039e0:	0b100042 	add	w2, w2, w16
  2039e4:	b9400164 	ldr	w4, [x11]
  2039e8:	531f794a 	lsl	w10, w10, #1
  2039ec:	d37ff842 	lsl	x2, x2, #1
  2039f0:	6b0d009f 	cmp	w4, w13
  2039f4:	54000168 	b.hi	203a20 <lzma_main+0x2a0>  // b.pmore
  2039f8:	53185c84 	lsl	w4, w4, #8
  2039fc:	b9000164 	str	w4, [x11]
  203a00:	f9400d64 	ldr	x4, [x11, #24]
  203a04:	f9400967 	ldr	x7, [x11, #16]
  203a08:	91000489 	add	x9, x4, #0x1
  203a0c:	f9000d69 	str	x9, [x11, #24]
  203a10:	b9400565 	ldr	w5, [x11, #4]
  203a14:	386468e4 	ldrb	w4, [x7, x4]
  203a18:	0b052084 	add	w4, w4, w5, lsl #8
  203a1c:	b9000564 	str	w4, [x11, #4]
  203a20:	29401d69 	ldp	w9, w7, [x11]
  203a24:	531f7821 	lsl	w1, w1, #1
  203a28:	78626804 	ldrh	w4, [x0, x2]
  203a2c:	530b7d25 	lsr	w5, w9, #11
  203a30:	1b047ca5 	mul	w5, w5, w4
  203a34:	6b0700bf 	cmp	w5, w7
  203a38:	54000169 	b.ls	203a64 <lzma_main+0x2e4>  // b.plast
  203a3c:	b9000165 	str	w5, [x11]
  203a40:	4b0401e5 	sub	w5, w15, w4
  203a44:	0a3000c6 	bic	w6, w6, w16
  203a48:	0b851484 	add	w4, w4, w5, asr #5
  203a4c:	78226804 	strh	w4, [x0, x2]
  203a50:	7103fc3f 	cmp	w1, #0xff
  203a54:	54fffc29 	b.ls	2039d8 <lzma_main+0x258>  // b.plast
  203a58:	17ffffbe 	b	203950 <lzma_main+0x1d0>
  203a5c:	5280000a 	mov	w10, #0x0                   	// #0
  203a60:	17ffffdb 	b	2039cc <lzma_main+0x24c>
  203a64:	4b050129 	sub	w9, w9, w5
  203a68:	4b0500e5 	sub	w5, w7, w5
  203a6c:	29001569 	stp	w9, w5, [x11]
  203a70:	4b441484 	sub	w4, w4, w4, lsr #5
  203a74:	11000421 	add	w1, w1, #0x1
  203a78:	2a1003e6 	mov	w6, w16
  203a7c:	78226804 	strh	w4, [x0, x2]
  203a80:	17fffff4 	b	203a50 <lzma_main+0x2d0>
  203a84:	51001802 	sub	w2, w0, #0x6
  203a88:	51000c01 	sub	w1, w0, #0x3
  203a8c:	7100281f 	cmp	w0, #0xa
  203a90:	1a823020 	csel	w0, w1, w2, cc  // cc = lo, ul, last
  203a94:	b9008d60 	str	w0, [x11, #140]
  203a98:	17ffff4b 	b	2037c4 <lzma_main+0x44>
  203a9c:	4b080000 	sub	w0, w0, w8
  203aa0:	4b080021 	sub	w1, w1, w8
  203aa4:	29000560 	stp	w0, w1, [x11]
  203aa8:	4b4714e7 	sub	w7, w7, w7, lsr #5
  203aac:	790140c7 	strh	w7, [x6, #160]
  203ab0:	6b0d001f 	cmp	w0, w13
  203ab4:	54000148 	b.hi	203adc <lzma_main+0x35c>  // b.pmore
  203ab8:	53185c00 	lsl	w0, w0, #8
  203abc:	b9000160 	str	w0, [x11]
  203ac0:	f9400d60 	ldr	x0, [x11, #24]
  203ac4:	f9400963 	ldr	x3, [x11, #16]
  203ac8:	91000407 	add	x7, x0, #0x1
  203acc:	f9000d67 	str	x7, [x11, #24]
  203ad0:	38606860 	ldrb	w0, [x3, x0]
  203ad4:	0b012001 	add	w1, w0, w1, lsl #8
  203ad8:	b9000561 	str	w1, [x11, #4]
  203adc:	8b050565 	add	x5, x11, x5, lsl #1
  203ae0:	b9400160 	ldr	w0, [x11]
  203ae4:	794440a3 	ldrh	w3, [x5, #544]
  203ae8:	530b7c01 	lsr	w1, w0, #11
  203aec:	1b037c27 	mul	w7, w1, w3
  203af0:	b9400561 	ldr	w1, [x11, #4]
  203af4:	6b0100ff 	cmp	w7, w1
  203af8:	54001909 	b.ls	203e18 <lzma_main+0x698>  // b.plast
  203afc:	4b0301e0 	sub	w0, w15, w3
  203b00:	71001c9f 	cmp	w4, #0x7
  203b04:	b9000167 	str	w7, [x11]
  203b08:	52800141 	mov	w1, #0xa                   	// #10
  203b0c:	0b801463 	add	w3, w3, w0, asr #5
  203b10:	528000e0 	mov	w0, #0x7                   	// #7
  203b14:	1a813000 	csel	w0, w0, w1, cc  // cc = lo, ul, last
  203b18:	790440a3 	strh	w3, [x5, #544]
  203b1c:	b9008d60 	str	w0, [x11, #140]
  203b20:	911c1161 	add	x1, x11, #0x704
  203b24:	b9408560 	ldr	w0, [x11, #132]
  203b28:	b9008960 	str	w0, [x11, #136]
  203b2c:	b9408160 	ldr	w0, [x11, #128]
  203b30:	b9008560 	str	w0, [x11, #132]
  203b34:	b9407d60 	ldr	w0, [x11, #124]
  203b38:	b9008160 	str	w0, [x11, #128]
  203b3c:	aa0b03e0 	mov	x0, x11
  203b40:	97fffe9b 	bl	2035ac <lzma_len>
  203b44:	b9409160 	ldr	w0, [x11, #144]
  203b48:	528000a1 	mov	w1, #0x5                   	// #5
  203b4c:	7100141f 	cmp	w0, #0x5
  203b50:	1a819001 	csel	w1, w0, w1, ls  // ls = plast
  203b54:	52800020 	mov	w0, #0x1                   	// #1
  203b58:	51000821 	sub	w1, w1, #0x2
  203b5c:	91002021 	add	x1, x1, #0x8
  203b60:	d379e021 	lsl	x1, x1, #7
  203b64:	b9400162 	ldr	w2, [x11]
  203b68:	8b204426 	add	x6, x1, w0, uxtw #1
  203b6c:	6b0d005f 	cmp	w2, w13
  203b70:	54000168 	b.hi	203b9c <lzma_main+0x41c>  // b.pmore
  203b74:	53185c42 	lsl	w2, w2, #8
  203b78:	b9000162 	str	w2, [x11]
  203b7c:	f9400d62 	ldr	x2, [x11, #24]
  203b80:	f9400964 	ldr	x4, [x11, #16]
  203b84:	91000445 	add	x5, x2, #0x1
  203b88:	f9000d65 	str	x5, [x11, #24]
  203b8c:	b9400563 	ldr	w3, [x11, #4]
  203b90:	38626882 	ldrb	w2, [x4, x2]
  203b94:	0b032042 	add	w2, w2, w3, lsl #8
  203b98:	b9000562 	str	w2, [x11, #4]
  203b9c:	29401165 	ldp	w5, w4, [x11]
  203ba0:	531f7800 	lsl	w0, w0, #1
  203ba4:	78666962 	ldrh	w2, [x11, x6]
  203ba8:	530b7ca3 	lsr	w3, w5, #11
  203bac:	1b027c63 	mul	w3, w3, w2
  203bb0:	6b04007f 	cmp	w3, w4
  203bb4:	54000269 	b.ls	203c00 <lzma_main+0x480>  // b.plast
  203bb8:	b9000163 	str	w3, [x11]
  203bbc:	4b0201e3 	sub	w3, w15, w2
  203bc0:	0b831442 	add	w2, w2, w3, asr #5
  203bc4:	78266962 	strh	w2, [x11, x6]
  203bc8:	7100fc1f 	cmp	w0, #0x3f
  203bcc:	54fffcc9 	b.ls	203b64 <lzma_main+0x3e4>  // b.plast
  203bd0:	51010000 	sub	w0, w0, #0x40
  203bd4:	71000c1f 	cmp	w0, #0x3
  203bd8:	54000228 	b.hi	203c1c <lzma_main+0x49c>  // b.pmore
  203bdc:	b9007d60 	str	w0, [x11, #124]
  203be0:	b9407d62 	ldr	w2, [x11, #124]
  203be4:	91024161 	add	x1, x11, #0x90
  203be8:	aa0c03e0 	mov	x0, x12
  203bec:	97fffe45 	bl	203500 <dict_repeat>
  203bf0:	72001c00 	ands	w0, w0, #0xff
  203bf4:	54ffde81 	b.ne	2037c4 <lzma_main+0x44>  // b.any
  203bf8:	a8c17bfd 	ldp	x29, x30, [sp], #16
  203bfc:	d65f03c0 	ret
  203c00:	4b0300a5 	sub	w5, w5, w3
  203c04:	4b030083 	sub	w3, w4, w3
  203c08:	29000d65 	stp	w5, w3, [x11]
  203c0c:	4b421442 	sub	w2, w2, w2, lsr #5
  203c10:	11000400 	add	w0, w0, #0x1
  203c14:	78266962 	strh	w2, [x11, x6]
  203c18:	17ffffec 	b	203bc8 <lzma_main+0x448>
  203c1c:	12000001 	and	w1, w0, #0x1
  203c20:	53017c02 	lsr	w2, w0, #1
  203c24:	11000821 	add	w1, w1, #0x2
  203c28:	7100341f 	cmp	w0, #0xd
  203c2c:	54000648 	b.hi	203cf4 <lzma_main+0x574>  // b.pmore
  203c30:	51000446 	sub	w6, w2, #0x1
  203c34:	91180167 	add	x7, x11, #0x600
  203c38:	52800009 	mov	w9, #0x0                   	// #0
  203c3c:	52800028 	mov	w8, #0x1                   	// #1
  203c40:	1ac62021 	lsl	w1, w1, w6
  203c44:	b9007d61 	str	w1, [x11, #124]
  203c48:	cb204020 	sub	x0, x1, w0, uxtw
  203c4c:	d37ff800 	lsl	x0, x0, #1
  203c50:	d1000800 	sub	x0, x0, #0x2
  203c54:	b9400161 	ldr	w1, [x11]
  203c58:	8b284405 	add	x5, x0, w8, uxtw #1
  203c5c:	6b0d003f 	cmp	w1, w13
  203c60:	54000168 	b.hi	203c8c <lzma_main+0x50c>  // b.pmore
  203c64:	53185c21 	lsl	w1, w1, #8
  203c68:	b9000161 	str	w1, [x11]
  203c6c:	f9400d61 	ldr	x1, [x11, #24]
  203c70:	f9400962 	ldr	x2, [x11, #16]
  203c74:	91000424 	add	x4, x1, #0x1
  203c78:	f9000d64 	str	x4, [x11, #24]
  203c7c:	b9400563 	ldr	w3, [x11, #4]
  203c80:	38616841 	ldrb	w1, [x2, x1]
  203c84:	0b032021 	add	w1, w1, w3, lsl #8
  203c88:	b9000561 	str	w1, [x11, #4]
  203c8c:	29400d64 	ldp	w4, w3, [x11]
  203c90:	531f7908 	lsl	w8, w8, #1
  203c94:	786568e1 	ldrh	w1, [x7, x5]
  203c98:	530b7c82 	lsr	w2, w4, #11
  203c9c:	1b017c42 	mul	w2, w2, w1
  203ca0:	6b03005f 	cmp	w2, w3
  203ca4:	54000129 	b.ls	203cc8 <lzma_main+0x548>  // b.plast
  203ca8:	4b0101e3 	sub	w3, w15, w1
  203cac:	b9000162 	str	w2, [x11]
  203cb0:	0b831421 	add	w1, w1, w3, asr #5
  203cb4:	782568e1 	strh	w1, [x7, x5]
  203cb8:	11000529 	add	w9, w9, #0x1
  203cbc:	6b0900df 	cmp	w6, w9
  203cc0:	54fffca8 	b.hi	203c54 <lzma_main+0x4d4>  // b.pmore
  203cc4:	17ffffc7 	b	203be0 <lzma_main+0x460>
  203cc8:	b9407d6a 	ldr	w10, [x11, #124]
  203ccc:	4b020084 	sub	w4, w4, w2
  203cd0:	4b020063 	sub	w3, w3, w2
  203cd4:	29000d64 	stp	w4, w3, [x11]
  203cd8:	4b411421 	sub	w1, w1, w1, lsr #5
  203cdc:	782568e1 	strh	w1, [x7, x5]
  203ce0:	11000508 	add	w8, w8, #0x1
  203ce4:	1ac921c1 	lsl	w1, w14, w9
  203ce8:	0b0a0021 	add	w1, w1, w10
  203cec:	b9007d61 	str	w1, [x11, #124]
  203cf0:	17fffff2 	b	203cb8 <lzma_main+0x538>
  203cf4:	51001440 	sub	w0, w2, #0x5
  203cf8:	b9007d61 	str	w1, [x11, #124]
  203cfc:	b9400161 	ldr	w1, [x11]
  203d00:	6b0d003f 	cmp	w1, w13
  203d04:	54000168 	b.hi	203d30 <lzma_main+0x5b0>  // b.pmore
  203d08:	53185c21 	lsl	w1, w1, #8
  203d0c:	b9000161 	str	w1, [x11]
  203d10:	f9400d61 	ldr	x1, [x11, #24]
  203d14:	f9400963 	ldr	x3, [x11, #16]
  203d18:	91000424 	add	x4, x1, #0x1
  203d1c:	f9000d64 	str	x4, [x11, #24]
  203d20:	b9400562 	ldr	w2, [x11, #4]
  203d24:	38616861 	ldrb	w1, [x3, x1]
  203d28:	0b022021 	add	w1, w1, w2, lsl #8
  203d2c:	b9000561 	str	w1, [x11, #4]
  203d30:	29400562 	ldp	w2, w1, [x11]
  203d34:	71000400 	subs	w0, w0, #0x1
  203d38:	53017c42 	lsr	w2, w2, #1
  203d3c:	b9000162 	str	w2, [x11]
  203d40:	4b020021 	sub	w1, w1, w2
  203d44:	0a817c42 	and	w2, w2, w1, asr #31
  203d48:	0b010042 	add	w2, w2, w1
  203d4c:	b9000562 	str	w2, [x11, #4]
  203d50:	b9407d62 	ldr	w2, [x11, #124]
  203d54:	531f7842 	lsl	w2, w2, #1
  203d58:	11000442 	add	w2, w2, #0x1
  203d5c:	0b817c41 	add	w1, w2, w1, asr #31
  203d60:	b9007d61 	str	w1, [x11, #124]
  203d64:	54fffcc1 	b.ne	203cfc <lzma_main+0x57c>  // b.any
  203d68:	911b9166 	add	x6, x11, #0x6e4
  203d6c:	531c6c21 	lsl	w1, w1, #4
  203d70:	52800023 	mov	w3, #0x1                   	// #1
  203d74:	b9007d61 	str	w1, [x11, #124]
  203d78:	b9400161 	ldr	w1, [x11]
  203d7c:	d37f7c67 	ubfiz	x7, x3, #1, #32
  203d80:	6b0d003f 	cmp	w1, w13
  203d84:	54000168 	b.hi	203db0 <lzma_main+0x630>  // b.pmore
  203d88:	53185c21 	lsl	w1, w1, #8
  203d8c:	b9000161 	str	w1, [x11]
  203d90:	f9400d61 	ldr	x1, [x11, #24]
  203d94:	f9400964 	ldr	x4, [x11, #16]
  203d98:	91000425 	add	x5, x1, #0x1
  203d9c:	f9000d65 	str	x5, [x11, #24]
  203da0:	b9400562 	ldr	w2, [x11, #4]
  203da4:	38616881 	ldrb	w1, [x4, x1]
  203da8:	0b022021 	add	w1, w1, w2, lsl #8
  203dac:	b9000561 	str	w1, [x11, #4]
  203db0:	29401165 	ldp	w5, w4, [x11]
  203db4:	531f7863 	lsl	w3, w3, #1
  203db8:	786768c1 	ldrh	w1, [x6, x7]
  203dbc:	530b7ca2 	lsr	w2, w5, #11
  203dc0:	1b017c42 	mul	w2, w2, w1
  203dc4:	6b04005f 	cmp	w2, w4
  203dc8:	54000129 	b.ls	203dec <lzma_main+0x66c>  // b.plast
  203dcc:	b9000162 	str	w2, [x11]
  203dd0:	4b0101e2 	sub	w2, w15, w1
  203dd4:	0b821421 	add	w1, w1, w2, asr #5
  203dd8:	782768c1 	strh	w1, [x6, x7]
  203ddc:	11000400 	add	w0, w0, #0x1
  203de0:	7100101f 	cmp	w0, #0x4
  203de4:	54fffca1 	b.ne	203d78 <lzma_main+0x5f8>  // b.any
  203de8:	17ffff7e 	b	203be0 <lzma_main+0x460>
  203dec:	b9407d68 	ldr	w8, [x11, #124]
  203df0:	4b0200a5 	sub	w5, w5, w2
  203df4:	4b020082 	sub	w2, w4, w2
  203df8:	29000965 	stp	w5, w2, [x11]
  203dfc:	4b411421 	sub	w1, w1, w1, lsr #5
  203e00:	782768c1 	strh	w1, [x6, x7]
  203e04:	11000463 	add	w3, w3, #0x1
  203e08:	1ac021c1 	lsl	w1, w14, w0
  203e0c:	0b080021 	add	w1, w1, w8
  203e10:	b9007d61 	str	w1, [x11, #124]
  203e14:	17fffff2 	b	203ddc <lzma_main+0x65c>
  203e18:	4b070000 	sub	w0, w0, w7
  203e1c:	4b070021 	sub	w1, w1, w7
  203e20:	29000560 	stp	w0, w1, [x11]
  203e24:	4b431463 	sub	w3, w3, w3, lsr #5
  203e28:	790440a3 	strh	w3, [x5, #544]
  203e2c:	6b0d001f 	cmp	w0, w13
  203e30:	54000148 	b.hi	203e58 <lzma_main+0x6d8>  // b.pmore
  203e34:	53185c00 	lsl	w0, w0, #8
  203e38:	b9000160 	str	w0, [x11]
  203e3c:	f9400d60 	ldr	x0, [x11, #24]
  203e40:	f9400963 	ldr	x3, [x11, #16]
  203e44:	91000407 	add	x7, x0, #0x1
  203e48:	f9000d67 	str	x7, [x11, #24]
  203e4c:	38606860 	ldrb	w0, [x3, x0]
  203e50:	0b012001 	add	w1, w0, w1, lsl #8
  203e54:	b9000561 	str	w1, [x11, #4]
  203e58:	b9400163 	ldr	w3, [x11]
  203e5c:	794470a7 	ldrh	w7, [x5, #568]
  203e60:	530b7c60 	lsr	w0, w3, #11
  203e64:	1b077c01 	mul	w1, w0, w7
  203e68:	b9400560 	ldr	w0, [x11, #4]
  203e6c:	6b00003f 	cmp	w1, w0
  203e70:	540002e9 	b.ls	203ecc <lzma_main+0x74c>  // b.plast
  203e74:	4b0701e3 	sub	w3, w15, w7
  203e78:	b9000161 	str	w1, [x11]
  203e7c:	0b8314e7 	add	w7, w7, w3, asr #5
  203e80:	790470a7 	strh	w7, [x5, #568]
  203e84:	6b0d003f 	cmp	w1, w13
  203e88:	540004e9 	b.ls	203f24 <lzma_main+0x7a4>  // b.plast
  203e8c:	29400d65 	ldp	w5, w3, [x11]
  203e90:	794500c0 	ldrh	w0, [x6, #640]
  203e94:	530b7ca1 	lsr	w1, w5, #11
  203e98:	1b007c21 	mul	w1, w1, w0
  203e9c:	6b03003f 	cmp	w1, w3
  203ea0:	54000569 	b.ls	203f4c <lzma_main+0x7cc>  // b.plast
  203ea4:	b9000161 	str	w1, [x11]
  203ea8:	4b0001e1 	sub	w1, w15, w0
  203eac:	71001c9f 	cmp	w4, #0x7
  203eb0:	0b811400 	add	w0, w0, w1, asr #5
  203eb4:	790500c0 	strh	w0, [x6, #640]
  203eb8:	52800161 	mov	w1, #0xb                   	// #11
  203ebc:	52800120 	mov	w0, #0x9                   	// #9
  203ec0:	1a813000 	csel	w0, w0, w1, cc  // cc = lo, ul, last
  203ec4:	2911b960 	stp	w0, w14, [x11, #140]
  203ec8:	17ffff46 	b	203be0 <lzma_main+0x460>
  203ecc:	4b010063 	sub	w3, w3, w1
  203ed0:	4b010000 	sub	w0, w0, w1
  203ed4:	29000163 	stp	w3, w0, [x11]
  203ed8:	4b4714e7 	sub	w7, w7, w7, lsr #5
  203edc:	790470a7 	strh	w7, [x5, #568]
  203ee0:	6b0d007f 	cmp	w3, w13
  203ee4:	54000509 	b.ls	203f84 <lzma_main+0x804>  // b.plast
  203ee8:	b9400160 	ldr	w0, [x11]
  203eec:	7944a0a3 	ldrh	w3, [x5, #592]
  203ef0:	b9408167 	ldr	w7, [x11, #128]
  203ef4:	530b7c01 	lsr	w1, w0, #11
  203ef8:	1b037c26 	mul	w6, w1, w3
  203efc:	b9400561 	ldr	w1, [x11, #4]
  203f00:	6b0100df 	cmp	w6, w1
  203f04:	54000549 	b.ls	203fac <lzma_main+0x82c>  // b.plast
  203f08:	4b0301e0 	sub	w0, w15, w3
  203f0c:	b9000166 	str	w6, [x11]
  203f10:	0b801463 	add	w3, w3, w0, asr #5
  203f14:	7904a0a3 	strh	w3, [x5, #592]
  203f18:	b9407d60 	ldr	w0, [x11, #124]
  203f1c:	290f8167 	stp	w7, w0, [x11, #124]
  203f20:	14000010 	b	203f60 <lzma_main+0x7e0>
  203f24:	53185c21 	lsl	w1, w1, #8
  203f28:	b9000161 	str	w1, [x11]
  203f2c:	f9400d61 	ldr	x1, [x11, #24]
  203f30:	f9400963 	ldr	x3, [x11, #16]
  203f34:	91000425 	add	x5, x1, #0x1
  203f38:	f9000d65 	str	x5, [x11, #24]
  203f3c:	38616861 	ldrb	w1, [x3, x1]
  203f40:	0b002020 	add	w0, w1, w0, lsl #8
  203f44:	b9000560 	str	w0, [x11, #4]
  203f48:	17ffffd1 	b	203e8c <lzma_main+0x70c>
  203f4c:	4b0100a5 	sub	w5, w5, w1
  203f50:	4b010061 	sub	w1, w3, w1
  203f54:	29000565 	stp	w5, w1, [x11]
  203f58:	4b401400 	sub	w0, w0, w0, lsr #5
  203f5c:	790500c0 	strh	w0, [x6, #640]
  203f60:	71001c9f 	cmp	w4, #0x7
  203f64:	52800161 	mov	w1, #0xb                   	// #11
  203f68:	52800100 	mov	w0, #0x8                   	// #8
  203f6c:	1a813000 	csel	w0, w0, w1, cc  // cc = lo, ul, last
  203f70:	b9008d60 	str	w0, [x11, #140]
  203f74:	912c2161 	add	x1, x11, #0xb08
  203f78:	aa0b03e0 	mov	x0, x11
  203f7c:	97fffd8c 	bl	2035ac <lzma_len>
  203f80:	17ffff18 	b	203be0 <lzma_main+0x460>
  203f84:	53185c63 	lsl	w3, w3, #8
  203f88:	b9000163 	str	w3, [x11]
  203f8c:	f9400d61 	ldr	x1, [x11, #24]
  203f90:	f9400963 	ldr	x3, [x11, #16]
  203f94:	91000426 	add	x6, x1, #0x1
  203f98:	f9000d66 	str	x6, [x11, #24]
  203f9c:	38616861 	ldrb	w1, [x3, x1]
  203fa0:	0b002020 	add	w0, w1, w0, lsl #8
  203fa4:	b9000560 	str	w0, [x11, #4]
  203fa8:	17ffffd0 	b	203ee8 <lzma_main+0x768>
  203fac:	4b060000 	sub	w0, w0, w6
  203fb0:	4b060021 	sub	w1, w1, w6
  203fb4:	29000560 	stp	w0, w1, [x11]
  203fb8:	4b431463 	sub	w3, w3, w3, lsr #5
  203fbc:	7904a0a3 	strh	w3, [x5, #592]
  203fc0:	6b0d001f 	cmp	w0, w13
  203fc4:	54000148 	b.hi	203fec <lzma_main+0x86c>  // b.pmore
  203fc8:	53185c00 	lsl	w0, w0, #8
  203fcc:	b9000160 	str	w0, [x11]
  203fd0:	f9400d60 	ldr	x0, [x11, #24]
  203fd4:	f9400963 	ldr	x3, [x11, #16]
  203fd8:	91000406 	add	x6, x0, #0x1
  203fdc:	f9000d66 	str	x6, [x11, #24]
  203fe0:	38606860 	ldrb	w0, [x3, x0]
  203fe4:	0b012001 	add	w1, w0, w1, lsl #8
  203fe8:	b9000561 	str	w1, [x11, #4]
  203fec:	29400d66 	ldp	w6, w3, [x11]
  203ff0:	7944d0a0 	ldrh	w0, [x5, #616]
  203ff4:	b9408568 	ldr	w8, [x11, #132]
  203ff8:	530b7cc1 	lsr	w1, w6, #11
  203ffc:	1b007c21 	mul	w1, w1, w0
  204000:	6b03003f 	cmp	w1, w3
  204004:	54000109 	b.ls	204024 <lzma_main+0x8a4>  // b.plast
  204008:	b9000161 	str	w1, [x11]
  20400c:	4b0001e1 	sub	w1, w15, w0
  204010:	0b811400 	add	w0, w0, w1, asr #5
  204014:	7904d0a0 	strh	w0, [x5, #616]
  204018:	b9008567 	str	w7, [x11, #132]
  20401c:	2a0803e7 	mov	w7, w8
  204020:	17ffffbe 	b	203f18 <lzma_main+0x798>
  204024:	4b0100c6 	sub	w6, w6, w1
  204028:	4b401400 	sub	w0, w0, w0, lsr #5
  20402c:	4b010061 	sub	w1, w3, w1
  204030:	29000566 	stp	w6, w1, [x11]
  204034:	7904d0a0 	strh	w0, [x5, #616]
  204038:	b9408960 	ldr	w0, [x11, #136]
  20403c:	b9008968 	str	w8, [x11, #136]
  204040:	2a0003e8 	mov	w8, w0
  204044:	17fffff5 	b	204018 <lzma_main+0x898>

0000000000204048 <xz_dec_lzma2_run>:
  204048:	a9ba7bfd 	stp	x29, x30, [sp, #-96]!
  20404c:	d28de203 	mov	x3, #0x6f10                	// #28432
  204050:	910003fd 	mov	x29, sp
  204054:	a90153f3 	stp	x19, x20, [sp, #16]
  204058:	aa0003f3 	mov	x19, x0
  20405c:	aa0103f4 	mov	x20, x1
  204060:	a9025bf5 	stp	x21, x22, [sp, #32]
  204064:	90000056 	adrp	x22, 20c000 <vprintf+0x2b8>
  204068:	8b030015 	add	x21, x0, x3
  20406c:	911042d6 	add	x22, x22, #0x410
  204070:	a90363f7 	stp	x23, x24, [sp, #48]
  204074:	d2800077 	mov	x23, #0x3                   	// #3
  204078:	f2c00117 	movk	x23, #0x8, lsl #32
  20407c:	a9046bf9 	stp	x25, x26, [sp, #64]
  204080:	f9002bfb 	str	x27, [sp, #80]
  204084:	a9408a80 	ldp	x0, x2, [x20, #8]
  204088:	b9406a61 	ldr	w1, [x19, #104]
  20408c:	eb02001f 	cmp	x0, x2
  204090:	54000bc3 	b.cc	204208 <xz_dec_lzma2_run+0x1c0>  // b.lo, b.ul, b.last
  204094:	71001c3f 	cmp	w1, #0x7
  204098:	540026a1 	b.ne	20456c <xz_dec_lzma2_run+0x524>  // b.any
  20409c:	a9420281 	ldp	x1, x0, [x20, #32]
  2040a0:	9100a279 	add	x25, x19, #0x28
  2040a4:	f9400b23 	ldr	x3, [x25, #16]
  2040a8:	cb010000 	sub	x0, x0, x1
  2040ac:	b9407261 	ldr	w1, [x19, #112]
  2040b0:	eb01001f 	cmp	x0, x1
  2040b4:	9a819000 	csel	x0, x0, x1, ls  // ls = plast
  2040b8:	f9401721 	ldr	x1, [x25, #40]
  2040bc:	cb030024 	sub	x4, x1, x3
  2040c0:	eb04001f 	cmp	x0, x4
  2040c4:	54000042 	b.cs	2040cc <xz_dec_lzma2_run+0x84>  // b.hs, b.nlast
  2040c8:	8b030001 	add	x1, x0, x3
  2040cc:	91401278 	add	x24, x19, #0x4, lsl #12
  2040d0:	b96f0f00 	ldr	w0, [x24, #12044]
  2040d4:	f9001321 	str	x1, [x25, #32]
  2040d8:	f9400681 	ldr	x1, [x20, #8]
  2040dc:	cb010044 	sub	x4, x2, x1
  2040e0:	b9407662 	ldr	w2, [x19, #116]
  2040e4:	35000040 	cbnz	w0, 2040ec <xz_dec_lzma2_run+0xa4>
  2040e8:	35002762 	cbnz	w2, 2045d4 <xz_dec_lzma2_run+0x58c>
  2040ec:	4b000042 	sub	w2, w2, w0
  2040f0:	52800543 	mov	w3, #0x2a                  	// #42
  2040f4:	4b000063 	sub	w3, w3, w0
  2040f8:	8b2042a0 	add	x0, x21, w0, uxtw
  2040fc:	6b03005f 	cmp	w2, w3
  204100:	1a83905a 	csel	w26, w2, w3, ls  // ls = plast
  204104:	1a839042 	csel	w2, w2, w3, ls  // ls = plast
  204108:	f9400283 	ldr	x3, [x20]
  20410c:	eb02009f 	cmp	x4, x2
  204110:	1a84235a 	csel	w26, w26, w4, cs  // cs = hs, nlast
  204114:	2a1a03fb 	mov	w27, w26
  204118:	8b010061 	add	x1, x3, x1
  20411c:	aa1b03e2 	mov	x2, x27
  204120:	94001ea3 	bl	20bbac <memcpy>
  204124:	b96f0f00 	ldr	w0, [x24, #12044]
  204128:	b9407662 	ldr	w2, [x19, #116]
  20412c:	0b000341 	add	w1, w26, w0
  204130:	6b02003f 	cmp	w1, w2
  204134:	54002321 	b.ne	204598 <xz_dec_lzma2_run+0x550>  // b.any
  204138:	8b204360 	add	x0, x27, w0, uxtw
  20413c:	d28007e2 	mov	x2, #0x3f                  	// #63
  204140:	52800001 	mov	w1, #0x0                   	// #0
  204144:	cb000042 	sub	x2, x2, x0
  204148:	8b0002a0 	add	x0, x21, x0
  20414c:	94001ead 	bl	20bc00 <memset>
  204150:	b96f0f00 	ldr	w0, [x24, #12044]
  204154:	0b000340 	add	w0, w26, w0
  204158:	f9001260 	str	x0, [x19, #32]
  20415c:	a9017e75 	stp	x21, xzr, [x19, #16]
  204160:	aa1303e0 	mov	x0, x19
  204164:	97fffd87 	bl	203780 <lzma_main>
  204168:	72001c1f 	tst	w0, #0xff
  20416c:	54000f60 	b.eq	204358 <xz_dec_lzma2_run+0x310>  // b.none
  204170:	b96f0f02 	ldr	w2, [x24, #12044]
  204174:	f9400e61 	ldr	x1, [x19, #24]
  204178:	0b02035a 	add	w26, w26, w2
  20417c:	eb1a003f 	cmp	x1, x26
  204180:	54000ec8 	b.hi	204358 <xz_dec_lzma2_run+0x310>  // b.pmore
  204184:	b9407660 	ldr	w0, [x19, #116]
  204188:	4b010000 	sub	w0, w0, w1
  20418c:	b9007660 	str	w0, [x19, #116]
  204190:	2a0203e0 	mov	w0, w2
  204194:	eb22403f 	cmp	x1, w2, uxtw
  204198:	54002142 	b.cs	2045c0 <xz_dec_lzma2_run+0x578>  // b.hs, b.nlast
  20419c:	4b010042 	sub	w2, w2, w1
  2041a0:	b92f0f02 	str	w2, [x24, #12044]
  2041a4:	8b0102a1 	add	x1, x21, x1
  2041a8:	aa1503e0 	mov	x0, x21
  2041ac:	94001e88 	bl	20bbcc <memmove>
  2041b0:	a9408321 	ldp	x1, x0, [x25, #8]
  2041b4:	cb010002 	sub	x2, x0, x1
  2041b8:	b9407261 	ldr	w1, [x19, #112]
  2041bc:	f9000720 	str	x0, [x25, #8]
  2041c0:	f9401280 	ldr	x0, [x20, #32]
  2041c4:	4b020021 	sub	w1, w1, w2
  2041c8:	8b000040 	add	x0, x2, x0
  2041cc:	f9001280 	str	x0, [x20, #32]
  2041d0:	b9007261 	str	w1, [x19, #112]
  2041d4:	35002541 	cbnz	w1, 20467c <xz_dec_lzma2_run+0x634>
  2041d8:	b9407660 	ldr	w0, [x19, #116]
  2041dc:	35000be0 	cbnz	w0, 204358 <xz_dec_lzma2_run+0x310>
  2041e0:	b9409260 	ldr	w0, [x19, #144]
  2041e4:	35000ba0 	cbnz	w0, 204358 <xz_dec_lzma2_run+0x310>
  2041e8:	b9400660 	ldr	w0, [x19, #4]
  2041ec:	35000b60 	cbnz	w0, 204358 <xz_dec_lzma2_run+0x310>
  2041f0:	b2407fe0 	mov	x0, #0xffffffff            	// #4294967295
  2041f4:	f9000260 	str	x0, [x19]
  2041f8:	528000a0 	mov	w0, #0x5                   	// #5
  2041fc:	b9000a60 	str	w0, [x19, #8]
  204200:	b9006a7f 	str	wzr, [x19, #104]
  204204:	17ffffa0 	b	204084 <xz_dec_lzma2_run+0x3c>
  204208:	7100203f 	cmp	w1, #0x8
  20420c:	54fff408 	b.hi	20408c <xz_dec_lzma2_run+0x44>  // b.pmore
  204210:	78615ac1 	ldrh	w1, [x22, w1, uxtw #1]
  204214:	10000063 	adr	x3, 204220 <xz_dec_lzma2_run+0x1d8>
  204218:	8b21a861 	add	x1, x3, w1, sxth #2
  20421c:	d61f0020 	br	x1
  204220:	9100a279 	add	x25, x19, #0x28
  204224:	b9407664 	ldr	w4, [x19, #116]
  204228:	a9409681 	ldp	x1, x5, [x20, #8]
  20422c:	34fffea4 	cbz	w4, 204200 <xz_dec_lzma2_run+0x1b8>
  204230:	eb05003f 	cmp	x1, x5
  204234:	540019c2 	b.cs	20456c <xz_dec_lzma2_run+0x524>  // b.hs, b.nlast
  204238:	a9420e82 	ldp	x2, x3, [x20, #32]
  20423c:	eb02007f 	cmp	x3, x2
  204240:	54001969 	b.ls	20456c <xz_dec_lzma2_run+0x524>  // b.plast
  204244:	f9400b20 	ldr	x0, [x25, #16]
  204248:	cb0100a5 	sub	x5, x5, x1
  20424c:	f9401738 	ldr	x24, [x25, #40]
  204250:	2a0403e6 	mov	w6, w4
  204254:	cb020063 	sub	x3, x3, x2
  204258:	cb000318 	sub	x24, x24, x0
  20425c:	eb24431f 	cmp	x24, w4, uxtw
  204260:	9a869318 	csel	x24, x24, x6, ls  // ls = plast
  204264:	eb05007f 	cmp	x3, x5
  204268:	9a859063 	csel	x3, x3, x5, ls  // ls = plast
  20426c:	eb03031f 	cmp	x24, x3
  204270:	9a839318 	csel	x24, x24, x3, ls  // ls = plast
  204274:	4b180084 	sub	w4, w4, w24
  204278:	aa1803e2 	mov	x2, x24
  20427c:	f9400323 	ldr	x3, [x25]
  204280:	b9007664 	str	w4, [x19, #116]
  204284:	f9400284 	ldr	x4, [x20]
  204288:	8b000060 	add	x0, x3, x0
  20428c:	8b010081 	add	x1, x4, x1
  204290:	94001e4f 	bl	20bbcc <memmove>
  204294:	a9410720 	ldp	x0, x1, [x25, #16]
  204298:	8b000300 	add	x0, x24, x0
  20429c:	f9000b20 	str	x0, [x25, #16]
  2042a0:	eb01001f 	cmp	x0, x1
  2042a4:	54000049 	b.ls	2042ac <xz_dec_lzma2_run+0x264>  // b.plast
  2042a8:	f9000f20 	str	x0, [x25, #24]
  2042ac:	f9000720 	str	x0, [x25, #8]
  2042b0:	f9401280 	ldr	x0, [x20, #32]
  2042b4:	8b180000 	add	x0, x0, x24
  2042b8:	f9001280 	str	x0, [x20, #32]
  2042bc:	f9400680 	ldr	x0, [x20, #8]
  2042c0:	8b180000 	add	x0, x0, x24
  2042c4:	f9000680 	str	x0, [x20, #8]
  2042c8:	17ffffd7 	b	204224 <xz_dec_lzma2_run+0x1dc>
  2042cc:	f9400281 	ldr	x1, [x20]
  2042d0:	91000402 	add	x2, x0, #0x1
  2042d4:	f9000682 	str	x2, [x20, #8]
  2042d8:	38606820 	ldrb	w0, [x1, x0]
  2042dc:	34001e60 	cbz	w0, 2046a8 <xz_dec_lzma2_run+0x660>
  2042e0:	71037c1f 	cmp	w0, #0xdf
  2042e4:	7a419804 	ccmp	w0, #0x1, #0x4, ls  // ls = plast
  2042e8:	54000341 	b.ne	204350 <xz_dec_lzma2_run+0x308>  // b.any
  2042ec:	52802001 	mov	w1, #0x100                 	// #256
  2042f0:	7900f261 	strh	w1, [x19, #120]
  2042f4:	9100a261 	add	x1, x19, #0x28
  2042f8:	b9403c22 	ldr	w2, [x1, #60]
  2042fc:	350000e2 	cbnz	w2, 204318 <xz_dec_lzma2_run+0x2d0>
  204300:	a9419283 	ldp	x3, x4, [x20, #24]
  204304:	f9401682 	ldr	x2, [x20, #40]
  204308:	8b040063 	add	x3, x3, x4
  20430c:	f9001663 	str	x3, [x19, #40]
  204310:	cb040042 	sub	x2, x2, x4
  204314:	f9001422 	str	x2, [x1, #40]
  204318:	a900fc3f 	stp	xzr, xzr, [x1, #8]
  20431c:	a901fc3f 	stp	xzr, xzr, [x1, #24]
  204320:	7101fc1f 	cmp	w0, #0x7f
  204324:	54000529 	b.ls	2043c8 <xz_dec_lzma2_run+0x380>  // b.plast
  204328:	53101001 	ubfiz	w1, w0, #16, #5
  20432c:	b9007261 	str	w1, [x19, #112]
  204330:	52800021 	mov	w1, #0x1                   	// #1
  204334:	b9006a61 	str	w1, [x19, #104]
  204338:	7102fc1f 	cmp	w0, #0xbf
  20433c:	540001e9 	b.ls	204378 <xz_dec_lzma2_run+0x330>  // b.plast
  204340:	528000a0 	mov	w0, #0x5                   	// #5
  204344:	b9006e60 	str	w0, [x19, #108]
  204348:	3901e67f 	strb	wzr, [x19, #121]
  20434c:	17ffff4e 	b	204084 <xz_dec_lzma2_run+0x3c>
  204350:	3941e261 	ldrb	w1, [x19, #120]
  204354:	34fffe61 	cbz	w1, 204320 <xz_dec_lzma2_run+0x2d8>
  204358:	528000e0 	mov	w0, #0x7                   	// #7
  20435c:	a94153f3 	ldp	x19, x20, [sp, #16]
  204360:	a9425bf5 	ldp	x21, x22, [sp, #32]
  204364:	a94363f7 	ldp	x23, x24, [sp, #48]
  204368:	a9446bf9 	ldp	x25, x26, [sp, #64]
  20436c:	f9402bfb 	ldr	x27, [sp, #80]
  204370:	a8c67bfd 	ldp	x29, x30, [sp], #96
  204374:	d65f03c0 	ret
  204378:	3941e661 	ldrb	w1, [x19, #121]
  20437c:	35fffee1 	cbnz	w1, 204358 <xz_dec_lzma2_run+0x310>
  204380:	528000c1 	mov	w1, #0x6                   	// #6
  204384:	b9006e61 	str	w1, [x19, #108]
  204388:	71027c1f 	cmp	w0, #0x9f
  20438c:	54ffe7c9 	b.ls	204084 <xz_dec_lzma2_run+0x3c>  // b.plast
  204390:	d28de182 	mov	x2, #0x6f0c                	// #28428
  204394:	91028260 	add	x0, x19, #0xa0
  204398:	8b020261 	add	x1, x19, x2
  20439c:	52808002 	mov	w2, #0x400                 	// #1024
  2043a0:	b9007e7f 	str	wzr, [x19, #124]
  2043a4:	a9087e7f 	stp	xzr, xzr, [x19, #128]
  2043a8:	78002402 	strh	w2, [x0], #2
  2043ac:	eb00003f 	cmp	x1, x0
  2043b0:	54ffffc1 	b.ne	2043a8 <xz_dec_lzma2_run+0x360>  // b.any
  2043b4:	b2407fe0 	mov	x0, #0xffffffff            	// #4294967295
  2043b8:	f9000260 	str	x0, [x19]
  2043bc:	528000a0 	mov	w0, #0x5                   	// #5
  2043c0:	b9000a60 	str	w0, [x19, #8]
  2043c4:	17ffff30 	b	204084 <xz_dec_lzma2_run+0x3c>
  2043c8:	7100081f 	cmp	w0, #0x2
  2043cc:	54fffc68 	b.hi	204358 <xz_dec_lzma2_run+0x310>  // b.pmore
  2043d0:	f9003677 	str	x23, [x19, #104]
  2043d4:	17ffff2c 	b	204084 <xz_dec_lzma2_run+0x3c>
  2043d8:	f9400281 	ldr	x1, [x20]
  2043dc:	91000402 	add	x2, x0, #0x1
  2043e0:	f9000682 	str	x2, [x20, #8]
  2043e4:	38606820 	ldrb	w0, [x1, x0]
  2043e8:	b9407261 	ldr	w1, [x19, #112]
  2043ec:	0b002020 	add	w0, w1, w0, lsl #8
  2043f0:	b9007260 	str	w0, [x19, #112]
  2043f4:	52800040 	mov	w0, #0x2                   	// #2
  2043f8:	b9006a60 	str	w0, [x19, #104]
  2043fc:	17ffff22 	b	204084 <xz_dec_lzma2_run+0x3c>
  204400:	f9400281 	ldr	x1, [x20]
  204404:	91000402 	add	x2, x0, #0x1
  204408:	f9000682 	str	x2, [x20, #8]
  20440c:	38606820 	ldrb	w0, [x1, x0]
  204410:	b9407261 	ldr	w1, [x19, #112]
  204414:	11000421 	add	w1, w1, #0x1
  204418:	0b010000 	add	w0, w0, w1
  20441c:	b9007260 	str	w0, [x19, #112]
  204420:	52800060 	mov	w0, #0x3                   	// #3
  204424:	17fffff5 	b	2043f8 <xz_dec_lzma2_run+0x3b0>
  204428:	f9400281 	ldr	x1, [x20]
  20442c:	91000402 	add	x2, x0, #0x1
  204430:	f9000682 	str	x2, [x20, #8]
  204434:	38606820 	ldrb	w0, [x1, x0]
  204438:	53185c00 	lsl	w0, w0, #8
  20443c:	b9007660 	str	w0, [x19, #116]
  204440:	52800080 	mov	w0, #0x4                   	// #4
  204444:	17ffffed 	b	2043f8 <xz_dec_lzma2_run+0x3b0>
  204448:	f9400281 	ldr	x1, [x20]
  20444c:	91000402 	add	x2, x0, #0x1
  204450:	f9000682 	str	x2, [x20, #8]
  204454:	38606820 	ldrb	w0, [x1, x0]
  204458:	b9407661 	ldr	w1, [x19, #116]
  20445c:	11000421 	add	w1, w1, #0x1
  204460:	0b010000 	add	w0, w0, w1
  204464:	b9007660 	str	w0, [x19, #116]
  204468:	b9406e60 	ldr	w0, [x19, #108]
  20446c:	17ffffe3 	b	2043f8 <xz_dec_lzma2_run+0x3b0>
  204470:	f9400281 	ldr	x1, [x20]
  204474:	91000403 	add	x3, x0, #0x1
  204478:	f9000683 	str	x3, [x20, #8]
  20447c:	38606820 	ldrb	w0, [x1, x0]
  204480:	7103801f 	cmp	w0, #0xe0
  204484:	54fff6a8 	b.hi	204358 <xz_dec_lzma2_run+0x310>  // b.pmore
  204488:	b9009e7f 	str	wzr, [x19, #156]
  20448c:	b9409e63 	ldr	w3, [x19, #156]
  204490:	7100b01f 	cmp	w0, #0x2c
  204494:	54000548 	b.hi	20453c <xz_dec_lzma2_run+0x4f4>  // b.pmore
  204498:	52800021 	mov	w1, #0x1                   	// #1
  20449c:	1ac32021 	lsl	w1, w1, w3
  2044a0:	51000421 	sub	w1, w1, #0x1
  2044a4:	2913067f 	stp	wzr, w1, [x19, #152]
  2044a8:	b9409a61 	ldr	w1, [x19, #152]
  2044ac:	7100201f 	cmp	w0, #0x8
  2044b0:	54000508 	b.hi	204550 <xz_dec_lzma2_run+0x508>  // b.pmore
  2044b4:	b9009660 	str	w0, [x19, #148]
  2044b8:	0b010000 	add	w0, w0, w1
  2044bc:	7100101f 	cmp	w0, #0x4
  2044c0:	54fff4c8 	b.hi	204358 <xz_dec_lzma2_run+0x310>  // b.pmore
  2044c4:	52800020 	mov	w0, #0x1                   	// #1
  2044c8:	52808003 	mov	w3, #0x400                 	// #1024
  2044cc:	1ac12000 	lsl	w0, w0, w1
  2044d0:	51000400 	sub	w0, w0, #0x1
  2044d4:	d28de181 	mov	x1, #0x6f0c                	// #28428
  2044d8:	8b010261 	add	x1, x19, x1
  2044dc:	b9009a60 	str	w0, [x19, #152]
  2044e0:	91028260 	add	x0, x19, #0xa0
  2044e4:	b9007e7f 	str	wzr, [x19, #124]
  2044e8:	a9087e7f 	stp	xzr, xzr, [x19, #128]
  2044ec:	78002403 	strh	w3, [x0], #2
  2044f0:	eb00003f 	cmp	x1, x0
  2044f4:	54ffffc1 	b.ne	2044ec <xz_dec_lzma2_run+0x4a4>  // b.any
  2044f8:	b2407fe0 	mov	x0, #0xffffffff            	// #4294967295
  2044fc:	f9000260 	str	x0, [x19]
  204500:	528000a0 	mov	w0, #0x5                   	// #5
  204504:	b9000a60 	str	w0, [x19, #8]
  204508:	528000c0 	mov	w0, #0x6                   	// #6
  20450c:	b9006a60 	str	w0, [x19, #104]
  204510:	b9407660 	ldr	w0, [x19, #116]
  204514:	7100101f 	cmp	w0, #0x4
  204518:	54fff209 	b.ls	204358 <xz_dec_lzma2_run+0x310>  // b.plast
  20451c:	b9400a61 	ldr	w1, [x19, #8]
  204520:	f9400683 	ldr	x3, [x20, #8]
  204524:	35000201 	cbnz	w1, 204564 <xz_dec_lzma2_run+0x51c>
  204528:	51001400 	sub	w0, w0, #0x5
  20452c:	b9007660 	str	w0, [x19, #116]
  204530:	528000e0 	mov	w0, #0x7                   	// #7
  204534:	b9006a60 	str	w0, [x19, #104]
  204538:	17fffed9 	b	20409c <xz_dec_lzma2_run+0x54>
  20453c:	5100b400 	sub	w0, w0, #0x2d
  204540:	11000461 	add	w1, w3, #0x1
  204544:	12001c00 	and	w0, w0, #0xff
  204548:	b9009e61 	str	w1, [x19, #156]
  20454c:	17ffffd0 	b	20448c <xz_dec_lzma2_run+0x444>
  204550:	51002400 	sub	w0, w0, #0x9
  204554:	11000421 	add	w1, w1, #0x1
  204558:	12001c00 	and	w0, w0, #0xff
  20455c:	b9009a61 	str	w1, [x19, #152]
  204560:	17ffffd2 	b	2044a8 <xz_dec_lzma2_run+0x460>
  204564:	eb03005f 	cmp	x2, x3
  204568:	54000061 	b.ne	204574 <xz_dec_lzma2_run+0x52c>  // b.any
  20456c:	52800000 	mov	w0, #0x0                   	// #0
  204570:	17ffff7b 	b	20435c <xz_dec_lzma2_run+0x314>
  204574:	f9400285 	ldr	x5, [x20]
  204578:	91000466 	add	x6, x3, #0x1
  20457c:	b9400664 	ldr	w4, [x19, #4]
  204580:	51000421 	sub	w1, w1, #0x1
  204584:	f9000686 	str	x6, [x20, #8]
  204588:	386368a3 	ldrb	w3, [x5, x3]
  20458c:	0b042063 	add	w3, w3, w4, lsl #8
  204590:	29008663 	stp	w3, w1, [x19, #4]
  204594:	17ffffe2 	b	20451c <xz_dec_lzma2_run+0x4d4>
  204598:	7100503f 	cmp	w1, #0x14
  20459c:	540000c8 	b.hi	2045b4 <xz_dec_lzma2_run+0x56c>  // b.pmore
  2045a0:	f9400680 	ldr	x0, [x20, #8]
  2045a4:	b92f0f01 	str	w1, [x24, #12044]
  2045a8:	8b1b0000 	add	x0, x0, x27
  2045ac:	f9000680 	str	x0, [x20, #8]
  2045b0:	17ffff00 	b	2041b0 <xz_dec_lzma2_run+0x168>
  2045b4:	51005421 	sub	w1, w1, #0x15
  2045b8:	f9001261 	str	x1, [x19, #32]
  2045bc:	17fffee8 	b	20415c <xz_dec_lzma2_run+0x114>
  2045c0:	f9400682 	ldr	x2, [x20, #8]
  2045c4:	8b020021 	add	x1, x1, x2
  2045c8:	cb000021 	sub	x1, x1, x0
  2045cc:	f9000681 	str	x1, [x20, #8]
  2045d0:	b92f0f1f 	str	wzr, [x24, #12044]
  2045d4:	a9408282 	ldp	x2, x0, [x20, #8]
  2045d8:	cb020003 	sub	x3, x0, x2
  2045dc:	f100507f 	cmp	x3, #0x14
  2045e0:	540002e9 	b.ls	20463c <xz_dec_lzma2_run+0x5f4>  // b.plast
  2045e4:	f9400281 	ldr	x1, [x20]
  2045e8:	a9010a61 	stp	x1, x2, [x19, #16]
  2045ec:	b9407661 	ldr	w1, [x19, #116]
  2045f0:	d1005400 	sub	x0, x0, #0x15
  2045f4:	11005424 	add	w4, w1, #0x15
  2045f8:	eb04007f 	cmp	x3, x4
  2045fc:	8b214041 	add	x1, x2, w1, uxtw
  204600:	9a813000 	csel	x0, x0, x1, cc  // cc = lo, ul, last
  204604:	f9001260 	str	x0, [x19, #32]
  204608:	aa1303e0 	mov	x0, x19
  20460c:	97fffc5d 	bl	203780 <lzma_main>
  204610:	72001c1f 	tst	w0, #0xff
  204614:	54ffea20 	b.eq	204358 <xz_dec_lzma2_run+0x310>  // b.none
  204618:	f9400680 	ldr	x0, [x20, #8]
  20461c:	f9400e62 	ldr	x2, [x19, #24]
  204620:	cb000041 	sub	x1, x2, x0
  204624:	b9407660 	ldr	w0, [x19, #116]
  204628:	eb20403f 	cmp	x1, w0, uxtw
  20462c:	54ffe968 	b.hi	204358 <xz_dec_lzma2_run+0x310>  // b.pmore
  204630:	4b010000 	sub	w0, w0, w1
  204634:	b9007660 	str	w0, [x19, #116]
  204638:	f9000682 	str	x2, [x20, #8]
  20463c:	a9408a80 	ldp	x0, x2, [x20, #8]
  204640:	cb000042 	sub	x2, x2, x0
  204644:	f100505f 	cmp	x2, #0x14
  204648:	54ffdb48 	b.hi	2041b0 <xz_dec_lzma2_run+0x168>  // b.pmore
  20464c:	b940767a 	ldr	w26, [x19, #116]
  204650:	f9400281 	ldr	x1, [x20]
  204654:	eb02035f 	cmp	x26, x2
  204658:	9a82935a 	csel	x26, x26, x2, ls  // ls = plast
  20465c:	8b000021 	add	x1, x1, x0
  204660:	aa1a03e2 	mov	x2, x26
  204664:	aa1503e0 	mov	x0, x21
  204668:	94001d51 	bl	20bbac <memcpy>
  20466c:	f9400680 	ldr	x0, [x20, #8]
  204670:	b92f0f1a 	str	w26, [x24, #12044]
  204674:	8b1a0000 	add	x0, x0, x26
  204678:	17ffffcd 	b	2045ac <xz_dec_lzma2_run+0x564>
  20467c:	f9401681 	ldr	x1, [x20, #40]
  204680:	eb00003f 	cmp	x1, x0
  204684:	54fff740 	b.eq	20456c <xz_dec_lzma2_run+0x524>  // b.none
  204688:	a9408281 	ldp	x1, x0, [x20, #8]
  20468c:	eb00003f 	cmp	x1, x0
  204690:	54ffcfa1 	b.ne	204084 <xz_dec_lzma2_run+0x3c>  // b.any
  204694:	b9407660 	ldr	w0, [x19, #116]
  204698:	b96f0f01 	ldr	w1, [x24, #12044]
  20469c:	6b00003f 	cmp	w1, w0
  2046a0:	54ffcf22 	b.cs	204084 <xz_dec_lzma2_run+0x3c>  // b.hs, b.nlast
  2046a4:	17ffffb2 	b	20456c <xz_dec_lzma2_run+0x524>
  2046a8:	52800020 	mov	w0, #0x1                   	// #1
  2046ac:	17ffff2c 	b	20435c <xz_dec_lzma2_run+0x314>

00000000002046b0 <xz_dec_lzma2_create>:
  2046b0:	a9be7bfd 	stp	x29, x30, [sp, #-32]!
  2046b4:	910003fd 	mov	x29, sp
  2046b8:	a90153f3 	stp	x19, x20, [sp, #16]
  2046bc:	2a0003f4 	mov	w20, w0
  2046c0:	2a0103f3 	mov	w19, w1
  2046c4:	d28dea00 	mov	x0, #0x6f50                	// #28496
  2046c8:	97fffb05 	bl	2032dc <xz_malloc>
  2046cc:	b4000060 	cbz	x0, 2046d8 <xz_dec_lzma2_create+0x28>
  2046d0:	b9005c13 	str	w19, [x0, #92]
  2046d4:	b9006414 	str	w20, [x0, #100]
  2046d8:	a94153f3 	ldp	x19, x20, [sp, #16]
  2046dc:	a8c27bfd 	ldp	x29, x30, [sp], #32
  2046e0:	d65f03c0 	ret

00000000002046e4 <xz_dec_lzma2_reset>:
  2046e4:	12001c21 	and	w1, w1, #0xff
  2046e8:	71009c3f 	cmp	w1, #0x27
  2046ec:	540001e8 	b.hi	204728 <xz_dec_lzma2_reset+0x44>  // b.pmore
  2046f0:	12000022 	and	w2, w1, #0x1
  2046f4:	53017c21 	lsr	w1, w1, #1
  2046f8:	11000842 	add	w2, w2, #0x2
  2046fc:	11002c21 	add	w1, w1, #0xb
  204700:	b900681f 	str	wzr, [x0, #104]
  204704:	1ac12041 	lsl	w1, w2, w1
  204708:	b9005801 	str	w1, [x0, #88]
  20470c:	52800021 	mov	w1, #0x1                   	// #1
  204710:	3901e001 	strb	w1, [x0, #120]
  204714:	b900901f 	str	wzr, [x0, #144]
  204718:	91401000 	add	x0, x0, #0x4, lsl #12
  20471c:	b92f0c1f 	str	wzr, [x0, #12044]
  204720:	52800000 	mov	w0, #0x0                   	// #0
  204724:	d65f03c0 	ret
  204728:	528000c0 	mov	w0, #0x6                   	// #6
  20472c:	17fffffe 	b	204724 <xz_dec_lzma2_reset+0x40>

0000000000204730 <xz_dec_lzma2_end>:
  204730:	d65f03c0 	ret

0000000000204734 <get_unaligned_le32>:
  204734:	39400401 	ldrb	w1, [x0, #1]
  204738:	39400002 	ldrb	w2, [x0]
  20473c:	aa012042 	orr	x2, x2, x1, lsl #8
  204740:	39400801 	ldrb	w1, [x0, #2]
  204744:	39400c00 	ldrb	w0, [x0, #3]
  204748:	aa014041 	orr	x1, x2, x1, lsl #16
  20474c:	2a006020 	orr	w0, w1, w0, lsl #24
  204750:	d65f03c0 	ret

0000000000204754 <dec_vli>:
  204754:	b9400404 	ldr	w4, [x0, #4]
  204758:	35000044 	cbnz	w4, 204760 <dec_vli+0xc>
  20475c:	f900041f 	str	xzr, [x0, #8]
  204760:	f9400044 	ldr	x4, [x2]
  204764:	eb03009f 	cmp	x4, x3
  204768:	54000063 	b.cc	204774 <dec_vli+0x20>  // b.lo, b.ul, b.last
  20476c:	52800000 	mov	w0, #0x0                   	// #0
  204770:	1400000e 	b	2047a8 <dec_vli+0x54>
  204774:	38646825 	ldrb	w5, [x1, x4]
  204778:	91000484 	add	x4, x4, #0x1
  20477c:	f9000044 	str	x4, [x2]
  204780:	b9400404 	ldr	w4, [x0, #4]
  204784:	924018a6 	and	x6, x5, #0x7f
  204788:	9ac420c7 	lsl	x7, x6, x4
  20478c:	f9400406 	ldr	x6, [x0, #8]
  204790:	aa0700c6 	orr	x6, x6, x7
  204794:	f9000406 	str	x6, [x0, #8]
  204798:	37380105 	tbnz	w5, #7, 2047b8 <dec_vli+0x64>
  20479c:	35000085 	cbnz	w5, 2047ac <dec_vli+0x58>
  2047a0:	34000064 	cbz	w4, 2047ac <dec_vli+0x58>
  2047a4:	528000e0 	mov	w0, #0x7                   	// #7
  2047a8:	d65f03c0 	ret
  2047ac:	b900041f 	str	wzr, [x0, #4]
  2047b0:	52800020 	mov	w0, #0x1                   	// #1
  2047b4:	17fffffd 	b	2047a8 <dec_vli+0x54>
  2047b8:	11001c84 	add	w4, w4, #0x7
  2047bc:	b9000404 	str	w4, [x0, #4]
  2047c0:	7100fc9f 	cmp	w4, #0x3f
  2047c4:	54fffce1 	b.ne	204760 <dec_vli+0xc>  // b.any
  2047c8:	17fffff7 	b	2047a4 <dec_vli+0x50>

00000000002047cc <index_update>:
  2047cc:	a9be7bfd 	stp	x29, x30, [sp, #-32]!
  2047d0:	910003fd 	mov	x29, sp
  2047d4:	f9400023 	ldr	x3, [x1]
  2047d8:	f9400422 	ldr	x2, [x1, #8]
  2047dc:	f9000bf3 	str	x19, [sp, #16]
  2047e0:	aa0003f3 	mov	x19, x0
  2047e4:	f9400800 	ldr	x0, [x0, #16]
  2047e8:	cb000041 	sub	x1, x2, x0
  2047ec:	8b000060 	add	x0, x3, x0
  2047f0:	f9404262 	ldr	x2, [x19, #128]
  2047f4:	8b010042 	add	x2, x2, x1
  2047f8:	f9004262 	str	x2, [x19, #128]
  2047fc:	b9402262 	ldr	w2, [x19, #32]
  204800:	97fffb31 	bl	2034c4 <xz_crc32>
  204804:	b9002260 	str	w0, [x19, #32]
  204808:	f9400bf3 	ldr	x19, [sp, #16]
  20480c:	a8c27bfd 	ldp	x29, x30, [sp], #32
  204810:	d65f03c0 	ret

0000000000204814 <fill_temp>:
  204814:	a9bd7bfd 	stp	x29, x30, [sp, #-48]!
  204818:	9102e003 	add	x3, x0, #0xb8
  20481c:	910003fd 	mov	x29, sp
  204820:	a90153f3 	stp	x19, x20, [sp, #16]
  204824:	aa0003f4 	mov	x20, x0
  204828:	f9405400 	ldr	x0, [x0, #168]
  20482c:	f9405a93 	ldr	x19, [x20, #176]
  204830:	f90013f5 	str	x21, [sp, #32]
  204834:	aa0103f5 	mov	x21, x1
  204838:	f9400421 	ldr	x1, [x1, #8]
  20483c:	cb000273 	sub	x19, x19, x0
  204840:	f9400aa2 	ldr	x2, [x21, #16]
  204844:	8b000060 	add	x0, x3, x0
  204848:	f94002a4 	ldr	x4, [x21]
  20484c:	cb010042 	sub	x2, x2, x1
  204850:	eb02027f 	cmp	x19, x2
  204854:	9a829273 	csel	x19, x19, x2, ls  // ls = plast
  204858:	8b010081 	add	x1, x4, x1
  20485c:	aa1303e2 	mov	x2, x19
  204860:	94001cd3 	bl	20bbac <memcpy>
  204864:	f94006a0 	ldr	x0, [x21, #8]
  204868:	f9405682 	ldr	x2, [x20, #168]
  20486c:	8b130000 	add	x0, x0, x19
  204870:	f90006a0 	str	x0, [x21, #8]
  204874:	f9405a80 	ldr	x0, [x20, #176]
  204878:	8b020273 	add	x19, x19, x2
  20487c:	f9005693 	str	x19, [x20, #168]
  204880:	eb00027f 	cmp	x19, x0
  204884:	540000e1 	b.ne	2048a0 <fill_temp+0x8c>  // b.any
  204888:	52800020 	mov	w0, #0x1                   	// #1
  20488c:	f900569f 	str	xzr, [x20, #168]
  204890:	a94153f3 	ldp	x19, x20, [sp, #16]
  204894:	f94013f5 	ldr	x21, [sp, #32]
  204898:	a8c37bfd 	ldp	x29, x30, [sp], #48
  20489c:	d65f03c0 	ret
  2048a0:	52800000 	mov	w0, #0x0                   	// #0
  2048a4:	17fffffb 	b	204890 <fill_temp+0x7c>

00000000002048a8 <xz_dec_reset>:
  2048a8:	a9be7bfd 	stp	x29, x30, [sp, #-32]!
  2048ac:	d2800602 	mov	x2, #0x30                  	// #48
  2048b0:	52800001 	mov	w1, #0x0                   	// #0
  2048b4:	910003fd 	mov	x29, sp
  2048b8:	f9000bf3 	str	x19, [sp, #16]
  2048bc:	aa0003f3 	mov	x19, x0
  2048c0:	3900b01f 	strb	wzr, [x0, #44]
  2048c4:	91012000 	add	x0, x0, #0x48
  2048c8:	f900027f 	str	xzr, [x19]
  2048cc:	b900227f 	str	wzr, [x19, #32]
  2048d0:	94001ccc 	bl	20bc00 <memset>
  2048d4:	9101e260 	add	x0, x19, #0x78
  2048d8:	d2800602 	mov	x2, #0x30                  	// #48
  2048dc:	52800001 	mov	w1, #0x0                   	// #0
  2048e0:	94001cc8 	bl	20bc00 <memset>
  2048e4:	d2800180 	mov	x0, #0xc                   	// #12
  2048e8:	a90a827f 	stp	xzr, x0, [x19, #168]
  2048ec:	f9400bf3 	ldr	x19, [sp, #16]
  2048f0:	a8c27bfd 	ldp	x29, x30, [sp], #32
  2048f4:	d65f03c0 	ret

00000000002048f8 <xz_dec_run>:
  2048f8:	a9ba7bfd 	stp	x29, x30, [sp, #-96]!
  2048fc:	910003fd 	mov	x29, sp
  204900:	a90153f3 	stp	x19, x20, [sp, #16]
  204904:	aa0103f4 	mov	x20, x1
  204908:	b9402801 	ldr	w1, [x0, #40]
  20490c:	a9025bf5 	stp	x21, x22, [sp, #32]
  204910:	aa0003f3 	mov	x19, x0
  204914:	a90363f7 	stp	x23, x24, [sp, #48]
  204918:	a9046bf9 	stp	x25, x26, [sp, #64]
  20491c:	f9002bfb 	str	x27, [sp, #80]
  204920:	35000041 	cbnz	w1, 204928 <xz_dec_run+0x30>
  204924:	97ffffe1 	bl	2048a8 <xz_dec_reset>
  204928:	90000057 	adrp	x23, 20c000 <vprintf+0x2b8>
  20492c:	d0000058 	adrp	x24, 20e000 <mtk_pin_info_pu+0x36c>
  204930:	911092f7 	add	x23, x23, #0x424
  204934:	9110b718 	add	x24, x24, #0x42d
  204938:	f9400696 	ldr	x22, [x20, #8]
  20493c:	5280003a 	mov	w26, #0x1                   	// #1
  204940:	528000bb 	mov	w27, #0x5                   	// #5
  204944:	f9401299 	ldr	x25, [x20, #32]
  204948:	f9000a76 	str	x22, [x19, #16]
  20494c:	b9400260 	ldr	w0, [x19]
  204950:	7100241f 	cmp	w0, #0x9
  204954:	54ffffe8 	b.hi	204950 <xz_dec_run+0x58>  // b.pmore
  204958:	78605ae0 	ldrh	w0, [x23, w0, uxtw #1]
  20495c:	10000061 	adr	x1, 204968 <xz_dec_run+0x70>
  204960:	8b20a820 	add	x0, x1, w0, sxth #2
  204964:	d61f0000 	br	x0
  204968:	91002297 	add	x23, x20, #0x8
  20496c:	9102427a 	add	x26, x19, #0x90
  204970:	52800058 	mov	w24, #0x2                   	// #2
  204974:	f9400281 	ldr	x1, [x20]
  204978:	aa1703e2 	mov	x2, x23
  20497c:	f9400a83 	ldr	x3, [x20, #16]
  204980:	aa1303e0 	mov	x0, x19
  204984:	97ffff74 	bl	204754 <dec_vli>
  204988:	2a0003f5 	mov	w21, w0
  20498c:	7100041f 	cmp	w0, #0x1
  204990:	54002080 	b.eq	204da0 <xz_dec_run+0x4a8>  // b.none
  204994:	aa1403e1 	mov	x1, x20
  204998:	aa1303e0 	mov	x0, x19
  20499c:	97ffff8c 	bl	2047cc <index_update>
  2049a0:	14000018 	b	204a00 <xz_dec_run+0x108>
  2049a4:	aa1403e1 	mov	x1, x20
  2049a8:	aa1303e0 	mov	x0, x19
  2049ac:	97ffff9a 	bl	204814 <fill_temp>
  2049b0:	72001c1f 	tst	w0, #0xff
  2049b4:	54000061 	b.ne	2049c0 <xz_dec_run+0xc8>  // b.any
  2049b8:	52800015 	mov	w21, #0x0                   	// #0
  2049bc:	14000011 	b	204a00 <xz_dec_run+0x108>
  2049c0:	aa1303e0 	mov	x0, x19
  2049c4:	aa1803e1 	mov	x1, x24
  2049c8:	d28000c2 	mov	x2, #0x6                   	// #6
  2049cc:	b80b841a 	str	w26, [x0], #184
  2049d0:	94001c6a 	bl	20bb78 <memcmp>
  2049d4:	35002da0 	cbnz	w0, 204f88 <xz_dec_run+0x690>
  2049d8:	52800002 	mov	w2, #0x0                   	// #0
  2049dc:	d2800041 	mov	x1, #0x2                   	// #2
  2049e0:	9102fa60 	add	x0, x19, #0xbe
  2049e4:	97fffab8 	bl	2034c4 <xz_crc32>
  2049e8:	2a0003e3 	mov	w3, w0
  2049ec:	91030260 	add	x0, x19, #0xc0
  2049f0:	97ffff51 	bl	204734 <get_unaligned_le32>
  2049f4:	6b00007f 	cmp	w3, w0
  2049f8:	54000180 	b.eq	204a28 <xz_dec_run+0x130>  // b.none
  2049fc:	528000f5 	mov	w21, #0x7                   	// #7
  204a00:	b9402a60 	ldr	w0, [x19, #40]
  204a04:	35002da0 	cbnz	w0, 204fb8 <xz_dec_run+0x6c0>
  204a08:	35002c55 	cbnz	w21, 204f90 <xz_dec_run+0x698>
  204a0c:	a9408281 	ldp	x1, x0, [x20, #8]
  204a10:	eb00003f 	cmp	x1, x0
  204a14:	1a9f07f5 	cset	w21, ne  // ne = any
  204a18:	11001eb5 	add	w21, w21, #0x7
  204a1c:	f9000696 	str	x22, [x20, #8]
  204a20:	f9001299 	str	x25, [x20, #32]
  204a24:	1400015d 	b	204f98 <xz_dec_run+0x6a0>
  204a28:	3942fa60 	ldrb	w0, [x19, #190]
  204a2c:	34000060 	cbz	w0, 204a38 <xz_dec_run+0x140>
  204a30:	528000d5 	mov	w21, #0x6                   	// #6
  204a34:	17fffff3 	b	204a00 <xz_dec_run+0x108>
  204a38:	3942fe60 	ldrb	w0, [x19, #191]
  204a3c:	b9002660 	str	w0, [x19, #36]
  204a40:	7100041f 	cmp	w0, #0x1
  204a44:	54ffff68 	b.hi	204a30 <xz_dec_run+0x138>  // b.pmore
  204a48:	a9408281 	ldp	x1, x0, [x20, #8]
  204a4c:	eb00003f 	cmp	x1, x0
  204a50:	54fffb40 	b.eq	2049b8 <xz_dec_run+0xc0>  // b.none
  204a54:	f9400280 	ldr	x0, [x20]
  204a58:	38616800 	ldrb	w0, [x0, x1]
  204a5c:	350000e0 	cbnz	w0, 204a78 <xz_dec_run+0x180>
  204a60:	91000420 	add	x0, x1, #0x1
  204a64:	f9000680 	str	x0, [x20, #8]
  204a68:	528000c0 	mov	w0, #0x6                   	// #6
  204a6c:	b9000260 	str	w0, [x19]
  204a70:	f9000a61 	str	x1, [x19, #16]
  204a74:	17ffffb6 	b	20494c <xz_dec_run+0x54>
  204a78:	11000400 	add	w0, w0, #0x1
  204a7c:	531e7400 	lsl	w0, w0, #2
  204a80:	b9004260 	str	w0, [x19, #64]
  204a84:	a90a827f 	stp	xzr, x0, [x19, #168]
  204a88:	52800040 	mov	w0, #0x2                   	// #2
  204a8c:	b9000260 	str	w0, [x19]
  204a90:	aa1403e1 	mov	x1, x20
  204a94:	aa1303e0 	mov	x0, x19
  204a98:	97ffff5f 	bl	204814 <fill_temp>
  204a9c:	72001c1f 	tst	w0, #0xff
  204aa0:	54fff8c0 	b.eq	2049b8 <xz_dec_run+0xc0>  // b.none
  204aa4:	f9405a61 	ldr	x1, [x19, #176]
  204aa8:	9102e275 	add	x21, x19, #0xb8
  204aac:	aa1503e0 	mov	x0, x21
  204ab0:	52800002 	mov	w2, #0x0                   	// #0
  204ab4:	d1001021 	sub	x1, x1, #0x4
  204ab8:	f9005a61 	str	x1, [x19, #176]
  204abc:	97fffa82 	bl	2034c4 <xz_crc32>
  204ac0:	2a0003e4 	mov	w4, w0
  204ac4:	f9405a63 	ldr	x3, [x19, #176]
  204ac8:	8b0302a0 	add	x0, x21, x3
  204acc:	97ffff1a 	bl	204734 <get_unaligned_le32>
  204ad0:	6b00009f 	cmp	w4, w0
  204ad4:	54fff941 	b.ne	2049fc <xz_dec_run+0x104>  // b.any
  204ad8:	d2800040 	mov	x0, #0x2                   	// #2
  204adc:	f9005660 	str	x0, [x19, #168]
  204ae0:	3942e660 	ldrb	w0, [x19, #185]
  204ae4:	f240141f 	tst	x0, #0x3f
  204ae8:	54fffa41 	b.ne	204a30 <xz_dec_run+0x138>  // b.any
  204aec:	36301300 	tbz	w0, #6, 204d4c <xz_dec_run+0x454>
  204af0:	9102a262 	add	x2, x19, #0xa8
  204af4:	aa1503e1 	mov	x1, x21
  204af8:	aa1303e0 	mov	x0, x19
  204afc:	97ffff16 	bl	204754 <dec_vli>
  204b00:	7100041f 	cmp	w0, #0x1
  204b04:	54fff7c1 	b.ne	2049fc <xz_dec_run+0x104>  // b.any
  204b08:	f9400660 	ldr	x0, [x19, #8]
  204b0c:	f9001a60 	str	x0, [x19, #48]
  204b10:	39c2e660 	ldrsb	w0, [x19, #185]
  204b14:	36f81200 	tbz	w0, #31, 204d54 <xz_dec_run+0x45c>
  204b18:	f9405a63 	ldr	x3, [x19, #176]
  204b1c:	9102a262 	add	x2, x19, #0xa8
  204b20:	aa1503e1 	mov	x1, x21
  204b24:	aa1303e0 	mov	x0, x19
  204b28:	97ffff0b 	bl	204754 <dec_vli>
  204b2c:	7100041f 	cmp	w0, #0x1
  204b30:	54fff661 	b.ne	2049fc <xz_dec_run+0x104>  // b.any
  204b34:	f9400660 	ldr	x0, [x19, #8]
  204b38:	f9001e60 	str	x0, [x19, #56]
  204b3c:	f9405660 	ldr	x0, [x19, #168]
  204b40:	f9405a63 	ldr	x3, [x19, #176]
  204b44:	cb000061 	sub	x1, x3, x0
  204b48:	f100043f 	cmp	x1, #0x1
  204b4c:	54fff589 	b.ls	2049fc <xz_dec_run+0x104>  // b.plast
  204b50:	8b000261 	add	x1, x19, x0
  204b54:	91000402 	add	x2, x0, #0x1
  204b58:	f9005662 	str	x2, [x19, #168]
  204b5c:	3942e021 	ldrb	w1, [x1, #184]
  204b60:	7100843f 	cmp	w1, #0x21
  204b64:	54fff661 	b.ne	204a30 <xz_dec_run+0x138>  // b.any
  204b68:	8b020262 	add	x2, x19, x2
  204b6c:	91000801 	add	x1, x0, #0x2
  204b70:	f9005661 	str	x1, [x19, #168]
  204b74:	3942e042 	ldrb	w2, [x2, #184]
  204b78:	7100045f 	cmp	w2, #0x1
  204b7c:	54fff5a1 	b.ne	204a30 <xz_dec_run+0x138>  // b.any
  204b80:	eb01007f 	cmp	x3, x1
  204b84:	54fff3c0 	b.eq	2049fc <xz_dec_run+0x104>  // b.none
  204b88:	8b010261 	add	x1, x19, x1
  204b8c:	91000c00 	add	x0, x0, #0x3
  204b90:	f9005660 	str	x0, [x19, #168]
  204b94:	f9425e60 	ldr	x0, [x19, #1208]
  204b98:	3942e021 	ldrb	w1, [x1, #184]
  204b9c:	97fffed2 	bl	2046e4 <xz_dec_lzma2_reset>
  204ba0:	2a0003f5 	mov	w21, w0
  204ba4:	35fff2e0 	cbnz	w0, 204a00 <xz_dec_run+0x108>
  204ba8:	f9405a61 	ldr	x1, [x19, #176]
  204bac:	f9405660 	ldr	x0, [x19, #168]
  204bb0:	eb01001f 	cmp	x0, x1
  204bb4:	54000d43 	b.cc	204d5c <xz_dec_run+0x464>  // b.lo, b.ul, b.last
  204bb8:	52800060 	mov	w0, #0x3                   	// #3
  204bbc:	b9000260 	str	w0, [x19]
  204bc0:	a904fe7f 	stp	xzr, xzr, [x19, #72]
  204bc4:	f900567f 	str	xzr, [x19, #168]
  204bc8:	f9400680 	ldr	x0, [x20, #8]
  204bcc:	f9000a60 	str	x0, [x19, #16]
  204bd0:	f9401280 	ldr	x0, [x20, #32]
  204bd4:	f9000e60 	str	x0, [x19, #24]
  204bd8:	f9425e60 	ldr	x0, [x19, #1208]
  204bdc:	aa1403e1 	mov	x1, x20
  204be0:	97fffd1a 	bl	204048 <xz_dec_lzma2_run>
  204be4:	2a0003f5 	mov	w21, w0
  204be8:	a9448e62 	ldp	x2, x3, [x19, #72]
  204bec:	f9400680 	ldr	x0, [x20, #8]
  204bf0:	f9401281 	ldr	x1, [x20, #32]
  204bf4:	8b000042 	add	x2, x2, x0
  204bf8:	f9400a60 	ldr	x0, [x19, #16]
  204bfc:	f9401a64 	ldr	x4, [x19, #48]
  204c00:	cb000042 	sub	x2, x2, x0
  204c04:	f9400e60 	ldr	x0, [x19, #24]
  204c08:	cb000021 	sub	x1, x1, x0
  204c0c:	8b030023 	add	x3, x1, x3
  204c10:	a9048e62 	stp	x2, x3, [x19, #72]
  204c14:	eb04005f 	cmp	x2, x4
  204c18:	54ffef28 	b.hi	2049fc <xz_dec_run+0x104>  // b.pmore
  204c1c:	f9401e62 	ldr	x2, [x19, #56]
  204c20:	eb02007f 	cmp	x3, x2
  204c24:	54ffeec8 	b.hi	2049fc <xz_dec_run+0x104>  // b.pmore
  204c28:	b9402662 	ldr	w2, [x19, #36]
  204c2c:	7100045f 	cmp	w2, #0x1
  204c30:	540000c1 	b.ne	204c48 <xz_dec_run+0x350>  // b.any
  204c34:	b9402262 	ldr	w2, [x19, #32]
  204c38:	f9400e83 	ldr	x3, [x20, #24]
  204c3c:	8b000060 	add	x0, x3, x0
  204c40:	97fffa21 	bl	2034c4 <xz_crc32>
  204c44:	b9002260 	str	w0, [x19, #32]
  204c48:	710006bf 	cmp	w21, #0x1
  204c4c:	54ffeda1 	b.ne	204a00 <xz_dec_run+0x108>  // b.any
  204c50:	f9401a60 	ldr	x0, [x19, #48]
  204c54:	b100041f 	cmn	x0, #0x1
  204c58:	54000080 	b.eq	204c68 <xz_dec_run+0x370>  // b.none
  204c5c:	f9402661 	ldr	x1, [x19, #72]
  204c60:	eb01001f 	cmp	x0, x1
  204c64:	54ffecc1 	b.ne	2049fc <xz_dec_run+0x104>  // b.any
  204c68:	f9401e60 	ldr	x0, [x19, #56]
  204c6c:	f9402a62 	ldr	x2, [x19, #80]
  204c70:	b100041f 	cmn	x0, #0x1
  204c74:	54000060 	b.eq	204c80 <xz_dec_run+0x388>  // b.none
  204c78:	eb02001f 	cmp	x0, x2
  204c7c:	54ffec01 	b.ne	2049fc <xz_dec_run+0x104>  // b.any
  204c80:	f9402661 	ldr	x1, [x19, #72]
  204c84:	f9403260 	ldr	x0, [x19, #96]
  204c88:	b9402663 	ldr	w3, [x19, #36]
  204c8c:	8b010000 	add	x0, x0, x1
  204c90:	b9404261 	ldr	w1, [x19, #64]
  204c94:	7100047f 	cmp	w3, #0x1
  204c98:	8b010000 	add	x0, x0, x1
  204c9c:	91001001 	add	x1, x0, #0x4
  204ca0:	9a800020 	csel	x0, x1, x0, eq  // eq = none
  204ca4:	f9003260 	str	x0, [x19, #96]
  204ca8:	f9403660 	ldr	x0, [x19, #104]
  204cac:	d2800301 	mov	x1, #0x18                  	// #24
  204cb0:	8b020000 	add	x0, x0, x2
  204cb4:	b9407262 	ldr	w2, [x19, #112]
  204cb8:	f9003660 	str	x0, [x19, #104]
  204cbc:	91018260 	add	x0, x19, #0x60
  204cc0:	97fffa01 	bl	2034c4 <xz_crc32>
  204cc4:	b9007260 	str	w0, [x19, #112]
  204cc8:	f9402e60 	ldr	x0, [x19, #88]
  204ccc:	91000400 	add	x0, x0, #0x1
  204cd0:	f9002e60 	str	x0, [x19, #88]
  204cd4:	52800080 	mov	w0, #0x4                   	// #4
  204cd8:	b9000260 	str	w0, [x19]
  204cdc:	f9402660 	ldr	x0, [x19, #72]
  204ce0:	f240041f 	tst	x0, #0x3
  204ce4:	54000481 	b.ne	204d74 <xz_dec_run+0x47c>  // b.any
  204ce8:	b900027b 	str	w27, [x19]
  204cec:	b9402660 	ldr	w0, [x19, #36]
  204cf0:	7100041f 	cmp	w0, #0x1
  204cf4:	54000281 	b.ne	204d44 <xz_dec_run+0x44c>  // b.any
  204cf8:	f9400a83 	ldr	x3, [x20, #16]
  204cfc:	f9400682 	ldr	x2, [x20, #8]
  204d00:	eb03005f 	cmp	x2, x3
  204d04:	54ffe5a0 	b.eq	2049b8 <xz_dec_run+0xc0>  // b.none
  204d08:	f9400284 	ldr	x4, [x20]
  204d0c:	91000445 	add	x5, x2, #0x1
  204d10:	b9400660 	ldr	w0, [x19, #4]
  204d14:	b9402261 	ldr	w1, [x19, #32]
  204d18:	f9000685 	str	x5, [x20, #8]
  204d1c:	38626882 	ldrb	w2, [x4, x2]
  204d20:	1ac02421 	lsr	w1, w1, w0
  204d24:	6b21005f 	cmp	w2, w1, uxtb
  204d28:	54ffe6a1 	b.ne	2049fc <xz_dec_run+0x104>  // b.any
  204d2c:	11002000 	add	w0, w0, #0x8
  204d30:	b9000660 	str	w0, [x19, #4]
  204d34:	71007c1f 	cmp	w0, #0x1f
  204d38:	54fffe29 	b.ls	204cfc <xz_dec_run+0x404>  // b.plast
  204d3c:	b900067f 	str	wzr, [x19, #4]
  204d40:	b900227f 	str	wzr, [x19, #32]
  204d44:	b900027a 	str	w26, [x19]
  204d48:	17ffff01 	b	20494c <xz_dec_run+0x54>
  204d4c:	92800000 	mov	x0, #0xffffffffffffffff    	// #-1
  204d50:	17ffff6f 	b	204b0c <xz_dec_run+0x214>
  204d54:	92800000 	mov	x0, #0xffffffffffffffff    	// #-1
  204d58:	17ffff78 	b	204b38 <xz_dec_run+0x240>
  204d5c:	91000402 	add	x2, x0, #0x1
  204d60:	8b000260 	add	x0, x19, x0
  204d64:	f9005662 	str	x2, [x19, #168]
  204d68:	3942e000 	ldrb	w0, [x0, #184]
  204d6c:	34fff200 	cbz	w0, 204bac <xz_dec_run+0x2b4>
  204d70:	17ffff30 	b	204a30 <xz_dec_run+0x138>
  204d74:	a9408a81 	ldp	x1, x2, [x20, #8]
  204d78:	eb02003f 	cmp	x1, x2
  204d7c:	54ffe1e0 	b.eq	2049b8 <xz_dec_run+0xc0>  // b.none
  204d80:	f9400282 	ldr	x2, [x20]
  204d84:	91000423 	add	x3, x1, #0x1
  204d88:	f9000683 	str	x3, [x20, #8]
  204d8c:	38616841 	ldrb	w1, [x2, x1]
  204d90:	35ffe361 	cbnz	w1, 2049fc <xz_dec_run+0x104>
  204d94:	91000400 	add	x0, x0, #0x1
  204d98:	f9002660 	str	x0, [x19, #72]
  204d9c:	17ffffd0 	b	204cdc <xz_dec_run+0x3e4>
  204da0:	b9407a60 	ldr	w0, [x19, #120]
  204da4:	7100041f 	cmp	w0, #0x1
  204da8:	54000160 	b.eq	204dd4 <xz_dec_run+0x4dc>  // b.none
  204dac:	7100081f 	cmp	w0, #0x2
  204db0:	540002a0 	b.eq	204e04 <xz_dec_run+0x50c>  // b.none
  204db4:	350001a0 	cbnz	w0, 204de8 <xz_dec_run+0x4f0>
  204db8:	f9400660 	ldr	x0, [x19, #8]
  204dbc:	f9004660 	str	x0, [x19, #136]
  204dc0:	f9402e61 	ldr	x1, [x19, #88]
  204dc4:	eb01001f 	cmp	x0, x1
  204dc8:	54ffe1a1 	b.ne	2049fc <xz_dec_run+0x104>  // b.any
  204dcc:	b9007a75 	str	w21, [x19, #120]
  204dd0:	14000006 	b	204de8 <xz_dec_run+0x4f0>
  204dd4:	f9400661 	ldr	x1, [x19, #8]
  204dd8:	b9007a78 	str	w24, [x19, #120]
  204ddc:	f9404a60 	ldr	x0, [x19, #144]
  204de0:	8b010000 	add	x0, x0, x1
  204de4:	f9004a60 	str	x0, [x19, #144]
  204de8:	f9404660 	ldr	x0, [x19, #136]
  204dec:	b5ffdc40 	cbnz	x0, 204974 <xz_dec_run+0x7c>
  204df0:	528000e0 	mov	w0, #0x7                   	// #7
  204df4:	b9000260 	str	w0, [x19]
  204df8:	f9400a62 	ldr	x2, [x19, #16]
  204dfc:	f9404263 	ldr	x3, [x19, #128]
  204e00:	1400001a 	b	204e68 <xz_dec_run+0x570>
  204e04:	f9400661 	ldr	x1, [x19, #8]
  204e08:	f9404e60 	ldr	x0, [x19, #152]
  204e0c:	b940a262 	ldr	w2, [x19, #160]
  204e10:	8b010000 	add	x0, x0, x1
  204e14:	f9004e60 	str	x0, [x19, #152]
  204e18:	d2800301 	mov	x1, #0x18                  	// #24
  204e1c:	aa1a03e0 	mov	x0, x26
  204e20:	97fff9a9 	bl	2034c4 <xz_crc32>
  204e24:	b900a260 	str	w0, [x19, #160]
  204e28:	f9404660 	ldr	x0, [x19, #136]
  204e2c:	d1000400 	sub	x0, x0, #0x1
  204e30:	f9004660 	str	x0, [x19, #136]
  204e34:	17ffffe6 	b	204dcc <xz_dec_run+0x4d4>
  204e38:	f9400a81 	ldr	x1, [x20, #16]
  204e3c:	eb00003f 	cmp	x1, x0
  204e40:	540000a1 	b.ne	204e54 <xz_dec_run+0x55c>  // b.any
  204e44:	aa1403e1 	mov	x1, x20
  204e48:	aa1303e0 	mov	x0, x19
  204e4c:	97fffe60 	bl	2047cc <index_update>
  204e50:	17fffeda 	b	2049b8 <xz_dec_run+0xc0>
  204e54:	f9400281 	ldr	x1, [x20]
  204e58:	91000404 	add	x4, x0, #0x1
  204e5c:	f9000684 	str	x4, [x20, #8]
  204e60:	38606820 	ldrb	w0, [x1, x0]
  204e64:	35ffdcc0 	cbnz	w0, 2049fc <xz_dec_run+0x104>
  204e68:	f9400680 	ldr	x0, [x20, #8]
  204e6c:	8b030001 	add	x1, x0, x3
  204e70:	cb020021 	sub	x1, x1, x2
  204e74:	f240043f 	tst	x1, #0x3
  204e78:	54fffe01 	b.ne	204e38 <xz_dec_run+0x540>  // b.any
  204e7c:	aa1403e1 	mov	x1, x20
  204e80:	aa1303e0 	mov	x0, x19
  204e84:	97fffe52 	bl	2047cc <index_update>
  204e88:	91024261 	add	x1, x19, #0x90
  204e8c:	91018260 	add	x0, x19, #0x60
  204e90:	d2800302 	mov	x2, #0x18                  	// #24
  204e94:	94001b39 	bl	20bb78 <memcmp>
  204e98:	35ffdb20 	cbnz	w0, 2049fc <xz_dec_run+0x104>
  204e9c:	52800100 	mov	w0, #0x8                   	// #8
  204ea0:	b9000260 	str	w0, [x19]
  204ea4:	f9400a83 	ldr	x3, [x20, #16]
  204ea8:	f9400682 	ldr	x2, [x20, #8]
  204eac:	eb03005f 	cmp	x2, x3
  204eb0:	54ffd840 	b.eq	2049b8 <xz_dec_run+0xc0>  // b.none
  204eb4:	f9400284 	ldr	x4, [x20]
  204eb8:	91000445 	add	x5, x2, #0x1
  204ebc:	b9400660 	ldr	w0, [x19, #4]
  204ec0:	b9402261 	ldr	w1, [x19, #32]
  204ec4:	f9000685 	str	x5, [x20, #8]
  204ec8:	38626882 	ldrb	w2, [x4, x2]
  204ecc:	1ac02421 	lsr	w1, w1, w0
  204ed0:	6b21005f 	cmp	w2, w1, uxtb
  204ed4:	54ffd941 	b.ne	2049fc <xz_dec_run+0x104>  // b.any
  204ed8:	11002000 	add	w0, w0, #0x8
  204edc:	b9000660 	str	w0, [x19, #4]
  204ee0:	71007c1f 	cmp	w0, #0x1f
  204ee4:	54fffe29 	b.ls	204ea8 <xz_dec_run+0x5b0>  // b.plast
  204ee8:	d2800180 	mov	x0, #0xc                   	// #12
  204eec:	b900227f 	str	wzr, [x19, #32]
  204ef0:	f9005a60 	str	x0, [x19, #176]
  204ef4:	d2800120 	mov	x0, #0x9                   	// #9
  204ef8:	f9000260 	str	x0, [x19]
  204efc:	aa1403e1 	mov	x1, x20
  204f00:	aa1303e0 	mov	x0, x19
  204f04:	97fffe44 	bl	204814 <fill_temp>
  204f08:	72001c1f 	tst	w0, #0xff
  204f0c:	54ffd560 	b.eq	2049b8 <xz_dec_run+0xc0>  // b.none
  204f10:	d0000041 	adrp	x1, 20e000 <mtk_pin_info_pu+0x36c>
  204f14:	91030a60 	add	x0, x19, #0xc2
  204f18:	9110cc21 	add	x1, x1, #0x433
  204f1c:	d2800042 	mov	x2, #0x2                   	// #2
  204f20:	94001b16 	bl	20bb78 <memcmp>
  204f24:	35ffd6c0 	cbnz	w0, 2049fc <xz_dec_run+0x104>
  204f28:	9102f275 	add	x21, x19, #0xbc
  204f2c:	52800002 	mov	w2, #0x0                   	// #0
  204f30:	d28000c1 	mov	x1, #0x6                   	// #6
  204f34:	aa1503e0 	mov	x0, x21
  204f38:	97fff963 	bl	2034c4 <xz_crc32>
  204f3c:	2a0003e3 	mov	w3, w0
  204f40:	9102e260 	add	x0, x19, #0xb8
  204f44:	97fffdfc 	bl	204734 <get_unaligned_le32>
  204f48:	6b00007f 	cmp	w3, w0
  204f4c:	54ffd581 	b.ne	2049fc <xz_dec_run+0x104>  // b.any
  204f50:	aa1503e0 	mov	x0, x21
  204f54:	97fffdf8 	bl	204734 <get_unaligned_le32>
  204f58:	f9404261 	ldr	x1, [x19, #128]
  204f5c:	2a0003e0 	mov	w0, w0
  204f60:	eb41081f 	cmp	x0, x1, lsr #2
  204f64:	54ffd4c1 	b.ne	2049fc <xz_dec_run+0x104>  // b.any
  204f68:	39430260 	ldrb	w0, [x19, #192]
  204f6c:	35ffd480 	cbnz	w0, 2049fc <xz_dec_run+0x104>
  204f70:	39430661 	ldrb	w1, [x19, #193]
  204f74:	b9402660 	ldr	w0, [x19, #36]
  204f78:	6b00003f 	cmp	w1, w0
  204f7c:	54ffd401 	b.ne	2049fc <xz_dec_run+0x104>  // b.any
  204f80:	52800035 	mov	w21, #0x1                   	// #1
  204f84:	17fffe9f 	b	204a00 <xz_dec_run+0x108>
  204f88:	528000b5 	mov	w21, #0x5                   	// #5
  204f8c:	17fffe9d 	b	204a00 <xz_dec_run+0x108>
  204f90:	710006bf 	cmp	w21, #0x1
  204f94:	54ffd441 	b.ne	204a1c <xz_dec_run+0x124>  // b.any
  204f98:	2a1503e0 	mov	w0, w21
  204f9c:	a94153f3 	ldp	x19, x20, [sp, #16]
  204fa0:	a9425bf5 	ldp	x21, x22, [sp, #32]
  204fa4:	a94363f7 	ldp	x23, x24, [sp, #48]
  204fa8:	a9446bf9 	ldp	x25, x26, [sp, #64]
  204fac:	f9402bfb 	ldr	x27, [sp, #80]
  204fb0:	a8c67bfd 	ldp	x29, x30, [sp], #96
  204fb4:	d65f03c0 	ret
  204fb8:	350001d5 	cbnz	w21, 204ff0 <xz_dec_run+0x6f8>
  204fbc:	f9400680 	ldr	x0, [x20, #8]
  204fc0:	eb16001f 	cmp	x0, x22
  204fc4:	54000161 	b.ne	204ff0 <xz_dec_run+0x6f8>  // b.any
  204fc8:	f9401280 	ldr	x0, [x20, #32]
  204fcc:	eb19001f 	cmp	x0, x25
  204fd0:	54000101 	b.ne	204ff0 <xz_dec_run+0x6f8>  // b.any
  204fd4:	3940b260 	ldrb	w0, [x19, #44]
  204fd8:	52800115 	mov	w21, #0x8                   	// #8
  204fdc:	7100001f 	cmp	w0, #0x0
  204fe0:	52800020 	mov	w0, #0x1                   	// #1
  204fe4:	1a9503f5 	csel	w21, wzr, w21, eq  // eq = none
  204fe8:	3900b260 	strb	w0, [x19, #44]
  204fec:	17ffffeb 	b	204f98 <xz_dec_run+0x6a0>
  204ff0:	3900b27f 	strb	wzr, [x19, #44]
  204ff4:	17ffffe9 	b	204f98 <xz_dec_run+0x6a0>

0000000000204ff8 <xz_dec_init>:
  204ff8:	a9bd7bfd 	stp	x29, x30, [sp, #-48]!
  204ffc:	910003fd 	mov	x29, sp
  205000:	a90153f3 	stp	x19, x20, [sp, #16]
  205004:	2a0003f4 	mov	w20, w0
  205008:	d2809800 	mov	x0, #0x4c0                 	// #1216
  20500c:	f90013f5 	str	x21, [sp, #32]
  205010:	2a0103f5 	mov	w21, w1
  205014:	97fff8b2 	bl	2032dc <xz_malloc>
  205018:	b50000e0 	cbnz	x0, 205034 <xz_dec_init+0x3c>
  20501c:	d2800013 	mov	x19, #0x0                   	// #0
  205020:	aa1303e0 	mov	x0, x19
  205024:	a94153f3 	ldp	x19, x20, [sp, #16]
  205028:	f94013f5 	ldr	x21, [sp, #32]
  20502c:	a8c37bfd 	ldp	x29, x30, [sp], #48
  205030:	d65f03c0 	ret
  205034:	aa0003f3 	mov	x19, x0
  205038:	2a1503e1 	mov	w1, w21
  20503c:	2a1403e0 	mov	w0, w20
  205040:	b9002a74 	str	w20, [x19, #40]
  205044:	97fffd9b 	bl	2046b0 <xz_dec_lzma2_create>
  205048:	f9025e60 	str	x0, [x19, #1208]
  20504c:	b4fffe80 	cbz	x0, 20501c <xz_dec_init+0x24>
  205050:	aa1303e0 	mov	x0, x19
  205054:	97fffe15 	bl	2048a8 <xz_dec_reset>
  205058:	17fffff2 	b	205020 <xz_dec_init+0x28>

000000000020505c <xz_dec_end>:
  20505c:	b4000060 	cbz	x0, 205068 <xz_dec_end+0xc>
  205060:	f9425c00 	ldr	x0, [x0, #1208]
  205064:	17fffdb3 	b	204730 <xz_dec_lzma2_end>
  205068:	d65f03c0 	ret

000000000020506c <mtk_mmc_gpt_image_setup>:
  20506c:	a9bc7bfd 	stp	x29, x30, [sp, #-64]!
  205070:	910003fd 	mov	x29, sp
  205074:	a90153f3 	stp	x19, x20, [sp, #16]
  205078:	aa0003f4 	mov	x20, x0
  20507c:	aa0103f3 	mov	x19, x1
  205080:	f90013f5 	str	x21, [sp, #32]
  205084:	940002ce 	bl	205bbc <mtk_plat_mmc_setup>
  205088:	35000200 	cbnz	w0, 2050c8 <mtk_mmc_gpt_image_setup+0x5c>
  20508c:	9100e3e0 	add	x0, sp, #0x38
  205090:	97fff3cd 	bl	201fc4 <register_io_dev_block>
  205094:	350001a0 	cbnz	w0, 2050c8 <mtk_mmc_gpt_image_setup+0x5c>
  205098:	f9401fe0 	ldr	x0, [sp, #56]
  20509c:	f0000075 	adrp	x21, 214000 <list+0x2550>
  2050a0:	f0000041 	adrp	x1, 210000 <__RO_END__>
  2050a4:	911b62a2 	add	x2, x21, #0x6d8
  2050a8:	91000021 	add	x1, x1, #0x0
  2050ac:	97fff4da 	bl	202414 <io_dev_open>
  2050b0:	350000c0 	cbnz	w0, 2050c8 <mtk_mmc_gpt_image_setup+0x5c>
  2050b4:	f9436ea1 	ldr	x1, [x21, #1752]
  2050b8:	f9000281 	str	x1, [x20]
  2050bc:	f0000021 	adrp	x1, 20c000 <vprintf+0x2b8>
  2050c0:	910ac021 	add	x1, x1, #0x2b0
  2050c4:	f9000261 	str	x1, [x19]
  2050c8:	a94153f3 	ldp	x19, x20, [sp, #16]
  2050cc:	f94013f5 	ldr	x21, [sp, #32]
  2050d0:	a8c47bfd 	ldp	x29, x30, [sp], #64
  2050d4:	d65f03c0 	ret

00000000002050d8 <mtk_fip_image_setup>:
  2050d8:	a9be7bfd 	stp	x29, x30, [sp, #-32]!
  2050dc:	910003fd 	mov	x29, sp
  2050e0:	a90153f3 	stp	x19, x20, [sp, #16]
  2050e4:	aa0003f4 	mov	x20, x0
  2050e8:	aa0103f3 	mov	x19, x1
  2050ec:	52800380 	mov	w0, #0x1c                  	// #28
  2050f0:	97fff87a 	bl	2032d8 <partition_init>
  2050f4:	b0000040 	adrp	x0, 20e000 <mtk_pin_info_pu+0x36c>
  2050f8:	9110d800 	add	x0, x0, #0x436
  2050fc:	97fff859 	bl	203260 <get_partition_entry>
  205100:	b5000100 	cbnz	x0, 205120 <mtk_fip_image_setup+0x48>
  205104:	b0000040 	adrp	x0, 20e000 <mtk_pin_info_pu+0x36c>
  205108:	9110e800 	add	x0, x0, #0x43a
  20510c:	940006ff 	bl	206d08 <tf_log>
  205110:	12800020 	mov	w0, #0xfffffffe            	// #-2
  205114:	a94153f3 	ldp	x19, x20, [sp, #16]
  205118:	a8c27bfd 	ldp	x29, x30, [sp], #32
  20511c:	d65f03c0 	ret
  205120:	a9400003 	ldp	x3, x0, [x0]
  205124:	f0000062 	adrp	x2, 214000 <list+0x2550>
  205128:	911b2041 	add	x1, x2, #0x6c8
  20512c:	f9036443 	str	x3, [x2, #1736]
  205130:	f9000420 	str	x0, [x1, #8]
  205134:	f0000060 	adrp	x0, 214000 <list+0x2550>
  205138:	f9436c00 	ldr	x0, [x0, #1752]
  20513c:	f9000280 	str	x0, [x20]
  205140:	52800000 	mov	w0, #0x0                   	// #0
  205144:	f9000261 	str	x1, [x19]
  205148:	17fffff3 	b	205114 <mtk_fip_image_setup+0x3c>

000000000020514c <check_gpt_dev>:
  20514c:	f0000060 	adrp	x0, 214000 <list+0x2550>
  205150:	d2800001 	mov	x1, #0x0                   	// #0
  205154:	f9439400 	ldr	x0, [x0, #1832]
  205158:	17fff4b5 	b	20242c <io_dev_init>

000000000020515c <check_boot_dev>:
  20515c:	f0000060 	adrp	x0, 214000 <list+0x2550>
  205160:	d2800001 	mov	x1, #0x0                   	// #0
  205164:	f9437000 	ldr	x0, [x0, #1760]
  205168:	17fff4b1 	b	20242c <io_dev_init>

000000000020516c <check_fip>:
  20516c:	a9be7bfd 	stp	x29, x30, [sp, #-32]!
  205170:	f0000060 	adrp	x0, 214000 <list+0x2550>
  205174:	d2800001 	mov	x1, #0x0                   	// #0
  205178:	910003fd 	mov	x29, sp
  20517c:	f9438c00 	ldr	x0, [x0, #1816]
  205180:	f9000bf3 	str	x19, [sp, #16]
  205184:	f0000073 	adrp	x19, 214000 <list+0x2550>
  205188:	911c8262 	add	x2, x19, #0x720
  20518c:	97fff4a2 	bl	202414 <io_dev_open>
  205190:	350000c0 	cbnz	w0, 2051a8 <check_fip+0x3c>
  205194:	f9439260 	ldr	x0, [x19, #1824]
  205198:	d2800001 	mov	x1, #0x0                   	// #0
  20519c:	f9400bf3 	ldr	x19, [sp, #16]
  2051a0:	a8c27bfd 	ldp	x29, x30, [sp], #32
  2051a4:	17fff4a2 	b	20242c <io_dev_init>
  2051a8:	f9400bf3 	ldr	x19, [sp, #16]
  2051ac:	a8c27bfd 	ldp	x29, x30, [sp], #32
  2051b0:	d65f03c0 	ret

00000000002051b4 <plat_get_image_source>:
  2051b4:	a9bc7bfd 	stp	x29, x30, [sp, #-64]!
  2051b8:	2a0003e0 	mov	w0, w0
  2051bc:	910003fd 	mov	x29, sp
  2051c0:	a90153f3 	stp	x19, x20, [sp, #16]
  2051c4:	d2800313 	mov	x19, #0x18                  	// #24
  2051c8:	f0000054 	adrp	x20, 210000 <__RO_END__>
  2051cc:	9b137c13 	mul	x19, x0, x19
  2051d0:	91068294 	add	x20, x20, #0x1a0
  2051d4:	f9001bf7 	str	x23, [sp, #48]
  2051d8:	8b130297 	add	x23, x20, x19
  2051dc:	a9025bf5 	stp	x21, x22, [sp, #32]
  2051e0:	aa0103f5 	mov	x21, x1
  2051e4:	aa0203f6 	mov	x22, x2
  2051e8:	a94086e0 	ldp	x0, x1, [x23, #8]
  2051ec:	d63f0020 	blr	x1
  2051f0:	f94006e0 	ldr	x0, [x23, #8]
  2051f4:	f9401bf7 	ldr	x23, [sp, #48]
  2051f8:	f90002c0 	str	x0, [x22]
  2051fc:	f8736a80 	ldr	x0, [x20, x19]
  205200:	a94153f3 	ldp	x19, x20, [sp, #16]
  205204:	f9400000 	ldr	x0, [x0]
  205208:	f90002a0 	str	x0, [x21]
  20520c:	52800000 	mov	w0, #0x0                   	// #0
  205210:	a9425bf5 	ldp	x21, x22, [sp, #32]
  205214:	a8c47bfd 	ldp	x29, x30, [sp], #64
  205218:	d65f03c0 	ret

000000000020521c <bl2_plat_preload_setup>:
  20521c:	d0ffffe2 	adrp	x2, 203000 <load_partition_table+0x38>
  205220:	52a00801 	mov	w1, #0x400000              	// #4194304
  205224:	910d1042 	add	x2, x2, #0x344
  205228:	d2a81000 	mov	x0, #0x40800000            	// #1082130432
  20522c:	17fff1fe 	b	201a24 <image_decompress_init>

0000000000205230 <bl2_plat_handle_pre_image_load>:
  205230:	a9bf7bfd 	stp	x29, x30, [sp, #-16]!
  205234:	910003fd 	mov	x29, sp
  205238:	97fff19c 	bl	2018a8 <get_bl_mem_params_node>
  20523c:	b40000c0 	cbz	x0, 205254 <bl2_plat_handle_pre_image_load+0x24>
  205240:	91002000 	add	x0, x0, #0x8
  205244:	97fff1ff 	bl	201a40 <image_decompress_prepare>
  205248:	52800000 	mov	w0, #0x0                   	// #0
  20524c:	a8c17bfd 	ldp	x29, x30, [sp], #16
  205250:	d65f03c0 	ret
  205254:	12800240 	mov	w0, #0xffffffed            	// #-19
  205258:	17fffffd 	b	20524c <bl2_plat_handle_pre_image_load+0x1c>

000000000020525c <bl2_plat_handle_post_image_load>:
  20525c:	a9bf7bfd 	stp	x29, x30, [sp, #-16]!
  205260:	910003fd 	mov	x29, sp
  205264:	97fff191 	bl	2018a8 <get_bl_mem_params_node>
  205268:	b40000c0 	cbz	x0, 205280 <bl2_plat_handle_post_image_load+0x24>
  20526c:	b9400c01 	ldr	w1, [x0, #12]
  205270:	91002000 	add	x0, x0, #0x8
  205274:	370800c1 	tbnz	w1, #1, 20528c <bl2_plat_handle_post_image_load+0x30>
  205278:	a8c17bfd 	ldp	x29, x30, [sp], #16
  20527c:	17fff200 	b	201a7c <image_decompress>
  205280:	12800240 	mov	w0, #0xffffffed            	// #-19
  205284:	a8c17bfd 	ldp	x29, x30, [sp], #16
  205288:	d65f03c0 	ret
  20528c:	52800000 	mov	w0, #0x0                   	// #0
  205290:	17fffffd 	b	205284 <bl2_plat_handle_post_image_load+0x28>

0000000000205294 <plat_get_bl_image_load_info>:
  205294:	17fff191 	b	2018d8 <get_bl_load_info_from_mem_params_desc>

0000000000205298 <plat_get_next_bl_params>:
  205298:	17fff1ad 	b	20194c <get_next_bl_params_from_mem_params_desc>

000000000020529c <plat_flush_next_bl_params>:
  20529c:	17fff169 	b	201840 <flush_bl_params_desc>

00000000002052a0 <platform_mem_init>:
  2052a0:	d65f03c0 	ret

00000000002052a4 <bl2_el3_early_platform_setup>:
  2052a4:	52984002 	mov	w2, #0xc200                	// #49664
  2052a8:	528f0801 	mov	w1, #0x7840                	// #30784
  2052ac:	d2840000 	mov	x0, #0x2000                	// #8192
  2052b0:	f0000064 	adrp	x4, 214000 <list+0x2550>
  2052b4:	52800023 	mov	w3, #0x1                   	// #1
  2052b8:	911ba084 	add	x4, x4, #0x6e8
  2052bc:	72a00022 	movk	w2, #0x1, lsl #16
  2052c0:	72a02fa1 	movk	w1, #0x17d, lsl #16
  2052c4:	f2a22000 	movk	x0, #0x1100, lsl #16
  2052c8:	17fff03f 	b	2013c4 <console_hsuart_register>

00000000002052cc <bl2_platform_setup>:
  2052cc:	a9be7bfd 	stp	x29, x30, [sp, #-32]!
  2052d0:	910003fd 	mov	x29, sp
  2052d4:	f9000bf3 	str	x19, [sp, #16]
  2052d8:	f0000033 	adrp	x19, 20c000 <vprintf+0x2b8>
  2052dc:	910be273 	add	x19, x19, #0x2f8
  2052e0:	f9400260 	ldr	x0, [x19]
  2052e4:	b50002e0 	cbnz	x0, 205340 <bl2_platform_setup+0x74>
  2052e8:	f0000053 	adrp	x19, 210000 <__RO_END__>
  2052ec:	91068273 	add	x19, x19, #0x1a0
  2052f0:	f0000060 	adrp	x0, 214000 <list+0x2550>
  2052f4:	910aa261 	add	x1, x19, #0x2a8
  2052f8:	911ca000 	add	x0, x0, #0x728
  2052fc:	97ffff5c 	bl	20506c <mtk_mmc_gpt_image_setup>
  205300:	35000140 	cbnz	w0, 205328 <bl2_platform_setup+0x5c>
  205304:	f0000060 	adrp	x0, 214000 <list+0x2550>
  205308:	91002261 	add	x1, x19, #0x8
  20530c:	911b8000 	add	x0, x0, #0x6e0
  205310:	97ffff72 	bl	2050d8 <mtk_fip_image_setup>
  205314:	350000a0 	cbnz	w0, 205328 <bl2_platform_setup+0x5c>
  205318:	f0000060 	adrp	x0, 214000 <list+0x2550>
  20531c:	911c6000 	add	x0, x0, #0x718
  205320:	97fff414 	bl	202370 <register_io_dev_fip>
  205324:	34000140 	cbz	w0, 20534c <bl2_platform_setup+0x80>
  205328:	2a0003e1 	mov	w1, w0
  20532c:	b0000040 	adrp	x0, 20e000 <mtk_pin_info_pu+0x36c>
  205330:	91115800 	add	x0, x0, #0x456
  205334:	94000675 	bl	206d08 <tf_log>
  205338:	940006e2 	bl	206ec0 <console_flush>
  20533c:	97fff05b 	bl	2014a8 <el3_panic>
  205340:	91002273 	add	x19, x19, #0x8
  205344:	d63f0000 	blr	x0
  205348:	17ffffe6 	b	2052e0 <bl2_platform_setup+0x14>
  20534c:	f9400bf3 	ldr	x19, [sp, #16]
  205350:	a8c27bfd 	ldp	x29, x30, [sp], #32
  205354:	d65f03c0 	ret

0000000000205358 <msdc_card_busy>:
  205358:	f0000060 	adrp	x0, 214000 <list+0x2550>
  20535c:	f9439800 	ldr	x0, [x0, #1840]
  205360:	b9400800 	ldr	w0, [x0, #8]
  205364:	d2700000 	eor	x0, x0, #0x10000
  205368:	53104000 	ubfx	w0, w0, #16, #1
  20536c:	d65f03c0 	ret

0000000000205370 <mtk_mmc_prepare>:
  205370:	f0000060 	adrp	x0, 214000 <list+0x2550>
  205374:	f903b802 	str	x2, [x0, #1904]
  205378:	f0000040 	adrp	x0, 210000 <__RO_END__>
  20537c:	b9446001 	ldr	w1, [x0, #1120]
  205380:	f0000060 	adrp	x0, 214000 <list+0x2550>
  205384:	340001a1 	cbz	w1, 2053b8 <mtk_mmc_prepare+0x48>
  205388:	b90bb401 	str	w1, [x0, #2996]
  20538c:	b94bb401 	ldr	w1, [x0, #2996]
  205390:	d1000420 	sub	x0, x1, #0x1
  205394:	8b020002 	add	x2, x0, x2
  205398:	f0000060 	adrp	x0, 214000 <list+0x2550>
  20539c:	9ac10842 	udiv	x2, x2, x1
  2053a0:	52800021 	mov	w1, #0x1                   	// #1
  2053a4:	b90bb002 	str	w2, [x0, #2992]
  2053a8:	f0000060 	adrp	x0, 214000 <list+0x2550>
  2053ac:	3939dc01 	strb	w1, [x0, #3703]
  2053b0:	52800000 	mov	w0, #0x0                   	// #0
  2053b4:	d65f03c0 	ret
  2053b8:	f108005f 	cmp	x2, #0x200
  2053bc:	52804001 	mov	w1, #0x200                 	// #512
  2053c0:	1a813041 	csel	w1, w2, w1, cc  // cc = lo, ul, last
  2053c4:	17fffff1 	b	205388 <mtk_mmc_prepare+0x18>

00000000002053c8 <mtk_mmc_write>:
  2053c8:	12800000 	mov	w0, #0xffffffff            	// #-1
  2053cc:	d65f03c0 	ret

00000000002053d0 <mtk_mmc_read>:
  2053d0:	a9bf7bfd 	stp	x29, x30, [sp, #-16]!
  2053d4:	f0000064 	adrp	x4, 214000 <list+0x2550>
  2053d8:	aa0103e0 	mov	x0, x1
  2053dc:	910003fd 	mov	x29, sp
  2053e0:	f0000061 	adrp	x1, 214000 <list+0x2550>
  2053e4:	f943b88d 	ldr	x13, [x4, #1904]
  2053e8:	3939dc3f 	strb	wzr, [x1, #3703]
  2053ec:	eb0201bf 	cmp	x13, x2
  2053f0:	540000e2 	b.cs	20540c <mtk_mmc_read+0x3c>  // b.hs, b.nlast
  2053f4:	b0000040 	adrp	x0, 20e000 <mtk_pin_info_pu+0x36c>
  2053f8:	9112d800 	add	x0, x0, #0x4b6
  2053fc:	94000643 	bl	206d08 <tf_log>
  205400:	128002a0 	mov	w0, #0xffffffea            	// #-22
  205404:	a8c17bfd 	ldp	x29, x30, [sp], #16
  205408:	d65f03c0 	ret
  20540c:	f0000066 	adrp	x6, 214000 <list+0x2550>
  205410:	aa0203e3 	mov	x3, x2
  205414:	529a0007 	mov	w7, #0xd000                	// #53248
  205418:	d280100e 	mov	x14, #0x80                  	// #128
  20541c:	f94398c5 	ldr	x5, [x6, #1840]
  205420:	911cc0c6 	add	x6, x6, #0x730
  205424:	9280006f 	mov	x15, #0xfffffffffffffffc    	// #-4
  205428:	b94034a1 	ldr	w1, [x5, #52]
  20542c:	b94038a2 	ldr	w2, [x5, #56]
  205430:	12001421 	and	w1, w1, #0x3f
  205434:	b9000ca7 	str	w7, [x5, #12]
  205438:	52800005 	mov	w5, #0x0                   	// #0
  20543c:	f94000c9 	ldr	x9, [x6]
  205440:	b9400d27 	ldr	w7, [x9, #12]
  205444:	b9000d27 	str	w7, [x9, #12]
  205448:	36780107 	tbz	w7, #15, 205468 <mtk_mmc_read+0x98>
  20544c:	34000045 	cbz	w5, 205454 <mtk_mmc_read+0x84>
  205450:	f903b88d 	str	x13, [x4, #1904]
  205454:	b0000040 	adrp	x0, 20e000 <mtk_pin_info_pu+0x36c>
  205458:	91138c00 	add	x0, x0, #0x4e3
  20545c:	9400062b 	bl	206d08 <tf_log>
  205460:	12800080 	mov	w0, #0xfffffffb            	// #-5
  205464:	17ffffe8 	b	205404 <mtk_mmc_read+0x34>
  205468:	36700107 	tbz	w7, #14, 205488 <mtk_mmc_read+0xb8>
  20546c:	34000045 	cbz	w5, 205474 <mtk_mmc_read+0xa4>
  205470:	f903b88d 	str	x13, [x4, #1904]
  205474:	b0000040 	adrp	x0, 20e000 <mtk_pin_info_pu+0x36c>
  205478:	91149800 	add	x0, x0, #0x526
  20547c:	94000623 	bl	206d08 <tf_log>
  205480:	12800760 	mov	w0, #0xffffffc4            	// #-60
  205484:	17ffffe0 	b	205404 <mtk_mmc_read+0x34>
  205488:	b9401529 	ldr	w9, [x9, #20]
  20548c:	f102007f 	cmp	x3, #0x80
  205490:	9a8e9068 	csel	x8, x3, x14, ls  // ls = plast
  205494:	6b29011f 	cmp	w8, w9, uxtb
  205498:	54000288 	b.hi	2054e8 <mtk_mmc_read+0x118>  // b.pmore
  20549c:	8b080005 	add	x5, x0, x8
  2054a0:	cb0000aa 	sub	x10, x5, x0
  2054a4:	f2400409 	ands	x9, x0, #0x3
  2054a8:	f94000cc 	ldr	x12, [x6]
  2054ac:	540002a1 	b.ne	205500 <mtk_mmc_read+0x130>  // b.any
  2054b0:	d280000b 	mov	x11, #0x0                   	// #0
  2054b4:	cb0b0150 	sub	x16, x10, x11
  2054b8:	f1000e1f 	cmp	x16, #0x3
  2054bc:	54000288 	b.hi	20550c <mtk_mmc_read+0x13c>  // b.pmore
  2054c0:	d342fd4b 	lsr	x11, x10, #2
  2054c4:	927ef54c 	and	x12, x10, #0xfffffffffffffffc
  2054c8:	8b0c0000 	add	x0, x0, x12
  2054cc:	9b0f296a 	madd	x10, x11, x15, x10
  2054d0:	eb09015f 	cmp	x10, x9
  2054d4:	54000241 	b.ne	20551c <mtk_mmc_read+0x14c>  // b.any
  2054d8:	cb080063 	sub	x3, x3, x8
  2054dc:	cb0801ad 	sub	x13, x13, x8
  2054e0:	aa0503e0 	mov	x0, x5
  2054e4:	52800025 	mov	w5, #0x1                   	// #1
  2054e8:	37600247 	tbnz	w7, #12, 205530 <mtk_mmc_read+0x160>
  2054ec:	b5fffa83 	cbnz	x3, 20543c <mtk_mmc_read+0x6c>
  2054f0:	34000045 	cbz	w5, 2054f8 <mtk_mmc_read+0x128>
  2054f4:	f903b88d 	str	x13, [x4, #1904]
  2054f8:	52800000 	mov	w0, #0x0                   	// #0
  2054fc:	17ffffc2 	b	205404 <mtk_mmc_read+0x34>
  205500:	39407189 	ldrb	w9, [x12, #28]
  205504:	38001409 	strb	w9, [x0], #1
  205508:	17ffffe6 	b	2054a0 <mtk_mmc_read+0xd0>
  20550c:	b9401d90 	ldr	w16, [x12, #28]
  205510:	b82b6810 	str	w16, [x0, x11]
  205514:	9100116b 	add	x11, x11, #0x4
  205518:	17ffffe7 	b	2054b4 <mtk_mmc_read+0xe4>
  20551c:	f94000cb 	ldr	x11, [x6]
  205520:	3940716b 	ldrb	w11, [x11, #28]
  205524:	3829680b 	strb	w11, [x0, x9]
  205528:	91000529 	add	x9, x9, #0x1
  20552c:	17ffffe9 	b	2054d0 <mtk_mmc_read+0x100>
  205530:	34000045 	cbz	w5, 205538 <mtk_mmc_read+0x168>
  205534:	f903b88d 	str	x13, [x4, #1904]
  205538:	b4fffe03 	cbz	x3, 2054f8 <mtk_mmc_read+0x128>
  20553c:	b0000040 	adrp	x0, 20e000 <mtk_pin_info_pu+0x36c>
  205540:	91159c00 	add	x0, x0, #0x567
  205544:	940005f1 	bl	206d08 <tf_log>
  205548:	17ffffc6 	b	205460 <mtk_mmc_read+0x90>

000000000020554c <msdc_ops_set_ios>:
  20554c:	f0000065 	adrp	x5, 214000 <list+0x2550>
  205550:	f94398a2 	ldr	x2, [x5, #1840]
  205554:	b9403043 	ldr	w3, [x2, #48]
  205558:	120e7463 	and	w3, w3, #0xfffcffff
  20555c:	7100043f 	cmp	w1, #0x1
  205560:	540001e0 	b.eq	20559c <msdc_ops_set_ios+0x50>  // b.none
  205564:	7100083f 	cmp	w1, #0x2
  205568:	540001e0 	b.eq	2055a4 <msdc_ops_set_ios+0x58>  // b.none
  20556c:	911cc0a5 	add	x5, x5, #0x730
  205570:	b9003043 	str	w3, [x2, #48]
  205574:	b9401ca1 	ldr	w1, [x5, #28]
  205578:	6b00003f 	cmp	w1, w0
  20557c:	540000c0 	b.eq	205594 <msdc_ops_set_ios+0x48>  // b.none
  205580:	35000160 	cbnz	w0, 2055ac <msdc_ops_set_ios+0x60>
  205584:	b9001cbf 	str	wzr, [x5, #28]
  205588:	b9400040 	ldr	w0, [x2]
  20558c:	121e7800 	and	w0, w0, #0xfffffffd
  205590:	b9000040 	str	w0, [x2]
  205594:	52800000 	mov	w0, #0x0                   	// #0
  205598:	d65f03c0 	ret
  20559c:	32100063 	orr	w3, w3, #0x10000
  2055a0:	17fffff3 	b	20556c <msdc_ops_set_ios+0x20>
  2055a4:	320f0063 	orr	w3, w3, #0x20000
  2055a8:	17fffff1 	b	20556c <msdc_ops_set_ios+0x20>
  2055ac:	f94008a1 	ldr	x1, [x5, #16]
  2055b0:	39400026 	ldrb	w6, [x1]
  2055b4:	b9400041 	ldr	w1, [x2]
  2055b8:	710020df 	cmp	w6, #0x8
  2055bc:	54000221 	b.ne	205600 <msdc_ops_set_ios+0xb4>  // b.any
  2055c0:	120d7821 	and	w1, w1, #0xfffbffff
  2055c4:	b9000041 	str	w1, [x2]
  2055c8:	b94018a1 	ldr	w1, [x5, #24]
  2055cc:	6b01001f 	cmp	w0, w1
  2055d0:	540001c2 	b.cs	205608 <msdc_ops_set_ios+0xbc>  // b.hs, b.nlast
  2055d4:	53017c23 	lsr	w3, w1, #1
  2055d8:	6b03001f 	cmp	w0, w3
  2055dc:	54000782 	b.cs	2056cc <msdc_ops_set_ios+0x180>  // b.hs, b.nlast
  2055e0:	51000424 	sub	w4, w1, #0x1
  2055e4:	531e7403 	lsl	w3, w0, #2
  2055e8:	0b000884 	add	w4, w4, w0, lsl #2
  2055ec:	53027c21 	lsr	w1, w1, #2
  2055f0:	1ac30883 	udiv	w3, w4, w3
  2055f4:	1ac30821 	udiv	w1, w1, w3
  2055f8:	52800004 	mov	w4, #0x0                   	// #0
  2055fc:	14000005 	b	205610 <msdc_ops_set_ios+0xc4>
  205600:	12097821 	and	w1, w1, #0xffbfffff
  205604:	17fffff0 	b	2055c4 <msdc_ops_set_ios+0x78>
  205608:	52800003 	mov	w3, #0x0                   	// #0
  20560c:	52800024 	mov	w4, #0x1                   	// #1
  205610:	b9400047 	ldr	w7, [x2]
  205614:	121e78e7 	and	w7, w7, #0xfffffffd
  205618:	b9000047 	str	w7, [x2]
  20561c:	b9400047 	ldr	w7, [x2]
  205620:	710020df 	cmp	w6, #0x8
  205624:	540005a1 	b.ne	2056d8 <msdc_ops_set_ios+0x18c>  // b.any
  205628:	120e54e7 	and	w7, w7, #0xfffc00ff
  20562c:	7103fc7f 	cmp	w3, #0xff
  205630:	2a0440e4 	orr	w4, w7, w4, lsl #16
  205634:	52801fe7 	mov	w7, #0xff                  	// #255
  205638:	1a879063 	csel	w3, w3, w7, ls  // ls = plast
  20563c:	2a032083 	orr	w3, w4, w3, lsl #8
  205640:	b9000043 	str	w3, [x2]
  205644:	b9400043 	ldr	w3, [x2]
  205648:	363fffe3 	tbz	w3, #7, 205644 <msdc_ops_set_ios+0xf8>
  20564c:	290384a0 	stp	w0, w1, [x5, #28]
  205650:	34000341 	cbz	w1, 2056b8 <msdc_ops_set_ios+0x16c>
  205654:	52994000 	mov	w0, #0xca00                	// #51712
  205658:	12bffe03 	mov	w3, #0xfffff               	// #1048575
  20565c:	72a77340 	movk	w0, #0x3b9a, lsl #16
  205660:	1ac10800 	udiv	w0, w0, w1
  205664:	b94024a1 	ldr	w1, [x5, #36]
  205668:	51000421 	sub	w1, w1, #0x1
  20566c:	0b000021 	add	w1, w1, w0
  205670:	1ac00821 	udiv	w1, w1, w0
  205674:	b94028a0 	ldr	w0, [x5, #40]
  205678:	0b030000 	add	w0, w0, w3
  20567c:	0b000021 	add	w1, w1, w0
  205680:	b9400040 	ldr	w0, [x2]
  205684:	53147c21 	lsr	w1, w1, #20
  205688:	710020df 	cmp	w6, #0x8
  20568c:	54000301 	b.ne	2056ec <msdc_ops_set_ios+0x1a0>  // b.any
  205690:	d3504400 	ubfx	x0, x0, #16, #2
  205694:	7100041f 	cmp	w0, #0x1
  205698:	54000049 	b.ls	2056a0 <msdc_ops_set_ios+0x154>  // b.plast
  20569c:	531f7821 	lsl	w1, w1, #1
  2056a0:	7100003f 	cmp	w1, #0x0
  2056a4:	52801fe0 	mov	w0, #0xff                  	// #255
  2056a8:	1a9f1421 	csinc	w1, w1, wzr, ne  // ne = any
  2056ac:	51000421 	sub	w1, w1, #0x1
  2056b0:	7103fc3f 	cmp	w1, #0xff
  2056b4:	1a809021 	csel	w1, w1, w0, ls  // ls = plast
  2056b8:	b9403040 	ldr	w0, [x2, #48]
  2056bc:	12005c00 	and	w0, w0, #0xffffff
  2056c0:	2a016001 	orr	w1, w0, w1, lsl #24
  2056c4:	b9003041 	str	w1, [x2, #48]
  2056c8:	17ffffb3 	b	205594 <msdc_ops_set_ios+0x48>
  2056cc:	2a0303e1 	mov	w1, w3
  2056d0:	52800003 	mov	w3, #0x0                   	// #0
  2056d4:	17ffffc9 	b	2055f8 <msdc_ops_set_ios+0xac>
  2056d8:	120a44e7 	and	w7, w7, #0xffc000ff
  2056dc:	713ffc7f 	cmp	w3, #0xfff
  2056e0:	2a0450e4 	orr	w4, w7, w4, lsl #20
  2056e4:	5281ffe7 	mov	w7, #0xfff                 	// #4095
  2056e8:	17ffffd4 	b	205638 <msdc_ops_set_ios+0xec>
  2056ec:	d3545400 	ubfx	x0, x0, #20, #2
  2056f0:	17ffffe9 	b	205694 <msdc_ops_set_ios+0x148>

00000000002056f4 <msdc_reset_hw.constprop.0>:
  2056f4:	f0000060 	adrp	x0, 214000 <list+0x2550>
  2056f8:	f9439800 	ldr	x0, [x0, #1840]
  2056fc:	b9400001 	ldr	w1, [x0]
  205700:	321e0021 	orr	w1, w1, #0x4
  205704:	b9000001 	str	w1, [x0]
  205708:	b9400001 	ldr	w1, [x0]
  20570c:	3717ffe1 	tbnz	w1, #2, 205708 <msdc_reset_hw.constprop.0+0x14>
  205710:	d65f03c0 	ret

0000000000205714 <msdc_init_hw>:
  205714:	f0000063 	adrp	x3, 214000 <list+0x2550>
  205718:	911cc064 	add	x4, x3, #0x730
  20571c:	a9bf7bfd 	stp	x29, x30, [sp, #-16]!
  205720:	910003fd 	mov	x29, sp
  205724:	f9400881 	ldr	x1, [x4, #16]
  205728:	f9439860 	ldr	x0, [x3, #1840]
  20572c:	39400425 	ldrb	w5, [x1, #1]
  205730:	9103c002 	add	x2, x0, #0xf0
  205734:	9103b001 	add	x1, x0, #0xec
  205738:	710000bf 	cmp	w5, #0x0
  20573c:	9a811042 	csel	x2, x2, x1, ne  // ne = any
  205740:	b9400001 	ldr	w1, [x0]
  205744:	32000021 	orr	w1, w1, #0x1
  205748:	b9000001 	str	w1, [x0]
  20574c:	b9400001 	ldr	w1, [x0]
  205750:	321d0021 	orr	w1, w1, #0x8
  205754:	b9000001 	str	w1, [x0]
  205758:	97ffffe7 	bl	2056f4 <msdc_reset_hw.constprop.0>
  20575c:	f9439860 	ldr	x0, [x3, #1840]
  205760:	b9400c01 	ldr	w1, [x0, #12]
  205764:	b9000c01 	str	w1, [x0, #12]
  205768:	529ae001 	mov	w1, #0xd700                	// #55040
  20576c:	b9001001 	str	w1, [x0, #16]
  205770:	f9400481 	ldr	x1, [x4, #8]
  205774:	b900005f 	str	wzr, [x2]
  205778:	b4000061 	cbz	x1, 205784 <msdc_init_hw+0x70>
  20577c:	b900003f 	str	wzr, [x1]
  205780:	b900043f 	str	wzr, [x1, #4]
  205784:	f9400883 	ldr	x3, [x4, #16]
  205788:	39401c65 	ldrb	w5, [x3, #7]
  20578c:	b900041f 	str	wzr, [x0, #4]
  205790:	34000a25 	cbz	w5, 2058d4 <msdc_init_hw+0x1c0>
  205794:	b9400405 	ldr	w5, [x0, #4]
  205798:	321f00a5 	orr	w5, w5, #0x2
  20579c:	b9000405 	str	w5, [x0, #4]
  2057a0:	528008c5 	mov	w5, #0x46                  	// #70
  2057a4:	72a80785 	movk	w5, #0x403c, lsl #16
  2057a8:	b900b005 	str	w5, [x0, #176]
  2057ac:	1297eec5 	mov	w5, #0xffff4089            	// #-49015
  2057b0:	b900b405 	str	w5, [x0, #180]
  2057b4:	39401465 	ldrb	w5, [x3, #5]
  2057b8:	34000165 	cbz	w5, 2057e4 <msdc_init_hw+0xd0>
  2057bc:	b9422805 	ldr	w5, [x0, #552]
  2057c0:	120778a5 	and	w5, w5, #0xfeffffff
  2057c4:	b9022805 	str	w5, [x0, #552]
  2057c8:	b9422805 	ldr	w5, [x0, #552]
  2057cc:	120678a5 	and	w5, w5, #0xfdffffff
  2057d0:	b9022805 	str	w5, [x0, #552]
  2057d4:	b940b405 	ldr	w5, [x0, #180]
  2057d8:	12146ca5 	and	w5, w5, #0xfffff0ff
  2057dc:	321804a5 	orr	w5, w5, #0x300
  2057e0:	b900b405 	str	w5, [x0, #180]
  2057e4:	39401065 	ldrb	w5, [x3, #4]
  2057e8:	34000085 	cbz	w5, 2057f8 <msdc_init_hw+0xe4>
  2057ec:	b940b405 	ldr	w5, [x0, #180]
  2057f0:	121878a5 	and	w5, w5, #0xffffff7f
  2057f4:	b900b405 	str	w5, [x0, #180]
  2057f8:	b9420805 	ldr	w5, [x0, #520]
  2057fc:	321c00a5 	orr	w5, w5, #0x10
  205800:	b9020805 	str	w5, [x0, #520]
  205804:	39400865 	ldrb	w5, [x3, #2]
  205808:	34000205 	cbz	w5, 205848 <msdc_init_hw+0x134>
  20580c:	b940b805 	ldr	w5, [x0, #184]
  205810:	321e04a5 	orr	w5, w5, #0xc
  205814:	b900b805 	str	w5, [x0, #184]
  205818:	39401865 	ldrb	w5, [x3, #6]
  20581c:	340006a5 	cbz	w5, 2058f0 <msdc_init_hw+0x1dc>
  205820:	b4000601 	cbz	x1, 2058e0 <msdc_init_hw+0x1cc>
  205824:	b9400025 	ldr	w5, [x1]
  205828:	321100a5 	orr	w5, w5, #0x8000
  20582c:	b9000025 	str	w5, [x1]
  205830:	b940b805 	ldr	w5, [x0, #184]
  205834:	121078a5 	and	w5, w5, #0xffff7fff
  205838:	b900b805 	str	w5, [x0, #184]
  20583c:	b940b805 	ldr	w5, [x0, #184]
  205840:	120378a5 	and	w5, w5, #0xefffffff
  205844:	b900b805 	str	w5, [x0, #184]
  205848:	39400c65 	ldrb	w5, [x3, #3]
  20584c:	34000705 	cbz	w5, 20592c <msdc_init_hw+0x218>
  205850:	b4000621 	cbz	x1, 205914 <msdc_init_hw+0x200>
  205854:	b9400022 	ldr	w2, [x1]
  205858:	32130042 	orr	w2, w2, #0x2000
  20585c:	b9000022 	str	w2, [x1]
  205860:	b9400022 	ldr	w2, [x1]
  205864:	12117842 	and	w2, w2, #0xffffbfff
  205868:	b9000022 	str	w2, [x1]
  20586c:	b9400422 	ldr	w2, [x1, #4]
  205870:	32150042 	orr	w2, w2, #0x800
  205874:	b9000422 	str	w2, [x1, #4]
  205878:	b940b002 	ldr	w2, [x0, #176]
  20587c:	b9400861 	ldr	w1, [x3, #8]
  205880:	12167042 	and	w2, w2, #0xfffffc7f
  205884:	2a011c41 	orr	w1, w2, w1, lsl #7
  205888:	b900b001 	str	w1, [x0, #176]
  20588c:	b9403001 	ldr	w1, [x0, #48]
  205890:	320d0021 	orr	w1, w1, #0x80000
  205894:	b9003001 	str	w1, [x0, #48]
  205898:	b9403001 	ldr	w1, [x0, #48]
  20589c:	120b7821 	and	w1, w1, #0xffefffff
  2058a0:	b9003001 	str	w1, [x0, #48]
  2058a4:	b9403001 	ldr	w1, [x0, #48]
  2058a8:	12005c21 	and	w1, w1, #0xffffff
  2058ac:	32080421 	orr	w1, w1, #0x3000000
  2058b0:	b9003001 	str	w1, [x0, #48]
  2058b4:	b9400401 	ldr	w1, [x0, #4]
  2058b8:	b940ec00 	ldr	w0, [x0, #236]
  2058bc:	29068081 	stp	w1, w0, [x4, #52]
  2058c0:	52800001 	mov	w1, #0x0                   	// #0
  2058c4:	52884800 	mov	w0, #0x4240                	// #16960
  2058c8:	a8c17bfd 	ldp	x29, x30, [sp], #16
  2058cc:	72a001e0 	movk	w0, #0xf, lsl #16
  2058d0:	17ffff1f 	b	20554c <msdc_ops_set_ios>
  2058d4:	b9400405 	ldr	w5, [x0, #4]
  2058d8:	121e78a5 	and	w5, w5, #0xfffffffd
  2058dc:	17ffffb0 	b	20579c <msdc_init_hw+0x88>
  2058e0:	b9406405 	ldr	w5, [x0, #100]
  2058e4:	320c00a5 	orr	w5, w5, #0x100000
  2058e8:	b9006405 	str	w5, [x0, #100]
  2058ec:	17ffffd1 	b	205830 <msdc_init_hw+0x11c>
  2058f0:	b940b805 	ldr	w5, [x0, #184]
  2058f4:	120d70a5 	and	w5, w5, #0xfff8ffff
  2058f8:	320f00a5 	orr	w5, w5, #0x20000
  2058fc:	b900b805 	str	w5, [x0, #184]
  205900:	b940b805 	ldr	w5, [x0, #184]
  205904:	120070a5 	and	w5, w5, #0x1fffffff
  205908:	320200a5 	orr	w5, w5, #0x40000000
  20590c:	b900b805 	str	w5, [x0, #184]
  205910:	17ffffc8 	b	205830 <msdc_init_hw+0x11c>
  205914:	b9400041 	ldr	w1, [x2]
  205918:	52840005 	mov	w5, #0x2000                	// #8192
  20591c:	72a00405 	movk	w5, #0x20, lsl #16
  205920:	2a050021 	orr	w1, w1, w5
  205924:	b9000041 	str	w1, [x2]
  205928:	17ffffd4 	b	205878 <msdc_init_hw+0x164>
  20592c:	b9400041 	ldr	w1, [x2]
  205930:	32110021 	orr	w1, w1, #0x8000
  205934:	b9000041 	str	w1, [x2]
  205938:	17ffffd5 	b	20588c <msdc_init_hw+0x178>

000000000020593c <mtk_mmc_send_cmd>:
  20593c:	f0000061 	adrp	x1, 214000 <list+0x2550>
  205940:	aa0003e3 	mov	x3, x0
  205944:	f9439820 	ldr	x0, [x1, #1840]
  205948:	b9403c02 	ldr	w2, [x0, #60]
  20594c:	121f0047 	and	w7, w2, #0x2
  205950:	370fffc2 	tbnz	w2, #1, 205948 <mtk_mmc_send_cmd+0xc>
  205954:	911cc021 	add	x1, x1, #0x730
  205958:	b9402c22 	ldr	w2, [x1, #44]
  20595c:	7100745f 	cmp	w2, #0x1d
  205960:	540000a1 	b.ne	205974 <mtk_mmc_send_cmd+0x38>  // b.any
  205964:	b9403022 	ldr	w2, [x1, #48]
  205968:	34000062 	cbz	w2, 205974 <mtk_mmc_send_cmd+0x38>
  20596c:	b9400802 	ldr	w2, [x0, #8]
  205970:	3687ffe2 	tbz	w2, #16, 20596c <mtk_mmc_send_cmd+0x30>
  205974:	b9401402 	ldr	w2, [x0, #20]
  205978:	32010042 	orr	w2, w2, #0x80000000
  20597c:	b9001402 	str	w2, [x0, #20]
  205980:	b9401402 	ldr	w2, [x0, #20]
  205984:	37ffffe2 	tbnz	w2, #31, 205980 <mtk_mmc_send_cmd+0x44>
  205988:	b9400862 	ldr	w2, [x3, #8]
  20598c:	2905fc22 	stp	w2, wzr, [x1, #44]
  205990:	b9400861 	ldr	w1, [x3, #8]
  205994:	b9400062 	ldr	w2, [x3]
  205998:	51000421 	sub	w1, w1, #0x1
  20599c:	7100703f 	cmp	w1, #0x1c
  2059a0:	54000268 	b.hi	2059ec <mtk_mmc_send_cmd+0xb0>  // b.pmore
  2059a4:	b0000044 	adrp	x4, 20e000 <mtk_pin_info_pu+0x36c>
  2059a8:	9118b084 	add	x4, x4, #0x62c
  2059ac:	38614885 	ldrb	w5, [x4, w1, uxtw]
  2059b0:	f0000061 	adrp	x1, 214000 <list+0x2550>
  2059b4:	3979dc26 	ldrb	w6, [x1, #3703]
  2059b8:	7100645f 	cmp	w2, #0x19
  2059bc:	54000248 	b.hi	205a04 <mtk_mmc_send_cmd+0xc8>  // b.pmore
  2059c0:	7100145f 	cmp	w2, #0x5
  2059c4:	54000a49 	b.ls	205b0c <mtk_mmc_send_cmd+0x1d0>  // b.plast
  2059c8:	51001844 	sub	w4, w2, #0x6
  2059cc:	71004c9f 	cmp	w4, #0x13
  2059d0:	540009e8 	b.hi	205b0c <mtk_mmc_send_cmd+0x1d0>  // b.pmore
  2059d4:	f0000021 	adrp	x1, 20c000 <vprintf+0x2b8>
  2059d8:	9110e021 	add	x1, x1, #0x438
  2059dc:	38644821 	ldrb	w1, [x1, w4, uxtw]
  2059e0:	10000064 	adr	x4, 2059ec <mtk_mmc_send_cmd+0xb0>
  2059e4:	8b218881 	add	x1, x4, w1, sxtb #2
  2059e8:	d61f0020 	br	x1
  2059ec:	52800005 	mov	w5, #0x0                   	// #0
  2059f0:	17fffff0 	b	2059b0 <mtk_mmc_send_cmd+0x74>
  2059f4:	52800041 	mov	w1, #0x2                   	// #2
  2059f8:	350001a6 	cbnz	w6, 205a2c <mtk_mmc_send_cmd+0xf0>
  2059fc:	52800004 	mov	w4, #0x0                   	// #0
  205a00:	14000015 	b	205a54 <mtk_mmc_send_cmd+0x118>
  205a04:	7100cc5f 	cmp	w2, #0x33
  205a08:	1a9f17e1 	cset	w1, eq  // eq = none
  205a0c:	17fffffb 	b	2059f8 <mtk_mmc_send_cmd+0xbc>
  205a10:	52800021 	mov	w1, #0x1                   	// #1
  205a14:	17fffff9 	b	2059f8 <mtk_mmc_send_cmd+0xbc>
  205a18:	340007e6 	cbz	w6, 205b14 <mtk_mmc_send_cmd+0x1d8>
  205a1c:	f0000061 	adrp	x1, 214000 <list+0x2550>
  205a20:	f943b821 	ldr	x1, [x1, #1904]
  205a24:	f100003f 	cmp	x1, #0x0
  205a28:	1a9f07e1 	cset	w1, ne  // ne = any
  205a2c:	f0000064 	adrp	x4, 214000 <list+0x2550>
  205a30:	f943b884 	ldr	x4, [x4, #1904]
  205a34:	b4fffe44 	cbz	x4, 2059fc <mtk_mmc_send_cmd+0xc0>
  205a38:	f0000064 	adrp	x4, 214000 <list+0x2550>
  205a3c:	b94bb084 	ldr	w4, [x4, #2992]
  205a40:	7100089f 	cmp	w4, #0x2
  205a44:	52800044 	mov	w4, #0x2                   	// #2
  205a48:	1a843021 	csel	w1, w1, w4, cc  // cc = lo, ul, last
  205a4c:	f0000064 	adrp	x4, 214000 <list+0x2550>
  205a50:	b94bb484 	ldr	w4, [x4, #2996]
  205a54:	53102c84 	ubfiz	w4, w4, #16, #12
  205a58:	2a012c81 	orr	w1, w4, w1, lsl #11
  205a5c:	12001444 	and	w4, w2, #0x3f
  205a60:	2a051c85 	orr	w5, w4, w5, lsl #7
  205a64:	2a050021 	orr	w1, w1, w5
  205a68:	7100305f 	cmp	w2, #0xc
  205a6c:	54000041 	b.ne	205a74 <mtk_mmc_send_cmd+0x138>  // b.any
  205a70:	32120021 	orr	w1, w1, #0x4000
  205a74:	340000c6 	cbz	w6, 205a8c <mtk_mmc_send_cmd+0x150>
  205a78:	f0000062 	adrp	x2, 214000 <list+0x2550>
  205a7c:	f943b842 	ldr	x2, [x2, #1904]
  205a80:	b4000062 	cbz	x2, 205a8c <mtk_mmc_send_cmd+0x150>
  205a84:	f0000062 	adrp	x2, 214000 <list+0x2550>
  205a88:	b94bb047 	ldr	w7, [x2, #2992]
  205a8c:	5280e002 	mov	w2, #0x700                 	// #1792
  205a90:	b9000c02 	str	w2, [x0, #12]
  205a94:	b9005007 	str	w7, [x0, #80]
  205a98:	b9400462 	ldr	w2, [x3, #4]
  205a9c:	b9003802 	str	w2, [x0, #56]
  205aa0:	b9003401 	str	w1, [x0, #52]
  205aa4:	b9400c04 	ldr	w4, [x0, #12]
  205aa8:	7218089f 	tst	w4, #0x700
  205aac:	54ffffc0 	b.eq	205aa4 <mtk_mmc_send_cmd+0x168>  // b.none
  205ab0:	b9400861 	ldr	w1, [x3, #8]
  205ab4:	36000141 	tbz	w1, #0, 205adc <mtk_mmc_send_cmd+0x1a0>
  205ab8:	36080321 	tbz	w1, #1, 205b1c <mtk_mmc_send_cmd+0x1e0>
  205abc:	b9404c01 	ldr	w1, [x0, #76]
  205ac0:	b9000c61 	str	w1, [x3, #12]
  205ac4:	b9404801 	ldr	w1, [x0, #72]
  205ac8:	b9001061 	str	w1, [x3, #16]
  205acc:	b9404401 	ldr	w1, [x0, #68]
  205ad0:	b9001461 	str	w1, [x3, #20]
  205ad4:	b9404000 	ldr	w0, [x0, #64]
  205ad8:	b9001860 	str	w0, [x3, #24]
  205adc:	374003e4 	tbnz	w4, #8, 205b58 <mtk_mmc_send_cmd+0x21c>
  205ae0:	a9bf7bfd 	stp	x29, x30, [sp, #-16]!
  205ae4:	910003fd 	mov	x29, sp
  205ae8:	97ffff03 	bl	2056f4 <msdc_reset_hw.constprop.0>
  205aec:	364801e4 	tbz	w4, #9, 205b28 <mtk_mmc_send_cmd+0x1ec>
  205af0:	29400861 	ldp	w1, w2, [x3]
  205af4:	b0000040 	adrp	x0, 20e000 <mtk_pin_info_pu+0x36c>
  205af8:	91161800 	add	x0, x0, #0x586
  205afc:	94000483 	bl	206d08 <tf_log>
  205b00:	12800760 	mov	w0, #0xffffffc4            	// #-60
  205b04:	a8c17bfd 	ldp	x29, x30, [sp], #16
  205b08:	d65f03c0 	ret
  205b0c:	52800001 	mov	w1, #0x0                   	// #0
  205b10:	17ffffba 	b	2059f8 <mtk_mmc_send_cmd+0xbc>
  205b14:	52800001 	mov	w1, #0x0                   	// #0
  205b18:	17ffffb9 	b	2059fc <mtk_mmc_send_cmd+0xc0>
  205b1c:	b9404000 	ldr	w0, [x0, #64]
  205b20:	b9000c60 	str	w0, [x3, #12]
  205b24:	17ffffee 	b	205adc <mtk_mmc_send_cmd+0x1a0>
  205b28:	29400861 	ldp	w1, w2, [x3]
  205b2c:	365000c4 	tbz	w4, #10, 205b44 <mtk_mmc_send_cmd+0x208>
  205b30:	b0000040 	adrp	x0, 20e000 <mtk_pin_info_pu+0x36c>
  205b34:	9116e800 	add	x0, x0, #0x5ba
  205b38:	94000474 	bl	206d08 <tf_log>
  205b3c:	12800080 	mov	w0, #0xfffffffb            	// #-5
  205b40:	17fffff1 	b	205b04 <mtk_mmc_send_cmd+0x1c8>
  205b44:	b0000040 	adrp	x0, 20e000 <mtk_pin_info_pu+0x36c>
  205b48:	9117b800 	add	x0, x0, #0x5ee
  205b4c:	9400046f 	bl	206d08 <tf_log>
  205b50:	528002c0 	mov	w0, #0x16                  	// #22
  205b54:	17ffffec 	b	205b04 <mtk_mmc_send_cmd+0x1c8>
  205b58:	52800000 	mov	w0, #0x0                   	// #0
  205b5c:	d65f03c0 	ret

0000000000205b60 <mtk_mmc_init>:
  205b60:	f0000067 	adrp	x7, 214000 <list+0x2550>
  205b64:	911cc0e6 	add	x6, x7, #0x730
  205b68:	f90398e0 	str	x0, [x7, #1840]
  205b6c:	529c2000 	mov	w0, #0xe100                	// #57600
  205b70:	72a0bea0 	movk	w0, #0x5f5, lsl #16
  205b74:	b90024c0 	str	w0, [x6, #36]
  205b78:	52a00600 	mov	w0, #0x300000              	// #3145728
  205b7c:	b90028c0 	str	w0, [x6, #40]
  205b80:	f0000040 	adrp	x0, 210000 <__RO_END__>
  205b84:	91116000 	add	x0, x0, #0x458
  205b88:	a90088c1 	stp	x1, x2, [x6, #8]
  205b8c:	528f0801 	mov	w1, #0x7840                	// #30784
  205b90:	2a0503e2 	mov	w2, w5
  205b94:	72a02fa1 	movk	w1, #0x17d, lsl #16
  205b98:	b9001404 	str	w4, [x0, #20]
  205b9c:	aa0003e4 	mov	x4, x0
  205ba0:	f0000020 	adrp	x0, 20c000 <vprintf+0x2b8>
  205ba4:	910b0000 	add	x0, x0, #0x2c0
  205ba8:	b90018c3 	str	w3, [x6, #24]
  205bac:	52800003 	mov	w3, #0x0                   	// #0
  205bb0:	17fff355 	b	202904 <mmc_init>

0000000000205bb4 <plat_get_syscnt_freq2>:
  205bb4:	d53be000 	mrs	x0, cntfrq_el0
  205bb8:	d65f03c0 	ret

0000000000205bbc <mtk_plat_mmc_setup>:
  205bbc:	a9be7bfd 	stp	x29, x30, [sp, #-32]!
  205bc0:	910003fd 	mov	x29, sp
  205bc4:	a90153f3 	stp	x19, x20, [sp, #16]
  205bc8:	f0000034 	adrp	x20, 20c000 <vprintf+0x2b8>
  205bcc:	91113294 	add	x20, x20, #0x44c
  205bd0:	d2800013 	mov	x19, #0x0                   	// #0
  205bd4:	b8737a80 	ldr	w0, [x20, x19, lsl #2]
  205bd8:	52800041 	mov	w1, #0x2                   	// #2
  205bdc:	91000673 	add	x19, x19, #0x1
  205be0:	94000083 	bl	205dec <mtk_set_pin_mode>
  205be4:	f1001a7f 	cmp	x19, #0x6
  205be8:	54ffff61 	b.ne	205bd4 <mtk_plat_mmc_setup+0x18>  // b.any
  205bec:	528d8003 	mov	w3, #0x6c00                	// #27648
  205bf0:	52800025 	mov	w5, #0x1                   	// #1
  205bf4:	72a05b83 	movk	w3, #0x2dc, lsl #16
  205bf8:	2a0503e4 	mov	w4, w5
  205bfc:	d2800001 	mov	x1, #0x0                   	// #0
  205c00:	d2a22480 	mov	x0, #0x11240000            	// #287571968
  205c04:	f0000022 	adrp	x2, 20c000 <vprintf+0x2b8>
  205c08:	91119042 	add	x2, x2, #0x464
  205c0c:	97ffffd5 	bl	205b60 <mtk_mmc_init>
  205c10:	52800000 	mov	w0, #0x0                   	// #0
  205c14:	a94153f3 	ldp	x19, x20, [sp, #16]
  205c18:	a8c27bfd 	ldp	x29, x30, [sp], #32
  205c1c:	d65f03c0 	ret

0000000000205c20 <mtk_print_cpu>:
  205c20:	528ec441 	mov	w1, #0x7622                	// #30242
  205c24:	b0000040 	adrp	x0, 20e000 <mtk_pin_info_pu+0x36c>
  205c28:	91192400 	add	x0, x0, #0x649
  205c2c:	14000437 	b	206d08 <tf_log>

0000000000205c30 <mtk_wdt_init>:
  205c30:	a9bf7bfd 	stp	x29, x30, [sp, #-16]!
  205c34:	910003fd 	mov	x29, sp
  205c38:	940003c6 	bl	206b50 <mtk_wdt_print_status>
  205c3c:	a8c17bfd 	ldp	x29, x30, [sp], #16
  205c40:	52800000 	mov	w0, #0x0                   	// #0
  205c44:	140003af 	b	206b00 <mtk_wdt_control>

0000000000205c48 <bl2_el3_plat_arch_setup>:
  205c48:	d65f03c0 	ret

0000000000205c4c <plat_is_my_cpu_primary>:
  205c4c:	52800020 	mov	w0, #0x1                   	// #1
  205c50:	d65f03c0 	ret

0000000000205c54 <mtk_set_pin_value.constprop.0>:
  205c54:	91135043 	add	x3, x2, #0x4d4
  205c58:	b9400044 	ldr	w4, [x2]
  205c5c:	6b04001f 	cmp	w0, w4
  205c60:	540000e0 	b.eq	205c7c <mtk_set_pin_value.constprop.0+0x28>  // b.none
  205c64:	91003042 	add	x2, x2, #0xc
  205c68:	eb02007f 	cmp	x3, x2
  205c6c:	54ffff61 	b.ne	205c58 <mtk_set_pin_value.constprop.0+0x4>  // b.any
  205c70:	d2800000 	mov	x0, #0x0                   	// #0
  205c74:	b9400400 	ldr	w0, [x0, #4]
  205c78:	d4207d00 	brk	#0x3e8
  205c7c:	39402043 	ldrb	w3, [x2, #8]
  205c80:	b9400440 	ldr	w0, [x2, #4]
  205c84:	d2800022 	mov	x2, #0x1                   	// #1
  205c88:	9ac32042 	lsl	x2, x2, x3
  205c8c:	340000c1 	cbz	w1, 205ca4 <mtk_set_pin_value.constprop.0+0x50>
  205c90:	52820081 	mov	w1, #0x1004                	// #4100
  205c94:	72a20421 	movk	w1, #0x1021, lsl #16
  205c98:	0b010000 	add	w0, w0, w1
  205c9c:	b9000002 	str	w2, [x0]
  205ca0:	d65f03c0 	ret
  205ca4:	52820101 	mov	w1, #0x1008                	// #4104
  205ca8:	17fffffb 	b	205c94 <mtk_set_pin_value.constprop.0+0x40>

0000000000205cac <mtk_set_pin_out>:
