
/media/data_nvme/git/uboot/u-boot/build/mt7986/release/bl31/bl31.elf:     file format elf64-littleaarch64
/media/data_nvme/git/uboot/u-boot/build/mt7986/release/bl31/bl31.elf
architecture: aarch64, flags 0x00000112:
EXEC_P, HAS_SYMS, D_PAGED
start address 0x0000000043001000

Program Header:
    LOAD off    0x0000000000001000 vaddr 0x0000000043001000 paddr 0x0000000043001000 align 2**12
         filesz 0x00000000000080d1 memsz 0x0000000000016000 flags rwx
   STACK off    0x0000000000000000 vaddr 0x0000000000000000 paddr 0x0000000000000000 align 2**4
         filesz 0x0000000000000000 memsz 0x0000000000000000 flags rw-
private flags = 0x0:

Sections:
Idx Name          Size      VMA               LMA               File off  Algn
  0 .ro           00008000  0000000043001000  0000000043001000  00001000  2**11
                  CONTENTS, ALLOC, LOAD, CODE
  1 .data         000000d1  0000000043009000  0000000043009000  00009000  2**3
                  CONTENTS, ALLOC, LOAD, DATA
  2 .stacks       00002000  0000000043009100  0000000043009100  000090d1  2**6
                  ALLOC
  3 .bss          000012a0  000000004300b100  000000004300b100  000090d1  2**6
                  ALLOC
  4 .xlat_table   00009000  000000004300d000  000000004300d000  000090d1  2**12
                  ALLOC
  5 .coherent_ram 00001000  0000000043016000  0000000043016000  000090d1  2**12
                  ALLOC
  6 .debug_info   00024d96  0000000000000000  0000000000000000  000090d1  2**0
                  CONTENTS, READONLY, DEBUGGING, OCTETS
  7 .debug_abbrev 00008591  0000000000000000  0000000000000000  0002de67  2**0
                  CONTENTS, READONLY, DEBUGGING, OCTETS
  8 .debug_aranges 00002790  0000000000000000  0000000000000000  00036400  2**4
                  CONTENTS, READONLY, DEBUGGING, OCTETS
  9 .debug_line   000106ab  0000000000000000  0000000000000000  00038b90  2**0
                  CONTENTS, READONLY, DEBUGGING, OCTETS
 10 .debug_str    000079ef  0000000000000000  0000000000000000  0004923b  2**0
                  CONTENTS, READONLY, DEBUGGING, OCTETS
 11 .comment      0000004f  0000000000000000  0000000000000000  00050c2a  2**0
                  CONTENTS, READONLY
 12 .debug_loc    00022554  0000000000000000  0000000000000000  00050c79  2**0
                  CONTENTS, READONLY, DEBUGGING, OCTETS
 13 .debug_ranges 00006b80  0000000000000000  0000000000000000  000731d0  2**4
                  CONTENTS, READONLY, DEBUGGING, OCTETS
 14 .debug_frame  00000d60  0000000000000000  0000000000000000  00079d50  2**3
                  CONTENTS, READONLY, DEBUGGING, OCTETS
SYMBOL TABLE:
0000000043001000 l    d  .ro	0000000000000000 .ro
0000000043009000 l    d  .data	0000000000000000 .data
0000000043009100 l    d  .stacks	0000000000000000 .stacks
000000004300b100 l    d  .bss	0000000000000000 .bss
000000004300d000 l    d  .xlat_table	0000000000000000 .xlat_table
0000000043016000 l    d  .coherent_ram	0000000000000000 .coherent_ram
0000000000000000 l    d  .debug_info	0000000000000000 .debug_info
0000000000000000 l    d  .debug_abbrev	0000000000000000 .debug_abbrev
0000000000000000 l    d  .debug_aranges	0000000000000000 .debug_aranges
0000000000000000 l    d  .debug_line	0000000000000000 .debug_line
0000000000000000 l    d  .debug_str	0000000000000000 .debug_str
0000000000000000 l    d  .comment	0000000000000000 .comment
0000000000000000 l    d  .debug_loc	0000000000000000 .debug_loc
0000000000000000 l    d  .debug_ranges	0000000000000000 .debug_ranges
0000000000000000 l    d  .debug_frame	0000000000000000 .debug_frame
0000000000000000 l    df *ABS*	0000000000000000 bl31_entrypoint.o
0000000000000000 l    df *ABS*	0000000000000000 bl31_context_mgmt.c
0000000000000000 l    df *ABS*	0000000000000000 bl31_main.c
000000004300bb00 l     O .bss	0000000000000008 bl32_init
00000000430090c8 l     O .data	0000000000000004 next_image_type
0000000043007278 l     O .ro	0000000000000010 psci_args.0
0000000000000000 l    df *ABS*	0000000000000000 bl31_traps.c
0000000000000000 l    df *ABS*	0000000000000000 interrupt_mgmt.c
000000004300bb08 l     O .bss	0000000000000060 intr_type_descs
0000000000000000 l    df *ABS*	0000000000000000 runtime_svc.c
0000000000000000 l    df *ABS*	0000000000000000 gic-x00.c
0000000000000000 l    df *ABS*	0000000000000000 gicdv3_helpers.c
0000000000000000 l    df *ABS*	0000000000000000 gicv3_helpers.c
0000000000000000 l    df *ABS*	0000000000000000 gicv3_main.c
0000000043001804 l     F .ro	000000000000000c gicd_wait_for_pending_write
0000000043001804 l     F .ro	000000000000000c gicr_wait_for_upstream_pending_write
0000000000000000 l    df *ABS*	0000000000000000 delay_timer.c
000000004300bb70 l     O .bss	0000000000000008 timer_ops
0000000000000000 l    df *ABS*	0000000000000000 errata_report.c
0000000000000000 l    df *ABS*	0000000000000000 context_mgmt.c
0000000000000000 l    df *ABS*	0000000000000000 spe.c
0000000043001cf0 l     F .ro	0000000000000024 spe_drain_buffers_hook
0000000000000000 l    df *ABS*	0000000000000000 bakery_lock_coherent.c
0000000000000000 l    df *ABS*	0000000000000000 psci_common.c
0000000043001e38 l     F .ro	0000000000000034 psci_set_req_local_pwr_state
000000004300c33c l     O .bss	0000000000000008 psci_req_local_pwr_states
0000000000000000 l    df *ABS*	0000000000000000 psci_main.c
0000000000000000 l    df *ABS*	0000000000000000 psci_mem_protect.c
0000000000000000 l    df *ABS*	0000000000000000 psci_off.c
0000000000000000 l    df *ABS*	0000000000000000 psci_on.c
0000000000000000 l    df *ABS*	0000000000000000 psci_setup.c
000000004300b200 l     O .bss	0000000000000900 psci_ns_context
0000000000000000 l    df *ABS*	0000000000000000 psci_suspend.c
0000000000000000 l    df *ABS*	0000000000000000 psci_system_off.c
0000000000000000 l    df *ABS*	0000000000000000 xlat_tables_arch.c
0000000000000000 l    df *ABS*	0000000000000000 xlat_tables_context.c
000000004300c380 l     O .bss	0000000000000020 tf_base_xlat_table
000000004300c148 l     O .bss	0000000000000024 tf_mapped_regions
000000004300bbe0 l     O .bss	00000000000002a8 tf_mmap
0000000043009000 l     O .data	0000000000000070 tf_xlat_ctx
000000004300d000 l     O .xlat_table	0000000000009000 tf_xlat_tables
0000000000000000 l    df *ABS*	0000000000000000 xlat_tables_core.c
000000004300373c l     F .ro	0000000000000164 mmap_add_region_check
00000000430038a0 l     F .ro	0000000000000040 xlat_clean_dcache_range
00000000430039c4 l     F .ro	0000000000000258 xlat_tables_map_region
0000000000000000 l    df *ABS*	0000000000000000 xlat_tables_utils.c
0000000000000000 l    df *ABS*	0000000000000000 plat_gicv3.c
0000000043007c53 l     O .ro	0000000000000004 CSWTCH.13
0000000000000000 l    df *ABS*	0000000000000000 mtk_efuse.c
000000004300c16c l     O .bss	000000000000012c mtk_efuse_field
0000000043007ccb l     O .ro	0000000000000010 __func__.0
0000000043007cdb l     O .ro	000000000000000f __func__.1
0000000043007cea l     O .ro	0000000000000012 __func__.2
0000000000000000 l    df *ABS*	0000000000000000 mt_gpt.c
0000000043007cfc l     O .ro	000000000000000c gpt_soc_data
0000000000000000 l    df *ABS*	0000000000000000 mtk_bl31_boot_next_legacy.c
000000004300be88 l     O .bss	0000000000000028 k_info
000000004300c344 l     O .bss	0000000000000001 kernel_boot_once_flag.0
0000000000000000 l    df *ABS*	0000000000000000 mtk_plat_common.c
0000000000000000 l    df *ABS*	0000000000000000 mtk_sip_svc_legacy.c
0000000043008668 l     O .ro	0000000000000020 __svc_desc_mediatek_sip_svc
0000000000000000 l    df *ABS*	0000000000000000 platform_common.c
0000000000000000 l    df *ABS*	0000000000000000 bl31_plat_setup.c
000000004300beb0 l     O .bss	0000000000000058 bl32_ep_info
000000004300bf08 l     O .bss	0000000000000058 bl33_ep_info
000000004300bf60 l     O .bss	0000000000000030 console.0
0000000000000000 l    df *ABS*	0000000000000000 devapc.c
00000000430047c4 l     F .ro	00000000000000c8 set_module_apc
0000000043007d78 l     O .ro	0000000000000730 INFRA_AO_SYS0_Devices
00000000430084a8 l     O .ro	000000000000000f __func__.0
0000000000000000 l    df *ABS*	0000000000000000 emi_mpu.c
0000000000000000 l    df *ABS*	0000000000000000 mtspmc.c
0000000043007a6c l     O .ro	0000000000000008 CSWTCH.20
0000000000000000 l    df *ABS*	0000000000000000 timer.c
0000000043004dec l     F .ro	0000000000000020 get_timer_value
000000004300bf90 l     O .bss	0000000000000010 ops
0000000043009070 l     O .data	0000000000000028 gpt4
0000000000000000 l    df *ABS*	0000000000000000 mtk_wdt.c
0000000000000000 l    df *ABS*	0000000000000000 plat_mt_gic.c
0000000043004ed8 l     F .ro	0000000000000004 mt_mpidr_to_core_pos
0000000000000000 l    df *ABS*	0000000000000000 plat_pm.c
0000000043004f78 l     F .ro	0000000000000024 plat_cpu_standby
0000000043004f9c l     F .ro	000000000000005c plat_power_domain_suspend
0000000043004ff8 l     F .ro	000000000000005c plat_power_domain_suspend_finish
0000000043005054 l     F .ro	0000000000000014 plat_get_sys_suspend_power_state
0000000043005068 l     F .ro	0000000000000058 plat_validate_power_state
00000000430050c0 l     F .ro	0000000000000040 plat_mtk_system_reset2
0000000043005100 l     F .ro	0000000000000024 plat_mtk_system_reset
0000000043005124 l     F .ro	0000000000000020 plat_system_off
0000000043005144 l     F .ro	0000000000000014 plat_power_domain_off
0000000043005158 l     F .ro	000000000000005c plat_power_domain_on
00000000430051dc l     F .ro	0000000000000048 plat_power_domain_on_finish
000000004300bfc0 l     O .bss	0000000000000030 console.0
000000004300bff0 l     O .bss	0000000000000140 dormant_data
000000004300c130 l     O .bss	0000000000000008 secure_entrypoint
0000000043007490 l     O .ro	00000000000000b0 plat_plat_pm_ops
0000000000000000 l    df *ABS*	0000000000000000 plat_sip_calls.c
000000004300c29c l     O .bss	0000000000000020 efuse_buffer.1
0000000043008526 l     O .ro	000000000000001a __func__.0
0000000000000000 l    df *ABS*	0000000000000000 plat_topology.c
0000000000000000 l    df *ABS*	0000000000000000 arm_arch_svc_setup.c
00000000430054ac l     F .ro	000000000000013c arm_arch_svc_smc_handler
0000000043008688 l     O .ro	0000000000000020 __svc_desc_arm_arch_svc
0000000000000000 l    df *ABS*	0000000000000000 std_svc_setup.c
00000000430055e8 l     F .ro	00000000000000b4 std_svc_smc_handler
000000004300569c l     F .ro	0000000000000024 std_svc_setup
00000000430086a8 l     O .ro	0000000000000020 __svc_desc_std_svc
0000000000000000 l    df *ABS*	0000000000000000 bl_common.c
0000000000000000 l    df *ABS*	0000000000000000 tf_log.c
00000000430090cc l     O .data	0000000000000004 max_log_level
0000000000000000 l    df *ABS*	0000000000000000 multi_console.c
00000000430090d0 l     O .data	0000000000000001 console_state
0000000000000000 l    df *ABS*	0000000000000000 pmuv3.c
0000000000000000 l    df *ABS*	0000000000000000 plat_log_common.c
0000000043007540 l     O .ro	0000000000000028 plat_prefix_str
0000000000000000 l    df *ABS*	0000000000000000 plat_common.c
0000000000000000 l    df *ABS*	0000000000000000 crash_reporting.o
0000000000000000 l    df *ABS*	0000000000000000 ea_delegate.o
0000000043005acc l     F .ro	0000000000000068 ea_proceed
0000000043005ac4 l     F .ro	0000000000000004 delegate_sync_ea
0000000043005ac8 l     F .ro	0000000000000004 delegate_async_ea
0000000000000000 l    df *ABS*	0000000000000000 runtime_exceptions.o
0000000043005b34 l       .ro	0000000000000000 smc_handler32
0000000043005b38 l       .ro	0000000000000000 sync_handler64
0000000043008cec l       .ro	0000000000000000 interrupt_exit_irq_aarch64
0000000043008d6c l       .ro	0000000000000000 interrupt_exit_fiq_aarch64
0000000043008eec l       .ro	0000000000000000 interrupt_exit_irq_aarch32
0000000043008f6c l       .ro	0000000000000000 interrupt_exit_fiq_aarch32
0000000043005b34 l     F .ro	00000000000000e0 sync_exception_handler
0000000043005bfc l       .ro	0000000000000000 smc_prohibited
0000000043005bc0 l       .ro	0000000000000000 sysreg_handler64
0000000043005bf0 l       .ro	0000000000000000 smc_unknown
0000000000000000 l    df *ABS*	0000000000000000 aem_generic.o
0000000043005c14 l     F .ro	0000000000000034 aem_generic_core_pwr_dwn
0000000043005c48 l     F .ro	0000000000000018 aem_generic_cluster_pwr_dwn
00000000430085f1 l       .ro	0000000000000000 aem_generic_errata_list_start
00000000430085f1 l       .ro	0000000000000000 aem_generic_errata_list_end
0000000000000000 l    df *ABS*	0000000000000000 cortex_a53.o
0000000043005c60 l     F .ro	0000000000000014 cortex_a53_disable_dcache
0000000043005c74 l     F .ro	0000000000000018 cortex_a53_disable_smp
0000000043005c8c l     F .ro	0000000000000020 errata_a53_826319_wa
0000000043005cac l     F .ro	0000000000000008 check_errata_826319
0000000043005cb4 l     F .ro	000000000000001c a53_disable_non_temporal_hint
0000000043005cd0 l     F .ro	0000000000000008 check_errata_disable_non_temporal_hint
0000000043005cd8 l     F .ro	000000000000001c errata_a53_855873_wa
0000000043005cf4 l     F .ro	0000000000000008 check_errata_855873
0000000043005cfc l     F .ro	0000000000000038 cortex_a53_reset_func
0000000043005d34 l     F .ro	0000000000000018 cortex_a53_core_pwr_dwn
0000000043005d4c l     F .ro	0000000000000024 cortex_a53_cluster_pwr_dwn
00000000430085f1 l       .ro	0000000000000000 cortex_a53_errata_list_start
00000000430085f1 l       .ro	0000000000000000 cortex_a53_errata_list_end
0000000000000000 l    df *ABS*	0000000000000000 cpu_helpers.o
0000000043005e10 l       .ro	0000000000000000 search_def_ptr
0000000000000000 l    df *ABS*	0000000000000000 context.o
0000000043006014 l       .ro	0000000000000000 sve_not_enabled
0000000000000000 l    df *ABS*	0000000000000000 cpu_data.o
0000000000000000 l    df *ABS*	0000000000000000 spinlock.o
0000000043006078 l       .ro	0000000000000000 l1
000000004300607c l       .ro	0000000000000000 l2
0000000000000000 l    df *ABS*	0000000000000000 psci_helpers.o
0000000000000000 l    df *ABS*	0000000000000000 enable_mmu.o
0000000000000000 l    df *ABS*	0000000000000000 platform_mp_stack.o
0000000043009100 l       .stacks	0000000000000000 platform_normal_stacks
0000000000000006 l       *ABS*	0000000000000000 TZ_COUNT
0000000000000000 l    df *ABS*	0000000000000000 hsuart.o
0000000043006248 l       .ro	0000000000000000 init_fail
00000000430061d0 l       .ro	0000000000000000 set_baud_force_high_speed
00000000430061f8 l       .ro	0000000000000000 set_baud_low_speed
000000004300620c l       .ro	0000000000000000 set_divisor
0000000043006260 l       .ro	0000000000000000 no_char
00000000430062b8 l     F .ro	0000000000000008 console_hsuart_getc
00000000430062c0 l     F .ro	0000000000000008 console_hsuart_putc
00000000430062c8 l     F .ro	0000000000000008 console_hsuart_flush
0000000043006324 l       .ro	0000000000000000 register_fail
00000000430062ec l       .ro	0000000000000000 register_hsuart
0000000000000000 l    df *ABS*	0000000000000000 plat_helpers.o
0000000000000000 l    df *ABS*	0000000000000000 debug.o
00000000430085f1 l       .ro	0000000000000000 panic_msg
00000000430063d8 l       .ro	0000000000000000 panic_common
0000000043006400 l       .ro	0000000000000000 _panic_handler
0000000000000000 l    df *ABS*	0000000000000000 cache_helpers.o
000000004300643c l       .ro	0000000000000000 exit_loop_civac
0000000043006428 l       .ro	0000000000000000 loop_civac
0000000043006474 l       .ro	0000000000000000 exit_loop_cvac
0000000043006460 l       .ro	0000000000000000 loop_cvac
00000000430064ac l       .ro	0000000000000000 exit_loop_ivac
0000000043006498 l       .ro	0000000000000000 loop_ivac
00000000430064b0 l     F .ro	000000000000009c do_dcsw_op
0000000043006548 l       .ro	0000000000000000 exit
000000004300654c l       .ro	0000000000000000 dcsw_loop_table
00000000430064cc l       .ro	0000000000000000 loop1
0000000043006530 l       .ro	0000000000000000 level_done
000000004300654c l       .ro	0000000000000000 loop2_isw
0000000043006550 l       .ro	0000000000000000 loop3_isw
000000004300656c l       .ro	0000000000000000 loop2_cisw
0000000043006570 l       .ro	0000000000000000 loop3_cisw
000000004300658c l       .ro	0000000000000000 loop2_csw
0000000043006590 l       .ro	0000000000000000 loop3_csw
0000000000000000 l    df *ABS*	0000000000000000 misc_helpers.o
00000000430065e8 l     F .ro	00000000000000e8 zeromem_dczva
0000000000000000 l    df *ABS*	0000000000000000 platform_helpers.o
0000000000000000 l    df *ABS*	0000000000000000 efuse_cmd.o
0000000000000000 l    df *ABS*	0000000000000000 memcpy.c
0000000000000000 l    df *ABS*	0000000000000000 memmove.c
0000000000000000 l    df *ABS*	0000000000000000 memset.c
0000000000000000 l    df *ABS*	0000000000000000 printf.c
0000000043006d60 l     F .ro	00000000000000d0 unsigned_num_print.part.0
0000000000000000 l    df *ABS*	0000000000000000 
0000000000000000 l    df *ABS*	0000000000000000 cpu_data_array.c
00000000430043cc g     F .ro	0000000000000098 mediatek_sip_handler
0000000043005880 g     F .ro	0000000000000028 putchar
00000000430062a0 g     F .ro	0000000000000018 console_hsuart_core_flush
0000000043001648 g     F .ro	000000000000001c gicv3_get_spi_limit
0000000043001c1c g     F .ro	00000000000000cc cm_prepare_el3_exit
00000000430017ec g     F .ro	0000000000000018 gicv3_get_component_prodid_rev
00000000430043a4 g     F .ro	0000000000000014 plat_is_smccc_feature_available
000000004300c380 g       .bss	0000000000000000 __PMF_TIMESTAMP_START__
0000000043003e90  w    F .ro	0000000000000034 plat_ic_get_pending_interrupt_type
0000000043001b80 g     F .ro	000000000000007c cm_el1_sysregs_context_restore
0000000043002860 g     F .ro	0000000000000028 psci_migrate_info_up_cpu
0000000043017000 g       .coherent_ram	0000000000000000 __BL31_END__
0000000043006330 g     F .ro	0000000000000008 write_cpuectlr
00000000430057a4 g     F .ro	0000000000000034 console_register
0000000043002608 g     F .ro	00000000000000f0 psci_cpu_suspend
0000000043017000 g       .coherent_ram	0000000000000000 __COHERENT_RAM_END__
0000000043005d70 g     F .ro	0000000000000020 reset_handler
0000000043008e00 g     F .ro	0000000000000000 sync_exception_aarch32
00000000430065e0 g     F .ro	0000000000000008 zeromem
0000000043007a92 g     O .ro	000000000000002e version_string
00000000430063cc g     F .ro	0000000000000008 asm_print_newline
00000000430087b8 g       .ro	0000000000000000 __pubsub_psci_suspend_pwrdown_finish_end
00000000430042e0 g     F .ro	000000000000000c get_kernel_info_pc
00000000430023c4 g     F .ro	00000000000000f4 psci_validate_entry_point
0000000043003d44 g     F .ro	000000000000003c mmap_add_ctx
00000000430056c0 g     F .ro	0000000000000004 print_entry_point_info
00000000430011a4 g     F .ro	0000000000000014 cm_get_context
000000004300bbc8 g     O .bss	0000000000000018 mmu_cfg_params
0000000043003e8c g     F .ro	0000000000000004 xlat_tables_print
000000004300234c g     F .ro	0000000000000058 psci_release_pwr_domain_locks
0000000043005474 g     F .ro	0000000000000038 plat_core_pos_by_mpidr
0000000043001e6c g     F .ro	0000000000000028 psci_validate_power_state
0000000043009000 g       .ro	0000000000000000 __RW_START__
0000000043004204 g     F .ro	0000000000000018 mtk_gpt_reset
00000000430033b8 g     F .ro	00000000000000a0 psci_cpu_suspend_finish
00000000430059a0 g     F .ro	0000000000000034 get_el_str
000000004300d000 g       .xlat_table	0000000000000000 __XLAT_TABLE_START__
00000000430045f0 g     F .ro	0000000000000028 bl31_plat_get_next_image_ep_info
00000000430065c0 g     F .ro	0000000000000010 dcsw_op_level1
000000004300149c g     F .ro	000000000000001c gicv3_check_erratas_applies
0000000043006cb4 g     F .ro	0000000000000034 memmove
000000004300c2bc g     O .bss	0000000000000080 rt_svc_descs_indices
0000000043005224 g     F .ro	000000000000001c plat_setup_psci_ops
0000000043008a00 g     F .ro	0000000000000000 sync_exception_sp_elx
00000000430035f8 g     F .ro	000000000000007c setup_mmu_cfg
0000000043001ce8 g     F .ro	0000000000000008 cm_prepare_el3_exit_ns
0000000043008800 g     F .ro	0000000000000000 sync_exception_sp_el0
0000000043006108 g     F .ro	000000000000000c psci_power_down_wfi
00000000430060d4 g     F .ro	0000000000000034 psci_do_pwrup_cache_maintenance
0000000043002774 g     F .ro	0000000000000058 psci_affinity_info
0000000043005968  w    F .ro	0000000000000030 plat_log_get_prefix
00000000430027cc g     F .ro	000000000000007c psci_migrate
00000000430015dc g     F .ro	000000000000006c gicv3_rdistif_base_addrs_probe
0000000043004e84 g     F .ro	0000000000000054 mtk_wdt_soft_reset
0000000043003ec4 g     F .ro	0000000000000078 mtk_efuse_get_len
0000000043007a74 g     O .ro	000000000000001e build_message
0000000043004094 g     F .ro	00000000000000cc mtk_efuse_write
0000000043005ff0 g     F .ro	0000000000000054 el3_exit
0000000043002ec4 g     F .ro	0000000000000334 psci_setup
00000000430036b8 g     F .ro	000000000000003c init_xlat_tables
0000000043004bf0 g     F .ro	0000000000000048 emi_mpu_init
0000000043005998  w    F .ro	0000000000000008 bl31_plat_runtime_setup
0000000043009000 g       .data	0000000000000000 __DATA_START__
0000000043016000 g     O .coherent_ram	0000000000000020 psci_locks
0000000043004e0c g     F .ro	0000000000000078 mtk_timer_init
0000000043004310 g     F .ro	000000000000008c boot_to_kernel
00000000430066d4  w    F .ro	0000000000000004 plat_disable_acp
00000000430022ac g     F .ro	0000000000000034 psci_find_target_suspend_lvl
00000000430035d8 g     F .ro	0000000000000014 xlat_arch_regime_get_xn_desc
0000000043001558 g     F .ro	000000000000001c gicd_set_isenabler
0000000043002ea4 g     F .ro	0000000000000020 psci_arch_setup
0000000043005e4c g     F .ro	0000000000000020 check_wa_cve_2017_5715
0000000043003490 g     F .ro	0000000000000038 psci_system_reset
0000000043004f18 g     F .ro	0000000000000014 mt_gic_cpuif_enable
0000000043005900 g     F .ro	000000000000003c pmuv3_disable_el3
0000000043001574 g     F .ro	0000000000000014 gicd_set_ipriorityr
0000000043006c94 g     F .ro	0000000000000020 memcpy
00000000430051b4 g     F .ro	0000000000000028 mtk_system_pwr_domain_resume
00000000430023a4 g     F .ro	0000000000000020 psci_validate_mpidr
00000000430026f8 g     F .ro	0000000000000074 psci_system_suspend
0000000043008b80 g     F .ro	0000000000000000 serror_sp_elx
0000000043001b20 g     F .ro	0000000000000030 cm_init_context_by_index
0000000043004c38 g     F .ro	0000000000000028 set_cpu_retention_control
0000000043001884 g     F .ro	0000000000000084 gicv3_distif_init
00000000430046ac g     F .ro	0000000000000028 bl31_prepare_kernel_entry
0000000043008880 g     F .ro	0000000000000000 irq_sp_el0
00000000430065e8 g     F .ro	00000000000000e8 zero_normalmem
0000000043002084 g     F .ro	0000000000000048 psci_get_parent_pwr_domain_nodes
0000000043001810 g     F .ro	0000000000000074 gicv3_driver_init
00000000430087b8 g     O .ro	0000000000000008 __cb_func_spe_drain_buffers_hookcm_entering_secure_world
00000000430059d4  w    F .ro	0000000000000068 plat_ea_handler
0000000043003458 g     F .ro	0000000000000038 psci_system_off
00000000430087c0 g       .ro	0000000000000000 __pubsub_cm_exited_secure_world_end
00000000430036a8 g     F .ro	0000000000000010 mmap_add
0000000043001114 g     F .ro	0000000000000090 bl31_warm_entrypoint
0000000043004568 g     F .ro	0000000000000060 mt7986_disable_l2c_shared
000000004300455c g     F .ro	000000000000000c plat_get_syscnt_freq2
00000000430066d8  w    F .ro	0000000000000008 plat_panic_handler
0000000043008668 g       .ro	0000000000000000 __RT_SVC_DESCS_START__
000000004300b100 g       .stacks	0000000000000000 __STACKS_END__
00000000430087b8 g       .ro	0000000000000000 __pubsub_psci_suspend_pwrdown_start_end
0000000043005e6c g     F .ro	0000000000000020 check_smccc_arch_wa3_applies
0000000043006440 g     F .ro	0000000000000038 clean_dcache_range
0000000043005d90 g     F .ro	0000000000000024 prepare_cpu_pwr_dwn
0000000043005fa0 g     F .ro	0000000000000050 restore_gp_pmcr_pauth_regs
00000000430024b8 g     F .ro	00000000000000c8 psci_warmboot_entrypoint
00000000430015c0 g     F .ro	000000000000001c gicv3_rdistif_mark_core_awake
00000000430087c0 g       .ro	0000000000000000 __pubsub_cm_exited_normal_world_start
0000000043006188  w    F .ro	0000000000000010 plat_set_my_stack
00000000430011e4 g     F .ro	0000000000000030 cm_set_context_by_index
00000000430086c8 g       .ro	0000000000000000 __RT_SVC_DESCS_END__
000000004300639c g     F .ro	0000000000000030 asm_print_hex
0000000043004784 g     F .ro	0000000000000040 bl31_plat_arch_setup
00000000430012a8 g     F .ro	0000000000000068 bl31_main
000000004300bb78 g     O .bss	0000000000000040 psci_cpu_pd_nodes
00000000430025a8 g     F .ro	0000000000000004 psci_pwrdown_cpu
0000000043006384 g     F .ro	0000000000000018 asm_print_str
00000000430066e0  w    F .ro	0000000000000004 bl31_plat_enable_mmu
00000000430019b4 g     F .ro	0000000000000004 cm_init
0000000043006378 g     F .ro	000000000000000c plat_crash_console_flush
0000000043008800 g       .ro	0000000000000000 runtime_exceptions
000000004300bfa0 g     O .bss	0000000000000020 rdistif_base_addrs
00000000430087c0 g       .ro	0000000000000000 __pubsub_cm_exited_secure_world_start
0000000043002580 g     F .ro	0000000000000024 psci_spd_migrate_info
0000000043006058 g     F .ro	0000000000000018 _cpu_data_by_index
00000000430025a4 g     F .ro	0000000000000004 psci_print_power_domain_map
0000000043009000 g       .ro	0000000000000000 __RO_END_UNALIGNED__
0000000043001000 g       .ro	0000000000000000 RAM_REGION_START
0000000043005240 g     F .ro	0000000000000028 plat_get_target_pwr_state
00000000430057e4 g     F .ro	000000000000009c console_putc
0000000043001588 g     F .ro	0000000000000014 gicd_write_icfgr
00000000430066e8  w    F .ro	0000000000000004 plat_handle_el3_ea
0000000043001ea8 g     F .ro	0000000000000070 psci_is_last_on_cpu
000000004300634c g     F .ro	0000000000000020 plat_crash_console_init
0000000043008e80 g     F .ro	0000000000000000 irq_aarch32
0000000043006408 g     F .ro	0000000000000038 flush_dcache_range
00000000430019a4 g     F .ro	000000000000000c timer_init
00000000430046d4 g     F .ro	0000000000000098 bl31_early_platform_setup2
00000000430086c8 g       .ro	0000000000000000 __PMF_SVC_DESCS_END__
0000000043006198 g     F .ro	00000000000000b8 console_hsuart_init
00000000430090d8 g       .data	0000000000000000 __RELA_END__
00000000430090d8 g       .data	0000000000000000 __RELA_START__
0000000043017000 g       .coherent_ram	0000000000000000 RAM_REGION_END
0000000043003fcc g     F .ro	00000000000000c8 mtk_efuse_read
0000000043008980 g     F .ro	0000000000000000 serror_sp_el0
0000000043006e30 g     F .ro	0000000000000444 vprintf
00000000430041a4 g     F .ro	0000000000000060 mtk_gpt_start
00000000430035cc g     F .ro	000000000000000c is_dcache_enabled
0000000043005a3c g     F .ro	0000000000000004 report_unhandled_exception
0000000043002dd0 g     F .ro	00000000000000d4 psci_cpu_on_finish
00000000430065ac g     F .ro	0000000000000014 dcsw_op_all
0000000043003f3c g     F .ro	0000000000000048 mtk_efuse_send_data
000000004300276c g     F .ro	0000000000000008 psci_cpu_off
00000000430062d0 g     F .ro	0000000000000058 console_hsuart_register
00000000430066d0  w    F .ro	0000000000000004 plat_reset_handler
0000000043006114 g     F .ro	0000000000000058 enable_mmu_direct_el3
00000000430087c0 g       .ro	0000000000000000 __pubsub_cm_entering_normal_world_end
0000000043005dd4 g     F .ro	0000000000000040 get_cpu_ops_ptr
0000000043001000 g     F .ro	0000000000000114 bl31_entrypoint
00000000430011b8 g     F .ro	000000000000002c cm_get_context_by_index
0000000043004618 g     F .ro	0000000000000094 bl31_plat_get_next_kernel_ep_info
0000000043001b50 g     F .ro	0000000000000030 cm_init_my_context
0000000043008d80 g     F .ro	0000000000000000 serror_aarch64
0000000043006044 g     F .ro	0000000000000014 init_cpu_data_ptr
00000000430035ec g     F .ro	000000000000000c xlat_arch_current_el
00000000430016fc g     F .ro	00000000000000f0 gicv3_secure_spis_config_props
000000004300356c g     F .ro	0000000000000014 xlat_arch_get_pas
0000000043002b38 g     F .ro	0000000000000138 psci_do_cpu_off
000000004300c144 g     O .bss	0000000000000004 psci_caps
00000000430045c8 g     F .ro	0000000000000028 platform_setup_cpu
0000000043006894 g     F .ro	0000000000000108 efuse_read
0000000043001310 g     F .ro	0000000000000008 handle_sysreg_trap
00000000430019b8 g     F .ro	0000000000000164 cm_setup_context
0000000043001000 g       .ro	0000000000000000 __BL31_START__
0000000043008a80 g     F .ro	0000000000000000 irq_sp_elx
000000004300c380 g       .bss	0000000000000000 __PMF_PERCPU_TIMESTAMP_END__
0000000043008900 g     F .ro	0000000000000000 fiq_sp_el0
00000000430090d1 g       .data	0000000000000000 __DATA_END__
00000000430063a0 g       .ro	0000000000000000 asm_print_hex_bits
000000004300c380 g       .bss	0000000000000000 __BASE_XLAT_TABLE_START__
0000000043001510 g     F .ro	0000000000000024 gicd_set_igrpmodr
00000000430086c8 g       .ro	0000000000000000 __CPU_OPS_START__
0000000043003580 g     F .ro	000000000000004c tcr_physical_addr_size_bits
0000000043006478 g     F .ro	0000000000000038 inv_dcache_range
0000000043005a40 g     F .ro	000000000000006c handle_lower_el_sync_ea
0000000043002948 g     F .ro	000000000000014c psci_smc_handler
00000000430031f8 g     F .ro	00000000000001c0 psci_cpu_suspend_start
0000000043001f18 g     F .ro	0000000000000058 psci_init_req_local_pwr_states
00000000430087c0 g       .ro	0000000000000000 __pubsub_cm_entering_secure_world_end
0000000043002000 g     F .ro	0000000000000084 psci_set_target_local_pwr_states
0000000043005e14 g     F .ro	0000000000000010 cpu_get_rev_var
0000000043002c70 g     F .ro	0000000000000160 psci_cpu_on_start
0000000043002270 g     F .ro	000000000000003c psci_find_max_off_lvl
00000000430038e0 g     F .ro	00000000000000e4 xlat_desc
0000000043004304 g     F .ro	000000000000000c get_kernel_info_r2
00000000430014b8 g     F .ro	0000000000000034 gicd_set_icfgr
0000000043016020 g     O .coherent_ram	0000000000000040 psci_non_cpu_pd_nodes
00000000430063d4 g     F .ro	0000000000000004 elx_panic
000000004300c3a0 g       .bss	0000000000000000 __BSS_END__
00000000430087b8 g       .ro	0000000000000000 __CPU_OPS_END__
0000000043004464 g     F .ro	000000000000007c sip_smc_handler
0000000043006098 g     F .ro	000000000000003c psci_do_pwrdown_cache_maintenance
00000000430042ec g     F .ro	000000000000000c get_kernel_info_r0
0000000043001bfc g     F .ro	0000000000000020 cm_set_next_eret_context
00000000430087b8 g       .ro	0000000000000000 __pubsub_cm_entering_secure_world_start
00000000430025ac g     F .ro	000000000000005c psci_cpu_on
0000000043001234 g     F .ro	0000000000000074 bl31_prepare_next_image_entry
0000000043016000 g       .coherent_ram	0000000000000000 __COHERENT_RAM_START__
000000004300c140 g     O .bss	0000000000000004 psci_plat_core_count
00000000430028e0 g     F .ro	0000000000000068 psci_features
00000000430087b8 g       .ro	0000000000000000 __GOT_END__
0000000043006ce8 g     F .ro	0000000000000078 memset
00000000430086c8 g       .ro	0000000000000000 __PARSER_LIB_DESCS_END__
0000000043001f70 g     F .ro	0000000000000090 psci_get_target_local_pwr_states
00000000430087c0 g       .ro	0000000000000000 __pubsub_cm_exited_normal_world_end
000000004300593c g     F .ro	000000000000002c pmuv3_init_el2_unused
000000004300488c g     F .ro	00000000000001e0 devapc_init
000000004300bbb8 g     O .bss	0000000000000008 psci_plat_pm_ops
0000000043004a6c g     F .ro	00000000000000c4 dump_emi_mpu_regions
00000000430043c4 g     F .ro	0000000000000008 plat_get_soc_revision
0000000043001220 g     F .ro	0000000000000014 bl31_setup
0000000043004160 g     F .ro	0000000000000030 mtk_efuse_disable
00000000430087b8 g       .ro	0000000000000000 __pubsub_psci_suspend_pwrdown_start_start
0000000043005268 g     F .ro	000000000000002c mt_sip_set_authorized_sreg
00000000430087b8 g       .ro	0000000000000000 __GOT_START__
0000000043005758 g     F .ro	0000000000000020 tf_log_newline
0000000043005aac g     F .ro	0000000000000018 handle_lower_el_async_ea
0000000043001214 g     F .ro	000000000000000c get_arm_std_svc_args
00000000430087c0 g       .ro	0000000000000000 __pubsub_cm_entering_normal_world_start
0000000000000000 g       *ABS*	0000000000000000 __PERCPU_TIMESTAMP_SIZE__
0000000043001d48 g     F .ro	00000000000000bc bakery_lock_get
0000000043004cd8 g     F .ro	0000000000000114 spmc_cpu_corex_onoff
00000000430059d4 g     F .ro	0000000000000068 plat_default_ea_handler
0000000043002a94 g     F .ro	000000000000005c psci_mem_protect
00000000430086c8 g       .ro	0000000000000000 __FCONF_POPULATOR_END__
0000000043001e04 g     F .ro	0000000000000034 bakery_lock_release
0000000043001348 g     F .ro	0000000000000024 get_interrupt_type_handler
00000000430044e0 g     F .ro	000000000000007c plat_configure_mmu_el3
0000000043005468 g     F .ro	000000000000000c plat_get_power_domain_tree_desc
00000000430015b0 g     F .ro	0000000000000010 gicd_write_ipriorityr
000000004300439c g     F .ro	0000000000000008 plat_get_spsr_for_bl33_entry
0000000043001b1c g     F .ro	0000000000000004 cm_manage_extensions_el3
0000000043002888 g     F .ro	0000000000000058 psci_node_hw_state
000000004300677c g     F .ro	0000000000000118 check_version
000000004300c3a0 g       .bss	0000000000000000 __BASE_XLAT_TABLE_END__
00000000430065d0 g     F .ro	0000000000000010 dcsw_op_level2
0000000043005db4 g     F .ro	0000000000000020 init_cpu_ops
00000000430058a8 g     F .ro	0000000000000054 console_flush
0000000043008b00 g     F .ro	0000000000000000 fiq_sp_elx
0000000043009000 g       .ro	0000000000000000 __RO_END__
0000000043008c00 g     F .ro	0000000000000000 sync_exception_aarch64
0000000043008d00 g     F .ro	0000000000000000 fiq_aarch64
0000000043008540 g     O .ro	0000000000000004 mtk_power_domain_tree_desc
00000000430057d8 g     F .ro	000000000000000c console_switch_state
00000000430019b0 g     F .ro	0000000000000004 print_errata_status
0000000043006090 g     F .ro	0000000000000008 spin_unlock
0000000043005f38 g     F .ro	0000000000000068 prepare_el3_entry
000000004300b100 g       .bss	0000000000000000 __BSS_START__
0000000043004b30 g     F .ro	00000000000000c0 emi_mpu_set_protection
0000000043001000 g       .ro	0000000000000000 __RO_START__
0000000043004190 g     F .ro	0000000000000014 mtk_gpt_stop
0000000043003c1c g     F .ro	0000000000000128 mmap_add_region_ctx
000000004300c298 g     O .bss	0000000000000004 cpu_bitmask
0000000043001d14 g     F .ro	0000000000000034 spe_enable
00000000430086c8 g       .ro	0000000000000000 __PMF_SVC_DESCS_START__
000000004300636c g     F .ro	000000000000000c plat_crash_console_putc
000000004300b100 g     O .bss	0000000000000100 percpu_data
0000000043005e38 g     F .ro	0000000000000014 cpu_rev_var_hs
0000000043004c60 g     F .ro	0000000000000078 spmc_init
0000000043009098 g     O .data	0000000000000030 mt_gicv3_data
0000000043006070 g     F .ro	0000000000000020 spin_lock
0000000043005778 g     F .ro	000000000000002c console_is_registered
0000000043001998 g     F .ro	000000000000000c gicv3_get_pending_interrupt_type
0000000043001e94 g     F .ro	0000000000000014 psci_query_sys_suspend_pwrstate
000000004300421c g     F .ro	0000000000000064 mtk_gpt_init
00000000430056c4 g     F .ro	0000000000000094 tf_log
00000000430087b8 g       .ro	0000000000000000 __pubsub_psci_cpu_on_finish_start
00000000430086c8 g       .ro	0000000000000000 __FCONF_POPULATOR_START__
000000000002f000 g       *ABS*	0000000000000000 RAM_REGION_LENGTH
0000000043005e24 g     F .ro	0000000000000014 cpu_rev_var_ls
0000000043001318 g     F .ro	0000000000000030 get_scr_el3_from_routing_model
0000000043006250 g     F .ro	0000000000000018 console_hsuart_core_getc
0000000043017000 g       .coherent_ram	0000000000000000 __RW_END__
0000000043005294 g     F .ro	00000000000001d4 mediatek_plat_sip_handler
0000000043016060 g       .coherent_ram	0000000000000000 __COHERENT_RAM_END_UNALIGNED__
000000004300476c g     F .ro	0000000000000018 bl31_platform_setup
0000000043006268 g     F .ro	0000000000000038 console_hsuart_core_putc
0000000043006328 g     F .ro	0000000000000008 read_cpuectlr
0000000043009100 g       .stacks	0000000000000000 __STACKS_START__
0000000043002158 g     F .ro	0000000000000118 psci_do_state_coordination
00000000430034c8 g     F .ro	00000000000000a4 psci_system_reset2
00000000430036f4 g     F .ro	0000000000000048 enable_mmu_el3
0000000043003f84 g     F .ro	0000000000000048 mtk_efuse_get_data
0000000043008f80 g     F .ro	0000000000000000 serror_aarch32
00000000430066e4  w    F .ro	0000000000000004 plat_handle_double_fault
00000000430058fc g     F .ro	0000000000000004 pmuv3_enable
000000004300c380 g       .bss	0000000000000000 __PMF_TIMESTAMP_END__
0000000043003d80 g     F .ro	0000000000000108 init_xlat_tables_ctx
00000000430087b8 g       .ro	0000000000000000 __pubsub_psci_suspend_pwrdown_finish_start
0000000043001664 g     F .ro	0000000000000098 gicv3_spis_config_defaults
0000000043001534 g     F .ro	0000000000000024 gicd_clr_igrpmodr
0000000043016000 g       .xlat_table	0000000000000000 __XLAT_TABLE_END__
0000000043006338 g     F .ro	0000000000000014 plat_my_core_pos
0000000043004f2c g     F .ro	000000000000004c plat_mt_gic_init
000000004300136c g     F .ro	0000000000000130 runtime_svc_init
0000000043008c80 g     F .ro	0000000000000000 irq_aarch64
0000000043002848 g     F .ro	0000000000000018 psci_migrate_info_type
00000000430042f8 g     F .ro	000000000000000c get_kernel_info_r1
00000000430043b8 g     F .ro	000000000000000c plat_get_soc_version
0000000043007288 g     O .ro	0000000000000208 plat_mmap
0000000043002af0 g     F .ro	0000000000000048 psci_mem_chk_range
00000000430063d8 g     F .ro	0000000000000030 el3_panic
00000000430014ec g     F .ro	0000000000000024 gicd_clr_igroupr
000000004300bb68 g     O .bss	0000000000000008 gicv3_driver_data
0000000043003e88 g     F .ro	0000000000000004 xlat_mmap_print
00000000430022e0 g     F .ro	000000000000006c psci_acquire_pwr_domain_locks
00000000430087b8 g       .ro	0000000000000000 __pubsub_psci_cpu_on_finish_end
0000000043005e8c g     F .ro	00000000000000ac el1_sysregs_context_restore
0000000043004280 g     F .ro	0000000000000060 mtk_gpt_get_counter
000000004300c138 g     O .bss	0000000000000008 console_list
00000000430020cc g     F .ro	000000000000008c psci_set_pwr_domains_to_run
0000000043001908 g     F .ro	0000000000000090 gicv3_cpuif_enable
000000004300159c g     F .ro	0000000000000014 gicd_write_igroupr
0000000043005a3c g       .ro	0000000000000000 report_unhandled_interrupt
000000004300699c g     F .ro	00000000000002f8 efuse_write
0000000043008f00 g     F .ro	0000000000000000 fiq_aarch32
0000000043004edc g     F .ro	000000000000003c mt_gic_rdistif_init
000000004300616c  w    F .ro	000000000000001c plat_get_my_stack
0000000043003674 g     F .ro	0000000000000034 mmap_add_region
00000000430086c8 g       .ro	0000000000000000 __PARSER_LIB_DESCS_START__
000000004300bbc0 g     O .bss	0000000000000008 psci_spd_pm



Disassembly of section .ro:

0000000043001000 <bl31_entrypoint>:
    43001000:	aa0003f4 	mov	x20, x0
    43001004:	aa0103f5 	mov	x21, x1
    43001008:	aa0203f6 	mov	x22, x2
    4300100c:	aa0303f7 	mov	x23, x3
    43001010:	1003bf80 	adr	x0, 43008800 <sync_exception_sp_el0>
    43001014:	d51ec000 	msr	vbar_el3, x0
    43001018:	d5033fdf 	isb
    4300101c:	94001355 	bl	43005d70 <reset_handler>
    43001020:	d2820141 	mov	x1, #0x100a                	// #4106
    43001024:	d53e1000 	mrs	x0, sctlr_el3
    43001028:	aa010000 	orr	x0, x0, x1
    4300102c:	d51e1000 	msr	sctlr_el3, x0
    43001030:	d5033fdf 	isb
    43001034:	94001404 	bl	43006044 <init_cpu_data_ptr>
    43001038:	d2804700 	mov	x0, #0x238                 	// #568
    4300103c:	d51e1100 	msr	scr_el3, x0
    43001040:	d2900000 	mov	x0, #0x8000                	// #32768
    43001044:	f2a20020 	movk	x0, #0x1001, lsl #16
    43001048:	d5380501 	mrs	x1, id_aa64dfr0_el1
    4300104c:	d368ac21 	ubfx	x1, x1, #40, #4
    43001050:	b4000041 	cbz	x1, 43001058 <bl31_entrypoint+0x58>
    43001054:	b26d0000 	orr	x0, x0, #0x80000
    43001058:	d51e1320 	msr	mdcr_el3, x0
    4300105c:	d50344ff 	msr	daifclr, #0x4
    43001060:	d2a80000 	mov	x0, #0x40000000            	// #1073741824
    43001064:	d5380501 	mrs	x1, id_aa64dfr0_el1
    43001068:	d3441c21 	ubfx	x1, x1, #4, #4
    4300106c:	b4000041 	cbz	x1, 43001074 <bl31_entrypoint+0x74>
    43001070:	b26c0000 	orr	x0, x0, #0x100000
    43001074:	d51e1140 	msr	cptr_el3, x0
    43001078:	90000040 	adrp	x0, 43009000 <__RO_END_UNALIGNED__>
    4300107c:	91000000 	add	x0, x0, #0x0
    43001080:	d00000a1 	adrp	x1, 43017000 <RAM_REGION_END>
    43001084:	91000021 	add	x1, x1, #0x0
    43001088:	cb000021 	sub	x1, x1, x0
    4300108c:	940014fb 	bl	43006478 <inv_dcache_range>
    43001090:	d0000040 	adrp	x0, 4300b000 <__STACKS_START__+0x1f00>
    43001094:	91040000 	add	x0, x0, #0x100
    43001098:	f0000041 	adrp	x1, 4300c000 <dormant_data+0x10>
    4300109c:	910e8021 	add	x1, x1, #0x3a0
    430010a0:	cb000021 	sub	x1, x1, x0
    430010a4:	9400154f 	bl	430065e0 <zeromem>
    430010a8:	b00000a0 	adrp	x0, 43016000 <psci_locks>
    430010ac:	91000000 	add	x0, x0, #0x0
    430010b0:	b00000a1 	adrp	x1, 43016000 <psci_locks>
    430010b4:	91018021 	add	x1, x1, #0x60
    430010b8:	cb000021 	sub	x1, x1, x0
    430010bc:	94001549 	bl	430065e0 <zeromem>
    430010c0:	d50040bf 	msr	spsel, #0x0
    430010c4:	94001431 	bl	43006188 <plat_set_my_stack>
    430010c8:	aa1403e0 	mov	x0, x20
    430010cc:	aa1503e1 	mov	x1, x21
    430010d0:	aa1603e2 	mov	x2, x22
    430010d4:	aa1703e3 	mov	x3, x23
    430010d8:	94000052 	bl	43001220 <bl31_setup>
    430010dc:	94000073 	bl	430012a8 <bl31_main>
    430010e0:	90000040 	adrp	x0, 43009000 <__RO_END_UNALIGNED__>
    430010e4:	91000000 	add	x0, x0, #0x0
    430010e8:	90000041 	adrp	x1, 43009000 <__RO_END_UNALIGNED__>
    430010ec:	91034421 	add	x1, x1, #0xd1
    430010f0:	cb000021 	sub	x1, x1, x0
    430010f4:	940014d3 	bl	43006440 <clean_dcache_range>
    430010f8:	d0000040 	adrp	x0, 4300b000 <__STACKS_START__+0x1f00>
    430010fc:	91040000 	add	x0, x0, #0x100
    43001100:	f0000041 	adrp	x1, 4300c000 <dormant_data+0x10>
    43001104:	910e8021 	add	x1, x1, #0x3a0
    43001108:	cb000021 	sub	x1, x1, x0
    4300110c:	940014cd 	bl	43006440 <clean_dcache_range>
    43001110:	140013b8 	b	43005ff0 <el3_exit>

0000000043001114 <bl31_warm_entrypoint>:
    43001114:	d2810600 	mov	x0, #0x830                 	// #2096
    43001118:	f2a618a0 	movk	x0, #0x30c5, lsl #16
    4300111c:	d51e1000 	msr	sctlr_el3, x0
    43001120:	d5033fdf 	isb
    43001124:	1003b6e0 	adr	x0, 43008800 <sync_exception_sp_el0>
    43001128:	d51ec000 	msr	vbar_el3, x0
    4300112c:	d5033fdf 	isb
    43001130:	94001310 	bl	43005d70 <reset_handler>
    43001134:	d2820141 	mov	x1, #0x100a                	// #4106
    43001138:	d53e1000 	mrs	x0, sctlr_el3
    4300113c:	aa010000 	orr	x0, x0, x1
    43001140:	d51e1000 	msr	sctlr_el3, x0
    43001144:	d5033fdf 	isb
    43001148:	940013bf 	bl	43006044 <init_cpu_data_ptr>
    4300114c:	d2804700 	mov	x0, #0x238                 	// #568
    43001150:	d51e1100 	msr	scr_el3, x0
    43001154:	d2900000 	mov	x0, #0x8000                	// #32768
    43001158:	f2a20020 	movk	x0, #0x1001, lsl #16
    4300115c:	d5380501 	mrs	x1, id_aa64dfr0_el1
    43001160:	d368ac21 	ubfx	x1, x1, #40, #4
    43001164:	b4000041 	cbz	x1, 4300116c <bl31_warm_entrypoint+0x58>
    43001168:	b26d0000 	orr	x0, x0, #0x80000
    4300116c:	d51e1320 	msr	mdcr_el3, x0
    43001170:	d50344ff 	msr	daifclr, #0x4
    43001174:	d2a80000 	mov	x0, #0x40000000            	// #1073741824
    43001178:	d5380501 	mrs	x1, id_aa64dfr0_el1
    4300117c:	d3441c21 	ubfx	x1, x1, #4, #4
    43001180:	b4000041 	cbz	x1, 43001188 <bl31_warm_entrypoint+0x74>
    43001184:	b26c0000 	orr	x0, x0, #0x100000
    43001188:	d51e1140 	msr	cptr_el3, x0
    4300118c:	d50040bf 	msr	spsel, #0x0
    43001190:	940013fe 	bl	43006188 <plat_set_my_stack>
    43001194:	d2800020 	mov	x0, #0x1                   	// #1
    43001198:	94001552 	bl	430066e0 <bl31_plat_enable_mmu>
    4300119c:	940004c7 	bl	430024b8 <psci_warmboot_entrypoint>
    430011a0:	14001394 	b	43005ff0 <el3_exit>

00000000430011a4 <cm_get_context>:
    430011a4:	d53ed041 	mrs	x1, tpidr_el3
    430011a8:	7100001f 	cmp	w0, #0x0
    430011ac:	9a9f07e0 	cset	x0, ne  // ne = any
    430011b0:	f8607820 	ldr	x0, [x1, x0, lsl #3]
    430011b4:	d65f03c0 	ret

00000000430011b8 <cm_get_context_by_index>:
    430011b8:	a9be7bfd 	stp	x29, x30, [sp, #-32]!
    430011bc:	910003fd 	mov	x29, sp
    430011c0:	f9000bf3 	str	x19, [sp, #16]
    430011c4:	2a0103f3 	mov	w19, w1
    430011c8:	940013a4 	bl	43006058 <_cpu_data_by_index>
    430011cc:	7100027f 	cmp	w19, #0x0
    430011d0:	9a9f07e1 	cset	x1, ne  // ne = any
    430011d4:	f9400bf3 	ldr	x19, [sp, #16]
    430011d8:	a8c27bfd 	ldp	x29, x30, [sp], #32
    430011dc:	f8617800 	ldr	x0, [x0, x1, lsl #3]
    430011e0:	d65f03c0 	ret

00000000430011e4 <cm_set_context_by_index>:
    430011e4:	a9be7bfd 	stp	x29, x30, [sp, #-32]!
    430011e8:	910003fd 	mov	x29, sp
    430011ec:	a90153f3 	stp	x19, x20, [sp, #16]
    430011f0:	aa0103f3 	mov	x19, x1
    430011f4:	2a0203f4 	mov	w20, w2
    430011f8:	94001398 	bl	43006058 <_cpu_data_by_index>
    430011fc:	7100029f 	cmp	w20, #0x0
    43001200:	9a9f07e1 	cset	x1, ne  // ne = any
    43001204:	f8217813 	str	x19, [x0, x1, lsl #3]
    43001208:	a94153f3 	ldp	x19, x20, [sp, #16]
    4300120c:	a8c27bfd 	ldp	x29, x30, [sp], #32
    43001210:	d65f03c0 	ret

0000000043001214 <get_arm_std_svc_args>:
    43001214:	d0000020 	adrp	x0, 43007000 <vprintf+0x1d0>
    43001218:	9109e000 	add	x0, x0, #0x278
    4300121c:	d65f03c0 	ret

0000000043001220 <bl31_setup>:
    43001220:	a9bf7bfd 	stp	x29, x30, [sp, #-16]!
    43001224:	910003fd 	mov	x29, sp
    43001228:	94000d2b 	bl	430046d4 <bl31_early_platform_setup2>
    4300122c:	a8c17bfd 	ldp	x29, x30, [sp], #16
    43001230:	14000d55 	b	43004784 <bl31_plat_arch_setup>

0000000043001234 <bl31_prepare_next_image_entry>:
    43001234:	a9be7bfd 	stp	x29, x30, [sp, #-32]!
    43001238:	d5380400 	mrs	x0, id_aa64pfr0_el1
    4300123c:	910003fd 	mov	x29, sp
    43001240:	d3441c00 	ubfx	x0, x0, #4, #4
    43001244:	a90153f3 	stp	x19, x20, [sp, #16]
    43001248:	f100041f 	cmp	x0, #0x1
    4300124c:	540000c1 	b.ne	43001264 <bl31_prepare_next_image_entry+0x30>  // b.any
    43001250:	d0000020 	adrp	x0, 43007000 <vprintf+0x1d0>
    43001254:	912b0000 	add	x0, x0, #0xac0
    43001258:	9400111b 	bl	430056c4 <tf_log>
    4300125c:	94001193 	bl	430058a8 <console_flush>
    43001260:	9400145e 	bl	430063d8 <el3_panic>
    43001264:	90000040 	adrp	x0, 43009000 <__RO_END_UNALIGNED__>
    43001268:	b940c813 	ldr	w19, [x0, #200]
    4300126c:	2a1303e0 	mov	w0, w19
    43001270:	94000ce0 	bl	430045f0 <bl31_plat_get_next_image_ep_info>
    43001274:	aa0003f4 	mov	x20, x0
    43001278:	94001112 	bl	430056c0 <print_entry_point_info>
    4300127c:	aa1403e0 	mov	x0, x20
    43001280:	94000234 	bl	43001b50 <cm_init_my_context>
    43001284:	7100067f 	cmp	w19, #0x1
    43001288:	54000081 	b.ne	43001298 <bl31_prepare_next_image_entry+0x64>  // b.any
    4300128c:	a94153f3 	ldp	x19, x20, [sp, #16]
    43001290:	a8c27bfd 	ldp	x29, x30, [sp], #32
    43001294:	14000295 	b	43001ce8 <cm_prepare_el3_exit_ns>
    43001298:	2a1303e0 	mov	w0, w19
    4300129c:	a94153f3 	ldp	x19, x20, [sp, #16]
    430012a0:	a8c27bfd 	ldp	x29, x30, [sp], #32
    430012a4:	1400025e 	b	43001c1c <cm_prepare_el3_exit>

00000000430012a8 <bl31_main>:
    430012a8:	a9be7bfd 	stp	x29, x30, [sp, #-32]!
    430012ac:	910003fd 	mov	x29, sp
    430012b0:	f9000bf3 	str	x19, [sp, #16]
    430012b4:	9400021a 	bl	43001b1c <cm_manage_extensions_el3>
    430012b8:	d0000033 	adrp	x19, 43007000 <vprintf+0x1d0>
    430012bc:	912c4273 	add	x19, x19, #0xb10
    430012c0:	aa1303e0 	mov	x0, x19
    430012c4:	d0000021 	adrp	x1, 43007000 <vprintf+0x1d0>
    430012c8:	912a4821 	add	x1, x1, #0xa92
    430012cc:	940010fe 	bl	430056c4 <tf_log>
    430012d0:	aa1303e0 	mov	x0, x19
    430012d4:	d0000021 	adrp	x1, 43007000 <vprintf+0x1d0>
    430012d8:	9129d021 	add	x1, x1, #0xa74
    430012dc:	940010fa 	bl	430056c4 <tf_log>
    430012e0:	94000d23 	bl	4300476c <bl31_platform_setup>
    430012e4:	940001b4 	bl	430019b4 <cm_init>
    430012e8:	94000021 	bl	4300136c <runtime_svc_init>
    430012ec:	d0000040 	adrp	x0, 4300b000 <__STACKS_START__+0x1f00>
    430012f0:	f9458000 	ldr	x0, [x0, #2816]
    430012f4:	b4000040 	cbz	x0, 430012fc <bl31_main+0x54>
    430012f8:	d63f0000 	blr	x0
    430012fc:	97ffffce 	bl	43001234 <bl31_prepare_next_image_entry>
    43001300:	9400116a 	bl	430058a8 <console_flush>
    43001304:	f9400bf3 	ldr	x19, [sp, #16]
    43001308:	a8c27bfd 	ldp	x29, x30, [sp], #32
    4300130c:	140011a3 	b	43005998 <bl31_plat_runtime_setup>

0000000043001310 <handle_sysreg_trap>:
    43001310:	12800000 	mov	w0, #0xffffffff            	// #-1
    43001314:	d65f03c0 	ret

0000000043001318 <get_scr_el3_from_routing_model>:
    43001318:	d0000041 	adrp	x1, 4300b000 <__STACKS_START__+0x1f00>
    4300131c:	912c2022 	add	x2, x1, #0xb08
    43001320:	2a0003e1 	mov	w1, w0
    43001324:	8b010c40 	add	x0, x2, x1, lsl #3
    43001328:	8b010c43 	add	x3, x2, x1, lsl #3
    4300132c:	8b010c41 	add	x1, x2, x1, lsl #3
    43001330:	f9400463 	ldr	x3, [x3, #8]
    43001334:	f9402400 	ldr	x0, [x0, #72]
    43001338:	f9401421 	ldr	x1, [x1, #40]
    4300133c:	aa030000 	orr	x0, x0, x3
    43001340:	aa010000 	orr	x0, x0, x1
    43001344:	d65f03c0 	ret

0000000043001348 <get_interrupt_type_handler>:
    43001348:	7100081f 	cmp	w0, #0x2
    4300134c:	540000c8 	b.hi	43001364 <get_interrupt_type_handler+0x1c>  // b.pmore
    43001350:	d37b7c00 	ubfiz	x0, x0, #5, #32
    43001354:	d0000041 	adrp	x1, 4300b000 <__STACKS_START__+0x1f00>
    43001358:	912c2021 	add	x1, x1, #0xb08
    4300135c:	f8606820 	ldr	x0, [x1, x0]
    43001360:	d65f03c0 	ret
    43001364:	d2800000 	mov	x0, #0x0                   	// #0
    43001368:	17fffffe 	b	43001360 <get_interrupt_type_handler+0x18>

000000004300136c <runtime_svc_init>:
    4300136c:	a9bb7bfd 	stp	x29, x30, [sp, #-80]!
    43001370:	910003fd 	mov	x29, sp
    43001374:	a90153f3 	stp	x19, x20, [sp, #16]
    43001378:	f0000033 	adrp	x19, 43008000 <INFRA_AO_SYS0_Devices+0x288>
    4300137c:	911b2273 	add	x19, x19, #0x6c8
    43001380:	a9025bf5 	stp	x21, x22, [sp, #32]
    43001384:	f0000036 	adrp	x22, 43008000 <INFRA_AO_SYS0_Devices+0x288>
    43001388:	9119a2d6 	add	x22, x22, #0x668
    4300138c:	cb160273 	sub	x19, x19, x22
    43001390:	a90363f7 	stp	x23, x24, [sp, #48]
    43001394:	f90023f9 	str	x25, [sp, #64]
    43001398:	f1007e7f 	cmp	x19, #0x1f
    4300139c:	540001a9 	b.ls	430013d0 <runtime_svc_init+0x64>  // b.plast
    430013a0:	d0000038 	adrp	x24, 43007000 <vprintf+0x1d0>
    430013a4:	d345fe73 	lsr	x19, x19, #5
    430013a8:	912d0f18 	add	x24, x24, #0xb43
    430013ac:	52800015 	mov	w21, #0x0                   	// #0
    430013b0:	f0000057 	adrp	x23, 4300c000 <dormant_data+0x10>
    430013b4:	910af2f7 	add	x23, x23, #0x2bc
    430013b8:	aa1703e0 	mov	x0, x23
    430013bc:	d2801002 	mov	x2, #0x80                  	// #128
    430013c0:	12800001 	mov	w1, #0xffffffff            	// #-1
    430013c4:	94001649 	bl	43006ce8 <memset>
    430013c8:	eb35027f 	cmp	x19, w21, uxtb
    430013cc:	540000e8 	b.hi	430013e8 <runtime_svc_init+0x7c>  // b.pmore
    430013d0:	a94153f3 	ldp	x19, x20, [sp, #16]
    430013d4:	a9425bf5 	ldp	x21, x22, [sp, #32]
    430013d8:	a94363f7 	ldp	x23, x24, [sp, #48]
    430013dc:	f94023f9 	ldr	x25, [sp, #64]
    430013e0:	a8c57bfd 	ldp	x29, x30, [sp], #80
    430013e4:	d65f03c0 	ret
    430013e8:	d37b1eb9 	ubfiz	x25, x21, #5, #8
    430013ec:	8b1902d4 	add	x20, x22, x25
    430013f0:	38796ac1 	ldrb	w1, [x22, x25]
    430013f4:	39400680 	ldrb	w0, [x20, #1]
    430013f8:	6b00003f 	cmp	w1, w0
    430013fc:	54000148 	b.hi	43001424 <runtime_svc_init+0xb8>  // b.pmore
    43001400:	7100fc1f 	cmp	w0, #0x3f
    43001404:	54000108 	b.hi	43001424 <runtime_svc_init+0xb8>  // b.pmore
    43001408:	39400a80 	ldrb	w0, [x20, #2]
    4300140c:	7100041f 	cmp	w0, #0x1
    43001410:	540000a8 	b.hi	43001424 <runtime_svc_init+0xb8>  // b.pmore
    43001414:	f9400a80 	ldr	x0, [x20, #16]
    43001418:	b5000120 	cbnz	x0, 4300143c <runtime_svc_init+0xd0>
    4300141c:	f9400e80 	ldr	x0, [x20, #24]
    43001420:	b50001e0 	cbnz	x0, 4300145c <runtime_svc_init+0xf0>
    43001424:	aa1403e1 	mov	x1, x20
    43001428:	d0000020 	adrp	x0, 43007000 <vprintf+0x1d0>
    4300142c:	912c6c00 	add	x0, x0, #0xb1b
    43001430:	940010a5 	bl	430056c4 <tf_log>
    43001434:	9400111d 	bl	430058a8 <console_flush>
    43001438:	940013e8 	bl	430063d8 <el3_panic>
    4300143c:	d63f0000 	blr	x0
    43001440:	340000e0 	cbz	w0, 4300145c <runtime_svc_init+0xf0>
    43001444:	f9400681 	ldr	x1, [x20, #8]
    43001448:	aa1803e0 	mov	x0, x24
    4300144c:	9400109e 	bl	430056c4 <tf_log>
    43001450:	110006b5 	add	w21, w21, #0x1
    43001454:	12001eb5 	and	w21, w21, #0xff
    43001458:	17ffffdc 	b	430013c8 <runtime_svc_init+0x5c>
    4300145c:	39400a81 	ldrb	w1, [x20, #2]
    43001460:	38796ac2 	ldrb	w2, [x22, x25]
    43001464:	531a0023 	ubfiz	w3, w1, #6, #1
    43001468:	39400681 	ldrb	w1, [x20, #1]
    4300146c:	12001442 	and	w2, w2, #0x3f
    43001470:	2a030040 	orr	w0, w2, w3
    43001474:	12001421 	and	w1, w1, #0x3f
    43001478:	2a0003e2 	mov	w2, w0
    4300147c:	2a030021 	orr	w1, w1, w3
    43001480:	8b0002e0 	add	x0, x23, x0
    43001484:	6b01005f 	cmp	w2, w1
    43001488:	54fffe48 	b.hi	43001450 <runtime_svc_init+0xe4>  // b.pmore
    4300148c:	11000442 	add	w2, w2, #0x1
    43001490:	38001415 	strb	w21, [x0], #1
    43001494:	12001c42 	and	w2, w2, #0xff
    43001498:	17fffffb 	b	43001484 <runtime_svc_init+0x118>

000000004300149c <gicv3_check_erratas_applies>:
    4300149c:	a9be7bfd 	stp	x29, x30, [sp, #-32]!
    430014a0:	910003fd 	mov	x29, sp
    430014a4:	91006fe2 	add	x2, sp, #0x1b
    430014a8:	910073e1 	add	x1, sp, #0x1c
    430014ac:	940000d0 	bl	430017ec <gicv3_get_component_prodid_rev>
    430014b0:	a8c27bfd 	ldp	x29, x30, [sp], #32
    430014b4:	d65f03c0 	ret

00000000430014b8 <gicd_set_icfgr>:
    430014b8:	531f0c24 	ubfiz	w4, w1, #1, #4
    430014bc:	53047c21 	lsr	w1, w1, #4
    430014c0:	91300000 	add	x0, x0, #0xc00
    430014c4:	12000442 	and	w2, w2, #0x3
    430014c8:	d37ef421 	lsl	x1, x1, #2
    430014cc:	52800063 	mov	w3, #0x3                   	// #3
    430014d0:	1ac42063 	lsl	w3, w3, w4
    430014d4:	1ac42042 	lsl	w2, w2, w4
    430014d8:	b8606825 	ldr	w5, [x1, x0]
    430014dc:	0a2300a3 	bic	w3, w5, w3
    430014e0:	2a020063 	orr	w3, w3, w2
    430014e4:	b8206823 	str	w3, [x1, x0]
    430014e8:	d65f03c0 	ret

00000000430014ec <gicd_clr_igroupr>:
    430014ec:	53057c23 	lsr	w3, w1, #5
    430014f0:	91020000 	add	x0, x0, #0x80
    430014f4:	52800022 	mov	w2, #0x1                   	// #1
    430014f8:	d37ef463 	lsl	x3, x3, #2
    430014fc:	1ac12041 	lsl	w1, w2, w1
    43001500:	b8606864 	ldr	w4, [x3, x0]
    43001504:	0a210081 	bic	w1, w4, w1
    43001508:	b8206861 	str	w1, [x3, x0]
    4300150c:	d65f03c0 	ret

0000000043001510 <gicd_set_igrpmodr>:
    43001510:	53057c23 	lsr	w3, w1, #5
    43001514:	91340000 	add	x0, x0, #0xd00
    43001518:	52800022 	mov	w2, #0x1                   	// #1
    4300151c:	d37ef463 	lsl	x3, x3, #2
    43001520:	1ac12041 	lsl	w1, w2, w1
    43001524:	b8606864 	ldr	w4, [x3, x0]
    43001528:	2a040021 	orr	w1, w1, w4
    4300152c:	b8206861 	str	w1, [x3, x0]
    43001530:	d65f03c0 	ret

0000000043001534 <gicd_clr_igrpmodr>:
    43001534:	53057c23 	lsr	w3, w1, #5
    43001538:	91340000 	add	x0, x0, #0xd00
    4300153c:	52800022 	mov	w2, #0x1                   	// #1
    43001540:	d37ef463 	lsl	x3, x3, #2
    43001544:	1ac12041 	lsl	w1, w2, w1
    43001548:	b8606864 	ldr	w4, [x3, x0]
    4300154c:	0a210081 	bic	w1, w4, w1
    43001550:	b8206861 	str	w1, [x3, x0]
    43001554:	d65f03c0 	ret

0000000043001558 <gicd_set_isenabler>:
    43001558:	52800022 	mov	w2, #0x1                   	// #1
    4300155c:	91040000 	add	x0, x0, #0x100
    43001560:	1ac12042 	lsl	w2, w2, w1
    43001564:	53057c21 	lsr	w1, w1, #5
    43001568:	d37ef421 	lsl	x1, x1, #2
    4300156c:	b8206822 	str	w2, [x1, x0]
    43001570:	d65f03c0 	ret

0000000043001574 <gicd_set_ipriorityr>:
    43001574:	91100000 	add	x0, x0, #0x400
    43001578:	2a0103e1 	mov	w1, w1
    4300157c:	12001c42 	and	w2, w2, #0xff
    43001580:	38216802 	strb	w2, [x0, x1]
    43001584:	d65f03c0 	ret

0000000043001588 <gicd_write_icfgr>:
    43001588:	53047c21 	lsr	w1, w1, #4
    4300158c:	91300000 	add	x0, x0, #0xc00
    43001590:	d37ef421 	lsl	x1, x1, #2
    43001594:	b8206822 	str	w2, [x1, x0]
    43001598:	d65f03c0 	ret

000000004300159c <gicd_write_igroupr>:
    4300159c:	53057c21 	lsr	w1, w1, #5
    430015a0:	91020000 	add	x0, x0, #0x80
    430015a4:	d37ef421 	lsl	x1, x1, #2
    430015a8:	b8206822 	str	w2, [x1, x0]
    430015ac:	d65f03c0 	ret

00000000430015b0 <gicd_write_ipriorityr>:
    430015b0:	927e7421 	and	x1, x1, #0xfffffffc
    430015b4:	91100000 	add	x0, x0, #0x400
    430015b8:	b8206822 	str	w2, [x1, x0]
    430015bc:	d65f03c0 	ret

00000000430015c0 <gicv3_rdistif_mark_core_awake>:
    430015c0:	b9401401 	ldr	w1, [x0, #20]
    430015c4:	91005002 	add	x2, x0, #0x14
    430015c8:	121e7821 	and	w1, w1, #0xfffffffd
    430015cc:	b9001401 	str	w1, [x0, #20]
    430015d0:	b9400040 	ldr	w0, [x2]
    430015d4:	3717ffe0 	tbnz	w0, #2, 430015d0 <gicv3_rdistif_mark_core_awake+0x10>
    430015d8:	d65f03c0 	ret

00000000430015dc <gicv3_rdistif_base_addrs_probe>:
    430015dc:	a9bc7bfd 	stp	x29, x30, [sp, #-64]!
    430015e0:	910003fd 	mov	x29, sp
    430015e4:	a90153f3 	stp	x19, x20, [sp, #16]
    430015e8:	aa0203f3 	mov	x19, x2
    430015ec:	a9025bf5 	stp	x21, x22, [sp, #32]
    430015f0:	aa0003f6 	mov	x22, x0
    430015f4:	aa0303f5 	mov	x21, x3
    430015f8:	f9001bf7 	str	x23, [sp, #48]
    430015fc:	2a0103f7 	mov	w23, w1
    43001600:	f9400674 	ldr	x20, [x19, #8]
    43001604:	b40001f5 	cbz	x21, 43001640 <gicv3_rdistif_base_addrs_probe+0x64>
    43001608:	d360de81 	ubfx	x1, x20, #32, #24
    4300160c:	d378fe80 	lsr	x0, x20, #56
    43001610:	aa008020 	orr	x0, x1, x0, lsl #32
    43001614:	d63f02a0 	blr	x21
    43001618:	6b17001f 	cmp	w0, w23
    4300161c:	54000042 	b.cs	43001624 <gicv3_rdistif_base_addrs_probe+0x48>  // b.hs, b.nlast
    43001620:	f8205ad3 	str	x19, [x22, w0, uxtw #3]
    43001624:	91408273 	add	x19, x19, #0x20, lsl #12
    43001628:	3627fed4 	tbz	w20, #4, 43001600 <gicv3_rdistif_base_addrs_probe+0x24>
    4300162c:	a94153f3 	ldp	x19, x20, [sp, #16]
    43001630:	a9425bf5 	ldp	x21, x22, [sp, #32]
    43001634:	f9401bf7 	ldr	x23, [sp, #48]
    43001638:	a8c47bfd 	ldp	x29, x30, [sp], #64
    4300163c:	d65f03c0 	ret
    43001640:	53085e80 	ubfx	w0, w20, #8, #16
    43001644:	17fffff5 	b	43001618 <gicv3_rdistif_base_addrs_probe+0x3c>

0000000043001648 <gicv3_get_spi_limit>:
    43001648:	b9400400 	ldr	w0, [x0, #4]
    4300164c:	52807f81 	mov	w1, #0x3fc                 	// #1020
    43001650:	531b1000 	ubfiz	w0, w0, #5, #5
    43001654:	11008000 	add	w0, w0, #0x20
    43001658:	710ff01f 	cmp	w0, #0x3fc
    4300165c:	1a819000 	csel	w0, w0, w1, ls  // ls = plast
    43001660:	d65f03c0 	ret

0000000043001664 <gicv3_spis_config_defaults>:
    43001664:	a9bd7bfd 	stp	x29, x30, [sp, #-48]!
    43001668:	910003fd 	mov	x29, sp
    4300166c:	a90153f3 	stp	x19, x20, [sp, #16]
    43001670:	aa0003f4 	mov	x20, x0
    43001674:	f90013f5 	str	x21, [sp, #32]
    43001678:	97fffff4 	bl	43001648 <gicv3_get_spi_limit>
    4300167c:	2a0003f3 	mov	w19, w0
    43001680:	52800415 	mov	w21, #0x20                  	// #32
    43001684:	6b1302bf 	cmp	w21, w19
    43001688:	54000163 	b.cc	430016b4 <gicv3_spis_config_defaults+0x50>  // b.lo, b.ul, b.last
    4300168c:	52800415 	mov	w21, #0x20                  	// #32
    43001690:	6b1302bf 	cmp	w21, w19
    43001694:	540001c3 	b.cc	430016cc <gicv3_spis_config_defaults+0x68>  // b.lo, b.ul, b.last
    43001698:	52800415 	mov	w21, #0x20                  	// #32
    4300169c:	6b1302bf 	cmp	w21, w19
    430016a0:	54000223 	b.cc	430016e4 <gicv3_spis_config_defaults+0x80>  // b.lo, b.ul, b.last
    430016a4:	a94153f3 	ldp	x19, x20, [sp, #16]
    430016a8:	f94013f5 	ldr	x21, [sp, #32]
    430016ac:	a8c37bfd 	ldp	x29, x30, [sp], #48
    430016b0:	d65f03c0 	ret
    430016b4:	2a1503e1 	mov	w1, w21
    430016b8:	aa1403e0 	mov	x0, x20
    430016bc:	12800002 	mov	w2, #0xffffffff            	// #-1
    430016c0:	110082b5 	add	w21, w21, #0x20
    430016c4:	97ffffb6 	bl	4300159c <gicd_write_igroupr>
    430016c8:	17ffffef 	b	43001684 <gicv3_spis_config_defaults+0x20>
    430016cc:	2a1503e1 	mov	w1, w21
    430016d0:	aa1403e0 	mov	x0, x20
    430016d4:	3201c3e2 	mov	w2, #0x80808080            	// #-2139062144
    430016d8:	110012b5 	add	w21, w21, #0x4
    430016dc:	97ffffb5 	bl	430015b0 <gicd_write_ipriorityr>
    430016e0:	17ffffec 	b	43001690 <gicv3_spis_config_defaults+0x2c>
    430016e4:	2a1503e1 	mov	w1, w21
    430016e8:	aa1403e0 	mov	x0, x20
    430016ec:	52800002 	mov	w2, #0x0                   	// #0
    430016f0:	110042b5 	add	w21, w21, #0x10
    430016f4:	97ffffa5 	bl	43001588 <gicd_write_icfgr>
    430016f8:	17ffffe9 	b	4300169c <gicv3_spis_config_defaults+0x38>

00000000430016fc <gicv3_secure_spis_config_props>:
    430016fc:	a9bb7bfd 	stp	x29, x30, [sp, #-80]!
    43001700:	910003fd 	mov	x29, sp
    43001704:	a90153f3 	stp	x19, x20, [sp, #16]
    43001708:	aa0103f3 	mov	x19, x1
    4300170c:	a9025bf5 	stp	x21, x22, [sp, #32]
    43001710:	aa0003f5 	mov	x21, x0
    43001714:	52800016 	mov	w22, #0x0                   	// #0
    43001718:	a90363f7 	stp	x23, x24, [sp, #48]
    4300171c:	8b224837 	add	x23, x1, w2, uxtw #2
    43001720:	a9046bf9 	stp	x25, x26, [sp, #64]
    43001724:	b2405ff9 	mov	x25, #0xffffff              	// #16777215
    43001728:	9140181a 	add	x26, x0, #0x6, lsl #12
    4300172c:	f2c01ff9 	movk	x25, #0xff, lsl #32
    43001730:	eb17027f 	cmp	x19, x23
    43001734:	54000101 	b.ne	43001754 <gicv3_secure_spis_config_props+0x58>  // b.any
    43001738:	2a1603e0 	mov	w0, w22
    4300173c:	a94153f3 	ldp	x19, x20, [sp, #16]
    43001740:	a9425bf5 	ldp	x21, x22, [sp, #32]
    43001744:	a94363f7 	ldp	x23, x24, [sp, #48]
    43001748:	a9446bf9 	ldp	x25, x26, [sp, #64]
    4300174c:	a8c57bfd 	ldp	x29, x30, [sp], #80
    43001750:	d65f03c0 	ret
    43001754:	b9400274 	ldr	w20, [x19]
    43001758:	d3403298 	ubfx	x24, x20, #0, #13
    4300175c:	12003294 	and	w20, w20, #0x1fff
    43001760:	51008280 	sub	w0, w20, #0x20
    43001764:	710f6c1f 	cmp	w0, #0x3db
    43001768:	54000388 	b.hi	430017d8 <gicv3_secure_spis_config_props+0xdc>  // b.pmore
    4300176c:	2a1403e1 	mov	w1, w20
    43001770:	aa1503e0 	mov	x0, x21
    43001774:	97ffff5e 	bl	430014ec <gicd_clr_igroupr>
    43001778:	b9400260 	ldr	w0, [x19]
    4300177c:	2a1403e1 	mov	w1, w20
    43001780:	720b041f 	tst	w0, #0x600000
    43001784:	aa1503e0 	mov	x0, x21
    43001788:	540002c1 	b.ne	430017e0 <gicv3_secure_spis_config_props+0xe4>  // b.any
    4300178c:	321e02d6 	orr	w22, w22, #0x4
    43001790:	97ffff60 	bl	43001510 <gicd_set_igrpmodr>
    43001794:	b9400262 	ldr	w2, [x19]
    43001798:	2a1403e1 	mov	w1, w20
    4300179c:	aa1503e0 	mov	x0, x21
    430017a0:	d3576042 	ubfx	x2, x2, #23, #2
    430017a4:	97ffff45 	bl	430014b8 <gicd_set_icfgr>
    430017a8:	b9400262 	ldr	w2, [x19]
    430017ac:	2a1403e1 	mov	w1, w20
    430017b0:	aa1503e0 	mov	x0, x21
    430017b4:	d34d5042 	ubfx	x2, x2, #13, #8
    430017b8:	97ffff6f 	bl	43001574 <gicd_set_ipriorityr>
    430017bc:	d53800a0 	mrs	x0, mpidr_el1
    430017c0:	d37d3318 	ubfiz	x24, x24, #3, #13
    430017c4:	8a190000 	and	x0, x0, x25
    430017c8:	2a1403e1 	mov	w1, w20
    430017cc:	f8386b40 	str	x0, [x26, x24]
    430017d0:	aa1503e0 	mov	x0, x21
    430017d4:	97ffff61 	bl	43001558 <gicd_set_isenabler>
    430017d8:	91001273 	add	x19, x19, #0x4
    430017dc:	17ffffd5 	b	43001730 <gicv3_secure_spis_config_props+0x34>
    430017e0:	320002d6 	orr	w22, w22, #0x1
    430017e4:	97ffff54 	bl	43001534 <gicd_clr_igrpmodr>
    430017e8:	17ffffeb 	b	43001794 <gicv3_secure_spis_config_props+0x98>

00000000430017ec <gicv3_get_component_prodid_rev>:
    430017ec:	b9400800 	ldr	w0, [x0, #8]
    430017f0:	53187c03 	lsr	w3, w0, #24
    430017f4:	b9000023 	str	w3, [x1]
    430017f8:	d34c4c00 	ubfx	x0, x0, #12, #8
    430017fc:	39000040 	strb	w0, [x2]
    43001800:	d65f03c0 	ret

0000000043001804 <gicd_wait_for_pending_write>:
    43001804:	b9400001 	ldr	w1, [x0]
    43001808:	37ffffe1 	tbnz	w1, #31, 43001804 <gicd_wait_for_pending_write>
    4300180c:	d65f03c0 	ret

0000000043001810 <gicv3_driver_init>:
    43001810:	a9be7bfd 	stp	x29, x30, [sp, #-32]!
    43001814:	d29ffd01 	mov	x1, #0xffe8                	// #65512
    43001818:	910003fd 	mov	x29, sp
    4300181c:	a90153f3 	stp	x19, x20, [sp, #16]
    43001820:	aa0003f3 	mov	x19, x0
    43001824:	f9400000 	ldr	x0, [x0]
    43001828:	f9400662 	ldr	x2, [x19, #8]
    4300182c:	b8616801 	ldr	w1, [x0, x1]
    43001830:	b9400000 	ldr	w0, [x0]
    43001834:	b4000102 	cbz	x2, 43001854 <gicv3_driver_init+0x44>
    43001838:	a9420e60 	ldp	x0, x3, [x19, #32]
    4300183c:	b9401e61 	ldr	w1, [x19, #28]
    43001840:	97ffff67 	bl	430015dc <gicv3_rdistif_base_addrs_probe>
    43001844:	f9401260 	ldr	x0, [x19, #32]
    43001848:	b9401e61 	ldr	w1, [x19, #28]
    4300184c:	d37df021 	lsl	x1, x1, #3
    43001850:	940012ee 	bl	43006408 <flush_dcache_range>
    43001854:	d0000054 	adrp	x20, 4300b000 <__STACKS_START__+0x1f00>
    43001858:	d2800101 	mov	x1, #0x8                   	// #8
    4300185c:	912da280 	add	x0, x20, #0xb68
    43001860:	f905b693 	str	x19, [x20, #2920]
    43001864:	940012e9 	bl	43006408 <flush_dcache_range>
    43001868:	f945b680 	ldr	x0, [x20, #2920]
    4300186c:	d2800601 	mov	x1, #0x30                  	// #48
    43001870:	940012e6 	bl	43006408 <flush_dcache_range>
    43001874:	f9400260 	ldr	x0, [x19]
    43001878:	a94153f3 	ldp	x19, x20, [sp, #16]
    4300187c:	a8c27bfd 	ldp	x29, x30, [sp], #32
    43001880:	17ffff07 	b	4300149c <gicv3_check_erratas_applies>

0000000043001884 <gicv3_distif_init>:
    43001884:	a9be7bfd 	stp	x29, x30, [sp, #-32]!
    43001888:	910003fd 	mov	x29, sp
    4300188c:	f9000bf3 	str	x19, [sp, #16]
    43001890:	d0000053 	adrp	x19, 4300b000 <__STACKS_START__+0x1f00>
    43001894:	f945b660 	ldr	x0, [x19, #2920]
    43001898:	f9400000 	ldr	x0, [x0]
    4300189c:	b9400001 	ldr	w1, [x0]
    430018a0:	121d7021 	and	w1, w1, #0xfffffff8
    430018a4:	b9000001 	str	w1, [x0]
    430018a8:	97ffffd7 	bl	43001804 <gicd_wait_for_pending_write>
    430018ac:	f945b660 	ldr	x0, [x19, #2920]
    430018b0:	f9400000 	ldr	x0, [x0]
    430018b4:	b9400001 	ldr	w1, [x0]
    430018b8:	321c0421 	orr	w1, w1, #0x30
    430018bc:	b9000001 	str	w1, [x0]
    430018c0:	97ffffd1 	bl	43001804 <gicd_wait_for_pending_write>
    430018c4:	f945b660 	ldr	x0, [x19, #2920]
    430018c8:	f9400000 	ldr	x0, [x0]
    430018cc:	97ffff66 	bl	43001664 <gicv3_spis_config_defaults>
    430018d0:	f945b660 	ldr	x0, [x19, #2920]
    430018d4:	b9401802 	ldr	w2, [x0, #24]
    430018d8:	f9400801 	ldr	x1, [x0, #16]
    430018dc:	f9400000 	ldr	x0, [x0]
    430018e0:	97ffff87 	bl	430016fc <gicv3_secure_spis_config_props>
    430018e4:	f945b661 	ldr	x1, [x19, #2920]
    430018e8:	f9400bf3 	ldr	x19, [sp, #16]
    430018ec:	f9400021 	ldr	x1, [x1]
    430018f0:	b9400022 	ldr	w2, [x1]
    430018f4:	2a020000 	orr	w0, w0, w2
    430018f8:	b9000020 	str	w0, [x1]
    430018fc:	aa0103e0 	mov	x0, x1
    43001900:	a8c27bfd 	ldp	x29, x30, [sp], #32
    43001904:	17ffffc0 	b	43001804 <gicd_wait_for_pending_write>

0000000043001908 <gicv3_cpuif_enable>:
    43001908:	a9bf7bfd 	stp	x29, x30, [sp, #-16]!
    4300190c:	d0000041 	adrp	x1, 4300b000 <__STACKS_START__+0x1f00>
    43001910:	910003fd 	mov	x29, sp
    43001914:	f945b421 	ldr	x1, [x1, #2920]
    43001918:	f9401021 	ldr	x1, [x1, #32]
    4300191c:	f8605820 	ldr	x0, [x1, w0, uxtw #3]
    43001920:	97ffff28 	bl	430015c0 <gicv3_rdistif_mark_core_awake>
    43001924:	d53ecca0 	mrs	x0, icc_sre_el3
    43001928:	b2400c00 	orr	x0, x0, #0xf
    4300192c:	d51ecca0 	msr	icc_sre_el3, x0
    43001930:	d53e1100 	mrs	x0, scr_el3
    43001934:	b2400001 	orr	x1, x0, #0x1
    43001938:	d51e1101 	msr	scr_el3, x1
    4300193c:	d5033fdf 	isb
    43001940:	d53cc9a1 	mrs	x1, icc_sre_el2
    43001944:	b2400c21 	orr	x1, x1, #0xf
    43001948:	d51cc9a1 	msr	icc_sre_el2, x1
    4300194c:	d2800021 	mov	x1, #0x1                   	// #1
    43001950:	d518cca1 	msr	icc_sre_el1, x1
    43001954:	d5033fdf 	isb
    43001958:	927ff802 	and	x2, x0, #0xfffffffffffffffe
    4300195c:	d51e1102 	msr	scr_el3, x2
    43001960:	d5033fdf 	isb
    43001964:	d518cca1 	msr	icc_sre_el1, x1
    43001968:	d5033fdf 	isb
    4300196c:	d2801fe2 	mov	x2, #0xff                  	// #255
    43001970:	d5184602 	msr	icc_pmr_el1, x2
    43001974:	d518ccc1 	msr	icc_igrpen0_el1, x1
    43001978:	d53ecce1 	mrs	x1, icc_igrpen1_el3
    4300197c:	b27f0021 	orr	x1, x1, #0x2
    43001980:	d51ecce1 	msr	icc_igrpen1_el3, x1
    43001984:	d51e1100 	msr	scr_el3, x0
    43001988:	d5033fdf 	isb
    4300198c:	d5033f9f 	dsb	sy
    43001990:	a8c17bfd 	ldp	x29, x30, [sp], #16
    43001994:	d65f03c0 	ret

0000000043001998 <gicv3_get_pending_interrupt_type>:
    43001998:	d538c840 	mrs	x0, icc_hppir0_el1
    4300199c:	12005c00 	and	w0, w0, #0xffffff
    430019a0:	d65f03c0 	ret

00000000430019a4 <timer_init>:
    430019a4:	d0000041 	adrp	x1, 4300b000 <__STACKS_START__+0x1f00>
    430019a8:	f905b820 	str	x0, [x1, #2928]
    430019ac:	d65f03c0 	ret

00000000430019b0 <print_errata_status>:
    430019b0:	d65f03c0 	ret

00000000430019b4 <cm_init>:
    430019b4:	d65f03c0 	ret

00000000430019b8 <cm_setup_context>:
    430019b8:	a9bd7bfd 	stp	x29, x30, [sp, #-48]!
    430019bc:	910003fd 	mov	x29, sp
    430019c0:	a90153f3 	stp	x19, x20, [sp, #16]
    430019c4:	aa0003f3 	mov	x19, x0
    430019c8:	aa0103f4 	mov	x20, x1
    430019cc:	d2804801 	mov	x1, #0x240                 	// #576
    430019d0:	f90013f5 	str	x21, [sp, #32]
    430019d4:	94001303 	bl	430065e0 <zeromem>
    430019d8:	d53e1100 	mrs	x0, scr_el3
    430019dc:	9281a1e1 	mov	x1, #0xfffffffffffff2f0    	// #-3344
    430019e0:	f2f7ffe1 	movk	x1, #0xbfff, lsl #48
    430019e4:	8a010000 	and	x0, x0, x1
    430019e8:	b9401281 	ldr	w1, [x20, #16]
    430019ec:	d3441022 	ubfx	x2, x1, #4, #1
    430019f0:	37200041 	tbnz	w1, #4, 430019f8 <cm_setup_context+0x40>
    430019f4:	b2760000 	orr	x0, x0, #0x400
    430019f8:	b9400683 	ldr	w3, [x20, #4]
    430019fc:	36100043 	tbz	w3, #2, 43001a04 <cm_setup_context+0x4c>
    43001a00:	b2750000 	orr	x0, x0, #0x800
    43001a04:	d53e1143 	mrs	x3, cptr_el3
    43001a08:	f9009e63 	str	x3, [x19, #312]
    43001a0c:	35000302 	cbnz	w2, 43001a6c <cm_setup_context+0xb4>
    43001a10:	d3420c22 	ubfx	x2, x1, #2, #2
    43001a14:	7100085f 	cmp	w2, #0x2
    43001a18:	54000041 	b.ne	43001a20 <cm_setup_context+0x68>  // b.any
    43001a1c:	b2780000 	orr	x0, x0, #0x100
    43001a20:	f9008260 	str	x0, [x19, #256]
    43001a24:	2a0103e1 	mov	w1, w1
    43001a28:	f9400680 	ldr	x0, [x20, #8]
    43001a2c:	a9118261 	stp	x1, x0, [x19, #280]
    43001a30:	d2800802 	mov	x2, #0x40                  	// #64
    43001a34:	91006281 	add	x1, x20, #0x18
    43001a38:	aa1303e0 	mov	x0, x19
    43001a3c:	94001496 	bl	43006c94 <memcpy>
    43001a40:	b9400680 	ldr	w0, [x20, #4]
    43001a44:	52800421 	mov	w1, #0x21                  	// #33
    43001a48:	6a010000 	ands	w0, w0, w1
    43001a4c:	54000160 	b.eq	43001a78 <cm_setup_context+0xc0>  // b.none
    43001a50:	7100041f 	cmp	w0, #0x1
    43001a54:	540002e0 	b.eq	43001ab0 <cm_setup_context+0xf8>  // b.none
    43001a58:	d0000020 	adrp	x0, 43007000 <vprintf+0x1d0>
    43001a5c:	912dac00 	add	x0, x0, #0xb6b
    43001a60:	94000f19 	bl	430056c4 <tf_log>
    43001a64:	94000f91 	bl	430058a8 <console_flush>
    43001a68:	9400125c 	bl	430063d8 <el3_panic>
    43001a6c:	12000c22 	and	w2, w1, #0xf
    43001a70:	7100285f 	cmp	w2, #0xa
    43001a74:	17ffffe9 	b	43001a18 <cm_setup_context+0x60>
    43001a78:	f9408274 	ldr	x20, [x19, #256]
    43001a7c:	52800000 	mov	w0, #0x0                   	// #0
    43001a80:	97fffe26 	bl	43001318 <get_scr_el3_from_routing_model>
    43001a84:	d5380421 	mrs	x1, id_aa64pfr1_el1
    43001a88:	53082c21 	ubfx	w1, w1, #8, #4
    43001a8c:	aa000280 	orr	x0, x20, x0
    43001a90:	7100043f 	cmp	w1, #0x1
    43001a94:	54000041 	b.ne	43001a9c <cm_setup_context+0xe4>  // b.any
    43001a98:	b2660000 	orr	x0, x0, #0x4000000
    43001a9c:	f94013f5 	ldr	x21, [sp, #32]
    43001aa0:	f9008260 	str	x0, [x19, #256]
    43001aa4:	a94153f3 	ldp	x19, x20, [sp, #16]
    43001aa8:	a8c37bfd 	ldp	x29, x30, [sp], #48
    43001aac:	d65f03c0 	ret
    43001ab0:	f9408275 	ldr	x21, [x19, #256]
    43001ab4:	97fffe19 	bl	43001318 <get_scr_el3_from_routing_model>
    43001ab8:	b9401282 	ldr	w2, [x20, #16]
    43001abc:	d2810001 	mov	x1, #0x800                 	// #2048
    43001ac0:	aa0002b5 	orr	x21, x21, x0
    43001ac4:	d2800020 	mov	x0, #0x1                   	// #1
    43001ac8:	f2a08060 	movk	x0, #0x403, lsl #16
    43001acc:	aa0002b5 	orr	x21, x21, x0
    43001ad0:	b9400680 	ldr	w0, [x20, #4]
    43001ad4:	d2810703 	mov	x3, #0x838                 	// #2104
    43001ad8:	f27c005f 	tst	x2, #0x10
    43001adc:	f2a018a3 	movk	x3, #0xc5, lsl #16
    43001ae0:	f2a61a01 	movk	x1, #0x30d0, lsl #16
    43001ae4:	f9008275 	str	x21, [x19, #256]
    43001ae8:	d3689c00 	lsl	x0, x0, #24
    43001aec:	92670000 	and	x0, x0, #0x2000000
    43001af0:	aa010001 	orr	x1, x0, x1
    43001af4:	aa030000 	orr	x0, x0, x3
    43001af8:	9a811000 	csel	x0, x0, x1, ne  // ne = any
    43001afc:	f900b260 	str	x0, [x19, #352]
    43001b00:	d5381020 	mrs	x0, actlr_el1
    43001b04:	f94013f5 	ldr	x21, [sp, #32]
    43001b08:	f900da60 	str	x0, [x19, #432]
    43001b0c:	aa1303e0 	mov	x0, x19
    43001b10:	a94153f3 	ldp	x19, x20, [sp, #16]
    43001b14:	a8c37bfd 	ldp	x29, x30, [sp], #48
    43001b18:	14000f79 	b	430058fc <pmuv3_enable>

0000000043001b1c <cm_manage_extensions_el3>:
    43001b1c:	14000f79 	b	43005900 <pmuv3_disable_el3>

0000000043001b20 <cm_init_context_by_index>:
    43001b20:	a9be7bfd 	stp	x29, x30, [sp, #-32]!
    43001b24:	910003fd 	mov	x29, sp
    43001b28:	f9000bf3 	str	x19, [sp, #16]
    43001b2c:	aa0103f3 	mov	x19, x1
    43001b30:	52800421 	mov	w1, #0x21                  	// #33
    43001b34:	b9400662 	ldr	w2, [x19, #4]
    43001b38:	0a010041 	and	w1, w2, w1
    43001b3c:	97fffd9f 	bl	430011b8 <cm_get_context_by_index>
    43001b40:	aa1303e1 	mov	x1, x19
    43001b44:	f9400bf3 	ldr	x19, [sp, #16]
    43001b48:	a8c27bfd 	ldp	x29, x30, [sp], #32
    43001b4c:	17ffff9b 	b	430019b8 <cm_setup_context>

0000000043001b50 <cm_init_my_context>:
    43001b50:	a9be7bfd 	stp	x29, x30, [sp, #-32]!
    43001b54:	910003fd 	mov	x29, sp
    43001b58:	f9000bf3 	str	x19, [sp, #16]
    43001b5c:	aa0003f3 	mov	x19, x0
    43001b60:	52800420 	mov	w0, #0x21                  	// #33
    43001b64:	b9400661 	ldr	w1, [x19, #4]
    43001b68:	0a000020 	and	w0, w1, w0
    43001b6c:	97fffd8e 	bl	430011a4 <cm_get_context>
    43001b70:	aa1303e1 	mov	x1, x19
    43001b74:	f9400bf3 	ldr	x19, [sp, #16]
    43001b78:	a8c27bfd 	ldp	x29, x30, [sp], #32
    43001b7c:	17ffff8f 	b	430019b8 <cm_setup_context>

0000000043001b80 <cm_el1_sysregs_context_restore>:
    43001b80:	a9be7bfd 	stp	x29, x30, [sp, #-32]!
    43001b84:	910003fd 	mov	x29, sp
    43001b88:	a90153f3 	stp	x19, x20, [sp, #16]
    43001b8c:	2a0003f3 	mov	w19, w0
    43001b90:	97fffd85 	bl	430011a4 <cm_get_context>
    43001b94:	91054000 	add	x0, x0, #0x150
    43001b98:	940010bd 	bl	43005e8c <el1_sysregs_context_restore>
    43001b9c:	34000273 	cbz	w19, 43001be8 <cm_el1_sysregs_context_restore+0x68>
    43001ba0:	f0000033 	adrp	x19, 43008000 <INFRA_AO_SYS0_Devices+0x288>
    43001ba4:	f0000034 	adrp	x20, 43008000 <INFRA_AO_SYS0_Devices+0x288>
    43001ba8:	911f0273 	add	x19, x19, #0x7c0
    43001bac:	911f0294 	add	x20, x20, #0x7c0
    43001bb0:	eb14027f 	cmp	x19, x20
    43001bb4:	54000142 	b.cs	43001bdc <cm_el1_sysregs_context_restore+0x5c>  // b.hs, b.nlast
    43001bb8:	f8408661 	ldr	x1, [x19], #8
    43001bbc:	d2800000 	mov	x0, #0x0                   	// #0
    43001bc0:	d63f0020 	blr	x1
    43001bc4:	17fffffb 	b	43001bb0 <cm_el1_sysregs_context_restore+0x30>
    43001bc8:	f8408661 	ldr	x1, [x19], #8
    43001bcc:	d2800000 	mov	x0, #0x0                   	// #0
    43001bd0:	d63f0020 	blr	x1
    43001bd4:	eb14027f 	cmp	x19, x20
    43001bd8:	54ffff83 	b.cc	43001bc8 <cm_el1_sysregs_context_restore+0x48>  // b.lo, b.ul, b.last
    43001bdc:	a94153f3 	ldp	x19, x20, [sp, #16]
    43001be0:	a8c27bfd 	ldp	x29, x30, [sp], #32
    43001be4:	d65f03c0 	ret
    43001be8:	f0000033 	adrp	x19, 43008000 <INFRA_AO_SYS0_Devices+0x288>
    43001bec:	f0000034 	adrp	x20, 43008000 <INFRA_AO_SYS0_Devices+0x288>
    43001bf0:	911ee273 	add	x19, x19, #0x7b8
    43001bf4:	911f0294 	add	x20, x20, #0x7c0
    43001bf8:	17fffff7 	b	43001bd4 <cm_el1_sysregs_context_restore+0x54>

0000000043001bfc <cm_set_next_eret_context>:
    43001bfc:	a9bf7bfd 	stp	x29, x30, [sp, #-16]!
    43001c00:	910003fd 	mov	x29, sp
    43001c04:	97fffd68 	bl	430011a4 <cm_get_context>
    43001c08:	d50041bf 	msr	spsel, #0x1
    43001c0c:	9100001f 	mov	sp, x0
    43001c10:	d50040bf 	msr	spsel, #0x0
    43001c14:	a8c17bfd 	ldp	x29, x30, [sp], #16
    43001c18:	d65f03c0 	ret

0000000043001c1c <cm_prepare_el3_exit>:
    43001c1c:	a9be7bfd 	stp	x29, x30, [sp, #-32]!
    43001c20:	910003fd 	mov	x29, sp
    43001c24:	f9000bf3 	str	x19, [sp, #16]
    43001c28:	2a0003f3 	mov	w19, w0
    43001c2c:	97fffd5e 	bl	430011a4 <cm_get_context>
    43001c30:	7100067f 	cmp	w19, #0x1
    43001c34:	540004e1 	b.ne	43001cd0 <cm_prepare_el3_exit+0xb4>  // b.any
    43001c38:	f9408001 	ldr	x1, [x0, #256]
    43001c3c:	d5380403 	mrs	x3, id_aa64pfr0_el1
    43001c40:	92780022 	and	x2, x1, #0x100
    43001c44:	36400121 	tbz	w1, #8, 43001c68 <cm_prepare_el3_exit+0x4c>
    43001c48:	f940b000 	ldr	x0, [x0, #352]
    43001c4c:	d2810601 	mov	x1, #0x830                 	// #2096
    43001c50:	f2a618a1 	movk	x1, #0x30c5, lsl #16
    43001c54:	92670000 	and	x0, x0, #0x2000000
    43001c58:	aa010000 	orr	x0, x0, x1
    43001c5c:	d51c1000 	msr	sctlr_el2, x0
    43001c60:	52800000 	mov	w0, #0x0                   	// #0
    43001c64:	14000017 	b	43001cc0 <cm_prepare_el3_exit+0xa4>
    43001c68:	f2780c7f 	tst	x3, #0xf00
    43001c6c:	54ffffa0 	b.eq	43001c60 <cm_prepare_el3_exit+0x44>  // b.none
    43001c70:	f2760021 	ands	x1, x1, #0x400
    43001c74:	d2b00000 	mov	x0, #0x80000000            	// #2147483648
    43001c78:	9a800021 	csel	x1, x1, x0, eq  // eq = none
    43001c7c:	b2580421 	orr	x1, x1, #0x30000000000
    43001c80:	d51c1101 	msr	hcr_el2, x1
    43001c84:	d2867fe0 	mov	x0, #0x33ff                	// #13311
    43001c88:	d51c1140 	msr	cptr_el2, x0
    43001c8c:	d2800060 	mov	x0, #0x3                   	// #3
    43001c90:	d51ce100 	msr	cnthctl_el2, x0
    43001c94:	d51ce062 	msr	cntvoff_el2, x2
    43001c98:	d5380000 	mrs	x0, midr_el1
    43001c9c:	d51c0000 	msr	vpidr_el2, x0
    43001ca0:	d53800a0 	mrs	x0, mpidr_el1
    43001ca4:	d51c00a0 	msr	vmpidr_el2, x0
    43001ca8:	d51c2102 	msr	vttbr_el2, x2
    43001cac:	d51c1122 	msr	mdcr_el2, x2
    43001cb0:	d51c1162 	msr	hstr_el2, x2
    43001cb4:	d51ce222 	msr	cnthp_ctl_el2, x2
    43001cb8:	94000f21 	bl	4300593c <pmuv3_init_el2_unused>
    43001cbc:	2a1303e0 	mov	w0, w19
    43001cc0:	d5380501 	mrs	x1, id_aa64dfr0_el1
    43001cc4:	f2600c3f 	tst	x1, #0xf00000000
    43001cc8:	54000040 	b.eq	43001cd0 <cm_prepare_el3_exit+0xb4>  // b.none
    43001ccc:	94000012 	bl	43001d14 <spe_enable>
    43001cd0:	2a1303e0 	mov	w0, w19
    43001cd4:	97ffffab 	bl	43001b80 <cm_el1_sysregs_context_restore>
    43001cd8:	2a1303e0 	mov	w0, w19
    43001cdc:	f9400bf3 	ldr	x19, [sp, #16]
    43001ce0:	a8c27bfd 	ldp	x29, x30, [sp], #32
    43001ce4:	17ffffc6 	b	43001bfc <cm_set_next_eret_context>

0000000043001ce8 <cm_prepare_el3_exit_ns>:
    43001ce8:	52800020 	mov	w0, #0x1                   	// #1
    43001cec:	17ffffcc 	b	43001c1c <cm_prepare_el3_exit>

0000000043001cf0 <spe_drain_buffers_hook>:
    43001cf0:	d5380500 	mrs	x0, id_aa64dfr0_el1
    43001cf4:	f2600c1f 	tst	x0, #0xf00000000
    43001cf8:	540000a0 	b.eq	43001d0c <spe_drain_buffers_hook+0x1c>  // b.none
    43001cfc:	d503223f 	psb	csync
    43001d00:	d503379f 	dsb	nsh
    43001d04:	d2800000 	mov	x0, #0x0                   	// #0
    43001d08:	d65f03c0 	ret
    43001d0c:	92800000 	mov	x0, #0xffffffffffffffff    	// #-1
    43001d10:	17fffffe 	b	43001d08 <spe_drain_buffers_hook+0x18>

0000000043001d14 <spe_enable>:
    43001d14:	72001c1f 	tst	w0, #0xff
    43001d18:	540000c0 	b.eq	43001d30 <spe_enable+0x1c>  // b.none
    43001d1c:	d53c1120 	mrs	x0, mdcr_el2
    43001d20:	92407c00 	and	x0, x0, #0xffffffff
    43001d24:	9271f800 	and	x0, x0, #0xffffffffffffbfff
    43001d28:	b2740400 	orr	x0, x0, #0x3000
    43001d2c:	d51c1120 	msr	mdcr_el2, x0
    43001d30:	d53e1320 	mrs	x0, mdcr_el3
    43001d34:	d2860001 	mov	x1, #0x3000                	// #12288
    43001d38:	f2c00201 	movk	x1, #0x10, lsl #32
    43001d3c:	aa010000 	orr	x0, x0, x1
    43001d40:	d51e1320 	msr	mdcr_el3, x0
    43001d44:	d65f03c0 	ret

0000000043001d48 <bakery_lock_get>:
    43001d48:	a9be7bfd 	stp	x29, x30, [sp, #-32]!
    43001d4c:	910003fd 	mov	x29, sp
    43001d50:	f9000bf3 	str	x19, [sp, #16]
    43001d54:	aa0003f3 	mov	x19, x0
    43001d58:	94001178 	bl	43006338 <plat_my_core_pos>
    43001d5c:	d37f7c04 	ubfiz	x4, x0, #1, #32
    43001d60:	52800021 	mov	w1, #0x1                   	// #1
    43001d64:	52800002 	mov	w2, #0x0                   	// #0
    43001d68:	78246a61 	strh	w1, [x19, x4]
    43001d6c:	52800001 	mov	w1, #0x0                   	// #0
    43001d70:	2a0203e3 	mov	w3, w2
    43001d74:	11000442 	add	w2, w2, #0x1
    43001d78:	78637a63 	ldrh	w3, [x19, x3, lsl #1]
    43001d7c:	d3413c63 	ubfx	x3, x3, #1, #15
    43001d80:	6b03003f 	cmp	w1, w3
    43001d84:	1a832021 	csel	w1, w1, w3, cs  // cs = hs, nlast
    43001d88:	7100105f 	cmp	w2, #0x4
    43001d8c:	54ffff21 	b.ne	43001d70 <bakery_lock_get+0x28>  // b.any
    43001d90:	11000421 	add	w1, w1, #0x1
    43001d94:	531f3822 	ubfiz	w2, w1, #1, #15
    43001d98:	2a012001 	orr	w1, w0, w1, lsl #8
    43001d9c:	78246a62 	strh	w2, [x19, x4]
    43001da0:	52800002 	mov	w2, #0x0                   	// #0
    43001da4:	6b02001f 	cmp	w0, w2
    43001da8:	54000200 	b.eq	43001de8 <bakery_lock_get+0xa0>  // b.none
    43001dac:	d37f7c45 	ubfiz	x5, x2, #1, #32
    43001db0:	78656a64 	ldrh	w4, [x19, x5]
    43001db4:	8b050266 	add	x6, x19, x5
    43001db8:	12003c83 	and	w3, w4, #0xffff
    43001dbc:	3707ffa4 	tbnz	w4, #0, 43001db0 <bakery_lock_get+0x68>
    43001dc0:	53017c63 	lsr	w3, w3, #1
    43001dc4:	34000123 	cbz	w3, 43001de8 <bakery_lock_get+0xa0>
    43001dc8:	2a032044 	orr	w4, w2, w3, lsl #8
    43001dcc:	6b04003f 	cmp	w1, w4
    43001dd0:	540000c9 	b.ls	43001de8 <bakery_lock_get+0xa0>  // b.plast
    43001dd4:	d503205f 	wfe
    43001dd8:	794000c4 	ldrh	w4, [x6]
    43001ddc:	d3413c84 	ubfx	x4, x4, #1, #15
    43001de0:	6b04007f 	cmp	w3, w4
    43001de4:	54ffff80 	b.eq	43001dd4 <bakery_lock_get+0x8c>  // b.none
    43001de8:	11000442 	add	w2, w2, #0x1
    43001dec:	7100105f 	cmp	w2, #0x4
    43001df0:	54fffda1 	b.ne	43001da4 <bakery_lock_get+0x5c>  // b.any
    43001df4:	d5033bbf 	dmb	ish
    43001df8:	f9400bf3 	ldr	x19, [sp, #16]
    43001dfc:	a8c27bfd 	ldp	x29, x30, [sp], #32
    43001e00:	d65f03c0 	ret

0000000043001e04 <bakery_lock_release>:
    43001e04:	a9be7bfd 	stp	x29, x30, [sp, #-32]!
    43001e08:	910003fd 	mov	x29, sp
    43001e0c:	f9000bf3 	str	x19, [sp, #16]
    43001e10:	aa0003f3 	mov	x19, x0
    43001e14:	94001149 	bl	43006338 <plat_my_core_pos>
    43001e18:	d5033bbf 	dmb	ish
    43001e1c:	2a0003e1 	mov	w1, w0
    43001e20:	78217a7f 	strh	wzr, [x19, x1, lsl #1]
    43001e24:	d5033f9f 	dsb	sy
    43001e28:	d503209f 	sev
    43001e2c:	f9400bf3 	ldr	x19, [sp, #16]
    43001e30:	a8c27bfd 	ldp	x29, x30, [sp], #32
    43001e34:	d65f03c0 	ret

0000000043001e38 <psci_set_req_local_pwr_state>:
    43001e38:	51000400 	sub	w0, w0, #0x1
    43001e3c:	12001c42 	and	w2, w2, #0xff
    43001e40:	7100041f 	cmp	w0, #0x1
    43001e44:	54000128 	b.hi	43001e68 <psci_set_req_local_pwr_state+0x30>  // b.pmore
    43001e48:	f0000043 	adrp	x3, 4300c000 <dormant_data+0x10>
    43001e4c:	b9414063 	ldr	w3, [x3, #320]
    43001e50:	6b01007f 	cmp	w3, w1
    43001e54:	540000a9 	b.ls	43001e68 <psci_set_req_local_pwr_state+0x30>  // b.plast
    43001e58:	f0000043 	adrp	x3, 4300c000 <dormant_data+0x10>
    43001e5c:	910cf063 	add	x3, x3, #0x33c
    43001e60:	8b204860 	add	x0, x3, w0, uxtw #2
    43001e64:	38214802 	strb	w2, [x0, w1, uxtw]
    43001e68:	d65f03c0 	ret

0000000043001e6c <psci_validate_power_state>:
    43001e6c:	52bf9fc2 	mov	w2, #0xfcfe0000            	// #-50462720
    43001e70:	6a02001f 	tst	w0, w2
    43001e74:	540000c1 	b.ne	43001e8c <psci_validate_power_state+0x20>  // b.any
    43001e78:	d0000042 	adrp	x2, 4300b000 <__STACKS_START__+0x1f00>
    43001e7c:	f945dc42 	ldr	x2, [x2, #3000]
    43001e80:	f9403042 	ldr	x2, [x2, #96]
    43001e84:	aa0203f0 	mov	x16, x2
    43001e88:	d61f0200 	br	x16
    43001e8c:	12800020 	mov	w0, #0xfffffffe            	// #-2
    43001e90:	d65f03c0 	ret

0000000043001e94 <psci_query_sys_suspend_pwrstate>:
    43001e94:	d0000041 	adrp	x1, 4300b000 <__STACKS_START__+0x1f00>
    43001e98:	f945dc21 	ldr	x1, [x1, #3000]
    43001e9c:	f9403821 	ldr	x1, [x1, #112]
    43001ea0:	aa0103f0 	mov	x16, x1
    43001ea4:	d61f0200 	br	x16

0000000043001ea8 <psci_is_last_on_cpu>:
    43001ea8:	a9bd7bfd 	stp	x29, x30, [sp, #-48]!
    43001eac:	910003fd 	mov	x29, sp
    43001eb0:	a90153f3 	stp	x19, x20, [sp, #16]
    43001eb4:	f0000054 	adrp	x20, 4300c000 <dormant_data+0x10>
    43001eb8:	91050294 	add	x20, x20, #0x140
    43001ebc:	f90013f5 	str	x21, [sp, #32]
    43001ec0:	9400111e 	bl	43006338 <plat_my_core_pos>
    43001ec4:	2a0003f5 	mov	w21, w0
    43001ec8:	52800013 	mov	w19, #0x0                   	// #0
    43001ecc:	b9400280 	ldr	w0, [x20]
    43001ed0:	6b13001f 	cmp	w0, w19
    43001ed4:	540000c8 	b.hi	43001eec <psci_is_last_on_cpu+0x44>  // b.pmore
    43001ed8:	52800020 	mov	w0, #0x1                   	// #1
    43001edc:	a94153f3 	ldp	x19, x20, [sp, #16]
    43001ee0:	f94013f5 	ldr	x21, [sp, #32]
    43001ee4:	a8c37bfd 	ldp	x29, x30, [sp], #48
    43001ee8:	d65f03c0 	ret
    43001eec:	6b15027f 	cmp	w19, w21
    43001ef0:	54000061 	b.ne	43001efc <psci_is_last_on_cpu+0x54>  // b.any
    43001ef4:	11000673 	add	w19, w19, #0x1
    43001ef8:	17fffff5 	b	43001ecc <psci_is_last_on_cpu+0x24>
    43001efc:	2a1303e0 	mov	w0, w19
    43001f00:	94001056 	bl	43006058 <_cpu_data_by_index>
    43001f04:	b9401800 	ldr	w0, [x0, #24]
    43001f08:	7100041f 	cmp	w0, #0x1
    43001f0c:	54ffff40 	b.eq	43001ef4 <psci_is_last_on_cpu+0x4c>  // b.none
    43001f10:	52800000 	mov	w0, #0x0                   	// #0
    43001f14:	17fffff2 	b	43001edc <psci_is_last_on_cpu+0x34>

0000000043001f18 <psci_init_req_local_pwr_states>:
    43001f18:	f0000040 	adrp	x0, 4300c000 <dormant_data+0x10>
    43001f1c:	f0000041 	adrp	x1, 4300c000 <dormant_data+0x10>
    43001f20:	910cf021 	add	x1, x1, #0x33c
    43001f24:	52800043 	mov	w3, #0x2                   	// #2
    43001f28:	b9414002 	ldr	w2, [x0, #320]
    43001f2c:	d2800000 	mov	x0, #0x0                   	// #0
    43001f30:	6b00005f 	cmp	w2, w0
    43001f34:	54000089 	b.ls	43001f44 <psci_init_req_local_pwr_states+0x2c>  // b.plast
    43001f38:	38216803 	strb	w3, [x0, x1]
    43001f3c:	91000400 	add	x0, x0, #0x1
    43001f40:	17fffffc 	b	43001f30 <psci_init_req_local_pwr_states+0x18>
    43001f44:	f0000041 	adrp	x1, 4300c000 <dormant_data+0x10>
    43001f48:	910cf021 	add	x1, x1, #0x33c
    43001f4c:	d2800000 	mov	x0, #0x0                   	// #0
    43001f50:	52800044 	mov	w4, #0x2                   	// #2
    43001f54:	6b00005f 	cmp	w2, w0
    43001f58:	540000a9 	b.ls	43001f6c <psci_init_req_local_pwr_states+0x54>  // b.plast
    43001f5c:	8b000023 	add	x3, x1, x0
    43001f60:	91000400 	add	x0, x0, #0x1
    43001f64:	39001064 	strb	w4, [x3, #4]
    43001f68:	17fffffb 	b	43001f54 <psci_init_req_local_pwr_states+0x3c>
    43001f6c:	d65f03c0 	ret

0000000043001f70 <psci_get_target_local_pwr_states>:
    43001f70:	a9be7bfd 	stp	x29, x30, [sp, #-32]!
    43001f74:	910003fd 	mov	x29, sp
    43001f78:	a90153f3 	stp	x19, x20, [sp, #16]
    43001f7c:	2a0003f4 	mov	w20, w0
    43001f80:	aa0103f3 	mov	x19, x1
    43001f84:	d53ed040 	mrs	x0, tpidr_el3
    43001f88:	39408000 	ldrb	w0, [x0, #32]
    43001f8c:	39000020 	strb	w0, [x1]
    43001f90:	940010ea 	bl	43006338 <plat_my_core_pos>
    43001f94:	d37c7c00 	ubfiz	x0, x0, #4, #32
    43001f98:	d0000041 	adrp	x1, 4300b000 <__STACKS_START__+0x1f00>
    43001f9c:	912de021 	add	x1, x1, #0xb78
    43001fa0:	8b000021 	add	x1, x1, x0
    43001fa4:	b00000a0 	adrp	x0, 43016000 <psci_locks>
    43001fa8:	91008000 	add	x0, x0, #0x20
    43001fac:	52800022 	mov	w2, #0x1                   	// #1
    43001fb0:	b9400823 	ldr	w3, [x1, #8]
    43001fb4:	6b14005f 	cmp	w2, w20
    43001fb8:	2a0203e1 	mov	w1, w2
    43001fbc:	540000e9 	b.ls	43001fd8 <psci_get_target_local_pwr_states+0x68>  // b.plast
    43001fc0:	8b010273 	add	x19, x19, x1
    43001fc4:	7100085f 	cmp	w2, #0x2
    43001fc8:	54000169 	b.ls	43001ff4 <psci_get_target_local_pwr_states+0x84>  // b.plast
    43001fcc:	a94153f3 	ldp	x19, x20, [sp, #16]
    43001fd0:	a8c27bfd 	ldp	x29, x30, [sp], #32
    43001fd4:	d65f03c0 	ret
    43001fd8:	d37c7c63 	ubfiz	x3, x3, #4, #32
    43001fdc:	11000442 	add	w2, w2, #0x1
    43001fe0:	8b030003 	add	x3, x0, x3
    43001fe4:	39403064 	ldrb	w4, [x3, #12]
    43001fe8:	38216a64 	strb	w4, [x19, x1]
    43001fec:	b9400863 	ldr	w3, [x3, #8]
    43001ff0:	17fffff1 	b	43001fb4 <psci_get_target_local_pwr_states+0x44>
    43001ff4:	11000442 	add	w2, w2, #0x1
    43001ff8:	3800167f 	strb	wzr, [x19], #1
    43001ffc:	17fffff2 	b	43001fc4 <psci_get_target_local_pwr_states+0x54>

0000000043002000 <psci_set_target_local_pwr_states>:
    43002000:	a9be7bfd 	stp	x29, x30, [sp, #-32]!
    43002004:	910003fd 	mov	x29, sp
    43002008:	a90153f3 	stp	x19, x20, [sp, #16]
    4300200c:	aa0103f3 	mov	x19, x1
    43002010:	2a0003f4 	mov	w20, w0
    43002014:	39400021 	ldrb	w1, [x1]
    43002018:	d53ed040 	mrs	x0, tpidr_el3
    4300201c:	39008001 	strb	w1, [x0, #32]
    43002020:	d53ed040 	mrs	x0, tpidr_el3
    43002024:	91008000 	add	x0, x0, #0x20
    43002028:	d2800021 	mov	x1, #0x1                   	// #1
    4300202c:	940010f7 	bl	43006408 <flush_dcache_range>
    43002030:	940010c2 	bl	43006338 <plat_my_core_pos>
    43002034:	d37c7c00 	ubfiz	x0, x0, #4, #32
    43002038:	b0000042 	adrp	x2, 4300b000 <__STACKS_START__+0x1f00>
    4300203c:	912de042 	add	x2, x2, #0xb78
    43002040:	8b000042 	add	x2, x2, x0
    43002044:	900000a0 	adrp	x0, 43016000 <psci_locks>
    43002048:	91008000 	add	x0, x0, #0x20
    4300204c:	52800023 	mov	w3, #0x1                   	// #1
    43002050:	b9400842 	ldr	w2, [x2, #8]
    43002054:	6b14007f 	cmp	w3, w20
    43002058:	54000089 	b.ls	43002068 <psci_set_target_local_pwr_states+0x68>  // b.plast
    4300205c:	a94153f3 	ldp	x19, x20, [sp, #16]
    43002060:	a8c27bfd 	ldp	x29, x30, [sp], #32
    43002064:	d65f03c0 	ret
    43002068:	d37c7c42 	ubfiz	x2, x2, #4, #32
    4300206c:	38634a61 	ldrb	w1, [x19, w3, uxtw]
    43002070:	8b020002 	add	x2, x0, x2
    43002074:	11000463 	add	w3, w3, #0x1
    43002078:	39003041 	strb	w1, [x2, #12]
    4300207c:	b9400842 	ldr	w2, [x2, #8]
    43002080:	17fffff5 	b	43002054 <psci_set_target_local_pwr_states+0x54>

0000000043002084 <psci_get_parent_pwr_domain_nodes>:
    43002084:	d37c7c03 	ubfiz	x3, x0, #4, #32
    43002088:	b0000040 	adrp	x0, 4300b000 <__STACKS_START__+0x1f00>
    4300208c:	912de000 	add	x0, x0, #0xb78
    43002090:	900000a4 	adrp	x4, 43016000 <psci_locks>
    43002094:	8b030000 	add	x0, x0, x3
    43002098:	d1001042 	sub	x2, x2, #0x4
    4300209c:	91008084 	add	x4, x4, #0x20
    430020a0:	d2800003 	mov	x3, #0x0                   	// #0
    430020a4:	b9400800 	ldr	w0, [x0, #8]
    430020a8:	91000463 	add	x3, x3, #0x1
    430020ac:	6b03003f 	cmp	w1, w3
    430020b0:	54000042 	b.cs	430020b8 <psci_get_parent_pwr_domain_nodes+0x34>  // b.hs, b.nlast
    430020b4:	d65f03c0 	ret
    430020b8:	b8237840 	str	w0, [x2, x3, lsl #2]
    430020bc:	d37c7c00 	ubfiz	x0, x0, #4, #32
    430020c0:	8b000080 	add	x0, x4, x0
    430020c4:	b9400800 	ldr	w0, [x0, #8]
    430020c8:	17fffff8 	b	430020a8 <psci_get_parent_pwr_domain_nodes+0x24>

00000000430020cc <psci_set_pwr_domains_to_run>:
    430020cc:	a9be7bfd 	stp	x29, x30, [sp, #-32]!
    430020d0:	910003fd 	mov	x29, sp
    430020d4:	f9000bf3 	str	x19, [sp, #16]
    430020d8:	2a0003f3 	mov	w19, w0
    430020dc:	94001097 	bl	43006338 <plat_my_core_pos>
    430020e0:	2a0003e1 	mov	w1, w0
    430020e4:	b0000042 	adrp	x2, 4300b000 <__STACKS_START__+0x1f00>
    430020e8:	912de042 	add	x2, x2, #0xb78
    430020ec:	d37c7c20 	ubfiz	x0, x1, #4, #32
    430020f0:	900000a6 	adrp	x6, 43016000 <psci_locks>
    430020f4:	8b000042 	add	x2, x2, x0
    430020f8:	910080c6 	add	x6, x6, #0x20
    430020fc:	52800025 	mov	w5, #0x1                   	// #1
    43002100:	b9400844 	ldr	w4, [x2, #8]
    43002104:	6b1300bf 	cmp	w5, w19
    43002108:	54000169 	b.ls	43002134 <psci_set_pwr_domains_to_run+0x68>  // b.plast
    4300210c:	d53ed040 	mrs	x0, tpidr_el3
    43002110:	b900181f 	str	wzr, [x0, #24]
    43002114:	d53ed040 	mrs	x0, tpidr_el3
    43002118:	3900801f 	strb	wzr, [x0, #32]
    4300211c:	d53ed040 	mrs	x0, tpidr_el3
    43002120:	f9400bf3 	ldr	x19, [sp, #16]
    43002124:	91006000 	add	x0, x0, #0x18
    43002128:	a8c27bfd 	ldp	x29, x30, [sp], #32
    4300212c:	d2800181 	mov	x1, #0xc                   	// #12
    43002130:	140010b6 	b	43006408 <flush_dcache_range>
    43002134:	d37c7c84 	ubfiz	x4, x4, #4, #32
    43002138:	2a0503e0 	mov	w0, w5
    4300213c:	8b0400c4 	add	x4, x6, x4
    43002140:	52800002 	mov	w2, #0x0                   	// #0
    43002144:	110004a5 	add	w5, w5, #0x1
    43002148:	3900309f 	strb	wzr, [x4, #12]
    4300214c:	97ffff3b 	bl	43001e38 <psci_set_req_local_pwr_state>
    43002150:	b9400884 	ldr	w4, [x4, #8]
    43002154:	17ffffec 	b	43002104 <psci_set_pwr_domains_to_run+0x38>

0000000043002158 <psci_do_state_coordination>:
    43002158:	a9bb7bfd 	stp	x29, x30, [sp, #-80]!
    4300215c:	910003fd 	mov	x29, sp
    43002160:	a90153f3 	stp	x19, x20, [sp, #16]
    43002164:	a9025bf5 	stp	x21, x22, [sp, #32]
    43002168:	aa0103f5 	mov	x21, x1
    4300216c:	a90363f7 	stp	x23, x24, [sp, #48]
    43002170:	2a0003f7 	mov	w23, w0
    43002174:	900000b8 	adrp	x24, 43016000 <psci_locks>
    43002178:	a9046bf9 	stp	x25, x26, [sp, #64]
    4300217c:	9400106f 	bl	43006338 <plat_my_core_pos>
    43002180:	2a0003f6 	mov	w22, w0
    43002184:	b0000040 	adrp	x0, 4300b000 <__STACKS_START__+0x1f00>
    43002188:	912de000 	add	x0, x0, #0xb78
    4300218c:	d37c7ec1 	ubfiz	x1, x22, #4, #32
    43002190:	d0000059 	adrp	x25, 4300c000 <dormant_data+0x10>
    43002194:	8b010000 	add	x0, x0, x1
    43002198:	91008318 	add	x24, x24, #0x20
    4300219c:	91050339 	add	x25, x25, #0x140
    430021a0:	52800024 	mov	w4, #0x1                   	// #1
    430021a4:	b9400814 	ldr	w20, [x0, #8]
    430021a8:	6b17009f 	cmp	w4, w23
    430021ac:	11000493 	add	w19, w4, #0x1
    430021b0:	54000129 	b.ls	430021d4 <psci_do_state_coordination+0x7c>  // b.plast
    430021b4:	6b17027f 	cmp	w19, w23
    430021b8:	540004c9 	b.ls	43002250 <psci_do_state_coordination+0xf8>  // b.plast
    430021bc:	a94153f3 	ldp	x19, x20, [sp, #16]
    430021c0:	a9425bf5 	ldp	x21, x22, [sp, #32]
    430021c4:	a94363f7 	ldp	x23, x24, [sp, #48]
    430021c8:	a9446bf9 	ldp	x25, x26, [sp, #64]
    430021cc:	a8c57bfd 	ldp	x29, x30, [sp], #80
    430021d0:	d65f03c0 	ret
    430021d4:	2a0403fa 	mov	w26, w4
    430021d8:	2a1603e1 	mov	w1, w22
    430021dc:	2a0403e0 	mov	w0, w4
    430021e0:	2a1403f4 	mov	w20, w20
    430021e4:	387a6aa2 	ldrb	w2, [x21, x26]
    430021e8:	97ffff14 	bl	43001e38 <psci_set_req_local_pwr_state>
    430021ec:	51000481 	sub	w1, w4, #0x1
    430021f0:	7100043f 	cmp	w1, #0x1
    430021f4:	540002a8 	b.hi	43002248 <psci_do_state_coordination+0xf0>  // b.pmore
    430021f8:	d37cee80 	lsl	x0, x20, #4
    430021fc:	b9400323 	ldr	w3, [x25]
    43002200:	b8606b02 	ldr	w2, [x24, x0]
    43002204:	2a0203e0 	mov	w0, w2
    43002208:	6b03005f 	cmp	w2, w3
    4300220c:	8b214800 	add	x0, x0, w1, uxtw #2
    43002210:	d0000041 	adrp	x1, 4300c000 <dormant_data+0x10>
    43002214:	910cf021 	add	x1, x1, #0x33c
    43002218:	8b000021 	add	x1, x1, x0
    4300221c:	9a9f3021 	csel	x1, x1, xzr, cc  // cc = lo, ul, last
    43002220:	8b141314 	add	x20, x24, x20, lsl #4
    43002224:	2a0403e0 	mov	w0, w4
    43002228:	b9400682 	ldr	w2, [x20, #4]
    4300222c:	94000c05 	bl	43005240 <plat_get_target_pwr_state>
    43002230:	383a6aa0 	strb	w0, [x21, x26]
    43002234:	72001c1f 	tst	w0, #0xff
    43002238:	54fffbe0 	b.eq	430021b4 <psci_do_state_coordination+0x5c>  // b.none
    4300223c:	b9400a94 	ldr	w20, [x20, #8]
    43002240:	2a1303e4 	mov	w4, w19
    43002244:	17ffffd9 	b	430021a8 <psci_do_state_coordination+0x50>
    43002248:	d2800001 	mov	x1, #0x0                   	// #0
    4300224c:	17fffff5 	b	43002220 <psci_do_state_coordination+0xc8>
    43002250:	2a1303e5 	mov	w5, w19
    43002254:	2a1303e0 	mov	w0, w19
    43002258:	2a1603e1 	mov	w1, w22
    4300225c:	11000673 	add	w19, w19, #0x1
    43002260:	38656aa2 	ldrb	w2, [x21, x5]
    43002264:	97fffef5 	bl	43001e38 <psci_set_req_local_pwr_state>
    43002268:	38256abf 	strb	wzr, [x21, x5]
    4300226c:	17ffffd2 	b	430021b4 <psci_do_state_coordination+0x5c>

0000000043002270 <psci_find_max_off_lvl>:
    43002270:	aa0003e1 	mov	x1, x0
    43002274:	39400800 	ldrb	w0, [x0, #2]
    43002278:	7100081f 	cmp	w0, #0x2
    4300227c:	54000120 	b.eq	430022a0 <psci_find_max_off_lvl+0x30>  // b.none
    43002280:	39400420 	ldrb	w0, [x1, #1]
    43002284:	7100081f 	cmp	w0, #0x2
    43002288:	540000e0 	b.eq	430022a4 <psci_find_max_off_lvl+0x34>  // b.none
    4300228c:	39400021 	ldrb	w1, [x1]
    43002290:	52800060 	mov	w0, #0x3                   	// #3
    43002294:	7100083f 	cmp	w1, #0x2
    43002298:	54000041 	b.ne	430022a0 <psci_find_max_off_lvl+0x30>  // b.any
    4300229c:	52800000 	mov	w0, #0x0                   	// #0
    430022a0:	d65f03c0 	ret
    430022a4:	52800020 	mov	w0, #0x1                   	// #1
    430022a8:	17fffffe 	b	430022a0 <psci_find_max_off_lvl+0x30>

00000000430022ac <psci_find_target_suspend_lvl>:
    430022ac:	39400801 	ldrb	w1, [x0, #2]
    430022b0:	35000101 	cbnz	w1, 430022d0 <psci_find_target_suspend_lvl+0x24>
    430022b4:	39400401 	ldrb	w1, [x0, #1]
    430022b8:	35000101 	cbnz	w1, 430022d8 <psci_find_target_suspend_lvl+0x2c>
    430022bc:	39400001 	ldrb	w1, [x0]
    430022c0:	52800060 	mov	w0, #0x3                   	// #3
    430022c4:	34000041 	cbz	w1, 430022cc <psci_find_target_suspend_lvl+0x20>
    430022c8:	52800000 	mov	w0, #0x0                   	// #0
    430022cc:	d65f03c0 	ret
    430022d0:	52800040 	mov	w0, #0x2                   	// #2
    430022d4:	17fffffe 	b	430022cc <psci_find_target_suspend_lvl+0x20>
    430022d8:	52800020 	mov	w0, #0x1                   	// #1
    430022dc:	17fffffc 	b	430022cc <psci_find_target_suspend_lvl+0x20>

00000000430022e0 <psci_acquire_pwr_domain_locks>:
    430022e0:	a9bc7bfd 	stp	x29, x30, [sp, #-64]!
    430022e4:	910003fd 	mov	x29, sp
    430022e8:	a90153f3 	stp	x19, x20, [sp, #16]
    430022ec:	2a0003f4 	mov	w20, w0
    430022f0:	52800033 	mov	w19, #0x1                   	// #1
    430022f4:	a9025bf5 	stp	x21, x22, [sp, #32]
    430022f8:	900000b6 	adrp	x22, 43016000 <psci_locks>
    430022fc:	aa0103f5 	mov	x21, x1
    43002300:	910002d6 	add	x22, x22, #0x0
    43002304:	f9001bf7 	str	x23, [sp, #48]
    43002308:	900000b7 	adrp	x23, 43016000 <psci_locks>
    4300230c:	910082f7 	add	x23, x23, #0x20
    43002310:	6b14027f 	cmp	w19, w20
    43002314:	540000c9 	b.ls	4300232c <psci_acquire_pwr_domain_locks+0x4c>  // b.plast
    43002318:	a94153f3 	ldp	x19, x20, [sp, #16]
    4300231c:	a9425bf5 	ldp	x21, x22, [sp, #32]
    43002320:	f9401bf7 	ldr	x23, [sp, #48]
    43002324:	a8c47bfd 	ldp	x29, x30, [sp], #64
    43002328:	d65f03c0 	ret
    4300232c:	51000660 	sub	w0, w19, #0x1
    43002330:	11000673 	add	w19, w19, #0x1
    43002334:	b8607aa0 	ldr	w0, [x21, x0, lsl #2]
    43002338:	8b0012e0 	add	x0, x23, x0, lsl #4
    4300233c:	79401c00 	ldrh	w0, [x0, #14]
    43002340:	8b000ec0 	add	x0, x22, x0, lsl #3
    43002344:	97fffe81 	bl	43001d48 <bakery_lock_get>
    43002348:	17fffff2 	b	43002310 <psci_acquire_pwr_domain_locks+0x30>

000000004300234c <psci_release_pwr_domain_locks>:
    4300234c:	a9bd7bfd 	stp	x29, x30, [sp, #-48]!
    43002350:	910003fd 	mov	x29, sp
    43002354:	a90153f3 	stp	x19, x20, [sp, #16]
    43002358:	2a0003f3 	mov	w19, w0
    4300235c:	aa0103f4 	mov	x20, x1
    43002360:	a9025bf5 	stp	x21, x22, [sp, #32]
    43002364:	900000b5 	adrp	x21, 43016000 <psci_locks>
    43002368:	900000b6 	adrp	x22, 43016000 <psci_locks>
    4300236c:	910002b5 	add	x21, x21, #0x0
    43002370:	910082d6 	add	x22, x22, #0x20
    43002374:	350000b3 	cbnz	w19, 43002388 <psci_release_pwr_domain_locks+0x3c>
    43002378:	a94153f3 	ldp	x19, x20, [sp, #16]
    4300237c:	a9425bf5 	ldp	x21, x22, [sp, #32]
    43002380:	a8c37bfd 	ldp	x29, x30, [sp], #48
    43002384:	d65f03c0 	ret
    43002388:	51000673 	sub	w19, w19, #0x1
    4300238c:	b8735a80 	ldr	w0, [x20, w19, uxtw #2]
    43002390:	8b0012c0 	add	x0, x22, x0, lsl #4
    43002394:	79401c00 	ldrh	w0, [x0, #14]
    43002398:	8b000ea0 	add	x0, x21, x0, lsl #3
    4300239c:	97fffe9a 	bl	43001e04 <bakery_lock_release>
    430023a0:	17fffff5 	b	43002374 <psci_release_pwr_domain_locks+0x28>

00000000430023a4 <psci_validate_mpidr>:
    430023a4:	a9bf7bfd 	stp	x29, x30, [sp, #-16]!
    430023a8:	910003fd 	mov	x29, sp
    430023ac:	94000c32 	bl	43005474 <plat_core_pos_by_mpidr>
    430023b0:	71000c1f 	cmp	w0, #0x3
    430023b4:	a8c17bfd 	ldp	x29, x30, [sp], #16
    430023b8:	12800020 	mov	w0, #0xfffffffe            	// #-2
    430023bc:	1a9f8000 	csel	w0, w0, wzr, hi  // hi = pmore
    430023c0:	d65f03c0 	ret

00000000430023c4 <psci_validate_entry_point>:
    430023c4:	a9bb7bfd 	stp	x29, x30, [sp, #-80]!
    430023c8:	910003fd 	mov	x29, sp
    430023cc:	a90153f3 	stp	x19, x20, [sp, #16]
    430023d0:	aa0003f4 	mov	x20, x0
    430023d4:	b0000040 	adrp	x0, 4300b000 <__STACKS_START__+0x1f00>
    430023d8:	aa0103f3 	mov	x19, x1
    430023dc:	a9025bf5 	stp	x21, x22, [sp, #32]
    430023e0:	f945dc00 	ldr	x0, [x0, #3000]
    430023e4:	a90363f7 	stp	x23, x24, [sp, #48]
    430023e8:	aa0203f8 	mov	x24, x2
    430023ec:	f9403401 	ldr	x1, [x0, #104]
    430023f0:	f90023f9 	str	x25, [sp, #64]
    430023f4:	b5000361 	cbnz	x1, 43002460 <psci_validate_entry_point+0x9c>
    430023f8:	d53e1117 	mrs	x23, scr_el3
    430023fc:	d5381000 	mrs	x0, sctlr_el1
    43002400:	927802f9 	and	x25, x23, #0x100
    43002404:	37400437 	tbnz	w23, #8, 43002488 <psci_validate_entry_point+0xc4>
    43002408:	f2670000 	ands	x0, x0, #0x2000000
    4300240c:	52802021 	mov	w1, #0x101                 	// #257
    43002410:	72a00b01 	movk	w1, #0x58, lsl #16
    43002414:	d2800075 	mov	x21, #0x3                   	// #3
    43002418:	9a9f16a0 	csinc	x0, x21, xzr, ne  // ne = any
    4300241c:	29000281 	stp	w1, w0, [x20]
    43002420:	f9000693 	str	x19, [x20, #8]
    43002424:	1a9f07f6 	cset	w22, ne  // ne = any
    43002428:	91006280 	add	x0, x20, #0x18
    4300242c:	d2800801 	mov	x1, #0x40                  	// #64
    43002430:	9400106c 	bl	430065e0 <zeromem>
    43002434:	f9000e98 	str	x24, [x20, #24]
    43002438:	365002d7 	tbz	w23, #10, 43002490 <psci_validate_entry_point+0xcc>
    4300243c:	37000193 	tbnz	w19, #0, 4300246c <psci_validate_entry_point+0xa8>
    43002440:	f100033f 	cmp	x25, #0x0
    43002444:	52807821 	mov	w1, #0x3c1                 	// #961
    43002448:	1a9f07e0 	cset	w0, ne  // ne = any
    4300244c:	11000400 	add	w0, w0, #0x1
    43002450:	2a000820 	orr	w0, w1, w0, lsl #2
    43002454:	b9001280 	str	w0, [x20, #16]
    43002458:	52800000 	mov	w0, #0x0                   	// #0
    4300245c:	14000005 	b	43002470 <psci_validate_entry_point+0xac>
    43002460:	aa1303e0 	mov	x0, x19
    43002464:	d63f0020 	blr	x1
    43002468:	34fffc80 	cbz	w0, 430023f8 <psci_validate_entry_point+0x34>
    4300246c:	12800100 	mov	w0, #0xfffffff7            	// #-9
    43002470:	a94153f3 	ldp	x19, x20, [sp, #16]
    43002474:	a9425bf5 	ldp	x21, x22, [sp, #32]
    43002478:	a94363f7 	ldp	x23, x24, [sp, #48]
    4300247c:	f94023f9 	ldr	x25, [sp, #64]
    43002480:	a8c57bfd 	ldp	x29, x30, [sp], #80
    43002484:	d65f03c0 	ret
    43002488:	d53c1000 	mrs	x0, sctlr_el2
    4300248c:	17ffffdf 	b	43002408 <psci_validate_entry_point+0x44>
    43002490:	52800140 	mov	w0, #0xa                   	// #10
    43002494:	f100033f 	cmp	x25, #0x0
    43002498:	1a8002b5 	csel	w21, w21, w0, eq  // eq = none
    4300249c:	531b0273 	ubfiz	w19, w19, #5, #1
    430024a0:	52803a00 	mov	w0, #0x1d0                 	// #464
    430024a4:	2a150273 	orr	w19, w19, w21
    430024a8:	2a162416 	orr	w22, w0, w22, lsl #9
    430024ac:	2a160273 	orr	w19, w19, w22
    430024b0:	b9001293 	str	w19, [x20, #16]
    430024b4:	17ffffe9 	b	43002458 <psci_validate_entry_point+0x94>

00000000430024b8 <psci_warmboot_entrypoint>:
    430024b8:	a9bd7bfd 	stp	x29, x30, [sp, #-48]!
    430024bc:	910003fd 	mov	x29, sp
    430024c0:	a90153f3 	stp	x19, x20, [sp, #16]
    430024c4:	94000f9d 	bl	43006338 <plat_my_core_pos>
    430024c8:	2a0003f4 	mov	w20, w0
    430024cc:	790043ff 	strh	wzr, [sp, #32]
    430024d0:	39008bff 	strb	wzr, [sp, #34]
    430024d4:	f90017ff 	str	xzr, [sp, #40]
    430024d8:	97fffd91 	bl	43001b1c <cm_manage_extensions_el3>
    430024dc:	d53ed040 	mrs	x0, tpidr_el3
    430024e0:	b9401800 	ldr	w0, [x0, #24]
    430024e4:	7100041f 	cmp	w0, #0x1
    430024e8:	540000c1 	b.ne	43002500 <psci_warmboot_entrypoint+0x48>  // b.any
    430024ec:	b0000020 	adrp	x0, 43007000 <vprintf+0x1d0>
    430024f0:	912e1000 	add	x0, x0, #0xb84
    430024f4:	94000c74 	bl	430056c4 <tf_log>
    430024f8:	94000cec 	bl	430058a8 <console_flush>
    430024fc:	94000fb7 	bl	430063d8 <el3_panic>
    43002500:	d53ed040 	mrs	x0, tpidr_el3
    43002504:	b9401c13 	ldr	w19, [x0, #28]
    43002508:	9100a3e2 	add	x2, sp, #0x28
    4300250c:	52800040 	mov	w0, #0x2                   	// #2
    43002510:	71000e7f 	cmp	w19, #0x3
    43002514:	1a801273 	csel	w19, w19, w0, ne  // ne = any
    43002518:	2a1403e0 	mov	w0, w20
    4300251c:	2a1303e1 	mov	w1, w19
    43002520:	97fffed9 	bl	43002084 <psci_get_parent_pwr_domain_nodes>
    43002524:	9100a3e1 	add	x1, sp, #0x28
    43002528:	2a1303e0 	mov	w0, w19
    4300252c:	97ffff6d 	bl	430022e0 <psci_acquire_pwr_domain_locks>
    43002530:	910083e1 	add	x1, sp, #0x20
    43002534:	2a1303e0 	mov	w0, w19
    43002538:	97fffe8e 	bl	43001f70 <psci_get_target_local_pwr_states>
    4300253c:	d53ed040 	mrs	x0, tpidr_el3
    43002540:	b9401800 	ldr	w0, [x0, #24]
    43002544:	910083e1 	add	x1, sp, #0x20
    43002548:	7100081f 	cmp	w0, #0x2
    4300254c:	2a1403e0 	mov	w0, w20
    43002550:	54000141 	b.ne	43002578 <psci_warmboot_entrypoint+0xc0>  // b.any
    43002554:	9400021f 	bl	43002dd0 <psci_cpu_on_finish>
    43002558:	2a1303e0 	mov	w0, w19
    4300255c:	97fffedc 	bl	430020cc <psci_set_pwr_domains_to_run>
    43002560:	9100a3e1 	add	x1, sp, #0x28
    43002564:	2a1303e0 	mov	w0, w19
    43002568:	97ffff79 	bl	4300234c <psci_release_pwr_domain_locks>
    4300256c:	a94153f3 	ldp	x19, x20, [sp, #16]
    43002570:	a8c37bfd 	ldp	x29, x30, [sp], #48
    43002574:	d65f03c0 	ret
    43002578:	94000390 	bl	430033b8 <psci_cpu_suspend_finish>
    4300257c:	17fffff7 	b	43002558 <psci_warmboot_entrypoint+0xa0>

0000000043002580 <psci_spd_migrate_info>:
    43002580:	b0000041 	adrp	x1, 4300b000 <__STACKS_START__+0x1f00>
    43002584:	f945e021 	ldr	x1, [x1, #3008]
    43002588:	b40000a1 	cbz	x1, 4300259c <psci_spd_migrate_info+0x1c>
    4300258c:	f9401821 	ldr	x1, [x1, #48]
    43002590:	b4000061 	cbz	x1, 4300259c <psci_spd_migrate_info+0x1c>
    43002594:	aa0103f0 	mov	x16, x1
    43002598:	d61f0200 	br	x16
    4300259c:	12800000 	mov	w0, #0xffffffff            	// #-1
    430025a0:	d65f03c0 	ret

00000000430025a4 <psci_print_power_domain_map>:
    430025a4:	d65f03c0 	ret

00000000430025a8 <psci_pwrdown_cpu>:
    430025a8:	14000ebc 	b	43006098 <psci_do_pwrdown_cache_maintenance>

00000000430025ac <psci_cpu_on>:
    430025ac:	a9b77bfd 	stp	x29, x30, [sp, #-144]!
    430025b0:	910003fd 	mov	x29, sp
    430025b4:	a90153f3 	stp	x19, x20, [sp, #16]
    430025b8:	aa0003f3 	mov	x19, x0
    430025bc:	aa0103f4 	mov	x20, x1
    430025c0:	f90013f5 	str	x21, [sp, #32]
    430025c4:	aa0203f5 	mov	x21, x2
    430025c8:	97ffff77 	bl	430023a4 <psci_validate_mpidr>
    430025cc:	350001a0 	cbnz	w0, 43002600 <psci_cpu_on+0x54>
    430025d0:	aa1503e2 	mov	x2, x21
    430025d4:	aa1403e1 	mov	x1, x20
    430025d8:	9100e3e0 	add	x0, sp, #0x38
    430025dc:	97ffff7a 	bl	430023c4 <psci_validate_entry_point>
    430025e0:	35000080 	cbnz	w0, 430025f0 <psci_cpu_on+0x44>
    430025e4:	9100e3e1 	add	x1, sp, #0x38
    430025e8:	aa1303e0 	mov	x0, x19
    430025ec:	940001a1 	bl	43002c70 <psci_cpu_on_start>
    430025f0:	a94153f3 	ldp	x19, x20, [sp, #16]
    430025f4:	f94013f5 	ldr	x21, [sp, #32]
    430025f8:	a8c97bfd 	ldp	x29, x30, [sp], #144
    430025fc:	d65f03c0 	ret
    43002600:	12800020 	mov	w0, #0xfffffffe            	// #-2
    43002604:	17fffffb 	b	430025f0 <psci_cpu_on+0x44>

0000000043002608 <psci_cpu_suspend>:
    43002608:	a9b67bfd 	stp	x29, x30, [sp, #-160]!
    4300260c:	910003fd 	mov	x29, sp
    43002610:	a90153f3 	stp	x19, x20, [sp, #16]
    43002614:	2a0003f4 	mov	w20, w0
    43002618:	a9025bf5 	stp	x21, x22, [sp, #32]
    4300261c:	aa0103f6 	mov	x22, x1
    43002620:	910103e1 	add	x1, sp, #0x40
    43002624:	f9001bf7 	str	x23, [sp, #48]
    43002628:	aa0203f7 	mov	x23, x2
    4300262c:	790083ff 	strh	wzr, [sp, #64]
    43002630:	39010bff 	strb	wzr, [sp, #66]
    43002634:	97fffe0e 	bl	43001e6c <psci_validate_power_state>
    43002638:	2a0003f3 	mov	w19, w0
    4300263c:	35000300 	cbnz	w0, 4300269c <psci_cpu_suspend+0x94>
    43002640:	910103e0 	add	x0, sp, #0x40
    43002644:	d3504294 	ubfx	x20, x20, #16, #1
    43002648:	97ffff19 	bl	430022ac <psci_find_target_suspend_lvl>
    4300264c:	2a0003f5 	mov	w21, w0
    43002650:	71000c1f 	cmp	w0, #0x3
    43002654:	540000c1 	b.ne	4300266c <psci_cpu_suspend+0x64>  // b.any
    43002658:	b0000020 	adrp	x0, 43007000 <vprintf+0x1d0>
    4300265c:	912e9800 	add	x0, x0, #0xba6
    43002660:	94000c19 	bl	430056c4 <tf_log>
    43002664:	94000c91 	bl	430058a8 <console_flush>
    43002668:	94000f5c 	bl	430063d8 <el3_panic>
    4300266c:	2a000280 	orr	w0, w20, w0
    43002670:	35000220 	cbnz	w0, 430026b4 <psci_cpu_suspend+0xac>
    43002674:	b0000040 	adrp	x0, 4300b000 <__STACKS_START__+0x1f00>
    43002678:	f945dc00 	ldr	x0, [x0, #3000]
    4300267c:	f9400001 	ldr	x1, [x0]
    43002680:	b4000381 	cbz	x1, 430026f0 <psci_cpu_suspend+0xe8>
    43002684:	394103e0 	ldrb	w0, [sp, #64]
    43002688:	d53ed042 	mrs	x2, tpidr_el3
    4300268c:	39008040 	strb	w0, [x2, #32]
    43002690:	d63f0020 	blr	x1
    43002694:	d53ed040 	mrs	x0, tpidr_el3
    43002698:	3900801f 	strb	wzr, [x0, #32]
    4300269c:	2a1303e0 	mov	w0, w19
    430026a0:	a94153f3 	ldp	x19, x20, [sp, #16]
    430026a4:	a9425bf5 	ldp	x21, x22, [sp, #32]
    430026a8:	f9401bf7 	ldr	x23, [sp, #48]
    430026ac:	a8ca7bfd 	ldp	x29, x30, [sp], #160
    430026b0:	d65f03c0 	ret
    430026b4:	35000114 	cbnz	w20, 430026d4 <psci_cpu_suspend+0xcc>
    430026b8:	2a1403e3 	mov	w3, w20
    430026bc:	910103e2 	add	x2, sp, #0x40
    430026c0:	2a1503e1 	mov	w1, w21
    430026c4:	910123e0 	add	x0, sp, #0x48
    430026c8:	940002cc 	bl	430031f8 <psci_cpu_suspend_start>
    430026cc:	2a0003f3 	mov	w19, w0
    430026d0:	17fffff3 	b	4300269c <psci_cpu_suspend+0x94>
    430026d4:	aa1703e2 	mov	x2, x23
    430026d8:	aa1603e1 	mov	x1, x22
    430026dc:	910123e0 	add	x0, sp, #0x48
    430026e0:	97ffff39 	bl	430023c4 <psci_validate_entry_point>
    430026e4:	2a0003f3 	mov	w19, w0
    430026e8:	34fffe80 	cbz	w0, 430026b8 <psci_cpu_suspend+0xb0>
    430026ec:	17ffffec 	b	4300269c <psci_cpu_suspend+0x94>
    430026f0:	12800033 	mov	w19, #0xfffffffe            	// #-2
    430026f4:	17ffffea 	b	4300269c <psci_cpu_suspend+0x94>

00000000430026f8 <psci_system_suspend>:
    430026f8:	a9b87bfd 	stp	x29, x30, [sp, #-128]!
    430026fc:	910003fd 	mov	x29, sp
    43002700:	a90153f3 	stp	x19, x20, [sp, #16]
    43002704:	aa0003f3 	mov	x19, x0
    43002708:	aa0103f4 	mov	x20, x1
    4300270c:	97fffde7 	bl	43001ea8 <psci_is_last_on_cpu>
    43002710:	72001c1f 	tst	w0, #0xff
    43002714:	540000a1 	b.ne	43002728 <psci_system_suspend+0x30>  // b.any
    43002718:	12800040 	mov	w0, #0xfffffffd            	// #-3
    4300271c:	a94153f3 	ldp	x19, x20, [sp, #16]
    43002720:	a8c87bfd 	ldp	x29, x30, [sp], #128
    43002724:	d65f03c0 	ret
    43002728:	aa1403e2 	mov	x2, x20
    4300272c:	aa1303e1 	mov	x1, x19
    43002730:	9100a3e0 	add	x0, sp, #0x28
    43002734:	97ffff24 	bl	430023c4 <psci_validate_entry_point>
    43002738:	35ffff20 	cbnz	w0, 4300271c <psci_system_suspend+0x24>
    4300273c:	910083e0 	add	x0, sp, #0x20
    43002740:	97fffdd5 	bl	43001e94 <psci_query_sys_suspend_pwrstate>
    43002744:	910083e0 	add	x0, sp, #0x20
    43002748:	97fffed9 	bl	430022ac <psci_find_target_suspend_lvl>
    4300274c:	7100041f 	cmp	w0, #0x1
    43002750:	54fffe49 	b.ls	43002718 <psci_system_suspend+0x20>  // b.plast
    43002754:	910083e2 	add	x2, sp, #0x20
    43002758:	9100a3e0 	add	x0, sp, #0x28
    4300275c:	52800023 	mov	w3, #0x1                   	// #1
    43002760:	52800041 	mov	w1, #0x2                   	// #2
    43002764:	940002a5 	bl	430031f8 <psci_cpu_suspend_start>
    43002768:	17ffffed 	b	4300271c <psci_system_suspend+0x24>

000000004300276c <psci_cpu_off>:
    4300276c:	52800040 	mov	w0, #0x2                   	// #2
    43002770:	140000f2 	b	43002b38 <psci_do_cpu_off>

0000000043002774 <psci_affinity_info>:
    43002774:	340000e1 	cbz	w1, 43002790 <psci_affinity_info+0x1c>
    43002778:	12800020 	mov	w0, #0xfffffffe            	// #-2
    4300277c:	d65f03c0 	ret
    43002780:	12800020 	mov	w0, #0xfffffffe            	// #-2
    43002784:	f9400bf3 	ldr	x19, [sp, #16]
    43002788:	a8c27bfd 	ldp	x29, x30, [sp], #32
    4300278c:	d65f03c0 	ret
    43002790:	a9be7bfd 	stp	x29, x30, [sp, #-32]!
    43002794:	910003fd 	mov	x29, sp
    43002798:	f9000bf3 	str	x19, [sp, #16]
    4300279c:	94000b36 	bl	43005474 <plat_core_pos_by_mpidr>
    430027a0:	2a0003f3 	mov	w19, w0
    430027a4:	3100041f 	cmn	w0, #0x1
    430027a8:	54fffec0 	b.eq	43002780 <psci_affinity_info+0xc>  // b.none
    430027ac:	94000e2b 	bl	43006058 <_cpu_data_by_index>
    430027b0:	91006000 	add	x0, x0, #0x18
    430027b4:	d2800081 	mov	x1, #0x4                   	// #4
    430027b8:	94000f14 	bl	43006408 <flush_dcache_range>
    430027bc:	2a1303e0 	mov	w0, w19
    430027c0:	94000e26 	bl	43006058 <_cpu_data_by_index>
    430027c4:	b9401800 	ldr	w0, [x0, #24]
    430027c8:	17ffffef 	b	43002784 <psci_affinity_info+0x10>

00000000430027cc <psci_migrate>:
    430027cc:	a9bd7bfd 	stp	x29, x30, [sp, #-48]!
    430027d0:	910003fd 	mov	x29, sp
    430027d4:	f9000bf3 	str	x19, [sp, #16]
    430027d8:	aa0003f3 	mov	x19, x0
    430027dc:	9100a3e0 	add	x0, sp, #0x28
    430027e0:	97ffff68 	bl	43002580 <psci_spd_migrate_info>
    430027e4:	340000e0 	cbz	w0, 43002800 <psci_migrate+0x34>
    430027e8:	7100041f 	cmp	w0, #0x1
    430027ec:	12800040 	mov	w0, #0xfffffffd            	// #-3
    430027f0:	5a9f0000 	csinv	w0, w0, wzr, eq  // eq = none
    430027f4:	f9400bf3 	ldr	x19, [sp, #16]
    430027f8:	a8c37bfd 	ldp	x29, x30, [sp], #48
    430027fc:	d65f03c0 	ret
    43002800:	d53800a0 	mrs	x0, mpidr_el1
    43002804:	f94017e1 	ldr	x1, [sp, #40]
    43002808:	eb00003f 	cmp	x1, x0
    4300280c:	54000161 	b.ne	43002838 <psci_migrate+0x6c>  // b.any
    43002810:	aa1303e0 	mov	x0, x19
    43002814:	97fffee4 	bl	430023a4 <psci_validate_mpidr>
    43002818:	35000140 	cbnz	w0, 43002840 <psci_migrate+0x74>
    4300281c:	d53800a0 	mrs	x0, mpidr_el1
    43002820:	b0000041 	adrp	x1, 4300b000 <__STACKS_START__+0x1f00>
    43002824:	f945e021 	ldr	x1, [x1, #3008]
    43002828:	f9401422 	ldr	x2, [x1, #40]
    4300282c:	aa1303e1 	mov	x1, x19
    43002830:	d63f0040 	blr	x2
    43002834:	17fffff0 	b	430027f4 <psci_migrate+0x28>
    43002838:	128000c0 	mov	w0, #0xfffffff9            	// #-7
    4300283c:	17ffffee 	b	430027f4 <psci_migrate+0x28>
    43002840:	12800020 	mov	w0, #0xfffffffe            	// #-2
    43002844:	17ffffec 	b	430027f4 <psci_migrate+0x28>

0000000043002848 <psci_migrate_info_type>:
    43002848:	a9be7bfd 	stp	x29, x30, [sp, #-32]!
    4300284c:	910003fd 	mov	x29, sp
    43002850:	910063e0 	add	x0, sp, #0x18
    43002854:	97ffff4b 	bl	43002580 <psci_spd_migrate_info>
    43002858:	a8c27bfd 	ldp	x29, x30, [sp], #32
    4300285c:	d65f03c0 	ret

0000000043002860 <psci_migrate_info_up_cpu>:
    43002860:	a9be7bfd 	stp	x29, x30, [sp, #-32]!
    43002864:	910003fd 	mov	x29, sp
    43002868:	910063e0 	add	x0, sp, #0x18
    4300286c:	97ffff45 	bl	43002580 <psci_spd_migrate_info>
    43002870:	f9400fe1 	ldr	x1, [sp, #24]
    43002874:	7100041f 	cmp	w0, #0x1
    43002878:	a8c27bfd 	ldp	x29, x30, [sp], #32
    4300287c:	92800020 	mov	x0, #0xfffffffffffffffe    	// #-2
    43002880:	9a809020 	csel	x0, x1, x0, ls  // ls = plast
    43002884:	d65f03c0 	ret

0000000043002888 <psci_node_hw_state>:
    43002888:	a9be7bfd 	stp	x29, x30, [sp, #-32]!
    4300288c:	910003fd 	mov	x29, sp
    43002890:	a90153f3 	stp	x19, x20, [sp, #16]
    43002894:	aa0003f4 	mov	x20, x0
    43002898:	2a0103f3 	mov	w19, w1
    4300289c:	97fffec2 	bl	430023a4 <psci_validate_mpidr>
    430028a0:	35000180 	cbnz	w0, 430028d0 <psci_node_hw_state+0x48>
    430028a4:	71000a7f 	cmp	w19, #0x2
    430028a8:	54000148 	b.hi	430028d0 <psci_node_hw_state+0x48>  // b.pmore
    430028ac:	b0000040 	adrp	x0, 4300b000 <__STACKS_START__+0x1f00>
    430028b0:	2a1303e1 	mov	w1, w19
    430028b4:	f945dc00 	ldr	x0, [x0, #3000]
    430028b8:	f9404402 	ldr	x2, [x0, #136]
    430028bc:	aa1403e0 	mov	x0, x20
    430028c0:	a94153f3 	ldp	x19, x20, [sp, #16]
    430028c4:	aa0203f0 	mov	x16, x2
    430028c8:	a8c27bfd 	ldp	x29, x30, [sp], #32
    430028cc:	d61f0200 	br	x16
    430028d0:	12800020 	mov	w0, #0xfffffffe            	// #-2
    430028d4:	a94153f3 	ldp	x19, x20, [sp, #16]
    430028d8:	a8c27bfd 	ldp	x29, x30, [sp], #32
    430028dc:	d65f03c0 	ret

00000000430028e0 <psci_features>:
    430028e0:	d0000041 	adrp	x1, 4300c000 <dormant_data+0x10>
    430028e4:	52b00002 	mov	w2, #0x80000000            	// #-2147483648
    430028e8:	b9414421 	ldr	w1, [x1, #324]
    430028ec:	6b02001f 	cmp	w0, w2
    430028f0:	54000240 	b.eq	43002938 <psci_features+0x58>  // b.none
    430028f4:	36f00080 	tbz	w0, #30, 43002904 <psci_features+0x24>
    430028f8:	528c1742 	mov	w2, #0x60ba                	// #24762
    430028fc:	72a002e2 	movk	w2, #0x17, lsl #16
    43002900:	0a020021 	and	w1, w1, w2
    43002904:	d3587402 	ubfx	x2, x0, #24, #6
    43002908:	7100105f 	cmp	w2, #0x4
    4300290c:	540001a1 	b.ne	43002940 <psci_features+0x60>  // b.any
    43002910:	d3505c04 	ubfx	x4, x0, #16, #8
    43002914:	531f7c02 	lsr	w2, w0, #31
    43002918:	36f80140 	tbz	w0, #31, 43002940 <psci_features+0x60>
    4300291c:	121b2803 	and	w3, w0, #0xffe0
    43002920:	2a040063 	orr	w3, w3, w4
    43002924:	350000e3 	cbnz	w3, 43002940 <psci_features+0x60>
    43002928:	1ac02040 	lsl	w0, w2, w0
    4300292c:	6a01001f 	tst	w0, w1
    43002930:	5a9f13e0 	csetm	w0, eq  // eq = none
    43002934:	d65f03c0 	ret
    43002938:	52800000 	mov	w0, #0x0                   	// #0
    4300293c:	17fffffe 	b	43002934 <psci_features+0x54>
    43002940:	12800000 	mov	w0, #0xffffffff            	// #-1
    43002944:	17fffffc 	b	43002934 <psci_features+0x54>

0000000043002948 <psci_smc_handler>:
    43002948:	360009e7 	tbz	w7, #0, 43002a84 <psci_smc_handler+0x13c>
    4300294c:	d0000045 	adrp	x5, 4300c000 <dormant_data+0x10>
    43002950:	2a0003e4 	mov	w4, w0
    43002954:	aa0103e0 	mov	x0, x1
    43002958:	aa0203e1 	mov	x1, x2
    4300295c:	b94144a5 	ldr	w5, [x5, #324]
    43002960:	aa0303e2 	mov	x2, x3
    43002964:	52800023 	mov	w3, #0x1                   	// #1
    43002968:	1ac42063 	lsl	w3, w3, w4
    4300296c:	6a05007f 	tst	w3, w5
    43002970:	540008a0 	b.eq	43002a84 <psci_smc_handler+0x13c>  // b.none
    43002974:	a9bf7bfd 	stp	x29, x30, [sp, #-16]!
    43002978:	910003fd 	mov	x29, sp
    4300297c:	37f00704 	tbnz	w4, #30, 43002a5c <psci_smc_handler+0x114>
    43002980:	52af8003 	mov	w3, #0x7c000000            	// #2080374784
    43002984:	0b030084 	add	w4, w4, w3
    43002988:	7100509f 	cmp	w4, #0x14
    4300298c:	54000808 	b.hi	43002a8c <psci_smc_handler+0x144>  // b.pmore
    43002990:	b0000023 	adrp	x3, 43007000 <vprintf+0x1d0>
    43002994:	91282063 	add	x3, x3, #0xa08
    43002998:	38644863 	ldrb	w3, [x3, w4, uxtw]
    4300299c:	10000064 	adr	x4, 430029a8 <psci_smc_handler+0x60>
    430029a0:	8b238883 	add	x3, x4, w3, sxtb #2
    430029a4:	d61f0060 	br	x3
    430029a8:	320083e0 	mov	w0, #0x10001               	// #65537
    430029ac:	a8c17bfd 	ldp	x29, x30, [sp], #16
    430029b0:	d65f03c0 	ret
    430029b4:	97ffff6e 	bl	4300276c <psci_cpu_off>
    430029b8:	93407c00 	sxtw	x0, w0
    430029bc:	17fffffc 	b	430029ac <psci_smc_handler+0x64>
    430029c0:	2a0203e2 	mov	w2, w2
    430029c4:	2a0103e1 	mov	w1, w1
    430029c8:	97ffff10 	bl	43002608 <psci_cpu_suspend>
    430029cc:	17fffffb 	b	430029b8 <psci_smc_handler+0x70>
    430029d0:	2a0203e2 	mov	w2, w2
    430029d4:	2a0103e1 	mov	w1, w1
    430029d8:	2a0003e0 	mov	w0, w0
    430029dc:	97fffef4 	bl	430025ac <psci_cpu_on>
    430029e0:	17fffff6 	b	430029b8 <psci_smc_handler+0x70>
    430029e4:	2a0003e0 	mov	w0, w0
    430029e8:	97ffff63 	bl	43002774 <psci_affinity_info>
    430029ec:	17fffff3 	b	430029b8 <psci_smc_handler+0x70>
    430029f0:	2a0003e0 	mov	w0, w0
    430029f4:	97ffff76 	bl	430027cc <psci_migrate>
    430029f8:	17fffff0 	b	430029b8 <psci_smc_handler+0x70>
    430029fc:	97ffff93 	bl	43002848 <psci_migrate_info_type>
    43002a00:	17ffffee 	b	430029b8 <psci_smc_handler+0x70>
    43002a04:	a8c17bfd 	ldp	x29, x30, [sp], #16
    43002a08:	17ffff96 	b	43002860 <psci_migrate_info_up_cpu>
    43002a0c:	2a0003e0 	mov	w0, w0
    43002a10:	97ffff9e 	bl	43002888 <psci_node_hw_state>
    43002a14:	17ffffe9 	b	430029b8 <psci_smc_handler+0x70>
    43002a18:	2a0103e1 	mov	w1, w1
    43002a1c:	2a0003e0 	mov	w0, w0
    43002a20:	97ffff36 	bl	430026f8 <psci_system_suspend>
    43002a24:	17ffffe5 	b	430029b8 <psci_smc_handler+0x70>
    43002a28:	9400028c 	bl	43003458 <psci_system_off>
    43002a2c:	94000299 	bl	43003490 <psci_system_reset>
    43002a30:	97ffffac 	bl	430028e0 <psci_features>
    43002a34:	17ffffe1 	b	430029b8 <psci_smc_handler+0x70>
    43002a38:	a8c17bfd 	ldp	x29, x30, [sp], #16
    43002a3c:	14000016 	b	43002a94 <psci_mem_protect>
    43002a40:	2a0103e1 	mov	w1, w1
    43002a44:	2a0003e0 	mov	w0, w0
    43002a48:	a8c17bfd 	ldp	x29, x30, [sp], #16
    43002a4c:	14000029 	b	43002af0 <psci_mem_chk_range>
    43002a50:	2a0103e1 	mov	w1, w1
    43002a54:	a8c17bfd 	ldp	x29, x30, [sp], #16
    43002a58:	1400029c 	b	430034c8 <psci_system_reset2>
    43002a5c:	12b88003 	mov	w3, #0x3bffffff            	// #1006632959
    43002a60:	0b030084 	add	w4, w4, w3
    43002a64:	71004c9f 	cmp	w4, #0x13
    43002a68:	54000128 	b.hi	43002a8c <psci_smc_handler+0x144>  // b.pmore
    43002a6c:	b0000023 	adrp	x3, 43007000 <vprintf+0x1d0>
    43002a70:	91288063 	add	x3, x3, #0xa20
    43002a74:	38644863 	ldrb	w3, [x3, w4, uxtw]
    43002a78:	10000064 	adr	x4, 43002a84 <psci_smc_handler+0x13c>
    43002a7c:	8b238883 	add	x3, x4, w3, sxtb #2
    43002a80:	d61f0060 	br	x3
    43002a84:	92800000 	mov	x0, #0xffffffffffffffff    	// #-1
    43002a88:	d65f03c0 	ret
    43002a8c:	92800000 	mov	x0, #0xffffffffffffffff    	// #-1
    43002a90:	17ffffc7 	b	430029ac <psci_smc_handler+0x64>

0000000043002a94 <psci_mem_protect>:
    43002a94:	a9bd7bfd 	stp	x29, x30, [sp, #-48]!
    43002a98:	910003fd 	mov	x29, sp
    43002a9c:	a90153f3 	stp	x19, x20, [sp, #16]
    43002aa0:	b0000054 	adrp	x20, 4300b000 <__STACKS_START__+0x1f00>
    43002aa4:	2a0003f3 	mov	w19, w0
    43002aa8:	f945de80 	ldr	x0, [x20, #3000]
    43002aac:	f9404c01 	ldr	x1, [x0, #152]
    43002ab0:	9100b3e0 	add	x0, sp, #0x2c
    43002ab4:	d63f0020 	blr	x1
    43002ab8:	36f800a0 	tbz	w0, #31, 43002acc <psci_mem_protect+0x38>
    43002abc:	92800000 	mov	x0, #0xffffffffffffffff    	// #-1
    43002ac0:	a94153f3 	ldp	x19, x20, [sp, #16]
    43002ac4:	a8c37bfd 	ldp	x29, x30, [sp], #48
    43002ac8:	d65f03c0 	ret
    43002acc:	f945de80 	ldr	x0, [x20, #3000]
    43002ad0:	f9405001 	ldr	x1, [x0, #160]
    43002ad4:	2a1303e0 	mov	w0, w19
    43002ad8:	d63f0020 	blr	x1
    43002adc:	37ffff00 	tbnz	w0, #31, 43002abc <psci_mem_protect+0x28>
    43002ae0:	b9402fe0 	ldr	w0, [sp, #44]
    43002ae4:	7100001f 	cmp	w0, #0x0
    43002ae8:	9a9f07e0 	cset	x0, ne  // ne = any
    43002aec:	17fffff5 	b	43002ac0 <psci_mem_protect+0x2c>

0000000043002af0 <psci_mem_chk_range>:
    43002af0:	b50000c1 	cbnz	x1, 43002b08 <psci_mem_chk_range+0x18>
    43002af4:	92800040 	mov	x0, #0xfffffffffffffffd    	// #-3
    43002af8:	d65f03c0 	ret
    43002afc:	92800040 	mov	x0, #0xfffffffffffffffd    	// #-3
    43002b00:	a8c17bfd 	ldp	x29, x30, [sp], #16
    43002b04:	d65f03c0 	ret
    43002b08:	cb0103e2 	neg	x2, x1
    43002b0c:	eb00005f 	cmp	x2, x0
    43002b10:	54ffff23 	b.cc	43002af4 <psci_mem_chk_range+0x4>  // b.lo, b.ul, b.last
    43002b14:	a9bf7bfd 	stp	x29, x30, [sp, #-16]!
    43002b18:	b0000042 	adrp	x2, 4300b000 <__STACKS_START__+0x1f00>
    43002b1c:	910003fd 	mov	x29, sp
    43002b20:	f945dc42 	ldr	x2, [x2, #3000]
    43002b24:	f9404842 	ldr	x2, [x2, #144]
    43002b28:	d63f0040 	blr	x2
    43002b2c:	37fffe80 	tbnz	w0, #31, 43002afc <psci_mem_chk_range+0xc>
    43002b30:	d2800000 	mov	x0, #0x0                   	// #0
    43002b34:	17fffff3 	b	43002b00 <psci_mem_chk_range+0x10>

0000000043002b38 <psci_do_cpu_off>:
    43002b38:	a9bc7bfd 	stp	x29, x30, [sp, #-64]!
    43002b3c:	910003fd 	mov	x29, sp
    43002b40:	a90153f3 	stp	x19, x20, [sp, #16]
    43002b44:	2a0003f4 	mov	w20, w0
    43002b48:	a9025bf5 	stp	x21, x22, [sp, #32]
    43002b4c:	94000dfb 	bl	43006338 <plat_my_core_pos>
    43002b50:	b0000055 	adrp	x21, 4300b000 <__STACKS_START__+0x1f00>
    43002b54:	2a0003f6 	mov	w22, w0
    43002b58:	52800040 	mov	w0, #0x2                   	// #2
    43002b5c:	3900c3e0 	strb	w0, [sp, #48]
    43002b60:	3900c7e0 	strb	w0, [sp, #49]
    43002b64:	3900cbe0 	strb	w0, [sp, #50]
    43002b68:	f945dea0 	ldr	x0, [x21, #3000]
    43002b6c:	f9001fff 	str	xzr, [sp, #56]
    43002b70:	f9400c01 	ldr	x1, [x0, #24]
    43002b74:	b4000161 	cbz	x1, 43002ba0 <psci_do_cpu_off+0x68>
    43002b78:	9100c3e0 	add	x0, sp, #0x30
    43002b7c:	d63f0020 	blr	x1
    43002b80:	2a0003f3 	mov	w19, w0
    43002b84:	31000c1f 	cmn	w0, #0x3
    43002b88:	540000e1 	b.ne	43002ba4 <psci_do_cpu_off+0x6c>  // b.any
    43002b8c:	2a1303e0 	mov	w0, w19
    43002b90:	a94153f3 	ldp	x19, x20, [sp, #16]
    43002b94:	a9425bf5 	ldp	x21, x22, [sp, #32]
    43002b98:	a8c47bfd 	ldp	x29, x30, [sp], #64
    43002b9c:	d65f03c0 	ret
    43002ba0:	52800013 	mov	w19, #0x0                   	// #0
    43002ba4:	9100e3e2 	add	x2, sp, #0x38
    43002ba8:	2a1403e1 	mov	w1, w20
    43002bac:	2a1603e0 	mov	w0, w22
    43002bb0:	97fffd35 	bl	43002084 <psci_get_parent_pwr_domain_nodes>
    43002bb4:	2a1403e0 	mov	w0, w20
    43002bb8:	9100e3e1 	add	x1, sp, #0x38
    43002bbc:	97fffdc9 	bl	430022e0 <psci_acquire_pwr_domain_locks>
    43002bc0:	b0000040 	adrp	x0, 4300b000 <__STACKS_START__+0x1f00>
    43002bc4:	f945e000 	ldr	x0, [x0, #3008]
    43002bc8:	b40000e0 	cbz	x0, 43002be4 <psci_do_cpu_off+0xac>
    43002bcc:	f9400401 	ldr	x1, [x0, #8]
    43002bd0:	b40000a1 	cbz	x1, 43002be4 <psci_do_cpu_off+0xac>
    43002bd4:	d2800000 	mov	x0, #0x0                   	// #0
    43002bd8:	d63f0020 	blr	x1
    43002bdc:	2a0003f3 	mov	w19, w0
    43002be0:	350001c0 	cbnz	w0, 43002c18 <psci_do_cpu_off+0xe0>
    43002be4:	9100c3e1 	add	x1, sp, #0x30
    43002be8:	2a1403e0 	mov	w0, w20
    43002bec:	97fffd5b 	bl	43002158 <psci_do_state_coordination>
    43002bf0:	9100c3e1 	add	x1, sp, #0x30
    43002bf4:	2a1403e0 	mov	w0, w20
    43002bf8:	97fffd02 	bl	43002000 <psci_set_target_local_pwr_states>
    43002bfc:	9100c3e0 	add	x0, sp, #0x30
    43002c00:	97fffd9c 	bl	43002270 <psci_find_max_off_lvl>
    43002c04:	97fffe69 	bl	430025a8 <psci_pwrdown_cpu>
    43002c08:	f945dea0 	ldr	x0, [x21, #3000]
    43002c0c:	f9400801 	ldr	x1, [x0, #16]
    43002c10:	9100c3e0 	add	x0, sp, #0x30
    43002c14:	d63f0020 	blr	x1
    43002c18:	9100e3e1 	add	x1, sp, #0x38
    43002c1c:	2a1403e0 	mov	w0, w20
    43002c20:	97fffdcb 	bl	4300234c <psci_release_pwr_domain_locks>
    43002c24:	35fffb53 	cbnz	w19, 43002b8c <psci_do_cpu_off+0x54>
    43002c28:	d53ed040 	mrs	x0, tpidr_el3
    43002c2c:	d2800081 	mov	x1, #0x4                   	// #4
    43002c30:	91006000 	add	x0, x0, #0x18
    43002c34:	94000df5 	bl	43006408 <flush_dcache_range>
    43002c38:	d53ed040 	mrs	x0, tpidr_el3
    43002c3c:	52800021 	mov	w1, #0x1                   	// #1
    43002c40:	b9001801 	str	w1, [x0, #24]
    43002c44:	d5033b9f 	dsb	ish
    43002c48:	d53ed040 	mrs	x0, tpidr_el3
    43002c4c:	d2800081 	mov	x1, #0x4                   	// #4
    43002c50:	91006000 	add	x0, x0, #0x18
    43002c54:	94000e09 	bl	43006478 <inv_dcache_range>
    43002c58:	f945dea0 	ldr	x0, [x21, #3000]
    43002c5c:	f9402401 	ldr	x1, [x0, #72]
    43002c60:	b4000061 	cbz	x1, 43002c6c <psci_do_cpu_off+0x134>
    43002c64:	9100c3e0 	add	x0, sp, #0x30
    43002c68:	d63f0020 	blr	x1
    43002c6c:	94000d27 	bl	43006108 <psci_power_down_wfi>

0000000043002c70 <psci_cpu_on_start>:
    43002c70:	a9bc7bfd 	stp	x29, x30, [sp, #-64]!
    43002c74:	910003fd 	mov	x29, sp
    43002c78:	a90153f3 	stp	x19, x20, [sp, #16]
    43002c7c:	aa0003f4 	mov	x20, x0
    43002c80:	a9025bf5 	stp	x21, x22, [sp, #32]
    43002c84:	aa0103f6 	mov	x22, x1
    43002c88:	d2800195 	mov	x21, #0xc                   	// #12
    43002c8c:	f9001bf7 	str	x23, [sp, #48]
    43002c90:	940009f9 	bl	43005474 <plat_core_pos_by_mpidr>
    43002c94:	b0000042 	adrp	x2, 4300b000 <__STACKS_START__+0x1f00>
    43002c98:	912de042 	add	x2, x2, #0xb78
    43002c9c:	8b2052b5 	add	x21, x21, w0, uxtw #4
    43002ca0:	2a0003f3 	mov	w19, w0
    43002ca4:	8b0202b5 	add	x21, x21, x2
    43002ca8:	aa1503e0 	mov	x0, x21
    43002cac:	94000cf1 	bl	43006070 <spin_lock>
    43002cb0:	2a1303e0 	mov	w0, w19
    43002cb4:	94000ce9 	bl	43006058 <_cpu_data_by_index>
    43002cb8:	d2800081 	mov	x1, #0x4                   	// #4
    43002cbc:	91006000 	add	x0, x0, #0x18
    43002cc0:	94000dd2 	bl	43006408 <flush_dcache_range>
    43002cc4:	2a1303e0 	mov	w0, w19
    43002cc8:	94000ce4 	bl	43006058 <_cpu_data_by_index>
    43002ccc:	b9401800 	ldr	w0, [x0, #24]
    43002cd0:	34000780 	cbz	w0, 43002dc0 <psci_cpu_on_start+0x150>
    43002cd4:	7100081f 	cmp	w0, #0x2
    43002cd8:	54000780 	b.eq	43002dc8 <psci_cpu_on_start+0x158>  // b.none
    43002cdc:	b0000040 	adrp	x0, 4300b000 <__STACKS_START__+0x1f00>
    43002ce0:	f945e000 	ldr	x0, [x0, #3008]
    43002ce4:	b40000a0 	cbz	x0, 43002cf8 <psci_cpu_on_start+0x88>
    43002ce8:	f9400001 	ldr	x1, [x0]
    43002cec:	b4000061 	cbz	x1, 43002cf8 <psci_cpu_on_start+0x88>
    43002cf0:	aa1403e0 	mov	x0, x20
    43002cf4:	d63f0020 	blr	x1
    43002cf8:	2a1303e0 	mov	w0, w19
    43002cfc:	52800057 	mov	w23, #0x2                   	// #2
    43002d00:	94000cd6 	bl	43006058 <_cpu_data_by_index>
    43002d04:	b9001817 	str	w23, [x0, #24]
    43002d08:	2a1303e0 	mov	w0, w19
    43002d0c:	94000cd3 	bl	43006058 <_cpu_data_by_index>
    43002d10:	91006000 	add	x0, x0, #0x18
    43002d14:	d2800081 	mov	x1, #0x4                   	// #4
    43002d18:	94000dbc 	bl	43006408 <flush_dcache_range>
    43002d1c:	2a1303e0 	mov	w0, w19
    43002d20:	94000cce 	bl	43006058 <_cpu_data_by_index>
    43002d24:	b9401800 	ldr	w0, [x0, #24]
    43002d28:	6b17001f 	cmp	w0, w23
    43002d2c:	54000120 	b.eq	43002d50 <psci_cpu_on_start+0xe0>  // b.none
    43002d30:	2a1303e0 	mov	w0, w19
    43002d34:	94000cc9 	bl	43006058 <_cpu_data_by_index>
    43002d38:	b9001817 	str	w23, [x0, #24]
    43002d3c:	2a1303e0 	mov	w0, w19
    43002d40:	94000cc6 	bl	43006058 <_cpu_data_by_index>
    43002d44:	91006000 	add	x0, x0, #0x18
    43002d48:	d2800081 	mov	x1, #0x4                   	// #4
    43002d4c:	94000daf 	bl	43006408 <flush_dcache_range>
    43002d50:	b0000040 	adrp	x0, 4300b000 <__STACKS_START__+0x1f00>
    43002d54:	f945dc00 	ldr	x0, [x0, #3000]
    43002d58:	f9400401 	ldr	x1, [x0, #8]
    43002d5c:	aa1403e0 	mov	x0, x20
    43002d60:	d63f0020 	blr	x1
    43002d64:	2a0003f4 	mov	w20, w0
    43002d68:	35000180 	cbnz	w0, 43002d98 <psci_cpu_on_start+0x128>
    43002d6c:	aa1603e1 	mov	x1, x22
    43002d70:	2a1303e0 	mov	w0, w19
    43002d74:	97fffb6b 	bl	43001b20 <cm_init_context_by_index>
    43002d78:	aa1503e0 	mov	x0, x21
    43002d7c:	94000cc5 	bl	43006090 <spin_unlock>
    43002d80:	2a1403e0 	mov	w0, w20
    43002d84:	a94153f3 	ldp	x19, x20, [sp, #16]
    43002d88:	a9425bf5 	ldp	x21, x22, [sp, #32]
    43002d8c:	f9401bf7 	ldr	x23, [sp, #48]
    43002d90:	a8c47bfd 	ldp	x29, x30, [sp], #64
    43002d94:	d65f03c0 	ret
    43002d98:	2a1303e0 	mov	w0, w19
    43002d9c:	94000caf 	bl	43006058 <_cpu_data_by_index>
    43002da0:	52800021 	mov	w1, #0x1                   	// #1
    43002da4:	b9001801 	str	w1, [x0, #24]
    43002da8:	2a1303e0 	mov	w0, w19
    43002dac:	94000cab 	bl	43006058 <_cpu_data_by_index>
    43002db0:	91006000 	add	x0, x0, #0x18
    43002db4:	d2800081 	mov	x1, #0x4                   	// #4
    43002db8:	94000d94 	bl	43006408 <flush_dcache_range>
    43002dbc:	17ffffef 	b	43002d78 <psci_cpu_on_start+0x108>
    43002dc0:	12800074 	mov	w20, #0xfffffffc            	// #-4
    43002dc4:	17ffffed 	b	43002d78 <psci_cpu_on_start+0x108>
    43002dc8:	12800094 	mov	w20, #0xfffffffb            	// #-5
    43002dcc:	17ffffeb 	b	43002d78 <psci_cpu_on_start+0x108>

0000000043002dd0 <psci_cpu_on_finish>:
    43002dd0:	a9bd7bfd 	stp	x29, x30, [sp, #-48]!
    43002dd4:	910003fd 	mov	x29, sp
    43002dd8:	a9025bf5 	stp	x21, x22, [sp, #32]
    43002ddc:	b0000055 	adrp	x21, 4300b000 <__STACKS_START__+0x1f00>
    43002de0:	a90153f3 	stp	x19, x20, [sp, #16]
    43002de4:	2a0003f3 	mov	w19, w0
    43002de8:	aa0103f4 	mov	x20, x1
    43002dec:	f945dea0 	ldr	x0, [x21, #3000]
    43002df0:	f9401801 	ldr	x1, [x0, #48]
    43002df4:	aa1403e0 	mov	x0, x20
    43002df8:	d63f0020 	blr	x1
    43002dfc:	94000cb6 	bl	430060d4 <psci_do_pwrup_cache_maintenance>
    43002e00:	f945dea0 	ldr	x0, [x21, #3000]
    43002e04:	f9401c01 	ldr	x1, [x0, #56]
    43002e08:	b4000061 	cbz	x1, 43002e14 <psci_cpu_on_finish+0x44>
    43002e0c:	aa1403e0 	mov	x0, x20
    43002e10:	d63f0020 	blr	x1
    43002e14:	d2800194 	mov	x20, #0xc                   	// #12
    43002e18:	b0000055 	adrp	x21, 4300b000 <__STACKS_START__+0x1f00>
    43002e1c:	8b335294 	add	x20, x20, w19, uxtw #4
    43002e20:	912de2b5 	add	x21, x21, #0xb78
    43002e24:	8b150294 	add	x20, x20, x21
    43002e28:	9400001f 	bl	43002ea4 <psci_arch_setup>
    43002e2c:	aa1403e0 	mov	x0, x20
    43002e30:	94000c90 	bl	43006070 <spin_lock>
    43002e34:	aa1403e0 	mov	x0, x20
    43002e38:	94000c96 	bl	43006090 <spin_unlock>
    43002e3c:	b0000040 	adrp	x0, 4300b000 <__STACKS_START__+0x1f00>
    43002e40:	f945e000 	ldr	x0, [x0, #3008]
    43002e44:	b40000a0 	cbz	x0, 43002e58 <psci_cpu_on_finish+0x88>
    43002e48:	f9400c01 	ldr	x1, [x0, #24]
    43002e4c:	b4000061 	cbz	x1, 43002e58 <psci_cpu_on_finish+0x88>
    43002e50:	d2800000 	mov	x0, #0x0                   	// #0
    43002e54:	d63f0020 	blr	x1
    43002e58:	d0000034 	adrp	x20, 43008000 <INFRA_AO_SYS0_Devices+0x288>
    43002e5c:	d0000036 	adrp	x22, 43008000 <INFRA_AO_SYS0_Devices+0x288>
    43002e60:	911ee294 	add	x20, x20, #0x7b8
    43002e64:	911ee2d6 	add	x22, x22, #0x7b8
    43002e68:	eb16029f 	cmp	x20, x22
    43002e6c:	54000143 	b.cc	43002e94 <psci_cpu_on_finish+0xc4>  // b.lo, b.ul, b.last
    43002e70:	d53800a1 	mrs	x1, mpidr_el1
    43002e74:	d37c7e73 	ubfiz	x19, x19, #4, #32
    43002e78:	92409c21 	and	x1, x1, #0xffffffffff
    43002e7c:	9260dc21 	and	x1, x1, #0xffffffff00ffffff
    43002e80:	f8336aa1 	str	x1, [x21, x19]
    43002e84:	a94153f3 	ldp	x19, x20, [sp, #16]
    43002e88:	a9425bf5 	ldp	x21, x22, [sp, #32]
    43002e8c:	a8c37bfd 	ldp	x29, x30, [sp], #48
    43002e90:	17fffb96 	b	43001ce8 <cm_prepare_el3_exit_ns>
    43002e94:	f8408681 	ldr	x1, [x20], #8
    43002e98:	d2800000 	mov	x0, #0x0                   	// #0
    43002e9c:	d63f0020 	blr	x1
    43002ea0:	17fffff2 	b	43002e68 <psci_cpu_on_finish+0x98>

0000000043002ea4 <psci_arch_setup>:
    43002ea4:	a9bf7bfd 	stp	x29, x30, [sp, #-16]!
    43002ea8:	910003fd 	mov	x29, sp
    43002eac:	940005ac 	bl	4300455c <plat_get_syscnt_freq2>
    43002eb0:	2a0003e0 	mov	w0, w0
    43002eb4:	d51be000 	msr	cntfrq_el0, x0
    43002eb8:	94000bbf 	bl	43005db4 <init_cpu_ops>
    43002ebc:	a8c17bfd 	ldp	x29, x30, [sp], #16
    43002ec0:	17fffabc 	b	430019b0 <print_errata_status>

0000000043002ec4 <psci_setup>:
    43002ec4:	a9b87bfd 	stp	x29, x30, [sp, #-128]!
    43002ec8:	910003fd 	mov	x29, sp
    43002ecc:	a90153f3 	stp	x19, x20, [sp, #16]
    43002ed0:	52800013 	mov	w19, #0x0                   	// #0
    43002ed4:	a9025bf5 	stp	x21, x22, [sp, #32]
    43002ed8:	aa0003f5 	mov	x21, x0
    43002edc:	b0000056 	adrp	x22, 4300b000 <__STACKS_START__+0x1f00>
    43002ee0:	a90363f7 	stp	x23, x24, [sp, #48]
    43002ee4:	910802d6 	add	x22, x22, #0x200
    43002ee8:	52800017 	mov	w23, #0x0                   	// #0
    43002eec:	a9046bf9 	stp	x25, x26, [sp, #64]
    43002ef0:	b000005a 	adrp	x26, 4300b000 <__STACKS_START__+0x1f00>
    43002ef4:	912de35a 	add	x26, x26, #0xb78
    43002ef8:	a90573fb 	stp	x27, x28, [sp, #80]
    43002efc:	97ffffea 	bl	43002ea4 <psci_arch_setup>
    43002f00:	9400095a 	bl	43005468 <plat_get_power_domain_tree_desc>
    43002f04:	aa0003fb 	mov	x27, x0
    43002f08:	52800001 	mov	w1, #0x0                   	// #0
    43002f0c:	52800039 	mov	w25, #0x1                   	// #1
    43002f10:	52800058 	mov	w24, #0x2                   	// #2
    43002f14:	0b170323 	add	w3, w25, w23
    43002f18:	52800019 	mov	w25, #0x0                   	// #0
    43002f1c:	14000009 	b	43002f40 <psci_setup+0x7c>
    43002f20:	38774b7c 	ldrb	w28, [x27, w23, uxtw]
    43002f24:	2a0103f3 	mov	w19, w1
    43002f28:	0b010384 	add	w4, w28, w1
    43002f2c:	6b04027f 	cmp	w19, w4
    43002f30:	54000d83 	b.cc	430030e0 <psci_setup+0x21c>  // b.lo, b.ul, b.last
    43002f34:	0b1c0339 	add	w25, w25, w28
    43002f38:	110006f7 	add	w23, w23, #0x1
    43002f3c:	2a1303e1 	mov	w1, w19
    43002f40:	6b17007f 	cmp	w3, w23
    43002f44:	54fffee1 	b.ne	43002f20 <psci_setup+0x5c>  // b.any
    43002f48:	71000718 	subs	w24, w24, #0x1
    43002f4c:	540011a0 	b.eq	43003180 <psci_setup+0x2bc>  // b.none
    43002f50:	3100071f 	cmn	w24, #0x1
    43002f54:	54fffe01 	b.ne	43002f14 <psci_setup+0x50>  // b.any
    43002f58:	d0000040 	adrp	x0, 4300c000 <dormant_data+0x10>
    43002f5c:	900000b4 	adrp	x20, 43016000 <psci_locks>
    43002f60:	91050016 	add	x22, x0, #0x140
    43002f64:	91008294 	add	x20, x20, #0x20
    43002f68:	b9014013 	str	w19, [x0, #320]
    43002f6c:	52800018 	mov	w24, #0x0                   	// #0
    43002f70:	52800017 	mov	w23, #0x0                   	// #0
    43002f74:	52800013 	mov	w19, #0x0                   	// #0
    43002f78:	b94002c0 	ldr	w0, [x22]
    43002f7c:	6b00027f 	cmp	w19, w0
    43002f80:	54001043 	b.cc	43003188 <psci_setup+0x2c4>  // b.lo, b.ul, b.last
    43002f84:	d53800b3 	mrs	x19, mpidr_el1
    43002f88:	94000cec 	bl	43006338 <plat_my_core_pos>
    43002f8c:	d37c7c00 	ubfiz	x0, x0, #4, #32
    43002f90:	b0000042 	adrp	x2, 4300b000 <__STACKS_START__+0x1f00>
    43002f94:	912de042 	add	x2, x2, #0xb78
    43002f98:	92409e61 	and	x1, x19, #0xffffffffff
    43002f9c:	b0000053 	adrp	x19, 4300b000 <__STACKS_START__+0x1f00>
    43002fa0:	9260dc21 	and	x1, x1, #0xffffffff00ffffff
    43002fa4:	912ee274 	add	x20, x19, #0xbb8
    43002fa8:	f8206841 	str	x1, [x2, x0]
    43002fac:	97fffbdb 	bl	43001f18 <psci_init_req_local_pwr_states>
    43002fb0:	52800040 	mov	w0, #0x2                   	// #2
    43002fb4:	97fffc46 	bl	430020cc <psci_set_pwr_domains_to_run>
    43002fb8:	f94006a0 	ldr	x0, [x21, #8]
    43002fbc:	aa1403e1 	mov	x1, x20
    43002fc0:	94000899 	bl	43005224 <plat_setup_psci_ops>
    43002fc4:	aa1403e0 	mov	x0, x20
    43002fc8:	d2800101 	mov	x1, #0x8                   	// #8
    43002fcc:	94000d0f 	bl	43006408 <flush_dcache_range>
    43002fd0:	f945de61 	ldr	x1, [x19, #3000]
    43002fd4:	52808223 	mov	w3, #0x411                 	// #1041
    43002fd8:	d0000040 	adrp	x0, 4300c000 <dormant_data+0x10>
    43002fdc:	f9400822 	ldr	x2, [x1, #16]
    43002fe0:	f100005f 	cmp	x2, #0x0
    43002fe4:	528082a2 	mov	w2, #0x415                 	// #1045
    43002fe8:	1a831042 	csel	w2, w2, w3, ne  // ne = any
    43002fec:	b9014402 	str	w2, [x0, #324]
    43002ff0:	f9400423 	ldr	x3, [x1, #8]
    43002ff4:	b40000a3 	cbz	x3, 43003008 <psci_setup+0x144>
    43002ff8:	f9401823 	ldr	x3, [x1, #48]
    43002ffc:	b4000063 	cbz	x3, 43003008 <psci_setup+0x144>
    43003000:	321d0042 	orr	w2, w2, #0x8
    43003004:	b9014402 	str	w2, [x0, #324]
    43003008:	f9401422 	ldr	x2, [x1, #40]
    4300300c:	b40001a2 	cbz	x2, 43003040 <psci_setup+0x17c>
    43003010:	f9402022 	ldr	x2, [x1, #64]
    43003014:	b4000162 	cbz	x2, 43003040 <psci_setup+0x17c>
    43003018:	f9403022 	ldr	x2, [x1, #96]
    4300301c:	b4000082 	cbz	x2, 4300302c <psci_setup+0x168>
    43003020:	b9414402 	ldr	w2, [x0, #324]
    43003024:	321f0042 	orr	w2, w2, #0x2
    43003028:	b9014402 	str	w2, [x0, #324]
    4300302c:	f9403822 	ldr	x2, [x1, #112]
    43003030:	b4000082 	cbz	x2, 43003040 <psci_setup+0x17c>
    43003034:	b9414402 	ldr	w2, [x0, #324]
    43003038:	32120042 	orr	w2, w2, #0x4000
    4300303c:	b9014402 	str	w2, [x0, #324]
    43003040:	f9402822 	ldr	x2, [x1, #80]
    43003044:	b4000082 	cbz	x2, 43003054 <psci_setup+0x190>
    43003048:	b9414402 	ldr	w2, [x0, #324]
    4300304c:	32180042 	orr	w2, w2, #0x100
    43003050:	b9014402 	str	w2, [x0, #324]
    43003054:	f9402c22 	ldr	x2, [x1, #88]
    43003058:	b4000082 	cbz	x2, 43003068 <psci_setup+0x1a4>
    4300305c:	b9414402 	ldr	w2, [x0, #324]
    43003060:	32170042 	orr	w2, w2, #0x200
    43003064:	b9014402 	str	w2, [x0, #324]
    43003068:	f9404422 	ldr	x2, [x1, #136]
    4300306c:	b4000082 	cbz	x2, 4300307c <psci_setup+0x1b8>
    43003070:	b9414402 	ldr	w2, [x0, #324]
    43003074:	32130042 	orr	w2, w2, #0x2000
    43003078:	b9014402 	str	w2, [x0, #324]
    4300307c:	f9404c22 	ldr	x2, [x1, #152]
    43003080:	b40000c2 	cbz	x2, 43003098 <psci_setup+0x1d4>
    43003084:	f9405022 	ldr	x2, [x1, #160]
    43003088:	b4000082 	cbz	x2, 43003098 <psci_setup+0x1d4>
    4300308c:	b9414402 	ldr	w2, [x0, #324]
    43003090:	320d0042 	orr	w2, w2, #0x80000
    43003094:	b9014402 	str	w2, [x0, #324]
    43003098:	f9404822 	ldr	x2, [x1, #144]
    4300309c:	b4000082 	cbz	x2, 430030ac <psci_setup+0x1e8>
    430030a0:	b9414402 	ldr	w2, [x0, #324]
    430030a4:	320c0042 	orr	w2, w2, #0x100000
    430030a8:	b9014402 	str	w2, [x0, #324]
    430030ac:	f9405421 	ldr	x1, [x1, #168]
    430030b0:	b4000081 	cbz	x1, 430030c0 <psci_setup+0x1fc>
    430030b4:	b9414401 	ldr	w1, [x0, #324]
    430030b8:	320e0021 	orr	w1, w1, #0x40000
    430030bc:	b9014401 	str	w1, [x0, #324]
    430030c0:	52800000 	mov	w0, #0x0                   	// #0
    430030c4:	a94153f3 	ldp	x19, x20, [sp, #16]
    430030c8:	a9425bf5 	ldp	x21, x22, [sp, #32]
    430030cc:	a94363f7 	ldp	x23, x24, [sp, #48]
    430030d0:	a9446bf9 	ldp	x25, x26, [sp, #64]
    430030d4:	a94573fb 	ldp	x27, x28, [sp, #80]
    430030d8:	a8c87bfd 	ldp	x29, x30, [sp], #128
    430030dc:	d65f03c0 	ret
    430030e0:	510006e2 	sub	w2, w23, #0x1
    430030e4:	12003e74 	and	w20, w19, #0xffff
    430030e8:	340001b8 	cbz	w24, 4300311c <psci_setup+0x258>
    430030ec:	f0000081 	adrp	x1, 43016000 <psci_locks>
    430030f0:	91008021 	add	x1, x1, #0x20
    430030f4:	8b34d034 	add	x20, x1, w20, sxtw #4
    430030f8:	d37c3e60 	ubfiz	x0, x19, #4, #16
    430030fc:	8b010001 	add	x1, x0, x1
    43003100:	52800040 	mov	w0, #0x2                   	// #2
    43003104:	39003698 	strb	w24, [x20, #13]
    43003108:	79001c33 	strh	w19, [x1, #14]
    4300310c:	b9000a82 	str	w2, [x20, #8]
    43003110:	39003280 	strb	w0, [x20, #12]
    43003114:	11000673 	add	w19, w19, #0x1
    43003118:	17ffff85 	b	43002f2c <psci_setup+0x68>
    4300311c:	8b34d341 	add	x1, x26, w20, sxtw #4
    43003120:	937c7e80 	sbfiz	x0, x20, #4, #32
    43003124:	290d13e3 	stp	w3, w4, [sp, #104]
    43003128:	b9000822 	str	w2, [x1, #8]
    4300312c:	92800001 	mov	x1, #0xffffffffffffffff    	// #-1
    43003130:	f8206b41 	str	x1, [x26, x0]
    43003134:	2a1403e0 	mov	w0, w20
    43003138:	94000bc8 	bl	43006058 <_cpu_data_by_index>
    4300313c:	aa0003e1 	mov	x1, x0
    43003140:	91006000 	add	x0, x0, #0x18
    43003144:	52800022 	mov	w2, #0x1                   	// #1
    43003148:	b9001822 	str	w2, [x1, #24]
    4300314c:	52800061 	mov	w1, #0x3                   	// #3
    43003150:	b9000401 	str	w1, [x0, #4]
    43003154:	52800041 	mov	w1, #0x2                   	// #2
    43003158:	39002001 	strb	w1, [x0, #8]
    4300315c:	d2800181 	mov	x1, #0xc                   	// #12
    43003160:	94000caa 	bl	43006408 <flush_dcache_range>
    43003164:	52804801 	mov	w1, #0x240                 	// #576
    43003168:	2a1403e0 	mov	w0, w20
    4300316c:	52800022 	mov	w2, #0x1                   	// #1
    43003170:	9ba15a81 	umaddl	x1, w20, w1, x22
    43003174:	97fff81c 	bl	430011e4 <cm_set_context_by_index>
    43003178:	294d13e3 	ldp	w3, w4, [sp, #104]
    4300317c:	17ffffe6 	b	43003114 <psci_setup+0x250>
    43003180:	52800001 	mov	w1, #0x0                   	// #0
    43003184:	17ffff64 	b	43002f14 <psci_setup+0x50>
    43003188:	9101e3e2 	add	x2, sp, #0x78
    4300318c:	2a1303e0 	mov	w0, w19
    43003190:	52800041 	mov	w1, #0x2                   	// #2
    43003194:	97fffbbc 	bl	43002084 <psci_get_parent_pwr_domain_nodes>
    43003198:	b9407fe2 	ldr	w2, [sp, #124]
    4300319c:	6b02031f 	cmp	w24, w2
    430031a0:	2a0203e0 	mov	w0, w2
    430031a4:	54000060 	b.eq	430031b0 <psci_setup+0x2ec>  // b.none
    430031a8:	d37cec01 	lsl	x1, x0, #4
    430031ac:	b8216a93 	str	w19, [x20, x1]
    430031b0:	8b001280 	add	x0, x20, x0, lsl #4
    430031b4:	b9400401 	ldr	w1, [x0, #4]
    430031b8:	11000421 	add	w1, w1, #0x1
    430031bc:	b9000401 	str	w1, [x0, #4]
    430031c0:	b9407be0 	ldr	w0, [sp, #120]
    430031c4:	6b0002ff 	cmp	w23, w0
    430031c8:	2a0003e1 	mov	w1, w0
    430031cc:	54000060 	b.eq	430031d8 <psci_setup+0x314>  // b.none
    430031d0:	d37cec23 	lsl	x3, x1, #4
    430031d4:	b8236a93 	str	w19, [x20, x3]
    430031d8:	8b011281 	add	x1, x20, x1, lsl #4
    430031dc:	11000673 	add	w19, w19, #0x1
    430031e0:	2a0203f8 	mov	w24, w2
    430031e4:	2a0003f7 	mov	w23, w0
    430031e8:	b9400423 	ldr	w3, [x1, #4]
    430031ec:	11000463 	add	w3, w3, #0x1
    430031f0:	b9000423 	str	w3, [x1, #4]
    430031f4:	17ffff61 	b	43002f78 <psci_setup+0xb4>

00000000430031f8 <psci_cpu_suspend_start>:
    430031f8:	a9b97bfd 	stp	x29, x30, [sp, #-112]!
    430031fc:	910003fd 	mov	x29, sp
    43003200:	a90153f3 	stp	x19, x20, [sp, #16]
    43003204:	2a0103f3 	mov	w19, w1
    43003208:	aa0203f4 	mov	x20, x2
    4300320c:	a9025bf5 	stp	x21, x22, [sp, #32]
    43003210:	2a0303f6 	mov	w22, w3
    43003214:	a90363f7 	stp	x23, x24, [sp, #48]
    43003218:	a9046bf9 	stp	x25, x26, [sp, #64]
    4300321c:	aa0003f9 	mov	x25, x0
    43003220:	94000c46 	bl	43006338 <plat_my_core_pos>
    43003224:	910183e2 	add	x2, sp, #0x60
    43003228:	2a0003f8 	mov	w24, w0
    4300322c:	2a1303e1 	mov	w1, w19
    43003230:	f90033ff 	str	xzr, [sp, #96]
    43003234:	97fffb94 	bl	43002084 <psci_get_parent_pwr_domain_nodes>
    43003238:	910183e1 	add	x1, sp, #0x60
    4300323c:	2a1303e0 	mov	w0, w19
    43003240:	97fffc28 	bl	430022e0 <psci_acquire_pwr_domain_locks>
    43003244:	d538c100 	mrs	x0, isr_el1
    43003248:	b50007a0 	cbnz	x0, 4300333c <psci_cpu_suspend_start+0x144>
    4300324c:	aa1403e1 	mov	x1, x20
    43003250:	2a1303e0 	mov	w0, w19
    43003254:	97fffbc1 	bl	43002158 <psci_do_state_coordination>
    43003258:	aa1403e1 	mov	x1, x20
    4300325c:	2a1303e0 	mov	w0, w19
    43003260:	97fffb68 	bl	43002000 <psci_set_target_local_pwr_states>
    43003264:	34000436 	cbz	w22, 430032e8 <psci_cpu_suspend_start+0xf0>
    43003268:	aa1403e0 	mov	x0, x20
    4300326c:	b0000035 	adrp	x21, 43008000 <INFRA_AO_SYS0_Devices+0x288>
    43003270:	b000003a 	adrp	x26, 43008000 <INFRA_AO_SYS0_Devices+0x288>
    43003274:	97fffbff 	bl	43002270 <psci_find_max_off_lvl>
    43003278:	911ee2b5 	add	x21, x21, #0x7b8
    4300327c:	2a0003f7 	mov	w23, w0
    43003280:	911ee35a 	add	x26, x26, #0x7b8
    43003284:	eb1a02bf 	cmp	x21, x26
    43003288:	54000523 	b.cc	4300332c <psci_cpu_suspend_start+0x134>  // b.lo, b.ul, b.last
    4300328c:	d53ed040 	mrs	x0, tpidr_el3
    43003290:	b9001c13 	str	w19, [x0, #28]
    43003294:	d53ed040 	mrs	x0, tpidr_el3
    43003298:	d2800081 	mov	x1, #0x4                   	// #4
    4300329c:	91007000 	add	x0, x0, #0x1c
    430032a0:	94000c5a 	bl	43006408 <flush_dcache_range>
    430032a4:	90000040 	adrp	x0, 4300b000 <__STACKS_START__+0x1f00>
    430032a8:	f945e000 	ldr	x0, [x0, #3008]
    430032ac:	b40000a0 	cbz	x0, 430032c0 <psci_cpu_suspend_start+0xc8>
    430032b0:	f9400801 	ldr	x1, [x0, #16]
    430032b4:	b4000061 	cbz	x1, 430032c0 <psci_cpu_suspend_start+0xc8>
    430032b8:	2a1703e0 	mov	w0, w23
    430032bc:	d63f0020 	blr	x1
    430032c0:	90000040 	adrp	x0, 4300b000 <__STACKS_START__+0x1f00>
    430032c4:	f945dc00 	ldr	x0, [x0, #3000]
    430032c8:	f9401001 	ldr	x1, [x0, #32]
    430032cc:	b4000061 	cbz	x1, 430032d8 <psci_cpu_suspend_start+0xe0>
    430032d0:	aa1403e0 	mov	x0, x20
    430032d4:	d63f0020 	blr	x1
    430032d8:	aa1903e0 	mov	x0, x25
    430032dc:	97fffa1d 	bl	43001b50 <cm_init_my_context>
    430032e0:	2a1703e0 	mov	w0, w23
    430032e4:	97fffcb1 	bl	430025a8 <psci_pwrdown_cpu>
    430032e8:	90000040 	adrp	x0, 4300b000 <__STACKS_START__+0x1f00>
    430032ec:	52800015 	mov	w21, #0x0                   	// #0
    430032f0:	f945dc00 	ldr	x0, [x0, #3000]
    430032f4:	f9401401 	ldr	x1, [x0, #40]
    430032f8:	aa1403e0 	mov	x0, x20
    430032fc:	d63f0020 	blr	x1
    43003300:	910183e1 	add	x1, sp, #0x60
    43003304:	2a1303e0 	mov	w0, w19
    43003308:	97fffc11 	bl	4300234c <psci_release_pwr_domain_locks>
    4300330c:	35000495 	cbnz	w21, 4300339c <psci_cpu_suspend_start+0x1a4>
    43003310:	90000055 	adrp	x21, 4300b000 <__STACKS_START__+0x1f00>
    43003314:	340001b6 	cbz	w22, 43003348 <psci_cpu_suspend_start+0x150>
    43003318:	f945dea0 	ldr	x0, [x21, #3000]
    4300331c:	f9402401 	ldr	x1, [x0, #72]
    43003320:	b4000121 	cbz	x1, 43003344 <psci_cpu_suspend_start+0x14c>
    43003324:	aa1403e0 	mov	x0, x20
    43003328:	d63f0020 	blr	x1
    4300332c:	f84086a1 	ldr	x1, [x21], #8
    43003330:	d2800000 	mov	x0, #0x0                   	// #0
    43003334:	d63f0020 	blr	x1
    43003338:	17ffffd3 	b	43003284 <psci_cpu_suspend_start+0x8c>
    4300333c:	52800035 	mov	w21, #0x1                   	// #1
    43003340:	17fffff0 	b	43003300 <psci_cpu_suspend_start+0x108>
    43003344:	94000b71 	bl	43006108 <psci_power_down_wfi>
    43003348:	d503207f 	wfi
    4300334c:	9101a3e2 	add	x2, sp, #0x68
    43003350:	2a1303e1 	mov	w1, w19
    43003354:	2a1803e0 	mov	w0, w24
    43003358:	f90037ff 	str	xzr, [sp, #104]
    4300335c:	97fffb4a 	bl	43002084 <psci_get_parent_pwr_domain_nodes>
    43003360:	9101a3e1 	add	x1, sp, #0x68
    43003364:	2a1303e0 	mov	w0, w19
    43003368:	97fffbde 	bl	430022e0 <psci_acquire_pwr_domain_locks>
    4300336c:	910163e1 	add	x1, sp, #0x58
    43003370:	2a1303e0 	mov	w0, w19
    43003374:	97fffaff 	bl	43001f70 <psci_get_target_local_pwr_states>
    43003378:	f945dea0 	ldr	x0, [x21, #3000]
    4300337c:	f9402001 	ldr	x1, [x0, #64]
    43003380:	910163e0 	add	x0, sp, #0x58
    43003384:	d63f0020 	blr	x1
    43003388:	2a1303e0 	mov	w0, w19
    4300338c:	97fffb50 	bl	430020cc <psci_set_pwr_domains_to_run>
    43003390:	9101a3e1 	add	x1, sp, #0x68
    43003394:	2a1303e0 	mov	w0, w19
    43003398:	97fffbed 	bl	4300234c <psci_release_pwr_domain_locks>
    4300339c:	52800000 	mov	w0, #0x0                   	// #0
    430033a0:	a94153f3 	ldp	x19, x20, [sp, #16]
    430033a4:	a9425bf5 	ldp	x21, x22, [sp, #32]
    430033a8:	a94363f7 	ldp	x23, x24, [sp, #48]
    430033ac:	a9446bf9 	ldp	x25, x26, [sp, #64]
    430033b0:	a8c77bfd 	ldp	x29, x30, [sp], #112
    430033b4:	d65f03c0 	ret

00000000430033b8 <psci_cpu_suspend_finish>:
    430033b8:	a9be7bfd 	stp	x29, x30, [sp, #-32]!
    430033bc:	90000040 	adrp	x0, 4300b000 <__STACKS_START__+0x1f00>
    430033c0:	910003fd 	mov	x29, sp
    430033c4:	f945dc00 	ldr	x0, [x0, #3000]
    430033c8:	a90153f3 	stp	x19, x20, [sp, #16]
    430033cc:	aa0103f3 	mov	x19, x1
    430033d0:	f9402001 	ldr	x1, [x0, #64]
    430033d4:	aa1303e0 	mov	x0, x19
    430033d8:	d63f0020 	blr	x1
    430033dc:	94000b3e 	bl	430060d4 <psci_do_pwrup_cache_maintenance>
    430033e0:	9400045f 	bl	4300455c <plat_get_syscnt_freq2>
    430033e4:	2a0003e0 	mov	w0, w0
    430033e8:	d51be000 	msr	cntfrq_el0, x0
    430033ec:	90000054 	adrp	x20, 4300b000 <__STACKS_START__+0x1f00>
    430033f0:	f945e280 	ldr	x0, [x20, #3008]
    430033f4:	b4000120 	cbz	x0, 43003418 <psci_cpu_suspend_finish+0x60>
    430033f8:	f9401000 	ldr	x0, [x0, #32]
    430033fc:	b40000e0 	cbz	x0, 43003418 <psci_cpu_suspend_finish+0x60>
    43003400:	aa1303e0 	mov	x0, x19
    43003404:	97fffb9b 	bl	43002270 <psci_find_max_off_lvl>
    43003408:	f945e281 	ldr	x1, [x20, #3008]
    4300340c:	2a0003e0 	mov	w0, w0
    43003410:	f9401021 	ldr	x1, [x1, #32]
    43003414:	d63f0020 	blr	x1
    43003418:	d53ed040 	mrs	x0, tpidr_el3
    4300341c:	b0000033 	adrp	x19, 43008000 <INFRA_AO_SYS0_Devices+0x288>
    43003420:	b0000034 	adrp	x20, 43008000 <INFRA_AO_SYS0_Devices+0x288>
    43003424:	911ee273 	add	x19, x19, #0x7b8
    43003428:	911ee294 	add	x20, x20, #0x7b8
    4300342c:	52800061 	mov	w1, #0x3                   	// #3
    43003430:	b9001c01 	str	w1, [x0, #28]
    43003434:	eb14027f 	cmp	x19, x20
    43003438:	54000083 	b.cc	43003448 <psci_cpu_suspend_finish+0x90>  // b.lo, b.ul, b.last
    4300343c:	a94153f3 	ldp	x19, x20, [sp, #16]
    43003440:	a8c27bfd 	ldp	x29, x30, [sp], #32
    43003444:	17fffa29 	b	43001ce8 <cm_prepare_el3_exit_ns>
    43003448:	f8408661 	ldr	x1, [x19], #8
    4300344c:	d2800000 	mov	x0, #0x0                   	// #0
    43003450:	d63f0020 	blr	x1
    43003454:	17fffff8 	b	43003434 <psci_cpu_suspend_finish+0x7c>

0000000043003458 <psci_system_off>:
    43003458:	a9bf7bfd 	stp	x29, x30, [sp, #-16]!
    4300345c:	910003fd 	mov	x29, sp
    43003460:	97fffc51 	bl	430025a4 <psci_print_power_domain_map>
    43003464:	90000040 	adrp	x0, 4300b000 <__STACKS_START__+0x1f00>
    43003468:	f945e000 	ldr	x0, [x0, #3008]
    4300346c:	b4000080 	cbz	x0, 4300347c <psci_system_off+0x24>
    43003470:	f9401c00 	ldr	x0, [x0, #56]
    43003474:	b4000040 	cbz	x0, 4300347c <psci_system_off+0x24>
    43003478:	d63f0000 	blr	x0
    4300347c:	9400090b 	bl	430058a8 <console_flush>
    43003480:	90000040 	adrp	x0, 4300b000 <__STACKS_START__+0x1f00>
    43003484:	f945dc00 	ldr	x0, [x0, #3000]
    43003488:	f9402800 	ldr	x0, [x0, #80]
    4300348c:	d63f0000 	blr	x0

0000000043003490 <psci_system_reset>:
    43003490:	a9bf7bfd 	stp	x29, x30, [sp, #-16]!
    43003494:	910003fd 	mov	x29, sp
    43003498:	97fffc43 	bl	430025a4 <psci_print_power_domain_map>
    4300349c:	90000040 	adrp	x0, 4300b000 <__STACKS_START__+0x1f00>
    430034a0:	f945e000 	ldr	x0, [x0, #3008]
    430034a4:	b4000080 	cbz	x0, 430034b4 <psci_system_reset+0x24>
    430034a8:	f9402000 	ldr	x0, [x0, #64]
    430034ac:	b4000040 	cbz	x0, 430034b4 <psci_system_reset+0x24>
    430034b0:	d63f0000 	blr	x0
    430034b4:	940008fd 	bl	430058a8 <console_flush>
    430034b8:	90000040 	adrp	x0, 4300b000 <__STACKS_START__+0x1f00>
    430034bc:	f945dc00 	ldr	x0, [x0, #3000]
    430034c0:	f9402c00 	ldr	x0, [x0, #88]
    430034c4:	d63f0000 	blr	x0

00000000430034c8 <psci_system_reset2>:
    430034c8:	a9bd7bfd 	stp	x29, x30, [sp, #-48]!
    430034cc:	910003fd 	mov	x29, sp
    430034d0:	a90153f3 	stp	x19, x20, [sp, #16]
    430034d4:	2a0003f3 	mov	w19, w0
    430034d8:	aa0103f4 	mov	x20, x1
    430034dc:	f90013f5 	str	x21, [sp, #32]
    430034e0:	531f7e75 	lsr	w21, w19, #31
    430034e4:	97fffc30 	bl	430025a4 <psci_print_power_domain_map>
    430034e8:	36f80233 	tbz	w19, #31, 4300352c <psci_system_reset2+0x64>
    430034ec:	90000040 	adrp	x0, 4300b000 <__STACKS_START__+0x1f00>
    430034f0:	f945e000 	ldr	x0, [x0, #3008]
    430034f4:	b5000300 	cbnz	x0, 43003554 <psci_system_reset2+0x8c>
    430034f8:	940008ec 	bl	430058a8 <console_flush>
    430034fc:	90000040 	adrp	x0, 4300b000 <__STACKS_START__+0x1f00>
    43003500:	aa1403e2 	mov	x2, x20
    43003504:	2a1303e1 	mov	w1, w19
    43003508:	f945dc00 	ldr	x0, [x0, #3000]
    4300350c:	f9405403 	ldr	x3, [x0, #168]
    43003510:	2a1503e0 	mov	w0, w21
    43003514:	d63f0060 	blr	x3
    43003518:	93407c00 	sxtw	x0, w0
    4300351c:	a94153f3 	ldp	x19, x20, [sp, #16]
    43003520:	f94013f5 	ldr	x21, [sp, #32]
    43003524:	a8c37bfd 	ldp	x29, x30, [sp], #48
    43003528:	d65f03c0 	ret
    4300352c:	350001d3 	cbnz	w19, 43003564 <psci_system_reset2+0x9c>
    43003530:	90000040 	adrp	x0, 4300b000 <__STACKS_START__+0x1f00>
    43003534:	f945dc00 	ldr	x0, [x0, #3000]
    43003538:	f9405001 	ldr	x1, [x0, #160]
    4300353c:	b4fffd81 	cbz	x1, 430034ec <psci_system_reset2+0x24>
    43003540:	52800000 	mov	w0, #0x0                   	// #0
    43003544:	d63f0020 	blr	x1
    43003548:	36fffd20 	tbz	w0, #31, 430034ec <psci_system_reset2+0x24>
    4300354c:	92800000 	mov	x0, #0xffffffffffffffff    	// #-1
    43003550:	17fffff3 	b	4300351c <psci_system_reset2+0x54>
    43003554:	f9402000 	ldr	x0, [x0, #64]
    43003558:	b4fffd00 	cbz	x0, 430034f8 <psci_system_reset2+0x30>
    4300355c:	d63f0000 	blr	x0
    43003560:	17ffffe6 	b	430034f8 <psci_system_reset2+0x30>
    43003564:	92800020 	mov	x0, #0xfffffffffffffffe    	// #-2
    43003568:	17ffffed 	b	4300351c <psci_system_reset2+0x54>

000000004300356c <xlat_arch_get_pas>:
    4300356c:	121c0400 	and	w0, w0, #0x30
    43003570:	7100401f 	cmp	w0, #0x10
    43003574:	1a9f17e0 	cset	w0, eq  // eq = none
    43003578:	531b6800 	lsl	w0, w0, #5
    4300357c:	d65f03c0 	ret

0000000043003580 <tcr_physical_addr_size_bits>:
    43003580:	f2540c1f 	tst	x0, #0xf00000000000
    43003584:	54000141 	b.ne	430035ac <tcr_physical_addr_size_bits+0x2c>  // b.any
    43003588:	f256041f 	tst	x0, #0xc0000000000
    4300358c:	54000141 	b.ne	430035b4 <tcr_physical_addr_size_bits+0x34>  // b.any
    43003590:	f258041f 	tst	x0, #0x30000000000
    43003594:	54000141 	b.ne	430035bc <tcr_physical_addr_size_bits+0x3c>  // b.any
    43003598:	f25c0c1f 	tst	x0, #0xf000000000
    4300359c:	54000141 	b.ne	430035c4 <tcr_physical_addr_size_bits+0x44>  // b.any
    430035a0:	f2600c1f 	tst	x0, #0xf00000000
    430035a4:	9a9f07e0 	cset	x0, ne  // ne = any
    430035a8:	d65f03c0 	ret
    430035ac:	d28000a0 	mov	x0, #0x5                   	// #5
    430035b0:	17fffffe 	b	430035a8 <tcr_physical_addr_size_bits+0x28>
    430035b4:	d2800080 	mov	x0, #0x4                   	// #4
    430035b8:	17fffffc 	b	430035a8 <tcr_physical_addr_size_bits+0x28>
    430035bc:	d2800060 	mov	x0, #0x3                   	// #3
    430035c0:	17fffffa 	b	430035a8 <tcr_physical_addr_size_bits+0x28>
    430035c4:	d2800040 	mov	x0, #0x2                   	// #2
    430035c8:	17fffff8 	b	430035a8 <tcr_physical_addr_size_bits+0x28>

00000000430035cc <is_dcache_enabled>:
    430035cc:	d53e1000 	mrs	x0, sctlr_el3
    430035d0:	53020800 	ubfx	w0, w0, #2, #1
    430035d4:	d65f03c0 	ret

00000000430035d8 <xlat_arch_regime_get_xn_desc>:
    430035d8:	7100041f 	cmp	w0, #0x1
    430035dc:	d2e00c01 	mov	x1, #0x60000000000000      	// #27021597764222976
    430035e0:	d2e00800 	mov	x0, #0x40000000000000      	// #18014398509481984
    430035e4:	9a800020 	csel	x0, x1, x0, eq  // eq = none
    430035e8:	d65f03c0 	ret

00000000430035ec <xlat_arch_current_el>:
    430035ec:	d5384240 	mrs	x0, currentel
    430035f0:	53020c00 	ubfx	w0, w0, #2, #2
    430035f4:	d65f03c0 	ret

00000000430035f8 <setup_mmu_cfg>:
    430035f8:	91000484 	add	x4, x4, #0x1
    430035fc:	a9bf7bfd 	stp	x29, x30, [sp, #-16]!
    43003600:	dac00087 	rbit	x7, x4
    43003604:	910003fd 	mov	x29, sp
    43003608:	dac010e7 	clz	x7, x7
    4300360c:	aa0003e6 	mov	x6, x0
    43003610:	52800804 	mov	w4, #0x40                  	// #64
    43003614:	aa0303e0 	mov	x0, x3
    43003618:	4b070084 	sub	w4, w4, w7
    4300361c:	37080061 	tbnz	w1, #1, 43003628 <setup_mmu_cfg+0x30>
    43003620:	5286a001 	mov	w1, #0x3500                	// #13568
    43003624:	2a010084 	orr	w4, w4, w1
    43003628:	93407c81 	sxtw	x1, w4
    4300362c:	97ffffd5 	bl	43003580 <tcr_physical_addr_size_bits>
    43003630:	aa008023 	orr	x3, x1, x0, lsl #32
    43003634:	aa004021 	orr	x1, x1, x0, lsl #16
    43003638:	b2690063 	orr	x3, x3, #0x800000
    4300363c:	d2b01000 	mov	x0, #0x80800000            	// #2155872256
    43003640:	710004bf 	cmp	w5, #0x1
    43003644:	aa000021 	orr	x1, x1, x0
    43003648:	9a831021 	csel	x1, x1, x3, ne  // ne = any
    4300364c:	d5380740 	mrs	x0, id_aa64mmfr2_el1
    43003650:	f2400c1f 	tst	x0, #0xf
    43003654:	54000040 	b.eq	4300365c <setup_mmu_cfg+0x64>  // b.none
    43003658:	b2400042 	orr	x2, x2, #0x1
    4300365c:	d2809fe0 	mov	x0, #0x4ff                 	// #1279
    43003660:	a8c17bfd 	ldp	x29, x30, [sp], #16
    43003664:	f2a00880 	movk	x0, #0x44, lsl #16
    43003668:	a90004c0 	stp	x0, x1, [x6]
    4300366c:	f90008c2 	str	x2, [x6, #16]
    43003670:	d65f03c0 	ret

0000000043003674 <mmap_add_region>:
    43003674:	a9bc7bfd 	stp	x29, x30, [sp, #-64]!
    43003678:	910003fd 	mov	x29, sp
    4300367c:	a90187e0 	stp	x0, x1, [sp, #24]
    43003680:	d2a80000 	mov	x0, #0x40000000            	// #1073741824
    43003684:	910063e1 	add	x1, sp, #0x18
    43003688:	f90017e2 	str	x2, [sp, #40]
    4300368c:	b90033e3 	str	w3, [sp, #48]
    43003690:	f9001fe0 	str	x0, [sp, #56]
    43003694:	d0000020 	adrp	x0, 43009000 <__RO_END_UNALIGNED__>
    43003698:	91000000 	add	x0, x0, #0x0
    4300369c:	94000160 	bl	43003c1c <mmap_add_region_ctx>
    430036a0:	a8c47bfd 	ldp	x29, x30, [sp], #64
    430036a4:	d65f03c0 	ret

00000000430036a8 <mmap_add>:
    430036a8:	aa0003e1 	mov	x1, x0
    430036ac:	d0000020 	adrp	x0, 43009000 <__RO_END_UNALIGNED__>
    430036b0:	91000000 	add	x0, x0, #0x0
    430036b4:	140001a4 	b	43003d44 <mmap_add_ctx>

00000000430036b8 <init_xlat_tables>:
    430036b8:	a9bf7bfd 	stp	x29, x30, [sp, #-16]!
    430036bc:	910003fd 	mov	x29, sp
    430036c0:	97ffffcb 	bl	430035ec <xlat_arch_current_el>
    430036c4:	2a0003e1 	mov	w1, w0
    430036c8:	7100041f 	cmp	w0, #0x1
    430036cc:	d0000020 	adrp	x0, 43009000 <__RO_END_UNALIGNED__>
    430036d0:	91000000 	add	x0, x0, #0x0
    430036d4:	54000081 	b.ne	430036e4 <init_xlat_tables+0x2c>  // b.any
    430036d8:	b9006801 	str	w1, [x0, #104]
    430036dc:	a8c17bfd 	ldp	x29, x30, [sp], #16
    430036e0:	140001a8 	b	43003d80 <init_xlat_tables_ctx>
    430036e4:	7100083f 	cmp	w1, #0x2
    430036e8:	52800062 	mov	w2, #0x3                   	// #3
    430036ec:	1a820021 	csel	w1, w1, w2, eq  // eq = none
    430036f0:	17fffffa 	b	430036d8 <init_xlat_tables+0x20>

00000000430036f4 <enable_mmu_el3>:
    430036f4:	a9be7bfd 	stp	x29, x30, [sp, #-32]!
    430036f8:	d0000021 	adrp	x1, 43009000 <__RO_END_UNALIGNED__>
    430036fc:	52800065 	mov	w5, #0x3                   	// #3
    43003700:	910003fd 	mov	x29, sp
    43003704:	f9000bf3 	str	x19, [sp, #16]
    43003708:	2a0003f3 	mov	w19, w0
    4300370c:	91000020 	add	x0, x1, #0x0
    43003710:	f9400023 	ldr	x3, [x1]
    43003714:	2a1303e1 	mov	w1, w19
    43003718:	f9400404 	ldr	x4, [x0, #8]
    4300371c:	f9402002 	ldr	x2, [x0, #64]
    43003720:	90000040 	adrp	x0, 4300b000 <__STACKS_START__+0x1f00>
    43003724:	912f2000 	add	x0, x0, #0xbc8
    43003728:	97ffffb4 	bl	430035f8 <setup_mmu_cfg>
    4300372c:	2a1303e0 	mov	w0, w19
    43003730:	f9400bf3 	ldr	x19, [sp, #16]
    43003734:	a8c27bfd 	ldp	x29, x30, [sp], #32
    43003738:	14000a77 	b	43006114 <enable_mmu_direct_el3>

000000004300373c <mmap_add_region_check>:
    4300373c:	a9400c26 	ldp	x6, x3, [x1]
    43003740:	f9400829 	ldr	x9, [x1, #16]
    43003744:	f9401022 	ldr	x2, [x1, #32]
    43003748:	aa0300c5 	orr	x5, x6, x3
    4300374c:	8b0900c7 	add	x7, x6, x9
    43003750:	aa0900a5 	orr	x5, x5, x9
    43003754:	8b090064 	add	x4, x3, x9
    43003758:	d10004e7 	sub	x7, x7, #0x1
    4300375c:	d1000484 	sub	x4, x4, #0x1
    43003760:	f2402cbf 	tst	x5, #0xfff
    43003764:	540008a1 	b.ne	43003878 <mmap_add_region_check+0x13c>  // b.any
    43003768:	f148005f 	cmp	x2, #0x200, lsl #12
    4300376c:	d2a80005 	mov	x5, #0x40000000            	// #1073741824
    43003770:	fa451044 	ccmp	x2, x5, #0x4, ne  // ne = any
    43003774:	54000060 	b.eq	43003780 <mmap_add_region_check+0x44>  // b.none
    43003778:	f140045f 	cmp	x2, #0x1, lsl #12
    4300377c:	540007e1 	b.ne	43003878 <mmap_add_region_check+0x13c>  // b.any
    43003780:	eb0700df 	cmp	x6, x7
    43003784:	fa449062 	ccmp	x3, x4, #0x2, ls  // ls = plast
    43003788:	540007c8 	b.hi	43003880 <mmap_add_region_check+0x144>  // b.pmore
    4300378c:	f9400402 	ldr	x2, [x0, #8]
    43003790:	eb04005f 	cmp	x2, x4
    43003794:	54000763 	b.cc	43003880 <mmap_add_region_check+0x144>  // b.lo, b.ul, b.last
    43003798:	f9400002 	ldr	x2, [x0]
    4300379c:	eb07005f 	cmp	x2, x7
    430037a0:	54000703 	b.cc	43003880 <mmap_add_region_check+0x144>  // b.lo, b.ul, b.last
    430037a4:	f9400802 	ldr	x2, [x0, #16]
    430037a8:	52800505 	mov	w5, #0x28                  	// #40
    430037ac:	b9401800 	ldr	w0, [x0, #24]
    430037b0:	9b250800 	smaddl	x0, w0, w5, x2
    430037b4:	f85e8000 	ldur	x0, [x0, #-24]
    430037b8:	b5000680 	cbnz	x0, 43003888 <mmap_add_region_check+0x14c>
    430037bc:	cb06006b 	sub	x11, x3, x6
    430037c0:	f940084a 	ldr	x10, [x2, #16]
    430037c4:	b500006a 	cbnz	x10, 430037d0 <mmap_add_region_check+0x94>
    430037c8:	52800000 	mov	w0, #0x0                   	// #0
    430037cc:	d65f03c0 	ret
    430037d0:	f9400440 	ldr	x0, [x2, #8]
    430037d4:	8b0a0008 	add	x8, x0, x10
    430037d8:	d1000508 	sub	x8, x8, #0x1
    430037dc:	eb03001f 	cmp	x0, x3
    430037e0:	54000268 	b.hi	4300382c <mmap_add_region_check+0xf0>  // b.pmore
    430037e4:	eb08009f 	cmp	x4, x8
    430037e8:	54000069 	b.ls	430037f4 <mmap_add_region_check+0xb8>  // b.plast
    430037ec:	eb03001f 	cmp	x0, x3
    430037f0:	54000221 	b.ne	43003834 <mmap_add_region_check+0xf8>  // b.any
    430037f4:	b9401825 	ldr	w5, [x1, #24]
    430037f8:	37f80165 	tbnz	w5, #31, 43003824 <mmap_add_region_check+0xe8>
    430037fc:	b9401845 	ldr	w5, [x2, #24]
    43003800:	37f80125 	tbnz	w5, #31, 43003824 <mmap_add_region_check+0xe8>
    43003804:	f9400045 	ldr	x5, [x2]
    43003808:	cb050005 	sub	x5, x0, x5
    4300380c:	eb0b00bf 	cmp	x5, x11
    43003810:	540000a1 	b.ne	43003824 <mmap_add_region_check+0xe8>  // b.any
    43003814:	eb03001f 	cmp	x0, x3
    43003818:	54000281 	b.ne	43003868 <mmap_add_region_check+0x12c>  // b.any
    4300381c:	eb09015f 	cmp	x10, x9
    43003820:	54000241 	b.ne	43003868 <mmap_add_region_check+0x12c>  // b.any
    43003824:	12800000 	mov	w0, #0xffffffff            	// #-1
    43003828:	17ffffe9 	b	430037cc <mmap_add_region_check+0x90>
    4300382c:	eb08009f 	cmp	x4, x8
    43003830:	54fffe22 	b.cs	430037f4 <mmap_add_region_check+0xb8>  // b.hs, b.nlast
    43003834:	f9400045 	ldr	x5, [x2]
    43003838:	eb0700bf 	cmp	x5, x7
    4300383c:	540002a8 	b.hi	43003890 <mmap_add_region_check+0x154>  // b.pmore
    43003840:	8b0a00a5 	add	x5, x5, x10
    43003844:	d10004a5 	sub	x5, x5, #0x1
    43003848:	eb0500df 	cmp	x6, x5
    4300384c:	1a9f97e5 	cset	w5, hi  // hi = pmore
    43003850:	eb04001f 	cmp	x0, x4
    43003854:	540000e8 	b.hi	43003870 <mmap_add_region_check+0x134>  // b.pmore
    43003858:	eb08007f 	cmp	x3, x8
    4300385c:	1a9f97e0 	cset	w0, hi  // hi = pmore
    43003860:	6a05001f 	tst	w0, w5
    43003864:	54fffe00 	b.eq	43003824 <mmap_add_region_check+0xe8>  // b.none
    43003868:	9100a042 	add	x2, x2, #0x28
    4300386c:	17ffffd5 	b	430037c0 <mmap_add_region_check+0x84>
    43003870:	52800020 	mov	w0, #0x1                   	// #1
    43003874:	17fffffb 	b	43003860 <mmap_add_region_check+0x124>
    43003878:	128002a0 	mov	w0, #0xffffffea            	// #-22
    4300387c:	17ffffd4 	b	430037cc <mmap_add_region_check+0x90>
    43003880:	12800420 	mov	w0, #0xffffffde            	// #-34
    43003884:	17ffffd2 	b	430037cc <mmap_add_region_check+0x90>
    43003888:	12800160 	mov	w0, #0xfffffff4            	// #-12
    4300388c:	17ffffd0 	b	430037cc <mmap_add_region_check+0x90>
    43003890:	eb04001f 	cmp	x0, x4
    43003894:	54fffea8 	b.hi	43003868 <mmap_add_region_check+0x12c>  // b.pmore
    43003898:	52800025 	mov	w5, #0x1                   	// #1
    4300389c:	17ffffef 	b	43003858 <mmap_add_region_check+0x11c>

00000000430038a0 <xlat_clean_dcache_range>:
    430038a0:	a9be7bfd 	stp	x29, x30, [sp, #-32]!
    430038a4:	910003fd 	mov	x29, sp
    430038a8:	a90153f3 	stp	x19, x20, [sp, #16]
    430038ac:	aa0003f3 	mov	x19, x0
    430038b0:	aa0103f4 	mov	x20, x1
    430038b4:	97ffff46 	bl	430035cc <is_dcache_enabled>
    430038b8:	72001c1f 	tst	w0, #0xff
    430038bc:	540000c0 	b.eq	430038d4 <xlat_clean_dcache_range+0x34>  // b.none
    430038c0:	aa1403e1 	mov	x1, x20
    430038c4:	aa1303e0 	mov	x0, x19
    430038c8:	a94153f3 	ldp	x19, x20, [sp, #16]
    430038cc:	a8c27bfd 	ldp	x29, x30, [sp], #32
    430038d0:	14000adc 	b	43006440 <clean_dcache_range>
    430038d4:	a94153f3 	ldp	x19, x20, [sp, #16]
    430038d8:	a8c27bfd 	ldp	x29, x30, [sp], #32
    430038dc:	d65f03c0 	ret

00000000430038e0 <xlat_desc>:
    430038e0:	a9bd7bfd 	stp	x29, x30, [sp, #-48]!
    430038e4:	71000c7f 	cmp	w3, #0x3
    430038e8:	910003fd 	mov	x29, sp
    430038ec:	a90153f3 	stp	x19, x20, [sp, #16]
    430038f0:	2a0103f4 	mov	w20, w1
    430038f4:	d2800073 	mov	x19, #0x3                   	// #3
    430038f8:	9a9f0673 	csinc	x19, x19, xzr, eq  // eq = none
    430038fc:	a9025bf5 	stp	x21, x22, [sp, #32]
    43003900:	aa020275 	orr	x21, x19, x2
    43003904:	aa0003f6 	mov	x22, x0
    43003908:	2a0103e0 	mov	w0, w1
    4300390c:	97ffff18 	bl	4300356c <xlat_arch_get_pas>
    43003910:	2a0003e0 	mov	w0, w0
    43003914:	f27d029f 	tst	x20, #0x8
    43003918:	9a9f17f3 	cset	x19, eq  // eq = none
    4300391c:	aa131c13 	orr	x19, x0, x19, lsl #7
    43003920:	b9406ac0 	ldr	w0, [x22, #104]
    43003924:	aa150273 	orr	x19, x19, x21
    43003928:	7100041f 	cmp	w0, #0x1
    4300392c:	54000221 	b.ne	43003970 <xlat_desc+0x90>  // b.any
    43003930:	b2760262 	orr	x2, x19, #0x400
    43003934:	f279029f 	tst	x20, #0x80
    43003938:	d2808801 	mov	x1, #0x440                 	// #1088
    4300393c:	aa010273 	orr	x19, x19, x1
    43003940:	9a821273 	csel	x19, x19, x2, ne  // ne = any
    43003944:	72000a95 	ands	w21, w20, #0x7
    43003948:	540001a1 	b.ne	4300397c <xlat_desc+0x9c>  // b.any
    4300394c:	97ffff23 	bl	430035d8 <xlat_arch_regime_get_xn_desc>
    43003950:	aa000273 	orr	x19, x19, x0
    43003954:	d2804082 	mov	x2, #0x204                 	// #516
    43003958:	aa020273 	orr	x19, x19, x2
    4300395c:	aa1303e0 	mov	x0, x19
    43003960:	a94153f3 	ldp	x19, x20, [sp, #16]
    43003964:	a9425bf5 	ldp	x21, x22, [sp, #32]
    43003968:	a8c37bfd 	ldp	x29, x30, [sp], #48
    4300396c:	d65f03c0 	ret
    43003970:	d2808802 	mov	x2, #0x440                 	// #1088
    43003974:	aa020273 	orr	x19, x19, x2
    43003978:	17fffff3 	b	43003944 <xlat_desc+0x64>
    4300397c:	52800901 	mov	w1, #0x48                  	// #72
    43003980:	6a01029f 	tst	w20, w1
    43003984:	54000060 	b.eq	43003990 <xlat_desc+0xb0>  // b.none
    43003988:	97ffff14 	bl	430035d8 <xlat_arch_regime_get_xn_desc>
    4300398c:	aa000273 	orr	x19, x19, x0
    43003990:	71000abf 	cmp	w21, #0x2
    43003994:	54000121 	b.ne	430039b8 <xlat_desc+0xd8>  // b.any
    43003998:	12180694 	and	w20, w20, #0x300
    4300399c:	710c029f 	cmp	w20, #0x300
    430039a0:	54fffde0 	b.eq	4300395c <xlat_desc+0x7c>  // b.none
    430039a4:	b2770260 	orr	x0, x19, #0x200
    430039a8:	7108029f 	cmp	w20, #0x200
    430039ac:	b2780673 	orr	x19, x19, #0x300
    430039b0:	9a801273 	csel	x19, x19, x0, ne  // ne = any
    430039b4:	17ffffea 	b	4300395c <xlat_desc+0x7c>
    430039b8:	d2804100 	mov	x0, #0x208                 	// #520
    430039bc:	aa000273 	orr	x19, x19, x0
    430039c0:	17ffffe7 	b	4300395c <xlat_desc+0x7c>

00000000430039c4 <xlat_tables_map_region>:
    430039c4:	a9b77bfd 	stp	x29, x30, [sp, #-144]!
    430039c8:	910003fd 	mov	x29, sp
    430039cc:	a90153f3 	stp	x19, x20, [sp, #16]
    430039d0:	12800114 	mov	w20, #0xfffffff7            	// #-9
    430039d4:	a9025bf5 	stp	x21, x22, [sp, #32]
    430039d8:	aa0103f5 	mov	x21, x1
    430039dc:	1b147cb4 	mul	w20, w5, w20
    430039e0:	a90573fb 	stp	x27, x28, [sp, #80]
    430039e4:	aa0003fb 	mov	x27, x0
    430039e8:	11009e94 	add	w20, w20, #0x27
    430039ec:	a9408420 	ldp	x0, x1, [x1, #8]
    430039f0:	a90363f7 	stp	x23, x24, [sp, #48]
    430039f4:	d2800037 	mov	x23, #0x1                   	// #1
    430039f8:	9ad422f7 	lsl	x23, x23, x20
    430039fc:	cb1703f3 	neg	x19, x23
    43003a00:	a9046bf9 	stp	x25, x26, [sp, #64]
    43003a04:	2a0503fc 	mov	w28, w5
    43003a08:	8a000273 	and	x19, x19, x0
    43003a0c:	eb02001f 	cmp	x0, x2
    43003a10:	9a828273 	csel	x19, x19, x2, hi  // hi = pmore
    43003a14:	8b010001 	add	x1, x0, x1
    43003a18:	cb020266 	sub	x6, x19, x2
    43003a1c:	b9406360 	ldr	w0, [x27, #96]
    43003a20:	d1000421 	sub	x1, x1, #0x1
    43003a24:	f90037e1 	str	x1, [sp, #104]
    43003a28:	9ad424c6 	lsr	x6, x6, x20
    43003a2c:	290f13e6 	stp	w6, w4, [sp, #120]
    43003a30:	6b05001f 	cmp	w0, w5
    43003a34:	54000242 	b.cs	43003a7c <xlat_tables_map_region+0xb8>  // b.hs, b.nlast
    43003a38:	b9402b64 	ldr	w4, [x27, #40]
    43003a3c:	d2800001 	mov	x1, #0x0                   	// #0
    43003a40:	2a0103e0 	mov	w0, w1
    43003a44:	6b01009f 	cmp	w4, w1
    43003a48:	5400006c 	b.gt	43003a54 <xlat_tables_map_region+0x90>
    43003a4c:	12800000 	mov	w0, #0xffffffff            	// #-1
    43003a50:	14000006 	b	43003a68 <xlat_tables_map_region+0xa4>
    43003a54:	f9401362 	ldr	x2, [x27, #32]
    43003a58:	8b013042 	add	x2, x2, x1, lsl #12
    43003a5c:	91000421 	add	x1, x1, #0x1
    43003a60:	eb02007f 	cmp	x3, x2
    43003a64:	54fffee1 	b.ne	43003a40 <xlat_tables_map_region+0x7c>  // b.any
    43003a68:	f9401b62 	ldr	x2, [x27, #48]
    43003a6c:	937e7c00 	sbfiz	x0, x0, #2, #32
    43003a70:	b8606841 	ldr	w1, [x2, x0]
    43003a74:	11000421 	add	w1, w1, #0x1
    43003a78:	b8206841 	str	w1, [x2, x0]
    43003a7c:	92800016 	mov	x22, #0xffffffffffffffff    	// #-1
    43003a80:	8b264c7a 	add	x26, x3, w6, uxtw #3
    43003a84:	9ad422d6 	lsl	x22, x22, x20
    43003a88:	aa1303f9 	mov	x25, x19
    43003a8c:	aa3603e0 	mvn	x0, x22
    43003a90:	11000796 	add	w22, w28, #0x1
    43003a94:	f9003be0 	str	x0, [sp, #112]
    43003a98:	1400001c 	b	43003b08 <xlat_tables_map_region+0x144>
    43003a9c:	a94086a4 	ldp	x4, x1, [x21, #8]
    43003aa0:	8b170278 	add	x24, x19, x23
    43003aa4:	f9400343 	ldr	x3, [x26]
    43003aa8:	d100070a 	sub	x10, x24, #0x1
    43003aac:	12000460 	and	w0, w3, #0x3
    43003ab0:	8b010081 	add	x1, x4, x1
    43003ab4:	eb19009f 	cmp	x4, x25
    43003ab8:	d1000421 	sub	x1, x1, #0x1
    43003abc:	54000768 	b.hi	43003ba8 <xlat_tables_map_region+0x1e4>  // b.pmore
    43003ac0:	eb0a003f 	cmp	x1, x10
    43003ac4:	54000723 	b.cc	43003ba8 <xlat_tables_map_region+0x1e4>  // b.lo, b.ul, b.last
    43003ac8:	f94002a2 	ldr	x2, [x21]
    43003acc:	cb040042 	sub	x2, x2, x4
    43003ad0:	8b130042 	add	x2, x2, x19
    43003ad4:	71000f9f 	cmp	w28, #0x3
    43003ad8:	54000221 	b.ne	43003b1c <xlat_tables_map_region+0x158>  // b.any
    43003adc:	71000c1f 	cmp	w0, #0x3
    43003ae0:	54000581 	b.ne	43003b90 <xlat_tables_map_region+0x1cc>  // b.any
    43003ae4:	b9407be0 	ldr	w0, [sp, #120]
    43003ae8:	8b170339 	add	x25, x25, x23
    43003aec:	9100235a 	add	x26, x26, #0x8
    43003af0:	aa1803f3 	mov	x19, x24
    43003af4:	11000400 	add	w0, w0, #0x1
    43003af8:	b9007be0 	str	w0, [sp, #120]
    43003afc:	f94037e0 	ldr	x0, [sp, #104]
    43003b00:	eb18001f 	cmp	x0, x24
    43003b04:	54000089 	b.ls	43003b14 <xlat_tables_map_region+0x150>  // b.plast
    43003b08:	294f07e0 	ldp	w0, w1, [sp, #120]
    43003b0c:	6b01001f 	cmp	w0, w1
    43003b10:	54fffc63 	b.cc	43003a9c <xlat_tables_map_region+0xd8>  // b.lo, b.ul, b.last
    43003b14:	d1000673 	sub	x19, x19, #0x1
    43003b18:	14000012 	b	43003b60 <xlat_tables_map_region+0x19c>
    43003b1c:	71000c1f 	cmp	w0, #0x3
    43003b20:	540004e0 	b.eq	43003bbc <xlat_tables_map_region+0x1f8>  // b.none
    43003b24:	35fffe00 	cbnz	w0, 43003ae4 <xlat_tables_map_region+0x120>
    43003b28:	f9403be0 	ldr	x0, [sp, #112]
    43003b2c:	ea00005f 	tst	x2, x0
    43003b30:	54000280 	b.eq	43003b80 <xlat_tables_map_region+0x1bc>  // b.none
    43003b34:	b9402b60 	ldr	w0, [x27, #40]
    43003b38:	d2800003 	mov	x3, #0x0                   	// #0
    43003b3c:	6b03001f 	cmp	w0, w3
    43003b40:	5400010d 	b.le	43003b60 <xlat_tables_map_region+0x19c>
    43003b44:	f9401b62 	ldr	x2, [x27, #48]
    43003b48:	91000461 	add	x1, x3, #0x1
    43003b4c:	b8637842 	ldr	w2, [x2, x3, lsl #2]
    43003b50:	350003c2 	cbnz	w2, 43003bc8 <xlat_tables_map_region+0x204>
    43003b54:	f9401360 	ldr	x0, [x27, #32]
    43003b58:	ab033003 	adds	x3, x0, x3, lsl #12
    43003b5c:	540003a1 	b.ne	43003bd0 <xlat_tables_map_region+0x20c>  // b.any
    43003b60:	aa1303e0 	mov	x0, x19
    43003b64:	a94153f3 	ldp	x19, x20, [sp, #16]
    43003b68:	a9425bf5 	ldp	x21, x22, [sp, #32]
    43003b6c:	a94363f7 	ldp	x23, x24, [sp, #48]
    43003b70:	a9446bf9 	ldp	x25, x26, [sp, #64]
    43003b74:	a94573fb 	ldp	x27, x28, [sp, #80]
    43003b78:	a8c97bfd 	ldp	x29, x30, [sp], #144
    43003b7c:	d65f03c0 	ret
    43003b80:	34fffdbc 	cbz	w28, 43003b34 <xlat_tables_map_region+0x170>
    43003b84:	f94012a0 	ldr	x0, [x21, #32]
    43003b88:	9ad42400 	lsr	x0, x0, x20
    43003b8c:	b4fffd40 	cbz	x0, 43003b34 <xlat_tables_map_region+0x170>
    43003b90:	b9401aa1 	ldr	w1, [x21, #24]
    43003b94:	2a1c03e3 	mov	w3, w28
    43003b98:	aa1b03e0 	mov	x0, x27
    43003b9c:	97ffff51 	bl	430038e0 <xlat_desc>
    43003ba0:	f9000340 	str	x0, [x26]
    43003ba4:	17ffffd0 	b	43003ae4 <xlat_tables_map_region+0x120>
    43003ba8:	eb0a009f 	cmp	x4, x10
    43003bac:	54000069 	b.ls	43003bb8 <xlat_tables_map_region+0x1f4>  // b.plast
    43003bb0:	eb19003f 	cmp	x1, x25
    43003bb4:	54fff983 	b.cc	43003ae4 <xlat_tables_map_region+0x120>  // b.lo, b.ul, b.last
    43003bb8:	34fffbe0 	cbz	w0, 43003b34 <xlat_tables_map_region+0x170>
    43003bbc:	92748c63 	and	x3, x3, #0xfffffffff000
    43003bc0:	f90047ea 	str	x10, [sp, #136]
    43003bc4:	14000006 	b	43003bdc <xlat_tables_map_region+0x218>
    43003bc8:	aa0103e3 	mov	x3, x1
    43003bcc:	17ffffdc 	b	43003b3c <xlat_tables_map_region+0x178>
    43003bd0:	b2400460 	orr	x0, x3, #0x3
    43003bd4:	f9000340 	str	x0, [x26]
    43003bd8:	f90047ea 	str	x10, [sp, #136]
    43003bdc:	aa1303e2 	mov	x2, x19
    43003be0:	2a1603e5 	mov	w5, w22
    43003be4:	aa1503e1 	mov	x1, x21
    43003be8:	52804004 	mov	w4, #0x200                 	// #512
    43003bec:	aa1b03e0 	mov	x0, x27
    43003bf0:	f90043e3 	str	x3, [sp, #128]
    43003bf4:	97ffff74 	bl	430039c4 <xlat_tables_map_region>
    43003bf8:	aa0003f3 	mov	x19, x0
    43003bfc:	f94043e3 	ldr	x3, [sp, #128]
    43003c00:	d2820001 	mov	x1, #0x1000                	// #4096
    43003c04:	aa0303e0 	mov	x0, x3
    43003c08:	97ffff26 	bl	430038a0 <xlat_clean_dcache_range>
    43003c0c:	f94047ea 	ldr	x10, [sp, #136]
    43003c10:	eb0a027f 	cmp	x19, x10
    43003c14:	54fff680 	b.eq	43003ae4 <xlat_tables_map_region+0x120>  // b.none
    43003c18:	17ffffd2 	b	43003b60 <xlat_tables_map_region+0x19c>

0000000043003c1c <mmap_add_region_ctx>:
    43003c1c:	f940082c 	ldr	x12, [x1, #16]
    43003c20:	b400090c 	cbz	x12, 43003d40 <mmap_add_region_ctx+0x124>
    43003c24:	a9bc7bfd 	stp	x29, x30, [sp, #-64]!
    43003c28:	910003fd 	mov	x29, sp
    43003c2c:	a90153f3 	stp	x19, x20, [sp, #16]
    43003c30:	aa0003f4 	mov	x20, x0
    43003c34:	a9025bf5 	stp	x21, x22, [sp, #32]
    43003c38:	aa0103f5 	mov	x21, x1
    43003c3c:	f9001bf7 	str	x23, [sp, #48]
    43003c40:	97fffebf 	bl	4300373c <mmap_add_region_check>
    43003c44:	2a0003e1 	mov	w1, w0
    43003c48:	34000100 	cbz	w0, 43003c68 <mmap_add_region_ctx+0x4c>
    43003c4c:	a94153f3 	ldp	x19, x20, [sp, #16]
    43003c50:	90000020 	adrp	x0, 43007000 <vprintf+0x1d0>
    43003c54:	a9425bf5 	ldp	x21, x22, [sp, #32]
    43003c58:	912f6400 	add	x0, x0, #0xbd9
    43003c5c:	f9401bf7 	ldr	x23, [sp, #48]
    43003c60:	a8c47bfd 	ldp	x29, x30, [sp], #64
    43003c64:	14000698 	b	430056c4 <tf_log>
    43003c68:	f94006a4 	ldr	x4, [x21, #8]
    43003c6c:	f9400a82 	ldr	x2, [x20, #16]
    43003c70:	8b040184 	add	x4, x12, x4
    43003c74:	d1000496 	sub	x22, x4, #0x1
    43003c78:	aa0203e1 	mov	x1, x2
    43003c7c:	a9409423 	ldp	x3, x5, [x1, #8]
    43003c80:	aa0103e0 	mov	x0, x1
    43003c84:	9100a021 	add	x1, x1, #0x28
    43003c88:	8b0300a3 	add	x3, x5, x3
    43003c8c:	d1000463 	sub	x3, x3, #0x1
    43003c90:	eb16007f 	cmp	x3, x22
    43003c94:	54000042 	b.cs	43003c9c <mmap_add_region_ctx+0x80>  // b.hs, b.nlast
    43003c98:	b5ffff25 	cbnz	x5, 43003c7c <mmap_add_region_ctx+0x60>
    43003c9c:	a9408403 	ldp	x3, x1, [x0, #8]
    43003ca0:	aa0003f7 	mov	x23, x0
    43003ca4:	9100a000 	add	x0, x0, #0x28
    43003ca8:	8b030023 	add	x3, x1, x3
    43003cac:	eb03009f 	cmp	x4, x3
    43003cb0:	54000081 	b.ne	43003cc0 <mmap_add_region_ctx+0xa4>  // b.any
    43003cb4:	b4000061 	cbz	x1, 43003cc0 <mmap_add_region_ctx+0xa4>
    43003cb8:	eb01019f 	cmp	x12, x1
    43003cbc:	54ffff08 	b.hi	43003c9c <mmap_add_region_ctx+0x80>  // b.pmore
    43003cc0:	b9401a81 	ldr	w1, [x20, #24]
    43003cc4:	52800503 	mov	w3, #0x28                  	// #40
    43003cc8:	9b230821 	smaddl	x1, w1, w3, x2
    43003ccc:	14000002 	b	43003cd4 <mmap_add_region_ctx+0xb8>
    43003cd0:	9100a042 	add	x2, x2, #0x28
    43003cd4:	f9400843 	ldr	x3, [x2, #16]
    43003cd8:	b4000063 	cbz	x3, 43003ce4 <mmap_add_region_ctx+0xc8>
    43003cdc:	eb01005f 	cmp	x2, x1
    43003ce0:	54ffff83 	b.cc	43003cd0 <mmap_add_region_ctx+0xb4>  // b.lo, b.ul, b.last
    43003ce4:	f94002b3 	ldr	x19, [x21]
    43003ce8:	cb170042 	sub	x2, x2, x23
    43003cec:	aa1703e1 	mov	x1, x23
    43003cf0:	8b13018c 	add	x12, x12, x19
    43003cf4:	d1000593 	sub	x19, x12, #0x1
    43003cf8:	94000bef 	bl	43006cb4 <memmove>
    43003cfc:	aa1503e1 	mov	x1, x21
    43003d00:	aa1703e0 	mov	x0, x23
    43003d04:	d2800502 	mov	x2, #0x28                  	// #40
    43003d08:	94000be3 	bl	43006c94 <memcpy>
    43003d0c:	f9402a80 	ldr	x0, [x20, #80]
    43003d10:	eb13001f 	cmp	x0, x19
    43003d14:	54000042 	b.cs	43003d1c <mmap_add_region_ctx+0x100>  // b.hs, b.nlast
    43003d18:	f9002a93 	str	x19, [x20, #80]
    43003d1c:	f9402e80 	ldr	x0, [x20, #88]
    43003d20:	eb16001f 	cmp	x0, x22
    43003d24:	54000042 	b.cs	43003d2c <mmap_add_region_ctx+0x110>  // b.hs, b.nlast
    43003d28:	f9002e96 	str	x22, [x20, #88]
    43003d2c:	a94153f3 	ldp	x19, x20, [sp, #16]
    43003d30:	a9425bf5 	ldp	x21, x22, [sp, #32]
    43003d34:	f9401bf7 	ldr	x23, [sp, #48]
    43003d38:	a8c47bfd 	ldp	x29, x30, [sp], #64
    43003d3c:	d65f03c0 	ret
    43003d40:	d65f03c0 	ret

0000000043003d44 <mmap_add_ctx>:
    43003d44:	a9be7bfd 	stp	x29, x30, [sp, #-32]!
    43003d48:	910003fd 	mov	x29, sp
    43003d4c:	a90153f3 	stp	x19, x20, [sp, #16]
    43003d50:	aa0003f4 	mov	x20, x0
    43003d54:	aa0103f3 	mov	x19, x1
    43003d58:	f9401260 	ldr	x0, [x19, #32]
    43003d5c:	b5000080 	cbnz	x0, 43003d6c <mmap_add_ctx+0x28>
    43003d60:	a94153f3 	ldp	x19, x20, [sp, #16]
    43003d64:	a8c27bfd 	ldp	x29, x30, [sp], #32
    43003d68:	d65f03c0 	ret
    43003d6c:	aa1303e1 	mov	x1, x19
    43003d70:	aa1403e0 	mov	x0, x20
    43003d74:	9100a273 	add	x19, x19, #0x28
    43003d78:	97ffffa9 	bl	43003c1c <mmap_add_region_ctx>
    43003d7c:	17fffff7 	b	43003d58 <mmap_add_ctx+0x14>

0000000043003d80 <init_xlat_tables_ctx>:
    43003d80:	a9bd7bfd 	stp	x29, x30, [sp, #-48]!
    43003d84:	910003fd 	mov	x29, sp
    43003d88:	a90153f3 	stp	x19, x20, [sp, #16]
    43003d8c:	aa0003f3 	mov	x19, x0
    43003d90:	f9400814 	ldr	x20, [x0, #16]
    43003d94:	f90013f5 	str	x21, [sp, #32]
    43003d98:	aa1403e0 	mov	x0, x20
    43003d9c:	9400003b 	bl	43003e88 <xlat_mmap_print>
    43003da0:	b9404a61 	ldr	w1, [x19, #72]
    43003da4:	d2800000 	mov	x0, #0x0                   	// #0
    43003da8:	6b00003f 	cmp	w1, w0
    43003dac:	540001c8 	b.hi	43003de4 <init_xlat_tables_ctx+0x64>  // b.pmore
    43003db0:	d2800000 	mov	x0, #0x0                   	// #0
    43003db4:	b9402a61 	ldr	w1, [x19, #40]
    43003db8:	6b00003f 	cmp	w1, w0
    43003dbc:	540001cc 	b.gt	43003df4 <init_xlat_tables_ctx+0x74>
    43003dc0:	f9400a80 	ldr	x0, [x20, #16]
    43003dc4:	b50002e0 	cbnz	x0, 43003e20 <init_xlat_tables_ctx+0xa0>
    43003dc8:	52800020 	mov	w0, #0x1                   	// #1
    43003dcc:	39019260 	strb	w0, [x19, #100]
    43003dd0:	aa1303e0 	mov	x0, x19
    43003dd4:	a94153f3 	ldp	x19, x20, [sp, #16]
    43003dd8:	f94013f5 	ldr	x21, [sp, #32]
    43003ddc:	a8c37bfd 	ldp	x29, x30, [sp], #48
    43003de0:	1400002b 	b	43003e8c <xlat_tables_print>
    43003de4:	f9402262 	ldr	x2, [x19, #64]
    43003de8:	f820785f 	str	xzr, [x2, x0, lsl #3]
    43003dec:	91000400 	add	x0, x0, #0x1
    43003df0:	17ffffee 	b	43003da8 <init_xlat_tables_ctx+0x28>
    43003df4:	f9401262 	ldr	x2, [x19, #32]
    43003df8:	f9401a61 	ldr	x1, [x19, #48]
    43003dfc:	8b003042 	add	x2, x2, x0, lsl #12
    43003e00:	b820783f 	str	wzr, [x1, x0, lsl #2]
    43003e04:	d2800001 	mov	x1, #0x0                   	// #0
    43003e08:	f821785f 	str	xzr, [x2, x1, lsl #3]
    43003e0c:	91000421 	add	x1, x1, #0x1
    43003e10:	f108003f 	cmp	x1, #0x200
    43003e14:	54ffffa1 	b.ne	43003e08 <init_xlat_tables_ctx+0x88>  // b.any
    43003e18:	91000400 	add	x0, x0, #0x1
    43003e1c:	17ffffe6 	b	43003db4 <init_xlat_tables_ctx+0x34>
    43003e20:	b9404a64 	ldr	w4, [x19, #72]
    43003e24:	aa1403e1 	mov	x1, x20
    43003e28:	b9406265 	ldr	w5, [x19, #96]
    43003e2c:	d2800002 	mov	x2, #0x0                   	// #0
    43003e30:	f9402263 	ldr	x3, [x19, #64]
    43003e34:	aa1303e0 	mov	x0, x19
    43003e38:	97fffee3 	bl	430039c4 <xlat_tables_map_region>
    43003e3c:	aa0003f5 	mov	x21, x0
    43003e40:	f9402260 	ldr	x0, [x19, #64]
    43003e44:	b9404a61 	ldr	w1, [x19, #72]
    43003e48:	d37df021 	lsl	x1, x1, #3
    43003e4c:	97fffe95 	bl	430038a0 <xlat_clean_dcache_range>
    43003e50:	a9408e81 	ldp	x1, x3, [x20, #8]
    43003e54:	8b030020 	add	x0, x1, x3
    43003e58:	d1000400 	sub	x0, x0, #0x1
    43003e5c:	eb15001f 	cmp	x0, x21
    43003e60:	54000100 	b.eq	43003e80 <init_xlat_tables_ctx+0x100>  // b.none
    43003e64:	b9401a84 	ldr	w4, [x20, #24]
    43003e68:	90000020 	adrp	x0, 43007000 <vprintf+0x1d0>
    43003e6c:	f9400282 	ldr	x2, [x20]
    43003e70:	91301000 	add	x0, x0, #0xc04
    43003e74:	94000614 	bl	430056c4 <tf_log>
    43003e78:	9400068c 	bl	430058a8 <console_flush>
    43003e7c:	94000957 	bl	430063d8 <el3_panic>
    43003e80:	9100a294 	add	x20, x20, #0x28
    43003e84:	17ffffcf 	b	43003dc0 <init_xlat_tables_ctx+0x40>

0000000043003e88 <xlat_mmap_print>:
    43003e88:	d65f03c0 	ret

0000000043003e8c <xlat_tables_print>:
    43003e8c:	d65f03c0 	ret

0000000043003e90 <plat_ic_get_pending_interrupt_type>:
    43003e90:	a9bf7bfd 	stp	x29, x30, [sp, #-16]!
    43003e94:	910003fd 	mov	x29, sp
    43003e98:	97fff6c0 	bl	43001998 <gicv3_get_pending_interrupt_type>
    43003e9c:	510ff000 	sub	w0, w0, #0x3fc
    43003ea0:	71000c1f 	cmp	w0, #0x3
    43003ea4:	540000c8 	b.hi	43003ebc <plat_ic_get_pending_interrupt_type+0x2c>  // b.pmore
    43003ea8:	90000021 	adrp	x1, 43007000 <vprintf+0x1d0>
    43003eac:	91314c21 	add	x1, x1, #0xc53
    43003eb0:	38604820 	ldrb	w0, [x1, w0, uxtw]
    43003eb4:	a8c17bfd 	ldp	x29, x30, [sp], #16
    43003eb8:	d65f03c0 	ret
    43003ebc:	52800020 	mov	w0, #0x1                   	// #1
    43003ec0:	17fffffd 	b	43003eb4 <plat_ic_get_pending_interrupt_type+0x24>

0000000043003ec4 <mtk_efuse_get_len>:
    43003ec4:	b4000341 	cbz	x1, 43003f2c <mtk_efuse_get_len+0x68>
    43003ec8:	2a0003e2 	mov	w2, w0
    43003ecc:	7100601f 	cmp	w0, #0x18
    43003ed0:	54000328 	b.hi	43003f34 <mtk_efuse_get_len+0x70>  // b.pmore
    43003ed4:	2a0003e3 	mov	w3, w0
    43003ed8:	b0000040 	adrp	x0, 4300c000 <dormant_data+0x10>
    43003edc:	9105b000 	add	x0, x0, #0x16c
    43003ee0:	d2800184 	mov	x4, #0xc                   	// #12
    43003ee4:	9b040063 	madd	x3, x3, x4, x0
    43003ee8:	39402060 	ldrb	w0, [x3, #8]
    43003eec:	35000160 	cbnz	w0, 43003f18 <mtk_efuse_get_len+0x54>
    43003ef0:	a9bf7bfd 	stp	x29, x30, [sp, #-16]!
    43003ef4:	90000021 	adrp	x1, 43007000 <vprintf+0x1d0>
    43003ef8:	90000020 	adrp	x0, 43007000 <vprintf+0x1d0>
    43003efc:	910003fd 	mov	x29, sp
    43003f00:	9133a821 	add	x1, x1, #0xcea
    43003f04:	91315c00 	add	x0, x0, #0xc57
    43003f08:	940005ef 	bl	430056c4 <tf_log>
    43003f0c:	52800060 	mov	w0, #0x3                   	// #3
    43003f10:	a8c17bfd 	ldp	x29, x30, [sp], #16
    43003f14:	d65f03c0 	ret
    43003f18:	b9400460 	ldr	w0, [x3, #4]
    43003f1c:	b9000020 	str	w0, [x1]
    43003f20:	34fffe80 	cbz	w0, 43003ef0 <mtk_efuse_get_len+0x2c>
    43003f24:	52800000 	mov	w0, #0x0                   	// #0
    43003f28:	d65f03c0 	ret
    43003f2c:	52800020 	mov	w0, #0x1                   	// #1
    43003f30:	d65f03c0 	ret
    43003f34:	52800040 	mov	w0, #0x2                   	// #2
    43003f38:	d65f03c0 	ret

0000000043003f3c <mtk_efuse_send_data>:
    43003f3c:	f100001f 	cmp	x0, #0x0
    43003f40:	fa401824 	ccmp	x1, #0x0, #0x4, ne  // ne = any
    43003f44:	540001c0 	b.eq	43003f7c <mtk_efuse_send_data+0x40>  // b.none
    43003f48:	7100605f 	cmp	w2, #0x18
    43003f4c:	7a489862 	ccmp	w3, #0x8, #0x2, ls  // ls = plast
    43003f50:	54000168 	b.hi	43003f7c <mtk_efuse_send_data+0x40>  // b.pmore
    43003f54:	8b224002 	add	x2, x0, w2, uxtw
    43003f58:	d2800004 	mov	x4, #0x0                   	// #0
    43003f5c:	6b04007f 	cmp	w3, w4
    43003f60:	54000068 	b.hi	43003f6c <mtk_efuse_send_data+0x30>  // b.pmore
    43003f64:	52800000 	mov	w0, #0x0                   	// #0
    43003f68:	d65f03c0 	ret
    43003f6c:	38646820 	ldrb	w0, [x1, x4]
    43003f70:	38246840 	strb	w0, [x2, x4]
    43003f74:	91000484 	add	x4, x4, #0x1
    43003f78:	17fffff9 	b	43003f5c <mtk_efuse_send_data+0x20>
    43003f7c:	52800020 	mov	w0, #0x1                   	// #1
    43003f80:	17fffffa 	b	43003f68 <mtk_efuse_send_data+0x2c>

0000000043003f84 <mtk_efuse_get_data>:
    43003f84:	f100003f 	cmp	x1, #0x0
    43003f88:	fa401804 	ccmp	x0, #0x0, #0x4, ne  // ne = any
    43003f8c:	540001c0 	b.eq	43003fc4 <mtk_efuse_get_data+0x40>  // b.none
    43003f90:	7100605f 	cmp	w2, #0x18
    43003f94:	7a489862 	ccmp	w3, #0x8, #0x2, ls  // ls = plast
    43003f98:	54000168 	b.hi	43003fc4 <mtk_efuse_get_data+0x40>  // b.pmore
    43003f9c:	8b224022 	add	x2, x1, w2, uxtw
    43003fa0:	d2800004 	mov	x4, #0x0                   	// #0
    43003fa4:	6b04007f 	cmp	w3, w4
    43003fa8:	54000068 	b.hi	43003fb4 <mtk_efuse_get_data+0x30>  // b.pmore
    43003fac:	52800000 	mov	w0, #0x0                   	// #0
    43003fb0:	d65f03c0 	ret
    43003fb4:	38646841 	ldrb	w1, [x2, x4]
    43003fb8:	38246801 	strb	w1, [x0, x4]
    43003fbc:	91000484 	add	x4, x4, #0x1
    43003fc0:	17fffff9 	b	43003fa4 <mtk_efuse_get_data+0x20>
    43003fc4:	52800020 	mov	w0, #0x1                   	// #1
    43003fc8:	17fffffa 	b	43003fb0 <mtk_efuse_get_data+0x2c>

0000000043003fcc <mtk_efuse_read>:
    43003fcc:	a9bc7bfd 	stp	x29, x30, [sp, #-64]!
    43003fd0:	910003fd 	mov	x29, sp
    43003fd4:	a90153f3 	stp	x19, x20, [sp, #16]
    43003fd8:	a9025bf5 	stp	x21, x22, [sp, #32]
    43003fdc:	b9003fff 	str	wzr, [sp, #60]
    43003fe0:	b4000521 	cbz	x1, 43004084 <mtk_efuse_read+0xb8>
    43003fe4:	2a0003f5 	mov	w21, w0
    43003fe8:	aa0103f3 	mov	x19, x1
    43003fec:	2a0203f6 	mov	w22, w2
    43003ff0:	9100f3e1 	add	x1, sp, #0x3c
    43003ff4:	97ffffb4 	bl	43003ec4 <mtk_efuse_get_len>
    43003ff8:	2a0003f4 	mov	w20, w0
    43003ffc:	350003a0 	cbnz	w0, 43004070 <mtk_efuse_read+0xa4>
    43004000:	b9403fe0 	ldr	w0, [sp, #60]
    43004004:	6b16001f 	cmp	w0, w22
    43004008:	54000428 	b.hi	4300408c <mtk_efuse_read+0xc0>  // b.pmore
    4300400c:	2a1603e2 	mov	w2, w22
    43004010:	aa1303e0 	mov	x0, x19
    43004014:	52800001 	mov	w1, #0x0                   	// #0
    43004018:	94000b34 	bl	43006ce8 <memset>
    4300401c:	2a1503e0 	mov	w0, w21
    43004020:	d2800181 	mov	x1, #0xc                   	// #12
    43004024:	90000043 	adrp	x3, 4300c000 <dormant_data+0x10>
    43004028:	9105b063 	add	x3, x3, #0x16c
    4300402c:	b9403fe2 	ldr	w2, [sp, #60]
    43004030:	9b017c00 	mul	x0, x0, x1
    43004034:	aa1303e1 	mov	x1, x19
    43004038:	b8606860 	ldr	w0, [x3, x0]
    4300403c:	94000a16 	bl	43006894 <efuse_read>
    43004040:	2a0003f3 	mov	w19, w0
    43004044:	34000160 	cbz	w0, 43004070 <mtk_efuse_read+0xa4>
    43004048:	2a0003e3 	mov	w3, w0
    4300404c:	2a1503e2 	mov	w2, w21
    43004050:	f0000001 	adrp	x1, 43007000 <vprintf+0x1d0>
    43004054:	f0000000 	adrp	x0, 43007000 <vprintf+0x1d0>
    43004058:	91336c21 	add	x1, x1, #0xcdb
    4300405c:	9131f000 	add	x0, x0, #0xc7c
    43004060:	94000599 	bl	430056c4 <tf_log>
    43004064:	7100027f 	cmp	w19, #0x0
    43004068:	5a93a673 	cneg	w19, w19, lt  // lt = tstop
    4300406c:	11002a74 	add	w20, w19, #0xa
    43004070:	2a1403e0 	mov	w0, w20
    43004074:	a94153f3 	ldp	x19, x20, [sp, #16]
    43004078:	a9425bf5 	ldp	x21, x22, [sp, #32]
    4300407c:	a8c47bfd 	ldp	x29, x30, [sp], #64
    43004080:	d65f03c0 	ret
    43004084:	52800034 	mov	w20, #0x1                   	// #1
    43004088:	17fffffa 	b	43004070 <mtk_efuse_read+0xa4>
    4300408c:	52800094 	mov	w20, #0x4                   	// #4
    43004090:	17fffff8 	b	43004070 <mtk_efuse_read+0xa4>

0000000043004094 <mtk_efuse_write>:
    43004094:	a9bb7bfd 	stp	x29, x30, [sp, #-80]!
    43004098:	910003fd 	mov	x29, sp
    4300409c:	a90153f3 	stp	x19, x20, [sp, #16]
    430040a0:	a9025bf5 	stp	x21, x22, [sp, #32]
    430040a4:	f9001bf7 	str	x23, [sp, #48]
    430040a8:	b9004fff 	str	wzr, [sp, #76]
    430040ac:	b4000521 	cbz	x1, 43004150 <mtk_efuse_write+0xbc>
    430040b0:	2a0003f6 	mov	w22, w0
    430040b4:	aa0103f5 	mov	x21, x1
    430040b8:	2a0203f7 	mov	w23, w2
    430040bc:	910133e1 	add	x1, sp, #0x4c
    430040c0:	97ffff81 	bl	43003ec4 <mtk_efuse_get_len>
    430040c4:	2a0003f4 	mov	w20, w0
    430040c8:	35000380 	cbnz	w0, 43004138 <mtk_efuse_write+0xa4>
    430040cc:	b9404fe2 	ldr	w2, [sp, #76]
    430040d0:	6b17005f 	cmp	w2, w23
    430040d4:	54000428 	b.hi	43004158 <mtk_efuse_write+0xc4>  // b.pmore
    430040d8:	2a1603e0 	mov	w0, w22
    430040dc:	d2800181 	mov	x1, #0xc                   	// #12
    430040e0:	90000043 	adrp	x3, 4300c000 <dormant_data+0x10>
    430040e4:	9105b063 	add	x3, x3, #0x16c
    430040e8:	9b017c00 	mul	x0, x0, x1
    430040ec:	aa1503e1 	mov	x1, x21
    430040f0:	b8606860 	ldr	w0, [x3, x0]
    430040f4:	94000a2a 	bl	4300699c <efuse_write>
    430040f8:	2a0003f3 	mov	w19, w0
    430040fc:	2a1703e2 	mov	w2, w23
    43004100:	aa1503e0 	mov	x0, x21
    43004104:	52800001 	mov	w1, #0x0                   	// #0
    43004108:	94000af8 	bl	43006ce8 <memset>
    4300410c:	34000173 	cbz	w19, 43004138 <mtk_efuse_write+0xa4>
    43004110:	2a1303e3 	mov	w3, w19
    43004114:	2a1603e2 	mov	w2, w22
    43004118:	f0000001 	adrp	x1, 43007000 <vprintf+0x1d0>
    4300411c:	f0000000 	adrp	x0, 43007000 <vprintf+0x1d0>
    43004120:	91332c21 	add	x1, x1, #0xccb
    43004124:	91328c00 	add	x0, x0, #0xca3
    43004128:	94000567 	bl	430056c4 <tf_log>
    4300412c:	7100027f 	cmp	w19, #0x0
    43004130:	5a93a673 	cneg	w19, w19, lt  // lt = tstop
    43004134:	11002a74 	add	w20, w19, #0xa
    43004138:	2a1403e0 	mov	w0, w20
    4300413c:	a94153f3 	ldp	x19, x20, [sp, #16]
    43004140:	a9425bf5 	ldp	x21, x22, [sp, #32]
    43004144:	f9401bf7 	ldr	x23, [sp, #48]
    43004148:	a8c57bfd 	ldp	x29, x30, [sp], #80
    4300414c:	d65f03c0 	ret
    43004150:	52800034 	mov	w20, #0x1                   	// #1
    43004154:	17fffff9 	b	43004138 <mtk_efuse_write+0xa4>
    43004158:	52800094 	mov	w20, #0x4                   	// #4
    4300415c:	17fffff7 	b	43004138 <mtk_efuse_write+0xa4>

0000000043004160 <mtk_efuse_disable>:
    43004160:	7100601f 	cmp	w0, #0x18
    43004164:	54000128 	b.hi	43004188 <mtk_efuse_disable+0x28>  // b.pmore
    43004168:	2a0003e0 	mov	w0, w0
    4300416c:	90000041 	adrp	x1, 4300c000 <dormant_data+0x10>
    43004170:	9105b021 	add	x1, x1, #0x16c
    43004174:	d2800182 	mov	x2, #0xc                   	// #12
    43004178:	9b020400 	madd	x0, x0, x2, x1
    4300417c:	3900201f 	strb	wzr, [x0, #8]
    43004180:	52800000 	mov	w0, #0x0                   	// #0
    43004184:	d65f03c0 	ret
    43004188:	52800040 	mov	w0, #0x2                   	// #2
    4300418c:	17fffffe 	b	43004184 <mtk_efuse_disable+0x24>

0000000043004190 <mtk_gpt_stop>:
    43004190:	f9400401 	ldr	x1, [x0, #8]
    43004194:	b9400020 	ldr	w0, [x1]
    43004198:	121f7800 	and	w0, w0, #0xfffffffe
    4300419c:	b9000020 	str	w0, [x1]
    430041a0:	d65f03c0 	ret

00000000430041a4 <mtk_gpt_start>:
    430041a4:	f9400402 	ldr	x2, [x0, #8]
    430041a8:	f0000003 	adrp	x3, 43007000 <vprintf+0x1d0>
    430041ac:	9133f063 	add	x3, x3, #0xcfc
    430041b0:	d2800021 	mov	x1, #0x1                   	// #1
    430041b4:	b900005f 	str	wzr, [x2]
    430041b8:	b9400004 	ldr	w4, [x0]
    430041bc:	8b040864 	add	x4, x3, x4, lsl #2
    430041c0:	39400485 	ldrb	w5, [x4, #1]
    430041c4:	39400c84 	ldrb	w4, [x4, #3]
    430041c8:	b86268a6 	ldr	w6, [x5, x2]
    430041cc:	9ac42021 	lsl	x1, x1, x4
    430041d0:	32000c21 	orr	w1, w1, #0xf
    430041d4:	0a2100c1 	bic	w1, w6, w1
    430041d8:	b82268a1 	str	w1, [x5, x2]
    430041dc:	b9400001 	ldr	w1, [x0]
    430041e0:	52800060 	mov	w0, #0x3                   	// #3
    430041e4:	b9400044 	ldr	w4, [x2]
    430041e8:	d37ef421 	lsl	x1, x1, #2
    430041ec:	38616861 	ldrb	w1, [x3, x1]
    430041f0:	1ac12000 	lsl	w0, w0, w1
    430041f4:	32000000 	orr	w0, w0, #0x1
    430041f8:	2a040000 	orr	w0, w0, w4
    430041fc:	b9000040 	str	w0, [x2]
    43004200:	d65f03c0 	ret

0000000043004204 <mtk_gpt_reset>:
    43004204:	f9400402 	ldr	x2, [x0, #8]
    43004208:	b9400041 	ldr	w1, [x2]
    4300420c:	321f0021 	orr	w1, w1, #0x2
    43004210:	b9000041 	str	w1, [x2]
    43004214:	2903fc1f 	stp	wzr, wzr, [x0, #28]
    43004218:	d65f03c0 	ret

000000004300421c <mtk_gpt_init>:
    4300421c:	a9bf7bfd 	stp	x29, x30, [sp, #-16]!
    43004220:	aa0003e2 	mov	x2, x0
    43004224:	52884800 	mov	w0, #0x4240                	// #16960
    43004228:	72a001e0 	movk	w0, #0xf, lsl #16
    4300422c:	910003fd 	mov	x29, sp
    43004230:	52800141 	mov	w1, #0xa                   	// #10
    43004234:	b9001440 	str	w0, [x2, #20]
    43004238:	b9401040 	ldr	w0, [x2, #16]
    4300423c:	b9001840 	str	w0, [x2, #24]
    43004240:	b9401440 	ldr	w0, [x2, #20]
    43004244:	1ac10804 	udiv	w4, w0, w1
    43004248:	1b018080 	msub	w0, w4, w1, w0
    4300424c:	350000a0 	cbnz	w0, 43004260 <mtk_gpt_init+0x44>
    43004250:	b9401840 	ldr	w0, [x2, #24]
    43004254:	1ac10803 	udiv	w3, w0, w1
    43004258:	1b018060 	msub	w0, w3, w1, w0
    4300425c:	340000e0 	cbz	w0, 43004278 <mtk_gpt_init+0x5c>
    43004260:	aa0203e0 	mov	x0, x2
    43004264:	97ffffcb 	bl	43004190 <mtk_gpt_stop>
    43004268:	aa0203e0 	mov	x0, x2
    4300426c:	97ffffe6 	bl	43004204 <mtk_gpt_reset>
    43004270:	a8c17bfd 	ldp	x29, x30, [sp], #16
    43004274:	17ffffcc 	b	430041a4 <mtk_gpt_start>
    43004278:	29028c44 	stp	w4, w3, [x2, #20]
    4300427c:	17fffff1 	b	43004240 <mtk_gpt_init+0x24>

0000000043004280 <mtk_gpt_get_counter>:
    43004280:	39401002 	ldrb	w2, [x0, #4]
    43004284:	f9400401 	ldr	x1, [x0, #8]
    43004288:	91002024 	add	x4, x1, #0x8
    4300428c:	34000182 	cbz	w2, 430042bc <mtk_gpt_get_counter+0x3c>
    43004290:	91004021 	add	x1, x1, #0x10
    43004294:	b9400023 	ldr	w3, [x1]
    43004298:	b9400082 	ldr	w2, [x4]
    4300429c:	b9001c02 	str	w2, [x0, #28]
    430042a0:	b9400022 	ldr	w2, [x1]
    430042a4:	b9002002 	str	w2, [x0, #32]
    430042a8:	6b03005f 	cmp	w2, w3
    430042ac:	54ffff41 	b.ne	43004294 <mtk_gpt_get_counter+0x14>  // b.any
    430042b0:	29438001 	ldp	w1, w0, [x0, #28]
    430042b4:	aa008020 	orr	x0, x1, x0, lsl #32
    430042b8:	d65f03c0 	ret
    430042bc:	b9400822 	ldr	w2, [x1, #8]
    430042c0:	b9401c01 	ldr	w1, [x0, #28]
    430042c4:	6b02003f 	cmp	w1, w2
    430042c8:	54000089 	b.ls	430042d8 <mtk_gpt_get_counter+0x58>  // b.plast
    430042cc:	b9402001 	ldr	w1, [x0, #32]
    430042d0:	11000421 	add	w1, w1, #0x1
    430042d4:	b9002001 	str	w1, [x0, #32]
    430042d8:	b9001c02 	str	w2, [x0, #28]
    430042dc:	17fffff5 	b	430042b0 <mtk_gpt_get_counter+0x30>

00000000430042e0 <get_kernel_info_pc>:
    430042e0:	f0000020 	adrp	x0, 4300b000 <__STACKS_START__+0x1f00>
    430042e4:	f9474400 	ldr	x0, [x0, #3720]
    430042e8:	d65f03c0 	ret

00000000430042ec <get_kernel_info_r0>:
    430042ec:	f0000020 	adrp	x0, 4300b000 <__STACKS_START__+0x1f00>
    430042f0:	f9474800 	ldr	x0, [x0, #3728]
    430042f4:	d65f03c0 	ret

00000000430042f8 <get_kernel_info_r1>:
    430042f8:	f0000020 	adrp	x0, 4300b000 <__STACKS_START__+0x1f00>
    430042fc:	f9474c00 	ldr	x0, [x0, #3736]
    43004300:	d65f03c0 	ret

0000000043004304 <get_kernel_info_r2>:
    43004304:	f0000020 	adrp	x0, 4300b000 <__STACKS_START__+0x1f00>
    43004308:	f9475000 	ldr	x0, [x0, #3744]
    4300430c:	d65f03c0 	ret

0000000043004310 <boot_to_kernel>:
    43004310:	a9bd7bfd 	stp	x29, x30, [sp, #-48]!
    43004314:	910003fd 	mov	x29, sp
    43004318:	a9025bf5 	stp	x21, x22, [sp, #32]
    4300431c:	aa0003f6 	mov	x22, x0
    43004320:	90000040 	adrp	x0, 4300c000 <dormant_data+0x10>
    43004324:	aa0103f5 	mov	x21, x1
    43004328:	a90153f3 	stp	x19, x20, [sp, #16]
    4300432c:	394d1001 	ldrb	w1, [x0, #836]
    43004330:	350002e1 	cbnz	w1, 4300438c <boot_to_kernel+0x7c>
    43004334:	52800021 	mov	w1, #0x1                   	// #1
    43004338:	aa0303f3 	mov	x19, x3
    4300433c:	390d1001 	strb	w1, [x0, #836]
    43004340:	aa0203f4 	mov	x20, x2
    43004344:	52800020 	mov	w0, #0x1                   	// #1
    43004348:	94000524 	bl	430057d8 <console_switch_state>
    4300434c:	f0000020 	adrp	x0, 4300b000 <__STACKS_START__+0x1f00>
    43004350:	913a2004 	add	x4, x0, #0xe88
    43004354:	f9074416 	str	x22, [x0, #3720]
    43004358:	f9001093 	str	x19, [x4, #32]
    4300435c:	b5000153 	cbnz	x19, 43004384 <boot_to_kernel+0x74>
    43004360:	a900d49f 	stp	xzr, x21, [x4, #8]
    43004364:	f9000c94 	str	x20, [x4, #24]
    43004368:	aa1303e0 	mov	x0, x19
    4300436c:	940000d0 	bl	430046ac <bl31_prepare_kernel_entry>
    43004370:	a94153f3 	ldp	x19, x20, [sp, #16]
    43004374:	52800040 	mov	w0, #0x2                   	// #2
    43004378:	a9425bf5 	ldp	x21, x22, [sp, #32]
    4300437c:	a8c37bfd 	ldp	x29, x30, [sp], #48
    43004380:	14000516 	b	430057d8 <console_switch_state>
    43004384:	a900d095 	stp	x21, x20, [x4, #8]
    43004388:	17fffff8 	b	43004368 <boot_to_kernel+0x58>
    4300438c:	a94153f3 	ldp	x19, x20, [sp, #16]
    43004390:	a9425bf5 	ldp	x21, x22, [sp, #32]
    43004394:	a8c37bfd 	ldp	x29, x30, [sp], #48
    43004398:	d65f03c0 	ret

000000004300439c <plat_get_spsr_for_bl33_entry>:
    4300439c:	52807920 	mov	w0, #0x3c9                 	// #969
    430043a0:	d65f03c0 	ret

00000000430043a4 <plat_is_smccc_feature_available>:
    430043a4:	d2800041 	mov	x1, #0x2                   	// #2
    430043a8:	f2b00001 	movk	x1, #0x8000, lsl #16
    430043ac:	eb01001f 	cmp	x0, x1
    430043b0:	5a9f03e0 	csetm	w0, ne  // ne = any
    430043b4:	d65f03c0 	ret

00000000430043b8 <plat_get_soc_version>:
    430043b8:	528f30c0 	mov	w0, #0x7986                	// #31110
    430043bc:	72a084c0 	movk	w0, #0x426, lsl #16
    430043c0:	d65f03c0 	ret

00000000430043c4 <plat_get_soc_revision>:
    430043c4:	52800000 	mov	w0, #0x0                   	// #0
    430043c8:	d65f03c0 	ret

00000000430043cc <mediatek_sip_handler>:
    430043cc:	a9be7bfd 	stp	x29, x30, [sp, #-32]!
    430043d0:	2a0003e8 	mov	w8, w0
    430043d4:	aa0103e0 	mov	x0, x1
    430043d8:	910003fd 	mov	x29, sp
    430043dc:	f9000bf3 	str	x19, [sp, #16]
    430043e0:	aa0203e1 	mov	x1, x2
    430043e4:	aa0603f3 	mov	x19, x6
    430043e8:	aa0303e2 	mov	x2, x3
    430043ec:	37f000a8 	tbnz	w8, #30, 43004400 <mediatek_sip_handler+0x34>
    430043f0:	92407c00 	and	x0, x0, #0xffffffff
    430043f4:	92407c21 	and	x1, x1, #0xffffffff
    430043f8:	92407c62 	and	x2, x3, #0xffffffff
    430043fc:	92407c84 	and	x4, x4, #0xffffffff
    43004400:	36000107 	tbz	w7, #0, 43004420 <mediatek_sip_handler+0x54>
    43004404:	52800023 	mov	w3, #0x1                   	// #1
    43004408:	72b04003 	movk	w3, #0x8200, lsl #16
    4300440c:	6b03011f 	cmp	w8, w3
    43004410:	54000180 	b.eq	43004440 <mediatek_sip_handler+0x74>  // b.none
    43004414:	1107fc63 	add	w3, w3, #0x1ff
    43004418:	6b03011f 	cmp	w8, w3
    4300441c:	540001e0 	b.eq	43004458 <mediatek_sip_handler+0x8c>  // b.none
    43004420:	aa1303e6 	mov	x6, x19
    43004424:	aa0203e3 	mov	x3, x2
    43004428:	f9400bf3 	ldr	x19, [sp, #16]
    4300442c:	aa0103e2 	mov	x2, x1
    43004430:	a8c27bfd 	ldp	x29, x30, [sp], #32
    43004434:	aa0003e1 	mov	x1, x0
    43004438:	2a0803e0 	mov	w0, w8
    4300443c:	14000396 	b	43005294 <mediatek_plat_sip_handler>
    43004440:	9400038a 	bl	43005268 <mt_sip_set_authorized_sreg>
    43004444:	f9000260 	str	x0, [x19]
    43004448:	aa1303e0 	mov	x0, x19
    4300444c:	f9400bf3 	ldr	x19, [sp, #16]
    43004450:	a8c27bfd 	ldp	x29, x30, [sp], #32
    43004454:	d65f03c0 	ret
    43004458:	aa0403e3 	mov	x3, x4
    4300445c:	97ffffad 	bl	43004310 <boot_to_kernel>
    43004460:	17fffffa 	b	43004448 <mediatek_sip_handler+0x7c>

0000000043004464 <sip_smc_handler>:
    43004464:	529fe02a 	mov	w10, #0xff01                	// #65281
    43004468:	aa0603e8 	mov	x8, x6
    4300446c:	72b0400a 	movk	w10, #0x8200, lsl #16
    43004470:	6b0a001f 	cmp	w0, w10
    43004474:	54000160 	b.eq	430044a0 <sip_smc_handler+0x3c>  // b.none
    43004478:	1100094a 	add	w10, w10, #0x2
    4300447c:	6b0a001f 	cmp	w0, w10
    43004480:	54000280 	b.eq	430044d0 <sip_smc_handler+0x6c>  // b.none
    43004484:	51000d4a 	sub	w10, w10, #0x3
    43004488:	6b0a001f 	cmp	w0, w10
    4300448c:	54000281 	b.ne	430044dc <sip_smc_handler+0x78>  // b.any
    43004490:	d2800220 	mov	x0, #0x11                  	// #17
    43004494:	f9000100 	str	x0, [x8]
    43004498:	aa0803e0 	mov	x0, x8
    4300449c:	d65f03c0 	ret
    430044a0:	d28000a0 	mov	x0, #0x5                   	// #5
    430044a4:	f2a7a1e0 	movk	x0, #0x3d0f, lsl #16
    430044a8:	f9000cc0 	str	x0, [x6, #24]
    430044ac:	d29cb000 	mov	x0, #0xe580                	// #58752
    430044b0:	f2b2b1e0 	movk	x0, #0x958f, lsl #16
    430044b4:	f90008c0 	str	x0, [x6, #16]
    430044b8:	d2884c40 	mov	x0, #0x4262                	// #16994
    430044bc:	f2a9afa0 	movk	x0, #0x4d7d, lsl #16
    430044c0:	f90004c0 	str	x0, [x6, #8]
    430044c4:	d2857480 	mov	x0, #0x2ba4                	// #11172
    430044c8:	f2beeb00 	movk	x0, #0xf758, lsl #16
    430044cc:	17fffff2 	b	43004494 <sip_smc_handler+0x30>
    430044d0:	d2800020 	mov	x0, #0x1                   	// #1
    430044d4:	a90000df 	stp	xzr, x0, [x6]
    430044d8:	17fffff0 	b	43004498 <sip_smc_handler+0x34>
    430044dc:	17ffffbc 	b	430043cc <mediatek_sip_handler>

00000000430044e0 <plat_configure_mmu_el3>:
    430044e0:	a9bd7bfd 	stp	x29, x30, [sp, #-48]!
    430044e4:	910003fd 	mov	x29, sp
    430044e8:	a90153f3 	stp	x19, x20, [sp, #16]
    430044ec:	aa0403f3 	mov	x19, x4
    430044f0:	aa0203f4 	mov	x20, x2
    430044f4:	aa0103e2 	mov	x2, x1
    430044f8:	aa0003e1 	mov	x1, x0
    430044fc:	a9025bf5 	stp	x21, x22, [sp, #32]
    43004500:	aa0503f5 	mov	x21, x5
    43004504:	aa0303f6 	mov	x22, x3
    43004508:	52800143 	mov	w3, #0xa                   	// #10
    4300450c:	97fffc5a 	bl	43003674 <mmap_add_region>
    43004510:	cb1402c2 	sub	x2, x22, x20
    43004514:	aa1403e1 	mov	x1, x20
    43004518:	aa1403e0 	mov	x0, x20
    4300451c:	52800043 	mov	w3, #0x2                   	// #2
    43004520:	97fffc55 	bl	43003674 <mmap_add_region>
    43004524:	cb1302a2 	sub	x2, x21, x19
    43004528:	aa1303e1 	mov	x1, x19
    4300452c:	52800103 	mov	w3, #0x8                   	// #8
    43004530:	aa1303e0 	mov	x0, x19
    43004534:	97fffc50 	bl	43003674 <mmap_add_region>
    43004538:	f0000000 	adrp	x0, 43007000 <vprintf+0x1d0>
    4300453c:	910a2000 	add	x0, x0, #0x288
    43004540:	97fffc5a 	bl	430036a8 <mmap_add>
    43004544:	97fffc5d 	bl	430036b8 <init_xlat_tables>
    43004548:	a94153f3 	ldp	x19, x20, [sp, #16]
    4300454c:	52800000 	mov	w0, #0x0                   	// #0
    43004550:	a9425bf5 	ldp	x21, x22, [sp, #32]
    43004554:	a8c37bfd 	ldp	x29, x30, [sp], #48
    43004558:	17fffc67 	b	430036f4 <enable_mmu_el3>

000000004300455c <plat_get_syscnt_freq2>:
    4300455c:	528ba800 	mov	w0, #0x5d40                	// #23872
    43004560:	72a018c0 	movk	w0, #0xc6, lsl #16
    43004564:	d65f03c0 	ret

0000000043004568 <mt7986_disable_l2c_shared>:
    43004568:	a9bf7bfd 	stp	x29, x30, [sp, #-16]!
    4300456c:	910003fd 	mov	x29, sp
    43004570:	d5033f9f 	dsb	sy
    43004574:	d5033fdf 	isb
    43004578:	d2800020 	mov	x0, #0x1                   	// #1
    4300457c:	9400080c 	bl	430065ac <dcsw_op_all>
    43004580:	d5033f9f 	dsb	sy
    43004584:	d5033fdf 	isb
    43004588:	d2800780 	mov	x0, #0x3c                  	// #60
    4300458c:	f2a20800 	movk	x0, #0x1040, lsl #16
    43004590:	b9400001 	ldr	w1, [x0]
    43004594:	32030021 	orr	w1, w1, #0x20000000
    43004598:	b9000001 	str	w1, [x0]
    4300459c:	b9400001 	ldr	w1, [x0]
    430045a0:	36f7ffe1 	tbz	w1, #30, 4300459c <mt7986_disable_l2c_shared+0x34>
    430045a4:	b9400001 	ldr	w1, [x0]
    430045a8:	12027821 	and	w1, w1, #0xdfffffff
    430045ac:	b9000001 	str	w1, [x0]
    430045b0:	d280fe00 	mov	x0, #0x7f0                 	// #2032
    430045b4:	52806001 	mov	w1, #0x300                 	// #768
    430045b8:	f2a20800 	movk	x0, #0x1040, lsl #16
    430045bc:	b9000001 	str	w1, [x0]
    430045c0:	a8c17bfd 	ldp	x29, x30, [sp], #16
    430045c4:	d65f03c0 	ret

00000000430045c8 <platform_setup_cpu>:
    430045c8:	d280fe00 	mov	x0, #0x7f0                 	// #2032
    430045cc:	f2a20800 	movk	x0, #0x1040, lsl #16
    430045d0:	b9400000 	ldr	w0, [x0]
    430045d4:	360000c0 	tbz	w0, #0, 430045ec <platform_setup_cpu+0x24>
    430045d8:	528001a1 	mov	w1, #0xd                   	// #13
    430045dc:	0a402020 	and	w0, w1, w0, lsr #8
    430045e0:	7100041f 	cmp	w0, #0x1
    430045e4:	54000041 	b.ne	430045ec <platform_setup_cpu+0x24>  // b.any
    430045e8:	17ffffe0 	b	43004568 <mt7986_disable_l2c_shared>
    430045ec:	d65f03c0 	ret

00000000430045f0 <bl31_plat_get_next_image_ep_info>:
    430045f0:	7100041f 	cmp	w0, #0x1
    430045f4:	f0000021 	adrp	x1, 4300b000 <__STACKS_START__+0x1f00>
    430045f8:	f0000022 	adrp	x2, 4300b000 <__STACKS_START__+0x1f00>
    430045fc:	913c2020 	add	x0, x1, #0xf08
    43004600:	913ac042 	add	x2, x2, #0xeb0
    43004604:	9a820000 	csel	x0, x0, x2, eq  // eq = none
    43004608:	f9400401 	ldr	x1, [x0, #8]
    4300460c:	f100003f 	cmp	x1, #0x0
    43004610:	9a9f1000 	csel	x0, x0, xzr, ne  // ne = any
    43004614:	d65f03c0 	ret

0000000043004618 <bl31_plat_get_next_kernel_ep_info>:
    43004618:	35000380 	cbnz	w0, 43004688 <bl31_plat_get_next_kernel_ep_info+0x70>
    4300461c:	f0000020 	adrp	x0, 4300b000 <__STACKS_START__+0x1f00>
    43004620:	52803a21 	mov	w1, #0x1d1                 	// #465
    43004624:	a9be7bfd 	stp	x29, x30, [sp, #-32]!
    43004628:	b90f1801 	str	w1, [x0, #3864]
    4300462c:	910003fd 	mov	x29, sp
    43004630:	f9000bf3 	str	x19, [sp, #16]
    43004634:	f0000033 	adrp	x19, 4300b000 <__STACKS_START__+0x1f00>
    43004638:	913c2273 	add	x19, x19, #0xf08
    4300463c:	97ffff29 	bl	430042e0 <get_kernel_info_pc>
    43004640:	f9000660 	str	x0, [x19, #8]
    43004644:	97ffff2a 	bl	430042ec <get_kernel_info_r0>
    43004648:	f9000e60 	str	x0, [x19, #24]
    4300464c:	97ffff2b 	bl	430042f8 <get_kernel_info_r1>
    43004650:	f9001260 	str	x0, [x19, #32]
    43004654:	97ffff2c 	bl	43004304 <get_kernel_info_r2>
    43004658:	f9001660 	str	x0, [x19, #40]
    4300465c:	12800421 	mov	w1, #0xffffffde            	// #-34
    43004660:	b9400660 	ldr	w0, [x19, #4]
    43004664:	0a010000 	and	w0, w0, w1
    43004668:	32000000 	orr	w0, w0, #0x1
    4300466c:	b9000660 	str	w0, [x19, #4]
    43004670:	f9400660 	ldr	x0, [x19, #8]
    43004674:	b5000140 	cbnz	x0, 4300469c <bl31_plat_get_next_kernel_ep_info+0x84>
    43004678:	d2800000 	mov	x0, #0x0                   	// #0
    4300467c:	f9400bf3 	ldr	x19, [sp, #16]
    43004680:	a8c27bfd 	ldp	x29, x30, [sp], #32
    43004684:	d65f03c0 	ret
    43004688:	7100041f 	cmp	w0, #0x1
    4300468c:	540000c1 	b.ne	430046a4 <bl31_plat_get_next_kernel_ep_info+0x8c>  // b.any
    43004690:	f0000020 	adrp	x0, 4300b000 <__STACKS_START__+0x1f00>
    43004694:	528078a1 	mov	w1, #0x3c5                 	// #965
    43004698:	17ffffe3 	b	43004624 <bl31_plat_get_next_kernel_ep_info+0xc>
    4300469c:	aa1303e0 	mov	x0, x19
    430046a0:	17fffff7 	b	4300467c <bl31_plat_get_next_kernel_ep_info+0x64>
    430046a4:	d2800000 	mov	x0, #0x0                   	// #0
    430046a8:	d65f03c0 	ret

00000000430046ac <bl31_prepare_kernel_entry>:
    430046ac:	a9bf7bfd 	stp	x29, x30, [sp, #-16]!
    430046b0:	910003fd 	mov	x29, sp
    430046b4:	b50000c0 	cbnz	x0, 430046cc <bl31_prepare_kernel_entry+0x20>
    430046b8:	97ffffd8 	bl	43004618 <bl31_plat_get_next_kernel_ep_info>
    430046bc:	97fff525 	bl	43001b50 <cm_init_my_context>
    430046c0:	a8c17bfd 	ldp	x29, x30, [sp], #16
    430046c4:	52800020 	mov	w0, #0x1                   	// #1
    430046c8:	17fff555 	b	43001c1c <cm_prepare_el3_exit>
    430046cc:	52800020 	mov	w0, #0x1                   	// #1
    430046d0:	17fffffa 	b	430046b8 <bl31_prepare_kernel_entry+0xc>

00000000430046d4 <bl31_early_platform_setup2>:
    430046d4:	a9be7bfd 	stp	x29, x30, [sp, #-32]!
    430046d8:	f0000024 	adrp	x4, 4300b000 <__STACKS_START__+0x1f00>
    430046dc:	52984002 	mov	w2, #0xc200                	// #49664
    430046e0:	913d8084 	add	x4, x4, #0xf60
    430046e4:	528b4001 	mov	w1, #0x5a00                	// #23040
    430046e8:	910003fd 	mov	x29, sp
    430046ec:	52800023 	mov	w3, #0x1                   	// #1
    430046f0:	72a00022 	movk	w2, #0x1, lsl #16
    430046f4:	72a04c41 	movk	w1, #0x262, lsl #16
    430046f8:	d2840000 	mov	x0, #0x2000                	// #8192
    430046fc:	f2a22000 	movk	x0, #0x1100, lsl #16
    43004700:	f9000bf3 	str	x19, [sp, #16]
    43004704:	940006f3 	bl	430062d0 <console_hsuart_register>
    43004708:	97ffffb0 	bl	430045c8 <platform_setup_cpu>
    4300470c:	9400081c 	bl	4300677c <check_version>
    43004710:	f0000022 	adrp	x2, 4300b000 <__STACKS_START__+0x1f00>
    43004714:	913ac040 	add	x0, x2, #0xeb0
    43004718:	d2802021 	mov	x1, #0x101                 	// #257
    4300471c:	f2a00b01 	movk	x1, #0x58, lsl #16
    43004720:	f9075841 	str	x1, [x2, #3760]
    43004724:	d2a86062 	mov	x2, #0x43030000            	// #1124270080
    43004728:	f9000402 	str	x2, [x0, #8]
    4300472c:	b900101f 	str	wzr, [x0, #16]
    43004730:	f0000020 	adrp	x0, 4300b000 <__STACKS_START__+0x1f00>
    43004734:	913c2013 	add	x19, x0, #0xf08
    43004738:	f9078401 	str	x1, [x0, #3848]
    4300473c:	d2a83c00 	mov	x0, #0x41e00000            	// #1105199104
    43004740:	f9000660 	str	x0, [x19, #8]
    43004744:	97ffff16 	bl	4300439c <plat_get_spsr_for_bl33_entry>
    43004748:	b9001260 	str	w0, [x19, #16]
    4300474c:	12800421 	mov	w1, #0xffffffde            	// #-34
    43004750:	b9400660 	ldr	w0, [x19, #4]
    43004754:	0a010000 	and	w0, w0, w1
    43004758:	32000000 	orr	w0, w0, #0x1
    4300475c:	b9000660 	str	w0, [x19, #4]
    43004760:	f9400bf3 	ldr	x19, [sp, #16]
    43004764:	a8c27bfd 	ldp	x29, x30, [sp], #32
    43004768:	d65f03c0 	ret

000000004300476c <bl31_platform_setup>:
    4300476c:	a9bf7bfd 	stp	x29, x30, [sp, #-16]!
    43004770:	910003fd 	mov	x29, sp
    43004774:	940001a6 	bl	43004e0c <mtk_timer_init>
    43004778:	9400011e 	bl	43004bf0 <emi_mpu_init>
    4300477c:	a8c17bfd 	ldp	x29, x30, [sp], #16
    43004780:	14000043 	b	4300488c <devapc_init>

0000000043004784 <bl31_plat_arch_setup>:
    43004784:	a9bf7bfd 	stp	x29, x30, [sp, #-16]!
    43004788:	910003fd 	mov	x29, sp
    4300478c:	940001e8 	bl	43004f2c <plat_mt_gic_init>
    43004790:	94000134 	bl	43004c60 <spmc_init>
    43004794:	a8c17bfd 	ldp	x29, x30, [sp], #16
    43004798:	b0ffffe2 	adrp	x2, 43001000 <bl31_entrypoint>
    4300479c:	f0000085 	adrp	x5, 43017000 <RAM_REGION_END>
    430047a0:	91000042 	add	x2, x2, #0x0
    430047a4:	910000a5 	add	x5, x5, #0x0
    430047a8:	aa0203e0 	mov	x0, x2
    430047ac:	cb0200a1 	sub	x1, x5, x2
    430047b0:	d0000084 	adrp	x4, 43016000 <psci_locks>
    430047b4:	b0000023 	adrp	x3, 43009000 <__RO_END_UNALIGNED__>
    430047b8:	91000084 	add	x4, x4, #0x0
    430047bc:	91000063 	add	x3, x3, #0x0
    430047c0:	17ffff48 	b	430044e0 <plat_configure_mmu_el3>

00000000430047c4 <set_module_apc>:
    430047c4:	2a0103e6 	mov	w6, w1
    430047c8:	2a0003e4 	mov	w4, w0
    430047cc:	7101c8df 	cmp	w6, #0x72
    430047d0:	52000001 	eor	w1, w0, #0x1
    430047d4:	1a9f87e0 	cset	w0, ls  // ls = plast
    430047d8:	6a00003f 	tst	w1, w0
    430047dc:	54000361 	b.ne	43004848 <set_module_apc+0x84>  // b.any
    430047e0:	710000df 	cmp	w6, #0x0
    430047e4:	1a9f17e0 	cset	w0, eq  // eq = none
    430047e8:	6a00009f 	tst	w4, w0
    430047ec:	54000060 	b.eq	430047f8 <set_module_apc+0x34>  // b.none
    430047f0:	71000c5f 	cmp	w2, #0x3
    430047f4:	54000469 	b.ls	43004880 <set_module_apc+0xbc>  // b.plast
    430047f8:	d10083ff 	sub	sp, sp, #0x20
    430047fc:	f0000007 	adrp	x7, 43007000 <vprintf+0x1d0>
    43004800:	f0000005 	adrp	x5, 43007000 <vprintf+0x1d0>
    43004804:	913464e7 	add	x7, x7, #0xd19
    43004808:	91348ca5 	add	x5, x5, #0xd23
    4300480c:	f0000003 	adrp	x3, 43007000 <vprintf+0x1d0>
    43004810:	a9017bfd 	stp	x29, x30, [sp, #16]
    43004814:	910043fd 	add	x29, sp, #0x10
    43004818:	9134a863 	add	x3, x3, #0xd2a
    4300481c:	90000021 	adrp	x1, 43008000 <INFRA_AO_SYS0_Devices+0x288>
    43004820:	b90003e2 	str	w2, [sp]
    43004824:	9112a021 	add	x1, x1, #0x4a8
    43004828:	f0000000 	adrp	x0, 43007000 <vprintf+0x1d0>
    4300482c:	f0000002 	adrp	x2, 43007000 <vprintf+0x1d0>
    43004830:	91351400 	add	x0, x0, #0xd45
    43004834:	9134d442 	add	x2, x2, #0xd35
    43004838:	940003a3 	bl	430056c4 <tf_log>
    4300483c:	a9417bfd 	ldp	x29, x30, [sp, #16]
    43004840:	910083ff 	add	sp, sp, #0x20
    43004844:	d65f03c0 	ret
    43004848:	d2a34201 	mov	x1, #0x1a100000            	// #437256192
    4300484c:	531f0cc4 	ubfiz	w4, w6, #1, #4
    43004850:	53047cc6 	lsr	w6, w6, #4
    43004854:	531a6442 	lsl	w2, w2, #6
    43004858:	52800060 	mov	w0, #0x3                   	// #3
    4300485c:	d37e6cc6 	ubfiz	x6, x6, #2, #28
    43004860:	1ac42000 	lsl	w0, w0, w4
    43004864:	8b0200c6 	add	x6, x6, x2
    43004868:	1ac42063 	lsl	w3, w3, w4
    4300486c:	b86168c2 	ldr	w2, [x6, x1]
    43004870:	0a200040 	bic	w0, w2, w0
    43004874:	2a030003 	orr	w3, w0, w3
    43004878:	b82168c3 	str	w3, [x6, x1]
    4300487c:	d65f03c0 	ret
    43004880:	d2820001 	mov	x1, #0x1000                	// #4096
    43004884:	f2a34201 	movk	x1, #0x1a10, lsl #16
    43004888:	17fffff1 	b	4300484c <set_module_apc+0x88>

000000004300488c <devapc_init>:
    4300488c:	a9be7bfd 	stp	x29, x30, [sp, #-32]!
    43004890:	d281e001 	mov	x1, #0xf00                 	// #3840
    43004894:	f2a341e1 	movk	x1, #0x1a0f, lsl #16
    43004898:	910003fd 	mov	x29, sp
    4300489c:	a90153f3 	stp	x19, x20, [sp, #16]
    430048a0:	320107e0 	mov	w0, #0x80000001            	// #-2147483647
    430048a4:	f0000013 	adrp	x19, 43007000 <vprintf+0x1d0>
    430048a8:	b9000020 	str	w0, [x1]
    430048ac:	91404021 	add	x1, x1, #0x10, lsl #12
    430048b0:	9135e273 	add	x19, x19, #0xd78
    430048b4:	52800014 	mov	w20, #0x0                   	// #0
    430048b8:	b9000020 	str	w0, [x1]
    430048bc:	91404021 	add	x1, x1, #0x10, lsl #12
    430048c0:	b9000020 	str	w0, [x1]
    430048c4:	39400263 	ldrb	w3, [x19]
    430048c8:	2a1403e1 	mov	w1, w20
    430048cc:	52800002 	mov	w2, #0x0                   	// #0
    430048d0:	52800000 	mov	w0, #0x0                   	// #0
    430048d4:	91004273 	add	x19, x19, #0x10
    430048d8:	97ffffbb 	bl	430047c4 <set_module_apc>
    430048dc:	385f1263 	ldurb	w3, [x19, #-15]
    430048e0:	2a1403e1 	mov	w1, w20
    430048e4:	52800022 	mov	w2, #0x1                   	// #1
    430048e8:	52800000 	mov	w0, #0x0                   	// #0
    430048ec:	97ffffb6 	bl	430047c4 <set_module_apc>
    430048f0:	385f2263 	ldurb	w3, [x19, #-14]
    430048f4:	2a1403e1 	mov	w1, w20
    430048f8:	52800042 	mov	w2, #0x2                   	// #2
    430048fc:	52800000 	mov	w0, #0x0                   	// #0
    43004900:	97ffffb1 	bl	430047c4 <set_module_apc>
    43004904:	385f3263 	ldurb	w3, [x19, #-13]
    43004908:	2a1403e1 	mov	w1, w20
    4300490c:	52800062 	mov	w2, #0x3                   	// #3
    43004910:	52800000 	mov	w0, #0x0                   	// #0
    43004914:	97ffffac 	bl	430047c4 <set_module_apc>
    43004918:	385f4263 	ldurb	w3, [x19, #-12]
    4300491c:	2a1403e1 	mov	w1, w20
    43004920:	52800082 	mov	w2, #0x4                   	// #4
    43004924:	52800000 	mov	w0, #0x0                   	// #0
    43004928:	97ffffa7 	bl	430047c4 <set_module_apc>
    4300492c:	385f5263 	ldurb	w3, [x19, #-11]
    43004930:	2a1403e1 	mov	w1, w20
    43004934:	528000a2 	mov	w2, #0x5                   	// #5
    43004938:	52800000 	mov	w0, #0x0                   	// #0
    4300493c:	97ffffa2 	bl	430047c4 <set_module_apc>
    43004940:	385f6263 	ldurb	w3, [x19, #-10]
    43004944:	2a1403e1 	mov	w1, w20
    43004948:	528000c2 	mov	w2, #0x6                   	// #6
    4300494c:	52800000 	mov	w0, #0x0                   	// #0
    43004950:	97ffff9d 	bl	430047c4 <set_module_apc>
    43004954:	385f7263 	ldurb	w3, [x19, #-9]
    43004958:	2a1403e1 	mov	w1, w20
    4300495c:	528000e2 	mov	w2, #0x7                   	// #7
    43004960:	52800000 	mov	w0, #0x0                   	// #0
    43004964:	97ffff98 	bl	430047c4 <set_module_apc>
    43004968:	385f8263 	ldurb	w3, [x19, #-8]
    4300496c:	2a1403e1 	mov	w1, w20
    43004970:	52800102 	mov	w2, #0x8                   	// #8
    43004974:	52800000 	mov	w0, #0x0                   	// #0
    43004978:	97ffff93 	bl	430047c4 <set_module_apc>
    4300497c:	385f9263 	ldurb	w3, [x19, #-7]
    43004980:	2a1403e1 	mov	w1, w20
    43004984:	52800122 	mov	w2, #0x9                   	// #9
    43004988:	52800000 	mov	w0, #0x0                   	// #0
    4300498c:	97ffff8e 	bl	430047c4 <set_module_apc>
    43004990:	385fa263 	ldurb	w3, [x19, #-6]
    43004994:	2a1403e1 	mov	w1, w20
    43004998:	52800142 	mov	w2, #0xa                   	// #10
    4300499c:	52800000 	mov	w0, #0x0                   	// #0
    430049a0:	97ffff89 	bl	430047c4 <set_module_apc>
    430049a4:	385fb263 	ldurb	w3, [x19, #-5]
    430049a8:	2a1403e1 	mov	w1, w20
    430049ac:	52800162 	mov	w2, #0xb                   	// #11
    430049b0:	52800000 	mov	w0, #0x0                   	// #0
    430049b4:	97ffff84 	bl	430047c4 <set_module_apc>
    430049b8:	385fc263 	ldurb	w3, [x19, #-4]
    430049bc:	2a1403e1 	mov	w1, w20
    430049c0:	52800182 	mov	w2, #0xc                   	// #12
    430049c4:	52800000 	mov	w0, #0x0                   	// #0
    430049c8:	97ffff7f 	bl	430047c4 <set_module_apc>
    430049cc:	385fd263 	ldurb	w3, [x19, #-3]
    430049d0:	2a1403e1 	mov	w1, w20
    430049d4:	528001a2 	mov	w2, #0xd                   	// #13
    430049d8:	52800000 	mov	w0, #0x0                   	// #0
    430049dc:	97ffff7a 	bl	430047c4 <set_module_apc>
    430049e0:	385fe263 	ldurb	w3, [x19, #-2]
    430049e4:	2a1403e1 	mov	w1, w20
    430049e8:	528001c2 	mov	w2, #0xe                   	// #14
    430049ec:	52800000 	mov	w0, #0x0                   	// #0
    430049f0:	97ffff75 	bl	430047c4 <set_module_apc>
    430049f4:	385ff263 	ldurb	w3, [x19, #-1]
    430049f8:	2a1403e1 	mov	w1, w20
    430049fc:	528001e2 	mov	w2, #0xf                   	// #15
    43004a00:	52800000 	mov	w0, #0x0                   	// #0
    43004a04:	11000694 	add	w20, w20, #0x1
    43004a08:	97ffff6f 	bl	430047c4 <set_module_apc>
    43004a0c:	7101ce9f 	cmp	w20, #0x73
    43004a10:	54fff5a1 	b.ne	430048c4 <devapc_init+0x38>  // b.any
    43004a14:	52800003 	mov	w3, #0x0                   	// #0
    43004a18:	52800002 	mov	w2, #0x0                   	// #0
    43004a1c:	52800001 	mov	w1, #0x0                   	// #0
    43004a20:	52800020 	mov	w0, #0x1                   	// #1
    43004a24:	97ffff68 	bl	430047c4 <set_module_apc>
    43004a28:	52800022 	mov	w2, #0x1                   	// #1
    43004a2c:	52800063 	mov	w3, #0x3                   	// #3
    43004a30:	2a0203e0 	mov	w0, w2
    43004a34:	52800001 	mov	w1, #0x0                   	// #0
    43004a38:	97ffff63 	bl	430047c4 <set_module_apc>
    43004a3c:	52800063 	mov	w3, #0x3                   	// #3
    43004a40:	52800042 	mov	w2, #0x2                   	// #2
    43004a44:	52800001 	mov	w1, #0x0                   	// #0
    43004a48:	52800020 	mov	w0, #0x1                   	// #1
    43004a4c:	97ffff5e 	bl	430047c4 <set_module_apc>
    43004a50:	a94153f3 	ldp	x19, x20, [sp, #16]
    43004a54:	52800063 	mov	w3, #0x3                   	// #3
    43004a58:	a8c27bfd 	ldp	x29, x30, [sp], #32
    43004a5c:	2a0303e2 	mov	w2, w3
    43004a60:	52800001 	mov	w1, #0x0                   	// #0
    43004a64:	52800020 	mov	w0, #0x1                   	// #1
    43004a68:	17ffff57 	b	430047c4 <set_module_apc>

0000000043004a6c <dump_emi_mpu_regions>:
    43004a6c:	d28c6000 	mov	x0, #0x6300                	// #25344
    43004a70:	f2a20440 	movk	x0, #0x1022, lsl #16
    43004a74:	b9400000 	ldr	w0, [x0]
    43004a78:	d28c8000 	mov	x0, #0x6400                	// #25600
    43004a7c:	f2a20440 	movk	x0, #0x1022, lsl #16
    43004a80:	b9400000 	ldr	w0, [x0]
    43004a84:	d28c2000 	mov	x0, #0x6100                	// #24832
    43004a88:	f2a20440 	movk	x0, #0x1022, lsl #16
    43004a8c:	b9400000 	ldr	w0, [x0]
    43004a90:	d28c4000 	mov	x0, #0x6200                	// #25088
    43004a94:	f2a20440 	movk	x0, #0x1022, lsl #16
    43004a98:	b9400000 	ldr	w0, [x0]
    43004a9c:	d28c6080 	mov	x0, #0x6304                	// #25348
    43004aa0:	f2a20440 	movk	x0, #0x1022, lsl #16
    43004aa4:	b9400000 	ldr	w0, [x0]
    43004aa8:	d28c8080 	mov	x0, #0x6404                	// #25604
    43004aac:	f2a20440 	movk	x0, #0x1022, lsl #16
    43004ab0:	b9400000 	ldr	w0, [x0]
    43004ab4:	d28c2080 	mov	x0, #0x6104                	// #24836
    43004ab8:	f2a20440 	movk	x0, #0x1022, lsl #16
    43004abc:	b9400000 	ldr	w0, [x0]
    43004ac0:	d28c4080 	mov	x0, #0x6204                	// #25092
    43004ac4:	f2a20440 	movk	x0, #0x1022, lsl #16
    43004ac8:	b9400000 	ldr	w0, [x0]
    43004acc:	d28c6100 	mov	x0, #0x6308                	// #25352
    43004ad0:	f2a20440 	movk	x0, #0x1022, lsl #16
    43004ad4:	b9400000 	ldr	w0, [x0]
    43004ad8:	d28c8100 	mov	x0, #0x6408                	// #25608
    43004adc:	f2a20440 	movk	x0, #0x1022, lsl #16
    43004ae0:	b9400000 	ldr	w0, [x0]
    43004ae4:	d28c2100 	mov	x0, #0x6108                	// #24840
    43004ae8:	f2a20440 	movk	x0, #0x1022, lsl #16
    43004aec:	b9400000 	ldr	w0, [x0]
    43004af0:	d28c4100 	mov	x0, #0x6208                	// #25096
    43004af4:	f2a20440 	movk	x0, #0x1022, lsl #16
    43004af8:	b9400000 	ldr	w0, [x0]
    43004afc:	d28c6180 	mov	x0, #0x630c                	// #25356
    43004b00:	f2a20440 	movk	x0, #0x1022, lsl #16
    43004b04:	b9400000 	ldr	w0, [x0]
    43004b08:	d28c8180 	mov	x0, #0x640c                	// #25612
    43004b0c:	f2a20440 	movk	x0, #0x1022, lsl #16
    43004b10:	b9400000 	ldr	w0, [x0]
    43004b14:	d28c2180 	mov	x0, #0x610c                	// #24844
    43004b18:	f2a20440 	movk	x0, #0x1022, lsl #16
    43004b1c:	b9400000 	ldr	w0, [x0]
    43004b20:	d28c4180 	mov	x0, #0x620c                	// #25100
    43004b24:	f2a20440 	movk	x0, #0x1022, lsl #16
    43004b28:	b9400000 	ldr	w0, [x0]
    43004b2c:	d65f03c0 	ret

0000000043004b30 <emi_mpu_set_protection>:
    43004b30:	b9401002 	ldr	w2, [x0, #16]
    43004b34:	71007c5f 	cmp	w2, #0x1f
    43004b38:	54000588 	b.hi	43004be8 <emi_mpu_set_protection+0xb8>  // b.pmore
    43004b3c:	a9401c01 	ldp	x1, x7, [x0]
    43004b40:	53081c42 	lsl	w2, w2, #24
    43004b44:	52931808 	mov	w8, #0x98c0                	// #39104
    43004b48:	d2800026 	mov	x6, #0x1                   	// #1
    43004b4c:	72a08108 	movk	w8, #0x408, lsl #16
    43004b50:	aa414041 	orr	x1, x2, x1, lsr #16
    43004b54:	d350fce7 	lsr	x7, x7, #16
    43004b58:	92405c2a 	and	x10, x1, #0xffffff
    43004b5c:	d358fc22 	lsr	x2, x1, #24
    43004b60:	0b416108 	add	w8, w8, w1, lsr #24
    43004b64:	f27b085f 	tst	x2, #0xe0
    43004b68:	52930802 	mov	w2, #0x9840                	// #38976
    43004b6c:	72a08102 	movk	w2, #0x408, lsl #16
    43004b70:	1a9f07eb 	cset	w11, ne  // ne = any
    43004b74:	0b416042 	add	w2, w2, w1, lsr #24
    43004b78:	d140114c 	sub	x12, x10, #0x4, lsl #12
    43004b7c:	92722421 	and	x1, x1, #0xffc000
    43004b80:	531e7445 	lsl	w5, w2, #2
    43004b84:	d37e6c43 	ubfiz	x3, x2, #2, #28
    43004b88:	110400a5 	add	w5, w5, #0x100
    43004b8c:	91006002 	add	x2, x0, #0x18
    43004b90:	aa0660e0 	orr	x0, x7, x6, lsl #24
    43004b94:	7100017f 	cmp	w11, #0x0
    43004b98:	f8667849 	ldr	x9, [x2, x6, lsl #3]
    43004b9c:	53187c04 	lsr	w4, w0, #24
    43004ba0:	7a420882 	ccmp	w4, #0x2, #0x2, eq  // eq = none
    43004ba4:	92405c00 	and	x0, x0, #0xffffff
    43004ba8:	54000168 	b.hi	43004bd4 <emi_mpu_set_protection+0xa4>  // b.pmore
    43004bac:	f100003f 	cmp	x1, #0x0
    43004bb0:	12016129 	and	w9, w9, #0x80ffffff
    43004bb4:	fa401142 	ccmp	x10, x0, #0x2, ne  // ne = any
    43004bb8:	540000e8 	b.hi	43004bd4 <emi_mpu_set_protection+0xa4>  // b.pmore
    43004bbc:	0b041904 	add	w4, w8, w4, lsl #6
    43004bc0:	b900006c 	str	w12, [x3]
    43004bc4:	d1401000 	sub	x0, x0, #0x4, lsl #12
    43004bc8:	b90000a0 	str	w0, [x5]
    43004bcc:	d37e7084 	ubfiz	x4, x4, #2, #29
    43004bd0:	b9000089 	str	w9, [x4]
    43004bd4:	b5000066 	cbnz	x6, 43004be0 <emi_mpu_set_protection+0xb0>
    43004bd8:	52800000 	mov	w0, #0x0                   	// #0
    43004bdc:	d65f03c0 	ret
    43004be0:	d2800006 	mov	x6, #0x0                   	// #0
    43004be4:	17ffffeb 	b	43004b90 <emi_mpu_set_protection+0x60>
    43004be8:	12800000 	mov	w0, #0xffffffff            	// #-1
    43004bec:	17fffffc 	b	43004bdc <emi_mpu_set_protection+0xac>

0000000043004bf0 <emi_mpu_init>:
    43004bf0:	a9bc7bfd 	stp	x29, x30, [sp, #-64]!
    43004bf4:	d2a86000 	mov	x0, #0x43000000            	// #1124073472
    43004bf8:	910003fd 	mov	x29, sp
    43004bfc:	f9000fe0 	str	x0, [sp, #24]
    43004c00:	12b79f80 	mov	w0, #0x4303ffff            	// #1124335615
    43004c04:	f90013e0 	str	x0, [sp, #32]
    43004c08:	d29b6da0 	mov	x0, #0xdb6d                	// #56173
    43004c0c:	f2a016c0 	movk	x0, #0xb6, lsl #16
    43004c10:	f9001fe0 	str	x0, [sp, #56]
    43004c14:	d29b6d20 	mov	x0, #0xdb69                	// #56169
    43004c18:	b9002bff 	str	wzr, [sp, #40]
    43004c1c:	f2b016c0 	movk	x0, #0x80b6, lsl #16
    43004c20:	f9001be0 	str	x0, [sp, #48]
    43004c24:	910063e0 	add	x0, sp, #0x18
    43004c28:	97ffffc2 	bl	43004b30 <emi_mpu_set_protection>
    43004c2c:	97ffff90 	bl	43004a6c <dump_emi_mpu_regions>
    43004c30:	a8c47bfd 	ldp	x29, x30, [sp], #64
    43004c34:	d65f03c0 	ret

0000000043004c38 <set_cpu_retention_control>:
    43004c38:	a9be7bfd 	stp	x29, x30, [sp, #-32]!
    43004c3c:	910003fd 	mov	x29, sp
    43004c40:	f9000bf3 	str	x19, [sp, #16]
    43004c44:	93407c13 	sxtw	x19, w0
    43004c48:	940005b8 	bl	43006328 <read_cpuectlr>
    43004c4c:	927df000 	and	x0, x0, #0xfffffffffffffff8
    43004c50:	aa000260 	orr	x0, x19, x0
    43004c54:	f9400bf3 	ldr	x19, [sp, #16]
    43004c58:	a8c27bfd 	ldp	x29, x30, [sp], #32
    43004c5c:	140005b5 	b	43006330 <write_cpuectlr>

0000000043004c60 <spmc_init>:
    43004c60:	d2800400 	mov	x0, #0x20                  	// #32
    43004c64:	d2800501 	mov	x1, #0x28                  	// #40
    43004c68:	f2a23a20 	movk	x0, #0x11d1, lsl #16
    43004c6c:	f2a23a21 	movk	x1, #0x11d1, lsl #16
    43004c70:	b900001f 	str	wzr, [x0]
    43004c74:	b9400020 	ldr	w0, [x1]
    43004c78:	121f7800 	and	w0, w0, #0xfffffffe
    43004c7c:	b9000020 	str	w0, [x1]
    43004c80:	b9400420 	ldr	w0, [x1, #4]
    43004c84:	121f7800 	and	w0, w0, #0xfffffffe
    43004c88:	b9000420 	str	w0, [x1, #4]
    43004c8c:	b9400820 	ldr	w0, [x1, #8]
    43004c90:	121f7800 	and	w0, w0, #0xfffffffe
    43004c94:	b9000820 	str	w0, [x1, #8]
    43004c98:	b9400c20 	ldr	w0, [x1, #12]
    43004c9c:	121f7800 	and	w0, w0, #0xfffffffe
    43004ca0:	b9000c20 	str	w0, [x1, #12]
    43004ca4:	d2800480 	mov	x0, #0x24                  	// #36
    43004ca8:	f2a23a20 	movk	x0, #0x11d1, lsl #16
    43004cac:	b9400001 	ldr	w1, [x0]
    43004cb0:	121f7821 	and	w1, w1, #0xfffffffe
    43004cb4:	b9000001 	str	w1, [x0]
    43004cb8:	b9400001 	ldr	w1, [x0]
    43004cbc:	121c7821 	and	w1, w1, #0xfffffff7
    43004cc0:	b9000001 	str	w1, [x0]
    43004cc4:	90000040 	adrp	x0, 4300c000 <dormant_data+0x10>
    43004cc8:	52800021 	mov	w1, #0x1                   	// #1
    43004ccc:	b9029801 	str	w1, [x0, #664]
    43004cd0:	52800000 	mov	w0, #0x0                   	// #0
    43004cd4:	d65f03c0 	ret

0000000043004cd8 <spmc_cpu_corex_onoff>:
    43004cd8:	a9bd7bfd 	stp	x29, x30, [sp, #-48]!
    43004cdc:	2a0003e4 	mov	w4, w0
    43004ce0:	910003fd 	mov	x29, sp
    43004ce4:	a90153f3 	stp	x19, x20, [sp, #16]
    43004ce8:	a9025bf5 	stp	x21, x22, [sp, #32]
    43004cec:	2a0203f6 	mov	w22, w2
    43004cf0:	71000c1f 	cmp	w0, #0x3
    43004cf4:	54000508 	b.hi	43004d94 <spmc_cpu_corex_onoff+0xbc>  // b.pmore
    43004cf8:	52838603 	mov	w3, #0x1c30                	// #7216
    43004cfc:	52800513 	mov	w19, #0x28                  	// #40
    43004d00:	72a20803 	movk	w3, #0x1040, lsl #16
    43004d04:	72a23a33 	movk	w19, #0x11d1, lsl #16
    43004d08:	0b000863 	add	w3, w3, w0, lsl #2
    43004d0c:	0b000a73 	add	w19, w19, w0, lsl #2
    43004d10:	f0000000 	adrp	x0, 43007000 <vprintf+0x1d0>
    43004d14:	9129b000 	add	x0, x0, #0xa6c
    43004d18:	78645802 	ldrh	w2, [x0, w4, uxtw #1]
    43004d1c:	52800034 	mov	w20, #0x1                   	// #1
    43004d20:	1ac42294 	lsl	w20, w20, w4
    43004d24:	35000501 	cbnz	w1, 43004dc4 <spmc_cpu_corex_onoff+0xec>
    43004d28:	90000055 	adrp	x21, 4300c000 <dormant_data+0x10>
    43004d2c:	b9429aa0 	ldr	w0, [x21, #664]
    43004d30:	6a00029f 	tst	w20, w0
    43004d34:	54000260 	b.eq	43004d80 <spmc_cpu_corex_onoff+0xa8>  // b.none
    43004d38:	2a0303e1 	mov	w1, w3
    43004d3c:	b9400020 	ldr	w0, [x1]
    43004d40:	710006df 	cmp	w22, #0x1
    43004d44:	54000301 	b.ne	43004da4 <spmc_cpu_corex_onoff+0xcc>  // b.any
    43004d48:	121e7800 	and	w0, w0, #0xfffffffd
    43004d4c:	b9000020 	str	w0, [x1]
    43004d50:	2a1603e0 	mov	w0, w22
    43004d54:	97ffffb9 	bl	43004c38 <set_cpu_retention_control>
    43004d58:	2a1303f3 	mov	w19, w19
    43004d5c:	b9400260 	ldr	w0, [x19]
    43004d60:	121e7800 	and	w0, w0, #0xfffffffd
    43004d64:	b9000260 	str	w0, [x19]
    43004d68:	35000076 	cbnz	w22, 43004d74 <spmc_cpu_corex_onoff+0x9c>
    43004d6c:	b9400260 	ldr	w0, [x19]
    43004d70:	37f7ffe0 	tbnz	w0, #30, 43004d6c <spmc_cpu_corex_onoff+0x94>
    43004d74:	b9429aa4 	ldr	w4, [x21, #664]
    43004d78:	0a340084 	bic	w4, w4, w20
    43004d7c:	b9029aa4 	str	w4, [x21, #664]
    43004d80:	52800000 	mov	w0, #0x0                   	// #0
    43004d84:	a94153f3 	ldp	x19, x20, [sp, #16]
    43004d88:	a9425bf5 	ldp	x21, x22, [sp, #32]
    43004d8c:	a8c37bfd 	ldp	x29, x30, [sp], #48
    43004d90:	d65f03c0 	ret
    43004d94:	52800002 	mov	w2, #0x0                   	// #0
    43004d98:	d2800013 	mov	x19, #0x0                   	// #0
    43004d9c:	52800003 	mov	w3, #0x0                   	// #0
    43004da0:	17ffffdf 	b	43004d1c <spmc_cpu_corex_onoff+0x44>
    43004da4:	321f0000 	orr	w0, w0, #0x2
    43004da8:	b9000020 	str	w0, [x1]
    43004dac:	d2802101 	mov	x1, #0x108                 	// #264
    43004db0:	f2a23a21 	movk	x1, #0x11d1, lsl #16
    43004db4:	b9400020 	ldr	w0, [x1]
    43004db8:	6a00005f 	tst	w2, w0
    43004dbc:	54ffffc0 	b.eq	43004db4 <spmc_cpu_corex_onoff+0xdc>  // b.none
    43004dc0:	17ffffe6 	b	43004d58 <spmc_cpu_corex_onoff+0x80>
    43004dc4:	b9400260 	ldr	w0, [x19]
    43004dc8:	321f0000 	orr	w0, w0, #0x2
    43004dcc:	b9000260 	str	w0, [x19]
    43004dd0:	b9400260 	ldr	w0, [x19]
    43004dd4:	36f7ffe0 	tbz	w0, #30, 43004dd0 <spmc_cpu_corex_onoff+0xf8>
    43004dd8:	90000040 	adrp	x0, 4300c000 <dormant_data+0x10>
    43004ddc:	b9429804 	ldr	w4, [x0, #664]
    43004de0:	2a140084 	orr	w4, w4, w20
    43004de4:	b9029804 	str	w4, [x0, #664]
    43004de8:	17ffffe6 	b	43004d80 <spmc_cpu_corex_onoff+0xa8>

0000000043004dec <get_timer_value>:
    43004dec:	a9bf7bfd 	stp	x29, x30, [sp, #-16]!
    43004df0:	b0000020 	adrp	x0, 43009000 <__RO_END_UNALIGNED__>
    43004df4:	9101c000 	add	x0, x0, #0x70
    43004df8:	910003fd 	mov	x29, sp
    43004dfc:	97fffd21 	bl	43004280 <mtk_gpt_get_counter>
    43004e00:	2a2003e0 	mvn	w0, w0
    43004e04:	a8c17bfd 	ldp	x29, x30, [sp], #16
    43004e08:	d65f03c0 	ret

0000000043004e0c <mtk_timer_init>:
    43004e0c:	a9bf7bfd 	stp	x29, x30, [sp, #-16]!
    43004e10:	b0000020 	adrp	x0, 43009000 <__RO_END_UNALIGNED__>
    43004e14:	9101c000 	add	x0, x0, #0x70
    43004e18:	910003fd 	mov	x29, sp
    43004e1c:	97fffd00 	bl	4300421c <mtk_gpt_init>
    43004e20:	5285a001 	mov	w1, #0x2d00                	// #11520
    43004e24:	52884802 	mov	w2, #0x4240                	// #16960
    43004e28:	528000c3 	mov	w3, #0x6                   	// #6
    43004e2c:	72a02621 	movk	w1, #0x131, lsl #16
    43004e30:	72a001e2 	movk	w2, #0xf, lsl #16
    43004e34:	52800140 	mov	w0, #0xa                   	// #10
    43004e38:	1ac00824 	udiv	w4, w1, w0
    43004e3c:	1b008485 	msub	w5, w4, w0, w1
    43004e40:	350000a5 	cbnz	w5, 43004e54 <mtk_timer_init+0x48>
    43004e44:	1ac00842 	udiv	w2, w2, w0
    43004e48:	2a0403e1 	mov	w1, w4
    43004e4c:	71000463 	subs	w3, w3, #0x1
    43004e50:	54ffff41 	b.ne	43004e38 <mtk_timer_init+0x2c>  // b.any
    43004e54:	f0000024 	adrp	x4, 4300b000 <__STACKS_START__+0x1f00>
    43004e58:	90000003 	adrp	x3, 43004000 <mtk_efuse_read+0x34>
    43004e5c:	913e4080 	add	x0, x4, #0xf90
    43004e60:	9137b063 	add	x3, x3, #0xdec
    43004e64:	f907c883 	str	x3, [x4, #3984]
    43004e68:	29010402 	stp	w2, w1, [x0, #8]
    43004e6c:	97fff2ce 	bl	430019a4 <timer_init>
    43004e70:	d28ba800 	mov	x0, #0x5d40                	// #23872
    43004e74:	f2a018c0 	movk	x0, #0xc6, lsl #16
    43004e78:	d51be000 	msr	cntfrq_el0, x0
    43004e7c:	a8c17bfd 	ldp	x29, x30, [sp], #16
    43004e80:	d65f03c0 	ret

0000000043004e84 <mtk_wdt_soft_reset>:
    43004e84:	d2980001 	mov	x1, #0xc000                	// #49152
    43004e88:	12800902 	mov	w2, #0xffffffb7            	// #-73
    43004e8c:	f2a20021 	movk	x1, #0x1001, lsl #16
    43004e90:	b9400020 	ldr	w0, [x1]
    43004e94:	0a020000 	and	w0, w0, w2
    43004e98:	52a44002 	mov	w2, #0x22000000            	// #570425344
    43004e9c:	2a020000 	orr	w0, w0, w2
    43004ea0:	b9000020 	str	w0, [x1]
    43004ea4:	11001042 	add	w2, w2, #0x4
    43004ea8:	b9400020 	ldr	w0, [x1]
    43004eac:	2a020000 	orr	w0, w0, w2
    43004eb0:	b9000020 	str	w0, [x1]
    43004eb4:	52832e22 	mov	w2, #0x1971                	// #6513
    43004eb8:	b9400820 	ldr	w0, [x1, #8]
    43004ebc:	2a020000 	orr	w0, w0, w2
    43004ec0:	b9000820 	str	w0, [x1, #8]
    43004ec4:	52824122 	mov	w2, #0x1209                	// #4617
    43004ec8:	b9401420 	ldr	w0, [x1, #20]
    43004ecc:	2a020000 	orr	w0, w0, w2
    43004ed0:	b9001420 	str	w0, [x1, #20]
    43004ed4:	d65f03c0 	ret

0000000043004ed8 <mt_mpidr_to_core_pos>:
    43004ed8:	14000167 	b	43005474 <plat_core_pos_by_mpidr>

0000000043004edc <mt_gic_rdistif_init>:
    43004edc:	a9bf7bfd 	stp	x29, x30, [sp, #-16]!
    43004ee0:	910003fd 	mov	x29, sp
    43004ee4:	94000515 	bl	43006338 <plat_my_core_pos>
    43004ee8:	f0000021 	adrp	x1, 4300b000 <__STACKS_START__+0x1f00>
    43004eec:	12800002 	mov	w2, #0xffffffff            	// #-1
    43004ef0:	f945b421 	ldr	x1, [x1, #2920]
    43004ef4:	f9401021 	ldr	x1, [x1, #32]
    43004ef8:	f8605820 	ldr	x0, [x1, w0, uxtw #3]
    43004efc:	d2801001 	mov	x1, #0x80                  	// #128
    43004f00:	f2a00021 	movk	x1, #0x1, lsl #16
    43004f04:	b8216802 	str	w2, [x0, x1]
    43004f08:	91320021 	add	x1, x1, #0xc80
    43004f0c:	b821681f 	str	wzr, [x0, x1]
    43004f10:	a8c17bfd 	ldp	x29, x30, [sp], #16
    43004f14:	d65f03c0 	ret

0000000043004f18 <mt_gic_cpuif_enable>:
    43004f18:	a9bf7bfd 	stp	x29, x30, [sp, #-16]!
    43004f1c:	910003fd 	mov	x29, sp
    43004f20:	94000506 	bl	43006338 <plat_my_core_pos>
    43004f24:	a8c17bfd 	ldp	x29, x30, [sp], #16
    43004f28:	17fff278 	b	43001908 <gicv3_cpuif_enable>

0000000043004f2c <plat_mt_gic_init>:
    43004f2c:	a9bf7bfd 	stp	x29, x30, [sp, #-16]!
    43004f30:	f0000021 	adrp	x1, 4300b000 <__STACKS_START__+0x1f00>
    43004f34:	913e8020 	add	x0, x1, #0xfa0
    43004f38:	910003fd 	mov	x29, sp
    43004f3c:	d2a18122 	mov	x2, #0xc090000             	// #201916416
    43004f40:	f907d022 	str	x2, [x1, #4000]
    43004f44:	d2a18161 	mov	x1, #0xc0b0000             	// #202047488
    43004f48:	f9000401 	str	x1, [x0, #8]
    43004f4c:	d2a181a1 	mov	x1, #0xc0d0000             	// #202178560
    43004f50:	f9000801 	str	x1, [x0, #16]
    43004f54:	d2a181e1 	mov	x1, #0xc0f0000             	// #202309632
    43004f58:	f9000c01 	str	x1, [x0, #24]
    43004f5c:	b0000020 	adrp	x0, 43009000 <__RO_END_UNALIGNED__>
    43004f60:	91026000 	add	x0, x0, #0x98
    43004f64:	97fff22b 	bl	43001810 <gicv3_driver_init>
    43004f68:	97fff247 	bl	43001884 <gicv3_distif_init>
    43004f6c:	97ffffeb 	bl	43004f18 <mt_gic_cpuif_enable>
    43004f70:	a8c17bfd 	ldp	x29, x30, [sp], #16
    43004f74:	17ffffda 	b	43004edc <mt_gic_rdistif_init>

0000000043004f78 <plat_cpu_standby>:
    43004f78:	d53e1100 	mrs	x0, scr_el3
    43004f7c:	321f0001 	orr	w1, w0, #0x2
    43004f80:	d51e1101 	msr	scr_el3, x1
    43004f84:	d5033fdf 	isb
    43004f88:	d5033f9f 	dsb	sy
    43004f8c:	d503207f 	wfi
    43004f90:	92407c00 	and	x0, x0, #0xffffffff
    43004f94:	d51e1100 	msr	scr_el3, x0
    43004f98:	d65f03c0 	ret

0000000043004f9c <plat_power_domain_suspend>:
    43004f9c:	d53800a1 	mrs	x1, mpidr_el1
    43004fa0:	12001c20 	and	w0, w1, #0xff
    43004fa4:	53083c21 	ubfx	w1, w1, #8, #8
    43004fa8:	52802802 	mov	w2, #0x140                 	// #320
    43004fac:	9ba27c21 	umull	x1, w1, w2
    43004fb0:	52800a02 	mov	w2, #0x50                  	// #80
    43004fb4:	9ba20401 	umaddl	x1, w0, w2, x1
    43004fb8:	f0000020 	adrp	x0, 4300b000 <__STACKS_START__+0x1f00>
    43004fbc:	913fc000 	add	x0, x0, #0xff0
    43004fc0:	8b010000 	add	x0, x0, x1
    43004fc4:	d538e101 	mrs	x1, cntkctl_el1
    43004fc8:	d53be242 	mrs	x2, cntp_cval_el0
    43004fcc:	a9000801 	stp	x1, x2, [x0]
    43004fd0:	d53be201 	mrs	x1, cntp_tval_el0
    43004fd4:	d53be222 	mrs	x2, cntp_ctl_el0
    43004fd8:	a9010801 	stp	x1, x2, [x0, #16]
    43004fdc:	d53be301 	mrs	x1, cntv_tval_el0
    43004fe0:	d53be322 	mrs	x2, cntv_ctl_el0
    43004fe4:	a9020801 	stp	x1, x2, [x0, #32]
    43004fe8:	d53be220 	mrs	x0, cntp_ctl_el0
    43004fec:	927f7800 	and	x0, x0, #0xfffffffe
    43004ff0:	d51be220 	msr	cntp_ctl_el0, x0
    43004ff4:	d65f03c0 	ret

0000000043004ff8 <plat_power_domain_suspend_finish>:
    43004ff8:	d53800a1 	mrs	x1, mpidr_el1
    43004ffc:	39400000 	ldrb	w0, [x0]
    43005000:	7100041f 	cmp	w0, #0x1
    43005004:	54000260 	b.eq	43005050 <plat_power_domain_suspend_finish+0x58>  // b.none
    43005008:	12001c20 	and	w0, w1, #0xff
    4300500c:	53083c21 	ubfx	w1, w1, #8, #8
    43005010:	52802802 	mov	w2, #0x140                 	// #320
    43005014:	9ba27c21 	umull	x1, w1, w2
    43005018:	52800a02 	mov	w2, #0x50                  	// #80
    4300501c:	9ba20401 	umaddl	x1, w0, w2, x1
    43005020:	d0000020 	adrp	x0, 4300b000 <__STACKS_START__+0x1f00>
    43005024:	913fc000 	add	x0, x0, #0xff0
    43005028:	8b010000 	add	x0, x0, x1
    4300502c:	a9400801 	ldp	x1, x2, [x0]
    43005030:	d518e101 	msr	cntkctl_el1, x1
    43005034:	d51be242 	msr	cntp_cval_el0, x2
    43005038:	a9410801 	ldp	x1, x2, [x0, #16]
    4300503c:	d51be201 	msr	cntp_tval_el0, x1
    43005040:	d51be222 	msr	cntp_ctl_el0, x2
    43005044:	a9420801 	ldp	x1, x2, [x0, #32]
    43005048:	d51be301 	msr	cntv_tval_el0, x1
    4300504c:	d51be322 	msr	cntv_ctl_el0, x2
    43005050:	d65f03c0 	ret

0000000043005054 <plat_get_sys_suspend_power_state>:
    43005054:	52800041 	mov	w1, #0x2                   	// #2
    43005058:	39000001 	strb	w1, [x0]
    4300505c:	39000401 	strb	w1, [x0, #1]
    43005060:	39000801 	strb	w1, [x0, #2]
    43005064:	d65f03c0 	ret

0000000043005068 <plat_validate_power_state>:
    43005068:	2a0003e2 	mov	w2, w0
    4300506c:	d3586440 	ubfx	x0, x2, #24, #2
    43005070:	d3504043 	ubfx	x3, x2, #16, #1
    43005074:	71000c1f 	cmp	w0, #0x3
    43005078:	54000100 	b.eq	43005098 <plat_validate_power_state+0x30>  // b.none
    4300507c:	35000123 	cbnz	w3, 430050a0 <plat_validate_power_state+0x38>
    43005080:	350000c0 	cbnz	w0, 43005098 <plat_validate_power_state+0x30>
    43005084:	52800020 	mov	w0, #0x1                   	// #1
    43005088:	39000020 	strb	w0, [x1]
    4300508c:	52800000 	mov	w0, #0x0                   	// #0
    43005090:	72003c5f 	tst	w2, #0xffff
    43005094:	54000040 	b.eq	4300509c <plat_validate_power_state+0x34>  // b.none
    43005098:	12800020 	mov	w0, #0xfffffffe            	// #-2
    4300509c:	d65f03c0 	ret
    430050a0:	52800043 	mov	w3, #0x2                   	// #2
    430050a4:	39000023 	strb	w3, [x1]
    430050a8:	34ffff20 	cbz	w0, 4300508c <plat_validate_power_state+0x24>
    430050ac:	39000423 	strb	w3, [x1, #1]
    430050b0:	7100081f 	cmp	w0, #0x2
    430050b4:	54fffec1 	b.ne	4300508c <plat_validate_power_state+0x24>  // b.any
    430050b8:	39000820 	strb	w0, [x1, #2]
    430050bc:	17fffff4 	b	4300508c <plat_validate_power_state+0x24>

00000000430050c0 <plat_mtk_system_reset2>:
    430050c0:	d29a0001 	mov	x1, #0xd000                	// #53248
    430050c4:	a9bf7bfd 	stp	x29, x30, [sp, #-16]!
    430050c8:	f2a20021 	movk	x1, #0x1001, lsl #16
    430050cc:	910003fd 	mov	x29, sp
    430050d0:	b9400020 	ldr	w0, [x1]
    430050d4:	52800022 	mov	w2, #0x1                   	// #1
    430050d8:	72a44002 	movk	w2, #0x2200, lsl #16
    430050dc:	2a020000 	orr	w0, w0, w2
    430050e0:	b9000020 	str	w0, [x1]
    430050e4:	97ffff68 	bl	43004e84 <mtk_wdt_soft_reset>
    430050e8:	d503207f 	wfi
    430050ec:	f0000000 	adrp	x0, 43008000 <INFRA_AO_SYS0_Devices+0x288>
    430050f0:	9112dc00 	add	x0, x0, #0x4b7
    430050f4:	94000174 	bl	430056c4 <tf_log>
    430050f8:	940001ec 	bl	430058a8 <console_flush>
    430050fc:	940004b7 	bl	430063d8 <el3_panic>

0000000043005100 <plat_mtk_system_reset>:
    43005100:	a9bf7bfd 	stp	x29, x30, [sp, #-16]!
    43005104:	910003fd 	mov	x29, sp
    43005108:	97ffff5f 	bl	43004e84 <mtk_wdt_soft_reset>
    4300510c:	d503207f 	wfi
    43005110:	f0000000 	adrp	x0, 43008000 <INFRA_AO_SYS0_Devices+0x288>
    43005114:	9112dc00 	add	x0, x0, #0x4b7
    43005118:	9400016b 	bl	430056c4 <tf_log>
    4300511c:	940001e3 	bl	430058a8 <console_flush>
    43005120:	940004ae 	bl	430063d8 <el3_panic>

0000000043005124 <plat_system_off>:
    43005124:	a9bf7bfd 	stp	x29, x30, [sp, #-16]!
    43005128:	910003fd 	mov	x29, sp
    4300512c:	d503207f 	wfi
    43005130:	f0000000 	adrp	x0, 43008000 <INFRA_AO_SYS0_Devices+0x288>
    43005134:	91138800 	add	x0, x0, #0x4e2
    43005138:	94000163 	bl	430056c4 <tf_log>
    4300513c:	940001db 	bl	430058a8 <console_flush>
    43005140:	940004a6 	bl	430063d8 <el3_panic>

0000000043005144 <plat_power_domain_off>:
    43005144:	d53800a0 	mrs	x0, mpidr_el1
    43005148:	52800022 	mov	w2, #0x1                   	// #1
    4300514c:	12001c00 	and	w0, w0, #0xff
    43005150:	52800001 	mov	w1, #0x0                   	// #0
    43005154:	17fffee1 	b	43004cd8 <spmc_cpu_corex_onoff>

0000000043005158 <plat_power_domain_on>:
    43005158:	d2800782 	mov	x2, #0x3c                  	// #60
    4300515c:	529e0003 	mov	w3, #0xf000                	// #61440
    43005160:	f2a20802 	movk	x2, #0x1040, lsl #16
