
/media/data_nvme/git/uboot/u-boot/build/mt7622/release/bl31/bl31.elf:     file format elf64-littleaarch64
/media/data_nvme/git/uboot/u-boot/build/mt7622/release/bl31/bl31.elf
architecture: aarch64, flags 0x00000112:
EXEC_P, HAS_SYMS, D_PAGED
start address 0x0000000043001000

Program Header:
    LOAD off    0x0000000000001000 vaddr 0x0000000043001000 paddr 0x0000000043001000 align 2**12
         filesz 0x000000000000a0ec memsz 0x0000000000011000 flags rwx
   STACK off    0x0000000000000000 vaddr 0x0000000000000000 paddr 0x0000000000000000 align 2**4
         filesz 0x0000000000000000 memsz 0x0000000000000000 flags rw-
private flags = 0x0:

Sections:
Idx Name          Size      VMA               LMA               File off  Algn
  0 .ro           0000a000  0000000043001000  0000000043001000  00001000  2**11
                  CONTENTS, ALLOC, LOAD, CODE
  1 .data         000000dd  000000004300b000  000000004300b000  0000b000  2**2
                  CONTENTS, ALLOC, LOAD, DATA
  2 tzfw_coherent_mem 0000000c  000000004300b0e0  000000004300b0e0  0000b0e0  2**2
                  CONTENTS, ALLOC, LOAD, DATA
  3 .stacks       00001000  000000004300b100  000000004300b100  0000b0ec  2**6
                  ALLOC
  4 .bss          00000c00  000000004300c100  000000004300c100  0000b0ec  2**6
                  ALLOC
  5 .xlat_table   00004000  000000004300d000  000000004300d000  0000b0ec  2**12
                  ALLOC
  6 .coherent_ram 00001000  0000000043011000  0000000043011000  0000b0ec  2**12
                  ALLOC
  7 .debug_info   000241c4  0000000000000000  0000000000000000  0000b0ec  2**0
                  CONTENTS, READONLY, DEBUGGING, OCTETS
  8 .debug_abbrev 00008c19  0000000000000000  0000000000000000  0002f2b0  2**0
                  CONTENTS, READONLY, DEBUGGING, OCTETS
  9 .debug_aranges 000027c0  0000000000000000  0000000000000000  00037ed0  2**4
                  CONTENTS, READONLY, DEBUGGING, OCTETS
 10 .debug_line   0000fb69  0000000000000000  0000000000000000  0003a690  2**0
                  CONTENTS, READONLY, DEBUGGING, OCTETS
 11 .debug_str    0000688c  0000000000000000  0000000000000000  0004a1f9  2**0
                  CONTENTS, READONLY, DEBUGGING, OCTETS
 12 .comment      0000005d  0000000000000000  0000000000000000  00050a85  2**0
                  CONTENTS, READONLY
 13 .debug_loc    0001f867  0000000000000000  0000000000000000  00050ae2  2**0
                  CONTENTS, READONLY, DEBUGGING, OCTETS
 14 .debug_ranges 00006a80  0000000000000000  0000000000000000  00070350  2**4
                  CONTENTS, READONLY, DEBUGGING, OCTETS
 15 .debug_frame  00000d08  0000000000000000  0000000000000000  00076dd0  2**3
                  CONTENTS, READONLY, DEBUGGING, OCTETS
SYMBOL TABLE:
0000000043001000 l    d  .ro	0000000000000000 .ro
000000004300b000 l    d  .data	0000000000000000 .data
000000004300b0e0 l    d  tzfw_coherent_mem	0000000000000000 tzfw_coherent_mem
000000004300b100 l    d  .stacks	0000000000000000 .stacks
000000004300c100 l    d  .bss	0000000000000000 .bss
000000004300d000 l    d  .xlat_table	0000000000000000 .xlat_table
0000000043011000 l    d  .coherent_ram	0000000000000000 .coherent_ram
0000000000000000 l    d  .debug_info	0000000000000000 .debug_info
0000000000000000 l    d  .debug_abbrev	0000000000000000 .debug_abbrev
0000000000000000 l    d  .debug_aranges	0000000000000000 .debug_aranges
0000000000000000 l    d  .debug_line	0000000000000000 .debug_line
0000000000000000 l    d  .debug_str	0000000000000000 .debug_str
0000000000000000 l    d  .comment	0000000000000000 .comment
0000000000000000 l    d  .debug_loc	0000000000000000 .debug_loc
0000000000000000 l    d  .debug_ranges	0000000000000000 .debug_ranges
0000000000000000 l    d  .debug_frame	0000000000000000 .debug_frame
0000000000000000 l    df *ABS*	0000000000000000 bl31_entrypoint.o
0000000000000000 l    df *ABS*	0000000000000000 bl31_context_mgmt.c
0000000000000000 l    df *ABS*	0000000000000000 bl31_main.c
000000004300c620 l     O .bss	0000000000000008 bl32_init
000000004300b000 l     O .data	0000000000000004 next_image_type
00000000430076f8 l     O .ro	0000000000000010 psci_args.0
0000000000000000 l    df *ABS*	0000000000000000 bl31_traps.c
0000000000000000 l    df *ABS*	0000000000000000 interrupt_mgmt.c
000000004300c628 l     O .bss	0000000000000060 intr_type_descs
0000000000000000 l    df *ABS*	0000000000000000 runtime_svc.c
0000000000000000 l    df *ABS*	0000000000000000 cci.c
000000004300c688 l     O .bss	0000000000000008 cci_base
000000004300c690 l     O .bss	0000000000000008 cci_slave_if_map
0000000000000000 l    df *ABS*	0000000000000000 gic_common.c
0000000000000000 l    df *ABS*	0000000000000000 gicv2_helpers.c
0000000000000000 l    df *ABS*	0000000000000000 gicv2_main.c
000000004300c698 l     O .bss	0000000000000008 driver_data
0000000000000000 l    df *ABS*	0000000000000000 delay_timer.c
000000004300c6a0 l     O .bss	0000000000000008 timer_ops
0000000000000000 l    df *ABS*	0000000000000000 generic_delay_timer.c
0000000043001a88 l     F .ro	000000000000000c get_timer_value
000000004300c6a8 l     O .bss	0000000000000010 ops
0000000000000000 l    df *ABS*	0000000000000000 errata_report.c
0000000000000000 l    df *ABS*	0000000000000000 context_mgmt.c
0000000000000000 l    df *ABS*	0000000000000000 spe.c
0000000043001e38 l     F .ro	0000000000000024 spe_drain_buffers_hook
0000000000000000 l    df *ABS*	0000000000000000 bakery_lock_coherent.c
0000000000000000 l    df *ABS*	0000000000000000 psci_common.c
0000000043001f70 l     F .ro	0000000000000034 psci_set_req_local_pwr_state
000000004300ccd4 l     O .bss	0000000000000004 psci_req_local_pwr_states
0000000000000000 l    df *ABS*	0000000000000000 psci_main.c
0000000000000000 l    df *ABS*	0000000000000000 psci_mem_protect.c
0000000000000000 l    df *ABS*	0000000000000000 psci_off.c
0000000000000000 l    df *ABS*	0000000000000000 psci_on.c
0000000000000000 l    df *ABS*	0000000000000000 psci_setup.c
000000004300c1a0 l     O .bss	0000000000000480 psci_ns_context
0000000000000000 l    df *ABS*	0000000000000000 psci_suspend.c
0000000000000000 l    df *ABS*	0000000000000000 psci_system_off.c
0000000000000000 l    df *ABS*	0000000000000000 xlat_tables.c
000000004300c180 l     O .bss	0000000000000020 base_xlation_table
000000004300c6e8 l     O .bss	0000000000000008 tcr_ps_bits
0000000000000000 l    df *ABS*	0000000000000000 xlat_tables_common.c
00000000430037ac l     F .ro	00000000000001e4 init_xlation_table_inner
000000004300d000 l     O .xlat_table	0000000000004000 xlat_tables
000000004300c6f0 l     O .bss	0000000000000008 ap1_mask
000000004300c6f8 l     O .bss	0000000000000008 execute_never_mask
000000004300c700 l     O .bss	0000000000000220 mmap
000000004300cb00 l     O .bss	0000000000000004 next_xlat
000000004300c920 l     O .bss	0000000000000008 xlat_max_pa
000000004300c928 l     O .bss	0000000000000008 xlat_max_va
0000000000000000 l    df *ABS*	0000000000000000 arm_gicv2.c
0000000000000000 l    df *ABS*	0000000000000000 plat_gicv2.c
0000000000000000 l    df *ABS*	0000000000000000 mtk_efuse.c
000000004300cb04 l     O .bss	000000000000012c mtk_efuse_field
0000000043009c69 l     O .ro	0000000000000010 __func__.0
0000000043009c79 l     O .ro	000000000000000f __func__.1
0000000043009c88 l     O .ro	0000000000000012 __func__.2
0000000000000000 l    df *ABS*	0000000000000000 mtk_bl31_boot_next_legacy.c
0000000000000000 l    df *ABS*	0000000000000000 mtk_plat_common.c
0000000000000000 l    df *ABS*	0000000000000000 mtk_sip_svc_legacy.c
000000004300a3a0 l     O .ro	0000000000000020 __svc_desc_mediatek_sip_svc
0000000000000000 l    df *ABS*	0000000000000000 platform_common.c
0000000043007d6c l     O .ro	0000000000000008 cci_map
0000000000000000 l    df *ABS*	0000000000000000 bl31_plat_setup.c
000000004300c930 l     O .bss	0000000000000058 bl32_ep_info
000000004300c988 l     O .bss	0000000000000058 bl33_ep_info
000000004300c9e0 l     O .bss	0000000000000030 console.0
0000000000000000 l    df *ABS*	0000000000000000 pmic_wrap.c
0000000043004174 l     F .ro	000000000000008c wait_for_state_idle.constprop.0
0000000000000000 l    df *ABS*	0000000000000000 rtc.c
0000000043004378 l     F .ro	0000000000000068 Write_trigger
0000000000000000 l    df *ABS*	0000000000000000 mtcmos.c
000000004300442c l     F .ro	00000000000000e4 mtcmos_power_on.constprop.0
000000004300b004 l     O .data	000000000000003c scp_domain_mt7622
0000000000000000 l    df *ABS*	0000000000000000 spm.c
000000004300b0e0 l     O tzfw_coherent_mem	0000000000000004 spm_mcdi_ready
000000004300b0e4 l     O tzfw_coherent_mem	0000000000000004 spm_hotplug_ready
000000004300b0e8 l     O tzfw_coherent_mem	0000000000000004 spm_suspend_ready
0000000000000000 l    df *ABS*	0000000000000000 spm_hotplug.c
0000000000000000 l    df *ABS*	0000000000000000 spm_mcdi.c
000000004300b040 l     O .data	000000000000004c mcdi_ctrl
0000000043007d7c l     O .ro	0000000000000fa4 mcdi_binary
0000000043007788 l     O .ro	0000000000000038 mcdi_pcm
0000000000000000 l    df *ABS*	0000000000000000 spm_suspend.c
000000004300b08c l     O .data	000000000000004c spm_ctrl
0000000043008d20 l     O .ro	0000000000000d3c suspend_binary_ca7
00000000430077c0 l     O .ro	0000000000000038 suspend_pcm_ca7
0000000000000000 l    df *ABS*	0000000000000000 cpuxgpt.c
0000000000000000 l    df *ABS*	0000000000000000 mtk_wdt.c
0000000000000000 l    df *ABS*	0000000000000000 mtk_ar_table.c
0000000043004fc8 l     F .ro	0000000000000040 mtk_antirollback_check_mtk_ar_table_parms
0000000043005008 l     F .ro	00000000000000a4 mtk_antirollback_get_efuse_ar_ver
0000000043009ec8 l     O .ro	0000000000000025 __func__.0
0000000043009eed l     O .ro	0000000000000022 __func__.1
0000000043009f0f l     O .ro	0000000000000025 __func__.2
0000000043009f34 l     O .ro	0000000000000020 __func__.3
0000000043009f54 l     O .ro	0000000000000022 __func__.6
0000000043009f76 l     O .ro	000000000000002a __func__.7
0000000000000000 l    df *ABS*	0000000000000000 plat_mt_gic.c
0000000000000000 l    df *ABS*	0000000000000000 plat_pm.c
0000000043005274 l     F .ro	0000000000000024 plat_cpu_standby
0000000043005298 l     F .ro	0000000000000014 plat_get_sys_suspend_power_state
00000000430052ac l     F .ro	0000000000000058 plat_validate_power_state
0000000043005304 l     F .ro	0000000000000024 plat_mtk_system_reset
0000000043005328 l     F .ro	0000000000000024 plat_system_off
000000004300534c l     F .ro	00000000000000dc plat_power_domain_suspend_finish
0000000043005428 l     F .ro	00000000000000f8 plat_power_domain_suspend
0000000043005520 l     F .ro	0000000000000054 plat_power_domain_off
0000000043005574 l     F .ro	0000000000000044 plat_power_domain_on
00000000430055f0 l     F .ro	0000000000000074 plat_power_domain_on_finish
000000004300ca18 l     O .bss	0000000000000030 console.0
000000004300ca48 l     O .bss	00000000000000a0 dormant_data
000000004300cae8 l     O .bss	0000000000000008 secure_entrypoint
0000000043007828 l     O .ro	00000000000000b0 plat_plat_pm_ops
0000000000000000 l    df *ABS*	0000000000000000 plat_sip_calls.c
000000004300cc34 l     O .bss	0000000000000020 efuse_buffer.1
000000004300a00f l     O .ro	000000000000001a __func__.0
0000000000000000 l    df *ABS*	0000000000000000 plat_topology.c
0000000000000000 l    df *ABS*	0000000000000000 power_tracer.c
0000000000000000 l    df *ABS*	0000000000000000 scu.c
0000000000000000 l    df *ABS*	0000000000000000 arm_arch_svc_setup.c
000000004300593c l     F .ro	000000000000013c arm_arch_svc_smc_handler
000000004300a3c0 l     O .ro	0000000000000020 __svc_desc_arm_arch_svc
0000000000000000 l    df *ABS*	0000000000000000 std_svc_setup.c
0000000043005a78 l     F .ro	00000000000000b4 std_svc_smc_handler
0000000043005b2c l     F .ro	0000000000000024 std_svc_setup
000000004300a3e0 l     O .ro	0000000000000020 __svc_desc_std_svc
0000000000000000 l    df *ABS*	0000000000000000 bl_common.c
0000000000000000 l    df *ABS*	0000000000000000 tf_log.c
000000004300b0d8 l     O .data	0000000000000004 max_log_level
0000000000000000 l    df *ABS*	0000000000000000 multi_console.c
000000004300b0dc l     O .data	0000000000000001 console_state
0000000000000000 l    df *ABS*	0000000000000000 pmuv3.c
0000000000000000 l    df *ABS*	0000000000000000 plat_log_common.c
00000000430078d8 l     O .ro	0000000000000028 plat_prefix_str
0000000000000000 l    df *ABS*	0000000000000000 plat_common.c
0000000000000000 l    df *ABS*	0000000000000000 crash_reporting.o
0000000000000000 l    df *ABS*	0000000000000000 ea_delegate.o
0000000043005f5c l     F .ro	0000000000000068 ea_proceed
0000000043005f54 l     F .ro	0000000000000004 delegate_sync_ea
0000000043005f58 l     F .ro	0000000000000004 delegate_async_ea
0000000000000000 l    df *ABS*	0000000000000000 runtime_exceptions.o
0000000043005fc4 l       .ro	0000000000000000 smc_handler32
0000000043005fc8 l       .ro	0000000000000000 sync_handler64
000000004300acec l       .ro	0000000000000000 interrupt_exit_irq_aarch64
000000004300ad6c l       .ro	0000000000000000 interrupt_exit_fiq_aarch64
000000004300aeec l       .ro	0000000000000000 interrupt_exit_irq_aarch32
000000004300af6c l       .ro	0000000000000000 interrupt_exit_fiq_aarch32
0000000043005fc4 l     F .ro	00000000000000e0 sync_exception_handler
000000004300608c l       .ro	0000000000000000 smc_prohibited
0000000043006050 l       .ro	0000000000000000 sysreg_handler64
0000000043006080 l       .ro	0000000000000000 smc_unknown
0000000000000000 l    df *ABS*	0000000000000000 aem_generic.o
00000000430060a4 l     F .ro	0000000000000034 aem_generic_core_pwr_dwn
00000000430060d8 l     F .ro	0000000000000018 aem_generic_cluster_pwr_dwn
000000004300a0da l       .ro	0000000000000000 aem_generic_errata_list_start
000000004300a0da l       .ro	0000000000000000 aem_generic_errata_list_end
0000000000000000 l    df *ABS*	0000000000000000 cortex_a53.o
00000000430060f0 l     F .ro	0000000000000014 cortex_a53_disable_dcache
0000000043006104 l     F .ro	0000000000000018 cortex_a53_disable_smp
000000004300611c l     F .ro	0000000000000020 errata_a53_826319_wa
000000004300613c l     F .ro	0000000000000008 check_errata_826319
0000000043006144 l     F .ro	000000000000001c a53_disable_non_temporal_hint
0000000043006160 l     F .ro	0000000000000008 check_errata_disable_non_temporal_hint
0000000043006168 l     F .ro	000000000000001c errata_a53_855873_wa
0000000043006184 l     F .ro	0000000000000008 check_errata_855873
000000004300618c l     F .ro	0000000000000038 cortex_a53_reset_func
00000000430061c4 l     F .ro	0000000000000018 cortex_a53_core_pwr_dwn
00000000430061dc l     F .ro	0000000000000024 cortex_a53_cluster_pwr_dwn
000000004300a0da l       .ro	0000000000000000 cortex_a53_errata_list_start
000000004300a0da l       .ro	0000000000000000 cortex_a53_errata_list_end
0000000000000000 l    df *ABS*	0000000000000000 cpu_helpers.o
00000000430062a0 l       .ro	0000000000000000 search_def_ptr
0000000000000000 l    df *ABS*	0000000000000000 context.o
00000000430064a4 l       .ro	0000000000000000 sve_not_enabled
0000000000000000 l    df *ABS*	0000000000000000 cpu_data.o
0000000000000000 l    df *ABS*	0000000000000000 spinlock.o
0000000043006508 l       .ro	0000000000000000 l1
000000004300650c l       .ro	0000000000000000 l2
0000000000000000 l    df *ABS*	0000000000000000 psci_helpers.o
0000000000000000 l    df *ABS*	0000000000000000 platform_mp_stack.o
000000004300b100 l       .stacks	0000000000000000 platform_normal_stacks
0000000000000006 l       *ABS*	0000000000000000 TZ_COUNT
0000000000000000 l    df *ABS*	0000000000000000 hsuart.o
0000000043006680 l       .ro	0000000000000000 init_fail
0000000043006608 l       .ro	0000000000000000 set_baud_force_high_speed
0000000043006630 l       .ro	0000000000000000 set_baud_low_speed
0000000043006644 l       .ro	0000000000000000 set_divisor
0000000043006698 l       .ro	0000000000000000 no_char
00000000430066f0 l     F .ro	0000000000000008 console_hsuart_getc
00000000430066f8 l     F .ro	0000000000000008 console_hsuart_putc
0000000043006700 l     F .ro	0000000000000008 console_hsuart_flush
000000004300675c l       .ro	0000000000000000 register_fail
0000000043006724 l       .ro	0000000000000000 register_hsuart
0000000000000000 l    df *ABS*	0000000000000000 plat_helpers.o
0000000000000000 l    df *ABS*	0000000000000000 debug.o
000000004300a0da l       .ro	0000000000000000 panic_msg
0000000043006800 l       .ro	0000000000000000 panic_common
0000000043006828 l       .ro	0000000000000000 _panic_handler
0000000000000000 l    df *ABS*	0000000000000000 cache_helpers.o
0000000043006864 l       .ro	0000000000000000 exit_loop_civac
0000000043006850 l       .ro	0000000000000000 loop_civac
000000004300689c l       .ro	0000000000000000 exit_loop_cvac
0000000043006888 l       .ro	0000000000000000 loop_cvac
00000000430068d4 l       .ro	0000000000000000 exit_loop_ivac
00000000430068c0 l       .ro	0000000000000000 loop_ivac
00000000430068d8 l     F .ro	000000000000009c do_dcsw_op
0000000043006970 l       .ro	0000000000000000 exit
0000000043006974 l       .ro	0000000000000000 dcsw_loop_table
00000000430068f4 l       .ro	0000000000000000 loop1
0000000043006958 l       .ro	0000000000000000 level_done
0000000043006974 l       .ro	0000000000000000 loop2_isw
0000000043006978 l       .ro	0000000000000000 loop3_isw
0000000043006994 l       .ro	0000000000000000 loop2_cisw
0000000043006998 l       .ro	0000000000000000 loop3_cisw
00000000430069b4 l       .ro	0000000000000000 loop2_csw
00000000430069b8 l       .ro	0000000000000000 loop3_csw
0000000000000000 l    df *ABS*	0000000000000000 misc_helpers.o
0000000043006a10 l     F .ro	00000000000000e8 zeromem_dczva
0000000000000000 l    df *ABS*	0000000000000000 platform_helpers.o
0000000000000000 l    df *ABS*	0000000000000000 efuse_cmd.c
0000000043006b14 l     F .ro	0000000000000090 efuse_wait.constprop.4
0000000043007900 l     O .ro	0000000000000440 efuse_info_set
0000000000000000 l    df *ABS*	0000000000000000 memcpy.c
0000000000000000 l    df *ABS*	0000000000000000 memmove.c
0000000000000000 l    df *ABS*	0000000000000000 memset.c
0000000000000000 l    df *ABS*	0000000000000000 printf.c
00000000430071e4 l     F .ro	00000000000000d0 unsigned_num_print.part.0
0000000000000000 l    df *ABS*	0000000000000000 
0000000000000000 l    df *ABS*	0000000000000000 cpu_data_array.c
000000004300468c g     F .ro	0000000000000014 clear_all_ready
0000000043004ce0 g     F .ro	000000000000012c spm_mcdi_prepare_for_off_state
0000000043003e68 g     F .ro	0000000000000070 mediatek_sip_handler
0000000043005d10 g     F .ro	0000000000000028 putchar
00000000430066d8 g     F .ro	0000000000000018 console_hsuart_core_flush
0000000043001d64 g     F .ro	00000000000000cc cm_prepare_el3_exit
0000000043001a70 g     F .ro	000000000000000c mdelay
0000000043003e40 g     F .ro	0000000000000014 plat_is_smccc_feature_available
000000004300cd00 g       .bss	0000000000000000 __PMF_TIMESTAMP_START__
0000000043003b6c  w    F .ro	0000000000000030 plat_ic_get_pending_interrupt_type
0000000043001cc8 g     F .ro	000000000000007c cm_el1_sysregs_context_restore
000000004300297c g     F .ro	0000000000000028 psci_migrate_info_up_cpu
0000000043012000 g       .coherent_ram	0000000000000000 __BL31_END__
0000000043005c34 g     F .ro	0000000000000034 console_register
0000000043002724 g     F .ro	00000000000000f0 psci_cpu_suspend
0000000043012000 g       .coherent_ram	0000000000000000 __COHERENT_RAM_END__
0000000043006200 g     F .ro	0000000000000020 reset_handler
000000004300ae00 g     F .ro	0000000000000000 sync_exception_aarch32
0000000043006a08 g     F .ro	0000000000000008 zeromem
0000000043009aae g     O .ro	000000000000002e version_string
00000000430067f4 g     F .ro	0000000000000008 asm_print_newline
000000004300a4f0 g       .ro	0000000000000000 __pubsub_psci_suspend_pwrdown_finish_end
00000000430050ac g     F .ro	0000000000000068 mtk_antirollback_get_fit_ar_ver
00000000430024e0 g     F .ro	00000000000000f4 psci_validate_entry_point
0000000043005b50 g     F .ro	0000000000000004 print_entry_point_info
00000000430011a4 g     F .ro	0000000000000014 cm_get_context
0000000043002468 g     F .ro	0000000000000058 psci_release_pwr_domain_locks
00000000430058d0 g     F .ro	0000000000000038 plat_core_pos_by_mpidr
0000000043001fa4 g     F .ro	0000000000000028 psci_validate_power_state
000000004300b000 g       .ro	0000000000000000 __RW_START__
0000000043004018 g     F .ro	000000000000000c plat_cci_disable
0000000043001870 g     F .ro	0000000000000020 gicv2_cpuif_enable
0000000043004644 g     F .ro	000000000000000c is_mcdi_ready
00000000430034d4 g     F .ro	00000000000000a0 psci_cpu_suspend_finish
0000000043005e30 g     F .ro	0000000000000034 get_el_str
000000004300d000 g       .xlat_table	0000000000000000 __XLAT_TABLE_START__
0000000043004024 g     F .ro	0000000000000028 bl31_plat_get_next_image_ep_info
00000000430069e8 g     F .ro	0000000000000010 dcsw_op_level1
00000000430018f8 g     F .ro	0000000000000058 gicv2_distif_init
0000000043007138 g     F .ro	0000000000000034 memmove
000000004300cc54 g     O .bss	0000000000000080 rt_svc_descs_indices
0000000043001564 g     F .ro	0000000000000014 gicd_write_isenabler
0000000043005664 g     F .ro	000000000000001c plat_setup_psci_ops
000000004300aa00 g     F .ro	0000000000000000 sync_exception_sp_elx
0000000043001e30 g     F .ro	0000000000000008 cm_prepare_el3_exit_ns
000000004300a800 g     F .ro	0000000000000000 sync_exception_sp_el0
0000000043006598 g     F .ro	000000000000000c psci_power_down_wfi
0000000043003fd8 g     F .ro	0000000000000034 plat_cci_init
0000000043006564 g     F .ro	0000000000000034 psci_do_pwrup_cache_maintenance
0000000043002890 g     F .ro	0000000000000058 psci_affinity_info
0000000043005df8  w    F .ro	0000000000000030 plat_log_get_prefix
00000000430028e8 g     F .ro	000000000000007c psci_migrate
0000000043004674 g     F .ro	0000000000000018 set_suspend_ready
0000000043004f90 g     F .ro	0000000000000038 mtk_wdt_soft_reset
0000000043003b9c g     F .ro	0000000000000078 mtk_efuse_get_len
0000000043004ca0 g     F .ro	0000000000000040 spm_clear_hotplug
0000000043009a90 g     O .ro	000000000000001e build_message
0000000043003d6c g     F .ro	00000000000000cc mtk_efuse_write
0000000043006480 g     F .ro	0000000000000054 el3_exit
0000000043002fe0 g     F .ro	0000000000000334 psci_setup
00000000430036a8 g     F .ro	0000000000000084 init_xlat_tables
0000000043005e28  w    F .ro	0000000000000008 bl31_plat_runtime_setup
000000004300b000 g       .data	0000000000000000 __DATA_START__
0000000043011000 g     O .coherent_ram	0000000000000008 psci_locks
00000000430049f0 g     F .ro	00000000000000b8 spm_kick_im_to_fetch
0000000043006afc  w    F .ro	0000000000000004 plat_disable_acp
00000000430023c8 g     F .ro	0000000000000034 psci_find_target_suspend_lvl
0000000043004e0c g     F .ro	00000000000000a4 spm_mcdi_finish_for_on_state
0000000043004f28 g     F .ro	0000000000000034 spm_system_suspend_finish
00000000430015e0 g     F .ro	000000000000000c gicd_set_isenabler
0000000043002fc0 g     F .ro	0000000000000020 psci_arch_setup
00000000430062dc g     F .ro	0000000000000020 check_wa_cve_2017_5715
00000000430035ac g     F .ro	0000000000000038 psci_system_reset
000000004300164c g     F .ro	000000000000009c gicv2_spis_configure_defaults
0000000043005d90 g     F .ro	000000000000003c pmuv3_disable_el3
00000000430015ec g     F .ro	0000000000000014 gicd_set_ipriorityr
0000000043007118 g     F .ro	0000000000000020 memcpy
00000000430055b8 g     F .ro	0000000000000038 mtk_system_pwr_domain_resume
00000000430024c0 g     F .ro	0000000000000020 psci_validate_mpidr
0000000043002814 g     F .ro	0000000000000074 psci_system_suspend
000000004300ab80 g     F .ro	0000000000000000 serror_sp_elx
0000000043001c68 g     F .ro	0000000000000030 cm_init_context_by_index
00000000430048f8 g     F .ro	00000000000000a4 spm_get_wakeup_status
000000004300a880 g     F .ro	0000000000000000 irq_sp_el0
0000000043006a10 g     F .ro	00000000000000e8 zero_normalmem
00000000430021a0 g     F .ro	0000000000000048 psci_get_parent_pwr_domain_nodes
000000004300a4f0 g     O .ro	0000000000000008 __cb_func_spe_drain_buffers_hookcm_entering_secure_world
0000000043005e64  w    F .ro	0000000000000068 plat_ea_handler
000000004300198c g     F .ro	0000000000000018 gicv2_get_pending_interrupt_type
0000000043004510 g     F .ro	00000000000000d4 mtcmos_little_cpu_on
0000000043003574 g     F .ro	0000000000000038 psci_system_off
0000000043001578 g     F .ro	0000000000000014 gicd_write_icenabler
000000004300a4f8 g       .ro	0000000000000000 __pubsub_cm_exited_secure_world_end
0000000043003a7c g     F .ro	000000000000003c mmap_add
0000000043001114 g     F .ro	0000000000000090 bl31_warm_entrypoint
0000000043003fd0 g     F .ro	0000000000000008 plat_get_syscnt_freq2
0000000043006b00  w    F .ro	0000000000000008 plat_panic_handler
000000004300a3a0 g       .ro	0000000000000000 __RT_SVC_DESCS_START__
000000004300149c g     F .ro	0000000000000014 cci_init
000000004300c100 g       .stacks	0000000000000000 __STACKS_END__
000000004300a4f0 g       .ro	0000000000000000 __pubsub_psci_suspend_pwrdown_start_end
00000000430062fc g     F .ro	0000000000000020 check_smccc_arch_wa3_applies
0000000043006868 g     F .ro	0000000000000038 clean_dcache_range
0000000043006220 g     F .ro	0000000000000024 prepare_cpu_pwr_dwn
0000000043006430 g     F .ro	0000000000000050 restore_gp_pmcr_pauth_regs
00000000430025d4 g     F .ro	00000000000000c8 psci_warmboot_entrypoint
000000004300a4f8 g       .ro	0000000000000000 __pubsub_cm_exited_normal_world_start
00000000430065c0  w    F .ro	0000000000000010 plat_set_my_stack
00000000430011e4 g     F .ro	0000000000000030 cm_set_context_by_index
000000004300a400 g       .ro	0000000000000000 __RT_SVC_DESCS_END__
00000000430067c4 g     F .ro	0000000000000030 asm_print_hex
0000000043004134 g     F .ro	0000000000000040 bl31_plat_arch_setup
00000000430012a8 g     F .ro	0000000000000068 bl31_main
0000000043003990 g     F .ro	0000000000000004 print_mmap
000000004300c6b8 g     O .bss	0000000000000020 psci_cpu_pd_nodes
00000000430026c4 g     F .ro	0000000000000004 psci_pwrdown_cpu
00000000430067ac g     F .ro	0000000000000018 asm_print_str
0000000043006b08  w    F .ro	0000000000000004 bl31_plat_enable_mmu
0000000043004890 g     F .ro	0000000000000068 spm_set_wakeup_event
0000000043001afc g     F .ro	0000000000000004 cm_init
00000000430067a0 g     F .ro	000000000000000c plat_crash_console_flush
000000004300a800 g       .ro	0000000000000000 runtime_exceptions
00000000430014ec g     F .ro	000000000000003c cci_disable_snoop_dvm_reqs
000000004300a4f8 g       .ro	0000000000000000 __pubsub_cm_exited_secure_world_start
000000004300269c g     F .ro	0000000000000024 psci_spd_migrate_info
00000000430064e8 g     F .ro	0000000000000018 _cpu_data_by_index
00000000430026c0 g     F .ro	0000000000000004 psci_print_power_domain_map
000000004300b000 g       .ro	0000000000000000 __RO_END_UNALIGNED__
0000000043001000 g       .ro	0000000000000000 RAM_REGION_START
0000000043005680 g     F .ro	0000000000000028 plat_get_target_pwr_state
000000004300465c g     F .ro	0000000000000018 set_mcdi_ready
0000000043005c74 g     F .ro	000000000000009c console_putc
000000004300159c g     F .ro	0000000000000014 gicd_write_icfgr
0000000043006b10  w    F .ro	0000000000000004 plat_handle_el3_ea
0000000043001fe0 g     F .ro	0000000000000070 psci_is_last_on_cpu
0000000043006774 g     F .ro	0000000000000020 plat_crash_console_init
0000000043004650 g     F .ro	000000000000000c is_hotplug_ready
000000004300ae80 g     F .ro	0000000000000000 irq_aarch32
0000000043006830 g     F .ro	0000000000000038 flush_dcache_range
00000000430014b0 g     F .ro	000000000000003c cci_enable_snoop_dvm_reqs
00000000430045e4 g     F .ro	0000000000000048 mtcmos_non_cpu_ctrl
0000000043001a7c g     F .ro	000000000000000c timer_init
000000004300404c g     F .ro	0000000000000090 bl31_early_platform_setup2
0000000043005924 g     F .ro	0000000000000018 enable_scu
000000004300178c g     F .ro	00000000000000e4 gicv2_secure_ppi_sgi_setup_props
000000004300a400 g       .ro	0000000000000000 __PMF_SVC_DESCS_END__
00000000430065d0 g     F .ro	00000000000000b8 console_hsuart_init
0000000043004768 g     F .ro	0000000000000128 spm_set_power_control
000000004300b0f0 g       tzfw_coherent_mem	0000000000000000 __RELA_END__
000000004300b0f0 g       tzfw_coherent_mem	0000000000000000 __RELA_START__
0000000043012000 g       .coherent_ram	0000000000000000 RAM_REGION_END
0000000043003ca4 g     F .ro	00000000000000c8 mtk_efuse_read
000000004300a980 g     F .ro	0000000000000000 serror_sp_el0
00000000430019a4 g     F .ro	0000000000000064 gicv2_set_pe_target_mask
00000000430072b4 g     F .ro	0000000000000444 vprintf
0000000043001640 g     F .ro	000000000000000c gicv2_get_cpuif_id
0000000043005ecc g     F .ro	0000000000000004 report_unhandled_exception
0000000043002eec g     F .ro	00000000000000d4 psci_cpu_on_finish
00000000430069d4 g     F .ro	0000000000000014 dcsw_op_all
0000000043003c14 g     F .ro	0000000000000048 mtk_efuse_send_data
0000000043002888 g     F .ro	0000000000000008 psci_cpu_off
0000000043006708 g     F .ro	0000000000000058 console_hsuart_register
0000000043006af8  w    F .ro	0000000000000004 plat_reset_handler
00000000430037a8 g     F .ro	0000000000000004 enable_mmu_direct_el3
000000004300a4f8 g       .ro	0000000000000000 __pubsub_cm_entering_normal_world_end
0000000043006264 g     F .ro	0000000000000040 get_cpu_ops_ptr
0000000043001000 g     F .ro	0000000000000114 bl31_entrypoint
00000000430011b8 g     F .ro	000000000000002c cm_get_context_by_index
0000000043001c98 g     F .ro	0000000000000030 cm_init_my_context
000000004300ad80 g     F .ro	0000000000000000 serror_aarch64
00000000430064d4 g     F .ro	0000000000000014 init_cpu_data_ptr
0000000043003688 g     F .ro	000000000000000c xlat_arch_current_el
0000000043001890 g     F .ro	0000000000000020 gicv2_cpuif_disable
0000000043004ba0 g     F .ro	000000000000006c spm_clean_after_wakeup
000000004300153c g     F .ro	0000000000000014 gicd_read_icfgr
0000000043002c54 g     F .ro	0000000000000138 psci_do_cpu_off
000000004300cafc g     O .bss	0000000000000004 psci_caps
0000000043006ba4 g     F .ro	000000000000010c efuse_read
0000000043001310 g     F .ro	0000000000000008 handle_sysreg_trap
0000000043001b00 g     F .ro	0000000000000164 cm_setup_context
0000000043004abc g     F .ro	00000000000000e4 spm_kick_pcm_to_run
0000000043001000 g       .ro	0000000000000000 __BL31_START__
000000004300aa80 g     F .ro	0000000000000000 irq_sp_elx
000000004300cd00 g       .bss	0000000000000000 __PMF_PERCPU_TIMESTAMP_END__
000000004300a900 g     F .ro	0000000000000000 fiq_sp_el0
000000004300b0dd g       .data	0000000000000000 __DATA_END__
00000000430067c8 g       .ro	0000000000000000 asm_print_hex_bits
000000004300cd00 g       .bss	0000000000000000 __BASE_XLAT_TABLE_START__
0000000043003b4c  w    F .ro	0000000000000020 plat_arm_gic_init
000000004300a400 g       .ro	0000000000000000 __CPU_OPS_START__
0000000043001a08 g     F .ro	0000000000000068 udelay
0000000043004200 g     F .ro	00000000000000e4 pwrap_read
00000000430068a0 g     F .ro	0000000000000038 inv_dcache_range
0000000043005ed0 g     F .ro	000000000000006c handle_lower_el_sync_ea
0000000043002a64 g     F .ro	000000000000014c psci_smc_handler
000000004300590c g     F .ro	0000000000000018 disable_scu
0000000043001ab4 g     F .ro	0000000000000044 generic_delay_timer_init
0000000043003314 g     F .ro	00000000000001c0 psci_cpu_suspend_start
0000000043002050 g     F .ro	000000000000003c psci_init_req_local_pwr_states
000000004300a4f8 g       .ro	0000000000000000 __pubsub_cm_entering_secure_world_end
00000000430043e0 g     F .ro	000000000000004c rtc_bbpu_power_down
0000000043001a94 g     F .ro	0000000000000020 generic_delay_timer_init_args
000000004300211c g     F .ro	0000000000000084 psci_set_target_local_pwr_states
00000000430062a4 g     F .ro	0000000000000010 cpu_get_rev_var
0000000043002d8c g     F .ro	0000000000000160 psci_cpu_on_start
000000004300238c g     F .ro	000000000000003c psci_find_max_off_lvl
0000000043001600 g     F .ro	0000000000000040 gicd_set_icfgr
000000004301100c g     O .coherent_ram	0000000000000020 psci_non_cpu_pd_nodes
00000000430067fc g     F .ro	0000000000000004 elx_panic
000000004300cd00 g       .bss	0000000000000000 __BSS_END__
000000004300a4f0 g       .ro	0000000000000000 __CPU_OPS_END__
0000000043003ed8 g     F .ro	000000000000007c sip_smc_handler
0000000043006528 g     F .ro	000000000000003c psci_do_pwrdown_cache_maintenance
0000000043001d44 g     F .ro	0000000000000020 cm_set_next_eret_context
000000004300a4f0 g       .ro	0000000000000000 __pubsub_cm_entering_secure_world_start
00000000430026c8 g     F .ro	000000000000005c psci_cpu_on
0000000043003ab8 g     F .ro	0000000000000094 init_xlation_table
0000000043001234 g     F .ro	0000000000000074 bl31_prepare_next_image_entry
0000000043011000 g       .coherent_ram	0000000000000000 __COHERENT_RAM_START__
000000004300caf8 g     O .bss	0000000000000004 psci_plat_core_count
00000000430029fc g     F .ro	0000000000000068 psci_features
000000004300a4f0 g       .ro	0000000000000000 __GOT_END__
000000004300716c g     F .ro	0000000000000078 memset
000000004300a400 g       .ro	0000000000000000 __PARSER_LIB_DESCS_END__
000000004300208c g     F .ro	0000000000000090 psci_get_target_local_pwr_states
000000004300a4f8 g       .ro	0000000000000000 __pubsub_cm_exited_normal_world_end
0000000043011008 g     O .coherent_ram	0000000000000004 spm_lock
0000000043005dcc g     F .ro	000000000000002c pmuv3_init_el2_unused
000000004300c6d8 g     O .bss	0000000000000008 psci_plat_pm_ops
0000000043003e60 g     F .ro	0000000000000008 plat_get_soc_revision
00000000430042e4 g     F .ro	0000000000000094 pwrap_write
0000000043001220 g     F .ro	0000000000000014 bl31_setup
000000004300a4f0 g       .ro	0000000000000000 __pubsub_psci_suspend_pwrdown_start_start
00000000430056a8 g     F .ro	000000000000002c mt_sip_set_authorized_sreg
000000004300a4f0 g       .ro	0000000000000000 __GOT_START__
0000000043005114 g     F .ro	0000000000000100 mtk_antirollback_update_efuse_ar_ver
00000000430077f8 g     O .ro	0000000000000030 mt_gic_data
0000000043005be8 g     F .ro	0000000000000020 tf_log_newline
0000000043005f3c g     F .ro	0000000000000018 handle_lower_el_async_ea
0000000043001214 g     F .ro	000000000000000c get_arm_std_svc_args
000000004300a4f8 g       .ro	0000000000000000 __pubsub_cm_entering_normal_world_start
0000000000000000 g       *ABS*	0000000000000000 __PERCPU_TIMESTAMP_SIZE__
0000000043001e90 g     F .ro	00000000000000ac bakery_lock_get
0000000043005e64 g     F .ro	0000000000000068 plat_default_ea_handler
0000000043002bb0 g     F .ro	000000000000005c psci_mem_protect
000000004300471c g     F .ro	000000000000004c spm_init_pcm_register
000000004300a400 g       .ro	0000000000000000 __FCONF_POPULATOR_END__
0000000043001f3c g     F .ro	0000000000000034 bakery_lock_release
0000000043001348 g     F .ro	0000000000000024 get_interrupt_type_handler
0000000043003f54 g     F .ro	000000000000007c plat_configure_mmu_el3
00000000430058c4 g     F .ro	000000000000000c plat_get_power_domain_tree_desc
00000000430016e8 g     F .ro	00000000000000a4 gicv2_secure_spis_configure_props
0000000043005214 g     F .ro	000000000000000c plat_mt_gic_driver_init
000000004300158c g     F .ro	0000000000000010 gicd_write_ipriorityr
0000000043003e38 g     F .ro	0000000000000008 plat_get_spsr_for_bl33_entry
0000000043001c64 g     F .ro	0000000000000004 cm_manage_extensions_el3
00000000430029a4 g     F .ro	0000000000000058 psci_node_hw_state
000000004300cd00 g       .bss	0000000000000000 __BASE_XLAT_TABLE_END__
00000000430069f8 g     F .ro	0000000000000010 dcsw_op_level2
0000000043006244 g     F .ro	0000000000000020 init_cpu_ops
0000000043004f5c g     F .ro	0000000000000034 generic_timer_backup
0000000043005d38 g     F .ro	0000000000000054 console_flush
000000004300ab00 g     F .ro	0000000000000000 fiq_sp_elx
000000004300b000 g       .ro	0000000000000000 __RO_END__
000000004300ac00 g     F .ro	0000000000000000 sync_exception_aarch64
000000004300ad00 g     F .ro	0000000000000000 fiq_aarch64
000000004300a029 g     O .ro	0000000000000004 mtk_power_domain_tree_desc
0000000043001528 g     F .ro	0000000000000014 gicd_read_igroupr
0000000043005c68 g     F .ro	000000000000000c console_switch_state
0000000043001af8 g     F .ro	0000000000000004 print_errata_status
0000000043006520 g     F .ro	0000000000000008 spin_unlock
00000000430063c8 g     F .ro	0000000000000068 prepare_el3_entry
000000004300c100 g       .bss	0000000000000000 __BSS_START__
0000000043001000 g       .ro	0000000000000000 __RO_START__
0000000043004c0c g     F .ro	0000000000000094 spm_output_wake_reason
0000000043001e5c g     F .ro	0000000000000034 spe_enable
000000004300a400 g       .ro	0000000000000000 __PMF_SVC_DESCS_START__
0000000043006794 g     F .ro	000000000000000c plat_crash_console_putc
000000004300c100 g     O .bss	0000000000000080 percpu_data
00000000430062c8 g     F .ro	0000000000000014 cpu_rev_var_hs
0000000043006500 g     F .ro	0000000000000020 spin_lock
0000000043005c08 g     F .ro	000000000000002c console_is_registered
00000000430046a0 g     F .ro	000000000000007c spm_reset_and_init_pcm
0000000043001fcc g     F .ro	0000000000000014 psci_query_sys_suspend_pwrstate
0000000043005b54 g     F .ro	0000000000000094 tf_log
000000004300a4f0 g       .ro	0000000000000000 __pubsub_psci_cpu_on_finish_start
000000004300a400 g       .ro	0000000000000000 __FCONF_POPULATOR_START__
000000000001f000 g       *ABS*	0000000000000000 RAM_REGION_LENGTH
0000000043005908 g     F .ro	0000000000000004 trace_power_flow
00000000430062b4 g     F .ro	0000000000000014 cpu_rev_var_ls
0000000043001318 g     F .ro	0000000000000030 get_scr_el3_from_routing_model
0000000043004aa8 g     F .ro	0000000000000014 spm_set_sysclk_settle
0000000043006688 g     F .ro	0000000000000018 console_hsuart_core_getc
0000000043012000 g       .coherent_ram	0000000000000000 __RW_END__
00000000430056d4 g     F .ro	00000000000001f0 mediatek_plat_sip_handler
0000000043003694 g     F .ro	0000000000000014 xlat_arch_get_xn_desc
000000004301102c g       .coherent_ram	0000000000000000 __COHERENT_RAM_END_UNALIGNED__
00000000430040dc g     F .ro	0000000000000058 bl31_platform_setup
00000000430066a0 g     F .ro	0000000000000038 console_hsuart_core_putc
000000004300b100 g       .stacks	0000000000000000 __STACKS_START__
0000000043004638 g     F .ro	000000000000000c spm_lock_release
0000000043002274 g     F .ro	0000000000000118 psci_do_state_coordination
00000000430035e4 g     F .ro	00000000000000a4 psci_system_reset2
000000004300372c g     F .ro	000000000000007c enable_mmu_el3
0000000043003c5c g     F .ro	0000000000000048 mtk_efuse_get_data
000000004300af80 g     F .ro	0000000000000000 serror_aarch32
0000000043006b0c  w    F .ro	0000000000000004 plat_handle_double_fault
0000000043005d8c g     F .ro	0000000000000004 pmuv3_enable
000000004300cd00 g       .bss	0000000000000000 __PMF_TIMESTAMP_END__
000000004300a4f0 g       .ro	0000000000000000 __pubsub_psci_suspend_pwrdown_finish_start
0000000043011000 g       .xlat_table	0000000000000000 __XLAT_TABLE_END__
0000000043006760 g     F .ro	0000000000000014 plat_my_core_pos
0000000043001950 g     F .ro	000000000000003c gicv2_driver_init
0000000043005220 g     F .ro	0000000000000054 plat_mt_gic_init
000000004300136c g     F .ro	0000000000000130 runtime_svc_init
000000004300ca10 g     O .bss	0000000000000008 mtk_ar_table
000000004300cc30 g     O .bss	0000000000000004 spm_wake_reason
00000000430018b0 g     F .ro	0000000000000048 gicv2_pcpu_distif_init
000000004300ac80 g     F .ro	0000000000000000 irq_aarch64
0000000043002964 g     F .ro	0000000000000018 psci_migrate_info_type
000000004300499c g     F .ro	0000000000000054 spm_init_event_vector
0000000043003e54 g     F .ro	000000000000000c plat_get_soc_version
0000000043007708 g     O .ro	0000000000000080 plat_mmap
0000000043002c0c g     F .ro	0000000000000048 psci_mem_chk_range
0000000043006800 g     F .ro	0000000000000030 el3_panic
00000000430015b0 g     F .ro	0000000000000030 gicd_clr_igroupr
000000004300400c g     F .ro	000000000000000c plat_cci_enable
00000000430023fc g     F .ro	000000000000006c psci_acquire_pwr_domain_locks
000000004300a4f0 g       .ro	0000000000000000 __pubsub_psci_cpu_on_finish_end
000000004300631c g     F .ro	00000000000000ac el1_sysregs_context_restore
000000004300caf0 g     O .bss	0000000000000008 console_list
00000000430021e8 g     F .ro	000000000000008c psci_set_pwr_domains_to_run
0000000043001550 g     F .ro	0000000000000014 gicd_write_igroupr
0000000043005ecc g       .ro	0000000000000000 report_unhandled_interrupt
0000000043006cb0 g     F .ro	0000000000000468 efuse_write
000000004300462c g     F .ro	000000000000000c spm_lock_get
000000004300af00 g     F .ro	0000000000000000 fiq_aarch32
00000000430065a4  w    F .ro	000000000000001c plat_get_my_stack
0000000043003994 g     F .ro	00000000000000e8 mmap_add_region
000000004300a400 g       .ro	0000000000000000 __PARSER_LIB_DESCS_START__
000000004300c6e0 g     O .bss	0000000000000008 psci_spd_pm
0000000043004eb0 g     F .ro	0000000000000078 spm_system_suspend



Disassembly of section .ro:

0000000043001000 <bl31_entrypoint>:
    43001000:	aa0003f4 	mov	x20, x0
    43001004:	aa0103f5 	mov	x21, x1
    43001008:	aa0203f6 	mov	x22, x2
    4300100c:	aa0303f7 	mov	x23, x3
    43001010:	1004bf80 	adr	x0, 4300a800 <sync_exception_sp_el0>
    43001014:	d51ec000 	msr	vbar_el3, x0
    43001018:	d5033fdf 	isb
    4300101c:	94001479 	bl	43006200 <reset_handler>
    43001020:	d2820141 	mov	x1, #0x100a                	// #4106
    43001024:	d53e1000 	mrs	x0, sctlr_el3
    43001028:	aa010000 	orr	x0, x0, x1
    4300102c:	d51e1000 	msr	sctlr_el3, x0
    43001030:	d5033fdf 	isb
    43001034:	94001528 	bl	430064d4 <init_cpu_data_ptr>
    43001038:	d2804700 	mov	x0, #0x238                 	// #568
    4300103c:	d51e1100 	msr	scr_el3, x0
    43001040:	d2900000 	mov	x0, #0x8000                	// #32768
    43001044:	f2a20020 	movk	x0, #0x1001, lsl #16
    43001048:	d5380501 	mrs	x1, id_aa64dfr0_el1
    4300104c:	d368ac21 	ubfx	x1, x1, #40, #4
    43001050:	b4000041 	cbz	x1, 43001058 <bl31_entrypoint+0x58>
    43001054:	b26d0000 	orr	x0, x0, #0x80000
    43001058:	d51e1320 	msr	mdcr_el3, x0
    4300105c:	d50344ff 	msr	daifclr, #0x4
    43001060:	d2a80000 	mov	x0, #0x40000000            	// #1073741824
    43001064:	d5380501 	mrs	x1, id_aa64dfr0_el1
    43001068:	d3441c21 	ubfx	x1, x1, #4, #4
    4300106c:	b4000041 	cbz	x1, 43001074 <bl31_entrypoint+0x74>
    43001070:	b26c0000 	orr	x0, x0, #0x100000
    43001074:	d51e1140 	msr	cptr_el3, x0
    43001078:	d0000040 	adrp	x0, 4300b000 <__RO_END_UNALIGNED__>
    4300107c:	91000000 	add	x0, x0, #0x0
    43001080:	b0000081 	adrp	x1, 43012000 <RAM_REGION_END>
    43001084:	91000021 	add	x1, x1, #0x0
    43001088:	cb000021 	sub	x1, x1, x0
    4300108c:	94001605 	bl	430068a0 <inv_dcache_range>
    43001090:	f0000040 	adrp	x0, 4300c000 <__STACKS_START__+0xf00>
    43001094:	91040000 	add	x0, x0, #0x100
    43001098:	f0000041 	adrp	x1, 4300c000 <__STACKS_START__+0xf00>
    4300109c:	91340021 	add	x1, x1, #0xd00
    430010a0:	cb000021 	sub	x1, x1, x0
    430010a4:	94001659 	bl	43006a08 <zeromem>
    430010a8:	90000080 	adrp	x0, 43011000 <psci_locks>
    430010ac:	91000000 	add	x0, x0, #0x0
    430010b0:	90000081 	adrp	x1, 43011000 <psci_locks>
    430010b4:	9100b021 	add	x1, x1, #0x2c
    430010b8:	cb000021 	sub	x1, x1, x0
    430010bc:	94001653 	bl	43006a08 <zeromem>
    430010c0:	d50040bf 	msr	spsel, #0x0
    430010c4:	9400153f 	bl	430065c0 <plat_set_my_stack>
    430010c8:	aa1403e0 	mov	x0, x20
    430010cc:	aa1503e1 	mov	x1, x21
    430010d0:	aa1603e2 	mov	x2, x22
    430010d4:	aa1703e3 	mov	x3, x23
    430010d8:	94000052 	bl	43001220 <bl31_setup>
    430010dc:	94000073 	bl	430012a8 <bl31_main>
    430010e0:	d0000040 	adrp	x0, 4300b000 <__RO_END_UNALIGNED__>
    430010e4:	91000000 	add	x0, x0, #0x0
    430010e8:	d0000041 	adrp	x1, 4300b000 <__RO_END_UNALIGNED__>
    430010ec:	91037421 	add	x1, x1, #0xdd
    430010f0:	cb000021 	sub	x1, x1, x0
    430010f4:	940015dd 	bl	43006868 <clean_dcache_range>
    430010f8:	f0000040 	adrp	x0, 4300c000 <__STACKS_START__+0xf00>
    430010fc:	91040000 	add	x0, x0, #0x100
    43001100:	f0000041 	adrp	x1, 4300c000 <__STACKS_START__+0xf00>
    43001104:	91340021 	add	x1, x1, #0xd00
    43001108:	cb000021 	sub	x1, x1, x0
    4300110c:	940015d7 	bl	43006868 <clean_dcache_range>
    43001110:	140014dc 	b	43006480 <el3_exit>

0000000043001114 <bl31_warm_entrypoint>:
    43001114:	d2810600 	mov	x0, #0x830                 	// #2096
    43001118:	f2a618a0 	movk	x0, #0x30c5, lsl #16
    4300111c:	d51e1000 	msr	sctlr_el3, x0
    43001120:	d5033fdf 	isb
    43001124:	1004b6e0 	adr	x0, 4300a800 <sync_exception_sp_el0>
    43001128:	d51ec000 	msr	vbar_el3, x0
    4300112c:	d5033fdf 	isb
    43001130:	94001434 	bl	43006200 <reset_handler>
    43001134:	d2820141 	mov	x1, #0x100a                	// #4106
    43001138:	d53e1000 	mrs	x0, sctlr_el3
    4300113c:	aa010000 	orr	x0, x0, x1
    43001140:	d51e1000 	msr	sctlr_el3, x0
    43001144:	d5033fdf 	isb
    43001148:	940014e3 	bl	430064d4 <init_cpu_data_ptr>
    4300114c:	d2804700 	mov	x0, #0x238                 	// #568
    43001150:	d51e1100 	msr	scr_el3, x0
    43001154:	d2900000 	mov	x0, #0x8000                	// #32768
    43001158:	f2a20020 	movk	x0, #0x1001, lsl #16
    4300115c:	d5380501 	mrs	x1, id_aa64dfr0_el1
    43001160:	d368ac21 	ubfx	x1, x1, #40, #4
    43001164:	b4000041 	cbz	x1, 4300116c <bl31_warm_entrypoint+0x58>
    43001168:	b26d0000 	orr	x0, x0, #0x80000
    4300116c:	d51e1320 	msr	mdcr_el3, x0
    43001170:	d50344ff 	msr	daifclr, #0x4
    43001174:	d2a80000 	mov	x0, #0x40000000            	// #1073741824
    43001178:	d5380501 	mrs	x1, id_aa64dfr0_el1
    4300117c:	d3441c21 	ubfx	x1, x1, #4, #4
    43001180:	b4000041 	cbz	x1, 43001188 <bl31_warm_entrypoint+0x74>
    43001184:	b26c0000 	orr	x0, x0, #0x100000
    43001188:	d51e1140 	msr	cptr_el3, x0
    4300118c:	d50040bf 	msr	spsel, #0x0
    43001190:	9400150c 	bl	430065c0 <plat_set_my_stack>
    43001194:	d2800020 	mov	x0, #0x1                   	// #1
    43001198:	9400165c 	bl	43006b08 <bl31_plat_enable_mmu>
    4300119c:	9400050e 	bl	430025d4 <psci_warmboot_entrypoint>
    430011a0:	140014b8 	b	43006480 <el3_exit>

00000000430011a4 <cm_get_context>:
    430011a4:	d53ed041 	mrs	x1, tpidr_el3
    430011a8:	7100001f 	cmp	w0, #0x0
    430011ac:	9a9f07e0 	cset	x0, ne  // ne = any
    430011b0:	f8607820 	ldr	x0, [x1, x0, lsl #3]
    430011b4:	d65f03c0 	ret

00000000430011b8 <cm_get_context_by_index>:
    430011b8:	a9be7bfd 	stp	x29, x30, [sp, #-32]!
    430011bc:	910003fd 	mov	x29, sp
    430011c0:	f9000bf3 	str	x19, [sp, #16]
    430011c4:	2a0103f3 	mov	w19, w1
    430011c8:	940014c8 	bl	430064e8 <_cpu_data_by_index>
    430011cc:	7100027f 	cmp	w19, #0x0
    430011d0:	9a9f07e1 	cset	x1, ne  // ne = any
    430011d4:	f9400bf3 	ldr	x19, [sp, #16]
    430011d8:	a8c27bfd 	ldp	x29, x30, [sp], #32
    430011dc:	f8617800 	ldr	x0, [x0, x1, lsl #3]
    430011e0:	d65f03c0 	ret

00000000430011e4 <cm_set_context_by_index>:
    430011e4:	a9be7bfd 	stp	x29, x30, [sp, #-32]!
    430011e8:	910003fd 	mov	x29, sp
    430011ec:	a90153f3 	stp	x19, x20, [sp, #16]
    430011f0:	aa0103f3 	mov	x19, x1
    430011f4:	2a0203f4 	mov	w20, w2
    430011f8:	940014bc 	bl	430064e8 <_cpu_data_by_index>
    430011fc:	7100029f 	cmp	w20, #0x0
    43001200:	9a9f07e1 	cset	x1, ne  // ne = any
    43001204:	f8217813 	str	x19, [x0, x1, lsl #3]
    43001208:	a94153f3 	ldp	x19, x20, [sp, #16]
    4300120c:	a8c27bfd 	ldp	x29, x30, [sp], #32
    43001210:	d65f03c0 	ret

0000000043001214 <get_arm_std_svc_args>:
    43001214:	d0000020 	adrp	x0, 43007000 <efuse_write+0x350>
    43001218:	911be000 	add	x0, x0, #0x6f8
    4300121c:	d65f03c0 	ret

0000000043001220 <bl31_setup>:
    43001220:	a9bf7bfd 	stp	x29, x30, [sp, #-16]!
    43001224:	910003fd 	mov	x29, sp
    43001228:	94000b89 	bl	4300404c <bl31_early_platform_setup2>
    4300122c:	a8c17bfd 	ldp	x29, x30, [sp], #16
    43001230:	14000bc1 	b	43004134 <bl31_plat_arch_setup>

0000000043001234 <bl31_prepare_next_image_entry>:
    43001234:	a9be7bfd 	stp	x29, x30, [sp, #-32]!
    43001238:	d5380400 	mrs	x0, id_aa64pfr0_el1
    4300123c:	910003fd 	mov	x29, sp
    43001240:	d3441c00 	ubfx	x0, x0, #4, #4
    43001244:	a90153f3 	stp	x19, x20, [sp, #16]
    43001248:	f100041f 	cmp	x0, #0x1
    4300124c:	540000c1 	b.ne	43001264 <bl31_prepare_next_image_entry+0x30>  // b.any
    43001250:	90000040 	adrp	x0, 43009000 <suspend_binary_ca7+0x2e0>
    43001254:	912b7000 	add	x0, x0, #0xadc
    43001258:	9400123f 	bl	43005b54 <tf_log>
    4300125c:	940012b7 	bl	43005d38 <console_flush>
    43001260:	94001568 	bl	43006800 <el3_panic>
    43001264:	d0000040 	adrp	x0, 4300b000 <__RO_END_UNALIGNED__>
    43001268:	b9400013 	ldr	w19, [x0]
    4300126c:	2a1303e0 	mov	w0, w19
    43001270:	94000b6d 	bl	43004024 <bl31_plat_get_next_image_ep_info>
    43001274:	aa0003f4 	mov	x20, x0
    43001278:	94001236 	bl	43005b50 <print_entry_point_info>
    4300127c:	aa1403e0 	mov	x0, x20
    43001280:	94000286 	bl	43001c98 <cm_init_my_context>
    43001284:	7100067f 	cmp	w19, #0x1
    43001288:	54000081 	b.ne	43001298 <bl31_prepare_next_image_entry+0x64>  // b.any
    4300128c:	a94153f3 	ldp	x19, x20, [sp, #16]
    43001290:	a8c27bfd 	ldp	x29, x30, [sp], #32
    43001294:	140002e7 	b	43001e30 <cm_prepare_el3_exit_ns>
    43001298:	2a1303e0 	mov	w0, w19
    4300129c:	a94153f3 	ldp	x19, x20, [sp, #16]
    430012a0:	a8c27bfd 	ldp	x29, x30, [sp], #32
    430012a4:	140002b0 	b	43001d64 <cm_prepare_el3_exit>

00000000430012a8 <bl31_main>:
    430012a8:	a9be7bfd 	stp	x29, x30, [sp, #-32]!
    430012ac:	910003fd 	mov	x29, sp
    430012b0:	f9000bf3 	str	x19, [sp, #16]
    430012b4:	9400026c 	bl	43001c64 <cm_manage_extensions_el3>
    430012b8:	90000053 	adrp	x19, 43009000 <suspend_binary_ca7+0x2e0>
    430012bc:	912cb273 	add	x19, x19, #0xb2c
    430012c0:	aa1303e0 	mov	x0, x19
    430012c4:	90000041 	adrp	x1, 43009000 <suspend_binary_ca7+0x2e0>
    430012c8:	912ab821 	add	x1, x1, #0xaae
    430012cc:	94001222 	bl	43005b54 <tf_log>
    430012d0:	aa1303e0 	mov	x0, x19
    430012d4:	90000041 	adrp	x1, 43009000 <suspend_binary_ca7+0x2e0>
    430012d8:	912a4021 	add	x1, x1, #0xa90
    430012dc:	9400121e 	bl	43005b54 <tf_log>
    430012e0:	94000b7f 	bl	430040dc <bl31_platform_setup>
    430012e4:	94000206 	bl	43001afc <cm_init>
    430012e8:	94000021 	bl	4300136c <runtime_svc_init>
    430012ec:	f0000040 	adrp	x0, 4300c000 <__STACKS_START__+0xf00>
    430012f0:	f9431000 	ldr	x0, [x0, #1568]
    430012f4:	b4000040 	cbz	x0, 430012fc <bl31_main+0x54>
    430012f8:	d63f0000 	blr	x0
    430012fc:	97ffffce 	bl	43001234 <bl31_prepare_next_image_entry>
    43001300:	9400128e 	bl	43005d38 <console_flush>
    43001304:	f9400bf3 	ldr	x19, [sp, #16]
    43001308:	a8c27bfd 	ldp	x29, x30, [sp], #32
    4300130c:	140012c7 	b	43005e28 <bl31_plat_runtime_setup>

0000000043001310 <handle_sysreg_trap>:
    43001310:	12800000 	mov	w0, #0xffffffff            	// #-1
    43001314:	d65f03c0 	ret

0000000043001318 <get_scr_el3_from_routing_model>:
    43001318:	f0000041 	adrp	x1, 4300c000 <__STACKS_START__+0xf00>
    4300131c:	9118a022 	add	x2, x1, #0x628
    43001320:	2a0003e1 	mov	w1, w0
    43001324:	8b010c40 	add	x0, x2, x1, lsl #3
    43001328:	8b010c43 	add	x3, x2, x1, lsl #3
    4300132c:	8b010c41 	add	x1, x2, x1, lsl #3
    43001330:	f9400463 	ldr	x3, [x3, #8]
    43001334:	f9402400 	ldr	x0, [x0, #72]
    43001338:	f9401421 	ldr	x1, [x1, #40]
    4300133c:	aa030000 	orr	x0, x0, x3
    43001340:	aa010000 	orr	x0, x0, x1
    43001344:	d65f03c0 	ret

0000000043001348 <get_interrupt_type_handler>:
    43001348:	7100081f 	cmp	w0, #0x2
    4300134c:	540000c8 	b.hi	43001364 <get_interrupt_type_handler+0x1c>  // b.pmore
    43001350:	d37b7c00 	ubfiz	x0, x0, #5, #32
    43001354:	f0000041 	adrp	x1, 4300c000 <__STACKS_START__+0xf00>
    43001358:	9118a021 	add	x1, x1, #0x628
    4300135c:	f8606820 	ldr	x0, [x1, x0]
    43001360:	d65f03c0 	ret
    43001364:	d2800000 	mov	x0, #0x0                   	// #0
    43001368:	17fffffe 	b	43001360 <get_interrupt_type_handler+0x18>

000000004300136c <runtime_svc_init>:
    4300136c:	a9bb7bfd 	stp	x29, x30, [sp, #-80]!
    43001370:	910003fd 	mov	x29, sp
    43001374:	a90153f3 	stp	x19, x20, [sp, #16]
    43001378:	b0000053 	adrp	x19, 4300a000 <__func__.7+0x8a>
    4300137c:	91100273 	add	x19, x19, #0x400
    43001380:	a9025bf5 	stp	x21, x22, [sp, #32]
    43001384:	b0000056 	adrp	x22, 4300a000 <__func__.7+0x8a>
    43001388:	910e82d6 	add	x22, x22, #0x3a0
    4300138c:	cb160273 	sub	x19, x19, x22
    43001390:	a90363f7 	stp	x23, x24, [sp, #48]
    43001394:	f90023f9 	str	x25, [sp, #64]
    43001398:	f1007e7f 	cmp	x19, #0x1f
    4300139c:	540001a9 	b.ls	430013d0 <runtime_svc_init+0x64>  // b.plast
    430013a0:	90000058 	adrp	x24, 43009000 <suspend_binary_ca7+0x2e0>
    430013a4:	d345fe73 	lsr	x19, x19, #5
    430013a8:	912d7f18 	add	x24, x24, #0xb5f
    430013ac:	52800015 	mov	w21, #0x0                   	// #0
    430013b0:	f0000057 	adrp	x23, 4300c000 <__STACKS_START__+0xf00>
    430013b4:	913152f7 	add	x23, x23, #0xc54
    430013b8:	aa1703e0 	mov	x0, x23
    430013bc:	d2801002 	mov	x2, #0x80                  	// #128
    430013c0:	12800001 	mov	w1, #0xffffffff            	// #-1
    430013c4:	9400176a 	bl	4300716c <memset>
    430013c8:	eb35027f 	cmp	x19, w21, uxtb
    430013cc:	540000e8 	b.hi	430013e8 <runtime_svc_init+0x7c>  // b.pmore
    430013d0:	a94153f3 	ldp	x19, x20, [sp, #16]
    430013d4:	a9425bf5 	ldp	x21, x22, [sp, #32]
    430013d8:	a94363f7 	ldp	x23, x24, [sp, #48]
    430013dc:	f94023f9 	ldr	x25, [sp, #64]
    430013e0:	a8c57bfd 	ldp	x29, x30, [sp], #80
    430013e4:	d65f03c0 	ret
    430013e8:	d37b1eb9 	ubfiz	x25, x21, #5, #8
    430013ec:	8b1902d4 	add	x20, x22, x25
    430013f0:	38796ac1 	ldrb	w1, [x22, x25]
    430013f4:	39400680 	ldrb	w0, [x20, #1]
    430013f8:	6b00003f 	cmp	w1, w0
    430013fc:	54000148 	b.hi	43001424 <runtime_svc_init+0xb8>  // b.pmore
    43001400:	7100fc1f 	cmp	w0, #0x3f
    43001404:	54000108 	b.hi	43001424 <runtime_svc_init+0xb8>  // b.pmore
    43001408:	39400a80 	ldrb	w0, [x20, #2]
    4300140c:	7100041f 	cmp	w0, #0x1
    43001410:	540000a8 	b.hi	43001424 <runtime_svc_init+0xb8>  // b.pmore
    43001414:	f9400a80 	ldr	x0, [x20, #16]
    43001418:	b5000120 	cbnz	x0, 4300143c <runtime_svc_init+0xd0>
    4300141c:	f9400e80 	ldr	x0, [x20, #24]
    43001420:	b50001e0 	cbnz	x0, 4300145c <runtime_svc_init+0xf0>
    43001424:	aa1403e1 	mov	x1, x20
    43001428:	90000040 	adrp	x0, 43009000 <suspend_binary_ca7+0x2e0>
    4300142c:	912cdc00 	add	x0, x0, #0xb37
    43001430:	940011c9 	bl	43005b54 <tf_log>
    43001434:	94001241 	bl	43005d38 <console_flush>
    43001438:	940014f2 	bl	43006800 <el3_panic>
    4300143c:	d63f0000 	blr	x0
    43001440:	340000e0 	cbz	w0, 4300145c <runtime_svc_init+0xf0>
    43001444:	f9400681 	ldr	x1, [x20, #8]
    43001448:	aa1803e0 	mov	x0, x24
    4300144c:	940011c2 	bl	43005b54 <tf_log>
    43001450:	110006b5 	add	w21, w21, #0x1
    43001454:	12001eb5 	and	w21, w21, #0xff
    43001458:	17ffffdc 	b	430013c8 <runtime_svc_init+0x5c>
    4300145c:	39400a81 	ldrb	w1, [x20, #2]
    43001460:	38796ac2 	ldrb	w2, [x22, x25]
    43001464:	531a0023 	ubfiz	w3, w1, #6, #1
    43001468:	39400681 	ldrb	w1, [x20, #1]
    4300146c:	12001442 	and	w2, w2, #0x3f
    43001470:	2a030040 	orr	w0, w2, w3
    43001474:	12001421 	and	w1, w1, #0x3f
    43001478:	2a0003e2 	mov	w2, w0
    4300147c:	2a030021 	orr	w1, w1, w3
    43001480:	8b0002e0 	add	x0, x23, x0
    43001484:	6b01005f 	cmp	w2, w1
    43001488:	54fffe48 	b.hi	43001450 <runtime_svc_init+0xe4>  // b.pmore
    4300148c:	11000442 	add	w2, w2, #0x1
    43001490:	38001415 	strb	w21, [x0], #1
    43001494:	12001c42 	and	w2, w2, #0xff
    43001498:	17fffffb 	b	43001484 <runtime_svc_init+0x118>

000000004300149c <cci_init>:
    4300149c:	f0000042 	adrp	x2, 4300c000 <__STACKS_START__+0xf00>
    430014a0:	f9034440 	str	x0, [x2, #1672]
    430014a4:	f0000040 	adrp	x0, 4300c000 <__STACKS_START__+0xf00>
    430014a8:	f9034801 	str	x1, [x0, #1680]
    430014ac:	d65f03c0 	ret

00000000430014b0 <cci_enable_snoop_dvm_reqs>:
    430014b0:	f0000041 	adrp	x1, 4300c000 <__STACKS_START__+0xf00>
    430014b4:	52800063 	mov	w3, #0x3                   	// #3
    430014b8:	f9434821 	ldr	x1, [x1, #1680]
    430014bc:	b8a05820 	ldrsw	x0, [x1, w0, uxtw #2]
    430014c0:	f0000041 	adrp	x1, 4300c000 <__STACKS_START__+0xf00>
    430014c4:	91000400 	add	x0, x0, #0x1
    430014c8:	f9434422 	ldr	x2, [x1, #1672]
    430014cc:	d374cc00 	lsl	x0, x0, #12
    430014d0:	b8226803 	str	w3, [x0, x2]
    430014d4:	d5033b9f 	dsb	ish
    430014d8:	f9434420 	ldr	x0, [x1, #1672]
    430014dc:	91003000 	add	x0, x0, #0xc
    430014e0:	b9400001 	ldr	w1, [x0]
    430014e4:	3707ffe1 	tbnz	w1, #0, 430014e0 <cci_enable_snoop_dvm_reqs+0x30>
    430014e8:	d65f03c0 	ret

00000000430014ec <cci_disable_snoop_dvm_reqs>:
    430014ec:	f0000041 	adrp	x1, 4300c000 <__STACKS_START__+0xf00>
    430014f0:	12800063 	mov	w3, #0xfffffffc            	// #-4
    430014f4:	f9434821 	ldr	x1, [x1, #1680]
    430014f8:	b8a05820 	ldrsw	x0, [x1, w0, uxtw #2]
    430014fc:	f0000041 	adrp	x1, 4300c000 <__STACKS_START__+0xf00>
    43001500:	91000400 	add	x0, x0, #0x1
    43001504:	f9434422 	ldr	x2, [x1, #1672]
    43001508:	d374cc00 	lsl	x0, x0, #12
    4300150c:	b8226803 	str	w3, [x0, x2]
    43001510:	d5033b9f 	dsb	ish
    43001514:	f9434420 	ldr	x0, [x1, #1672]
    43001518:	91003000 	add	x0, x0, #0xc
    4300151c:	b9400001 	ldr	w1, [x0]
    43001520:	3707ffe1 	tbnz	w1, #0, 4300151c <cci_disable_snoop_dvm_reqs+0x30>
    43001524:	d65f03c0 	ret

0000000043001528 <gicd_read_igroupr>:
    43001528:	53057c21 	lsr	w1, w1, #5
    4300152c:	91020000 	add	x0, x0, #0x80
    43001530:	d37e6821 	ubfiz	x1, x1, #2, #27
    43001534:	b8606820 	ldr	w0, [x1, x0]
    43001538:	d65f03c0 	ret

000000004300153c <gicd_read_icfgr>:
    4300153c:	53047c21 	lsr	w1, w1, #4
    43001540:	91300000 	add	x0, x0, #0xc00
    43001544:	d37e6c21 	ubfiz	x1, x1, #2, #28
    43001548:	b8606820 	ldr	w0, [x1, x0]
    4300154c:	d65f03c0 	ret

0000000043001550 <gicd_write_igroupr>:
    43001550:	53057c21 	lsr	w1, w1, #5
    43001554:	91020000 	add	x0, x0, #0x80
    43001558:	d37e6821 	ubfiz	x1, x1, #2, #27
    4300155c:	b8206822 	str	w2, [x1, x0]
    43001560:	d65f03c0 	ret

0000000043001564 <gicd_write_isenabler>:
    43001564:	53057c21 	lsr	w1, w1, #5
    43001568:	91040000 	add	x0, x0, #0x100
    4300156c:	d37e6821 	ubfiz	x1, x1, #2, #27
    43001570:	b8206822 	str	w2, [x1, x0]
    43001574:	d65f03c0 	ret

0000000043001578 <gicd_write_icenabler>:
    43001578:	53057c21 	lsr	w1, w1, #5
    4300157c:	91060000 	add	x0, x0, #0x180
    43001580:	d37e6821 	ubfiz	x1, x1, #2, #27
    43001584:	b8206822 	str	w2, [x1, x0]
    43001588:	d65f03c0 	ret

000000004300158c <gicd_write_ipriorityr>:
    4300158c:	927e7421 	and	x1, x1, #0xfffffffc
    43001590:	91100000 	add	x0, x0, #0x400
    43001594:	b8206822 	str	w2, [x1, x0]
    43001598:	d65f03c0 	ret

000000004300159c <gicd_write_icfgr>:
    4300159c:	53047c21 	lsr	w1, w1, #4
    430015a0:	91300000 	add	x0, x0, #0xc00
    430015a4:	d37e6c21 	ubfiz	x1, x1, #2, #28
    430015a8:	b8206822 	str	w2, [x1, x0]
    430015ac:	d65f03c0 	ret

00000000430015b0 <gicd_clr_igroupr>:
    430015b0:	a9bf7bfd 	stp	x29, x30, [sp, #-16]!
    430015b4:	2a0103e3 	mov	w3, w1
    430015b8:	aa0003e4 	mov	x4, x0
    430015bc:	910003fd 	mov	x29, sp
    430015c0:	97ffffda 	bl	43001528 <gicd_read_igroupr>
    430015c4:	a8c17bfd 	ldp	x29, x30, [sp], #16
    430015c8:	52800021 	mov	w1, #0x1                   	// #1
    430015cc:	1ac32021 	lsl	w1, w1, w3
    430015d0:	0a210002 	bic	w2, w0, w1
    430015d4:	2a0303e1 	mov	w1, w3
    430015d8:	aa0403e0 	mov	x0, x4
    430015dc:	17ffffdd 	b	43001550 <gicd_write_igroupr>

00000000430015e0 <gicd_set_isenabler>:
    430015e0:	52800022 	mov	w2, #0x1                   	// #1
    430015e4:	1ac12042 	lsl	w2, w2, w1
    430015e8:	17ffffdf 	b	43001564 <gicd_write_isenabler>

00000000430015ec <gicd_set_ipriorityr>:
    430015ec:	91100000 	add	x0, x0, #0x400
    430015f0:	2a0103e1 	mov	w1, w1
    430015f4:	12001c42 	and	w2, w2, #0xff
    430015f8:	38216802 	strb	w2, [x0, x1]
    430015fc:	d65f03c0 	ret

0000000043001600 <gicd_set_icfgr>:
    43001600:	a9bf7bfd 	stp	x29, x30, [sp, #-16]!
    43001604:	531f0c26 	ubfiz	w6, w1, #1, #4
    43001608:	aa0003e5 	mov	x5, x0
    4300160c:	910003fd 	mov	x29, sp
    43001610:	2a0103e4 	mov	w4, w1
    43001614:	97ffffca 	bl	4300153c <gicd_read_icfgr>
    43001618:	a8c17bfd 	ldp	x29, x30, [sp], #16
    4300161c:	12000442 	and	w2, w2, #0x3
    43001620:	52800063 	mov	w3, #0x3                   	// #3
    43001624:	2a0403e1 	mov	w1, w4
    43001628:	1ac62063 	lsl	w3, w3, w6
    4300162c:	0a230003 	bic	w3, w0, w3
    43001630:	1ac62042 	lsl	w2, w2, w6
    43001634:	aa0503e0 	mov	x0, x5
    43001638:	2a030042 	orr	w2, w2, w3
    4300163c:	17ffffd8 	b	4300159c <gicd_write_icfgr>

0000000043001640 <gicv2_get_cpuif_id>:
    43001640:	b9480000 	ldr	w0, [x0, #2048]
    43001644:	12001c00 	and	w0, w0, #0xff
    43001648:	d65f03c0 	ret

000000004300164c <gicv2_spis_configure_defaults>:
    4300164c:	a9bd7bfd 	stp	x29, x30, [sp, #-48]!
    43001650:	910003fd 	mov	x29, sp
    43001654:	a90153f3 	stp	x19, x20, [sp, #16]
    43001658:	aa0003f4 	mov	x20, x0
    4300165c:	b9400413 	ldr	w19, [x0, #4]
    43001660:	f90013f5 	str	x21, [sp, #32]
    43001664:	52800415 	mov	w21, #0x20                  	// #32
    43001668:	531b1273 	ubfiz	w19, w19, #5, #5
    4300166c:	11008273 	add	w19, w19, #0x20
    43001670:	6b1302bf 	cmp	w21, w19
    43001674:	54000163 	b.cc	430016a0 <gicv2_spis_configure_defaults+0x54>  // b.lo, b.ul, b.last
    43001678:	52800415 	mov	w21, #0x20                  	// #32
    4300167c:	6b1302bf 	cmp	w21, w19
    43001680:	540001c3 	b.cc	430016b8 <gicv2_spis_configure_defaults+0x6c>  // b.lo, b.ul, b.last
    43001684:	52800415 	mov	w21, #0x20                  	// #32
    43001688:	6b1302bf 	cmp	w21, w19
    4300168c:	54000223 	b.cc	430016d0 <gicv2_spis_configure_defaults+0x84>  // b.lo, b.ul, b.last
    43001690:	a94153f3 	ldp	x19, x20, [sp, #16]
    43001694:	f94013f5 	ldr	x21, [sp, #32]
    43001698:	a8c37bfd 	ldp	x29, x30, [sp], #48
    4300169c:	d65f03c0 	ret
    430016a0:	2a1503e1 	mov	w1, w21
    430016a4:	aa1403e0 	mov	x0, x20
    430016a8:	12800002 	mov	w2, #0xffffffff            	// #-1
    430016ac:	110082b5 	add	w21, w21, #0x20
    430016b0:	97ffffa8 	bl	43001550 <gicd_write_igroupr>
    430016b4:	17ffffef 	b	43001670 <gicv2_spis_configure_defaults+0x24>
    430016b8:	2a1503e1 	mov	w1, w21
    430016bc:	aa1403e0 	mov	x0, x20
    430016c0:	3201c3e2 	mov	w2, #0x80808080            	// #-2139062144
    430016c4:	110012b5 	add	w21, w21, #0x4
    430016c8:	97ffffb1 	bl	4300158c <gicd_write_ipriorityr>
    430016cc:	17ffffec 	b	4300167c <gicv2_spis_configure_defaults+0x30>
    430016d0:	2a1503e1 	mov	w1, w21
    430016d4:	aa1403e0 	mov	x0, x20
    430016d8:	52800002 	mov	w2, #0x0                   	// #0
    430016dc:	110042b5 	add	w21, w21, #0x10
    430016e0:	97ffffaf 	bl	4300159c <gicd_write_icfgr>
    430016e4:	17ffffe9 	b	43001688 <gicv2_spis_configure_defaults+0x3c>

00000000430016e8 <gicv2_secure_spis_configure_props>:
    430016e8:	a9bd7bfd 	stp	x29, x30, [sp, #-48]!
    430016ec:	910003fd 	mov	x29, sp
    430016f0:	a90153f3 	stp	x19, x20, [sp, #16]
    430016f4:	aa0003f4 	mov	x20, x0
    430016f8:	aa0103f3 	mov	x19, x1
    430016fc:	a9025bf5 	stp	x21, x22, [sp, #32]
    43001700:	8b224835 	add	x21, x1, w2, uxtw #2
    43001704:	91200016 	add	x22, x0, #0x800
    43001708:	eb15027f 	cmp	x19, x21
    4300170c:	540000a1 	b.ne	43001720 <gicv2_secure_spis_configure_props+0x38>  // b.any
    43001710:	a94153f3 	ldp	x19, x20, [sp, #16]
    43001714:	a9425bf5 	ldp	x21, x22, [sp, #32]
    43001718:	a8c37bfd 	ldp	x29, x30, [sp], #48
    4300171c:	d65f03c0 	ret
    43001720:	b9400261 	ldr	w1, [x19]
    43001724:	12003021 	and	w1, w1, #0x1fff
    43001728:	71007c3f 	cmp	w1, #0x1f
    4300172c:	540002c9 	b.ls	43001784 <gicv2_secure_spis_configure_props+0x9c>  // b.plast
    43001730:	aa1403e0 	mov	x0, x20
    43001734:	97ffff9f 	bl	430015b0 <gicd_clr_igroupr>
    43001738:	b9400261 	ldr	w1, [x19]
    4300173c:	aa1403e0 	mov	x0, x20
    43001740:	d34d5022 	ubfx	x2, x1, #13, #8
    43001744:	12003021 	and	w1, w1, #0x1fff
    43001748:	97ffffa9 	bl	430015ec <gicd_set_ipriorityr>
    4300174c:	b9400260 	ldr	w0, [x19]
    43001750:	b94002c1 	ldr	w1, [x22]
    43001754:	92403000 	and	x0, x0, #0x1fff
    43001758:	12001c21 	and	w1, w1, #0xff
    4300175c:	38366801 	strb	w1, [x0, x22]
    43001760:	aa1403e0 	mov	x0, x20
    43001764:	b9400261 	ldr	w1, [x19]
    43001768:	d3576022 	ubfx	x2, x1, #23, #2
    4300176c:	12003021 	and	w1, w1, #0x1fff
    43001770:	97ffffa4 	bl	43001600 <gicd_set_icfgr>
    43001774:	b9400261 	ldr	w1, [x19]
    43001778:	aa1403e0 	mov	x0, x20
    4300177c:	12003021 	and	w1, w1, #0x1fff
    43001780:	97ffff98 	bl	430015e0 <gicd_set_isenabler>
    43001784:	91001273 	add	x19, x19, #0x4
    43001788:	17ffffe0 	b	43001708 <gicv2_secure_spis_configure_props+0x20>

000000004300178c <gicv2_secure_ppi_sgi_setup_props>:
    4300178c:	a9bc7bfd 	stp	x29, x30, [sp, #-64]!
    43001790:	910003fd 	mov	x29, sp
    43001794:	a9025bf5 	stp	x21, x22, [sp, #32]
    43001798:	52800016 	mov	w22, #0x0                   	// #0
    4300179c:	2a0203f5 	mov	w21, w2
    430017a0:	12800002 	mov	w2, #0xffffffff            	// #-1
    430017a4:	a90153f3 	stp	x19, x20, [sp, #16]
    430017a8:	aa0003f4 	mov	x20, x0
    430017ac:	aa0103f3 	mov	x19, x1
    430017b0:	52800001 	mov	w1, #0x0                   	// #0
    430017b4:	a90363f7 	stp	x23, x24, [sp, #48]
    430017b8:	97ffff70 	bl	43001578 <gicd_write_icenabler>
    430017bc:	2a1603e1 	mov	w1, w22
    430017c0:	aa1403e0 	mov	x0, x20
    430017c4:	3201c3e2 	mov	w2, #0x80808080            	// #-2139062144
    430017c8:	110012d6 	add	w22, w22, #0x4
    430017cc:	97ffff70 	bl	4300158c <gicd_write_ipriorityr>
    430017d0:	710082df 	cmp	w22, #0x20
    430017d4:	54ffff41 	b.ne	430017bc <gicv2_secure_ppi_sgi_setup_props+0x30>  // b.any
    430017d8:	8b354a75 	add	x21, x19, w21, uxtw #2
    430017dc:	52800016 	mov	w22, #0x0                   	// #0
    430017e0:	5283fe17 	mov	w23, #0x1ff0                	// #8176
    430017e4:	52800038 	mov	w24, #0x1                   	// #1
    430017e8:	eb1302bf 	cmp	x21, x19
    430017ec:	540001a1 	b.ne	43001820 <gicv2_secure_ppi_sgi_setup_props+0x94>  // b.any
    430017f0:	2a3603e2 	mvn	w2, w22
    430017f4:	aa1403e0 	mov	x0, x20
    430017f8:	52800001 	mov	w1, #0x0                   	// #0
    430017fc:	97ffff55 	bl	43001550 <gicd_write_igroupr>
    43001800:	2a1603e2 	mov	w2, w22
    43001804:	aa1403e0 	mov	x0, x20
    43001808:	a94153f3 	ldp	x19, x20, [sp, #16]
    4300180c:	52800001 	mov	w1, #0x0                   	// #0
    43001810:	a9425bf5 	ldp	x21, x22, [sp, #32]
    43001814:	a94363f7 	ldp	x23, x24, [sp, #48]
    43001818:	a8c47bfd 	ldp	x29, x30, [sp], #64
    4300181c:	17ffff52 	b	43001564 <gicd_write_isenabler>
    43001820:	b9400262 	ldr	w2, [x19]
    43001824:	12003041 	and	w1, w2, #0x1fff
    43001828:	71007c3f 	cmp	w1, #0x1f
    4300182c:	540001e8 	b.hi	43001868 <gicv2_secure_ppi_sgi_setup_props+0xdc>  // b.pmore
    43001830:	0b170020 	add	w0, w1, w23
    43001834:	12003000 	and	w0, w0, #0x1fff
    43001838:	71003c1f 	cmp	w0, #0xf
    4300183c:	54000088 	b.hi	4300184c <gicv2_secure_ppi_sgi_setup_props+0xc0>  // b.pmore
    43001840:	d3576042 	ubfx	x2, x2, #23, #2
    43001844:	aa1403e0 	mov	x0, x20
    43001848:	97ffff6e 	bl	43001600 <gicd_set_icfgr>
    4300184c:	b9400261 	ldr	w1, [x19]
    43001850:	1ac12300 	lsl	w0, w24, w1
    43001854:	d34d5022 	ubfx	x2, x1, #13, #8
    43001858:	2a0002d6 	orr	w22, w22, w0
    4300185c:	12003021 	and	w1, w1, #0x1fff
    43001860:	aa1403e0 	mov	x0, x20
    43001864:	97ffff62 	bl	430015ec <gicd_set_ipriorityr>
    43001868:	91001273 	add	x19, x19, #0x4
    4300186c:	17ffffdf 	b	430017e8 <gicv2_secure_ppi_sgi_setup_props+0x5c>

0000000043001870 <gicv2_cpuif_enable>:
    43001870:	f0000040 	adrp	x0, 4300c000 <__STACKS_START__+0xf00>
    43001874:	52801fe1 	mov	w1, #0xff                  	// #255
    43001878:	f9434c00 	ldr	x0, [x0, #1688]
    4300187c:	f9400400 	ldr	x0, [x0, #8]
    43001880:	b9000401 	str	w1, [x0, #4]
    43001884:	52803d21 	mov	w1, #0x1e9                 	// #489
    43001888:	b9000001 	str	w1, [x0]
    4300188c:	d65f03c0 	ret

0000000043001890 <gicv2_cpuif_disable>:
    43001890:	f0000040 	adrp	x0, 4300c000 <__STACKS_START__+0xf00>
    43001894:	f9434c00 	ldr	x0, [x0, #1688]
    43001898:	f9400401 	ldr	x1, [x0, #8]
    4300189c:	b9400020 	ldr	w0, [x1]
    430018a0:	121e7400 	and	w0, w0, #0xfffffffc
    430018a4:	321b0c00 	orr	w0, w0, #0x1e0
    430018a8:	b9000020 	str	w0, [x1]
    430018ac:	d65f03c0 	ret

00000000430018b0 <gicv2_pcpu_distif_init>:
    430018b0:	a9be7bfd 	stp	x29, x30, [sp, #-32]!
    430018b4:	910003fd 	mov	x29, sp
    430018b8:	f9000bf3 	str	x19, [sp, #16]
    430018bc:	f0000053 	adrp	x19, 4300c000 <__STACKS_START__+0xf00>
    430018c0:	f9434e60 	ldr	x0, [x19, #1688]
    430018c4:	b9402802 	ldr	w2, [x0, #40]
    430018c8:	f9401001 	ldr	x1, [x0, #32]
    430018cc:	f9400000 	ldr	x0, [x0]
    430018d0:	97ffffaf 	bl	4300178c <gicv2_secure_ppi_sgi_setup_props>
    430018d4:	f9434e60 	ldr	x0, [x19, #1688]
    430018d8:	f9400001 	ldr	x1, [x0]
    430018dc:	b9400020 	ldr	w0, [x1]
    430018e0:	37000060 	tbnz	w0, #0, 430018ec <gicv2_pcpu_distif_init+0x3c>
    430018e4:	32000000 	orr	w0, w0, #0x1
    430018e8:	b9000020 	str	w0, [x1]
    430018ec:	f9400bf3 	ldr	x19, [sp, #16]
    430018f0:	a8c27bfd 	ldp	x29, x30, [sp], #32
    430018f4:	d65f03c0 	ret

00000000430018f8 <gicv2_distif_init>:
    430018f8:	a9be7bfd 	stp	x29, x30, [sp, #-32]!
    430018fc:	910003fd 	mov	x29, sp
    43001900:	a90153f3 	stp	x19, x20, [sp, #16]
    43001904:	f0000054 	adrp	x20, 4300c000 <__STACKS_START__+0xf00>
    43001908:	f9434e80 	ldr	x0, [x20, #1688]
    4300190c:	f9400000 	ldr	x0, [x0]
    43001910:	b9400013 	ldr	w19, [x0]
    43001914:	121e7661 	and	w1, w19, #0xfffffffc
    43001918:	b9000001 	str	w1, [x0]
    4300191c:	32000273 	orr	w19, w19, #0x1
    43001920:	97ffff4b 	bl	4300164c <gicv2_spis_configure_defaults>
    43001924:	f9434e80 	ldr	x0, [x20, #1688]
    43001928:	b9402802 	ldr	w2, [x0, #40]
    4300192c:	f9401001 	ldr	x1, [x0, #32]
    43001930:	f9400000 	ldr	x0, [x0]
    43001934:	97ffff6d 	bl	430016e8 <gicv2_secure_spis_configure_props>
    43001938:	f9434e80 	ldr	x0, [x20, #1688]
    4300193c:	f9400000 	ldr	x0, [x0]
    43001940:	b9000013 	str	w19, [x0]
    43001944:	a94153f3 	ldp	x19, x20, [sp, #16]
    43001948:	a8c27bfd 	ldp	x29, x30, [sp], #32
    4300194c:	d65f03c0 	ret

0000000043001950 <gicv2_driver_init>:
    43001950:	a9be7bfd 	stp	x29, x30, [sp, #-32]!
    43001954:	910003fd 	mov	x29, sp
    43001958:	f9400001 	ldr	x1, [x0]
    4300195c:	b94fe821 	ldr	w1, [x1, #4072]
    43001960:	f9000bf3 	str	x19, [sp, #16]
    43001964:	f0000053 	adrp	x19, 4300c000 <__STACKS_START__+0xf00>
    43001968:	d2800101 	mov	x1, #0x8                   	// #8
    4300196c:	f9034e60 	str	x0, [x19, #1688]
    43001970:	911a6260 	add	x0, x19, #0x698
    43001974:	940013af 	bl	43006830 <flush_dcache_range>
    43001978:	f9434e60 	ldr	x0, [x19, #1688]
    4300197c:	d2800601 	mov	x1, #0x30                  	// #48
    43001980:	f9400bf3 	ldr	x19, [sp, #16]
    43001984:	a8c27bfd 	ldp	x29, x30, [sp], #32
    43001988:	140013aa 	b	43006830 <flush_dcache_range>

000000004300198c <gicv2_get_pending_interrupt_type>:
    4300198c:	f0000040 	adrp	x0, 4300c000 <__STACKS_START__+0xf00>
    43001990:	f9434c00 	ldr	x0, [x0, #1688]
    43001994:	f9400400 	ldr	x0, [x0, #8]
    43001998:	b9401800 	ldr	w0, [x0, #24]
    4300199c:	12002400 	and	w0, w0, #0x3ff
    430019a0:	d65f03c0 	ret

00000000430019a4 <gicv2_set_pe_target_mask>:
    430019a4:	a9bd7bfd 	stp	x29, x30, [sp, #-48]!
    430019a8:	910003fd 	mov	x29, sp
    430019ac:	a90153f3 	stp	x19, x20, [sp, #16]
    430019b0:	f0000054 	adrp	x20, 4300c000 <__STACKS_START__+0xf00>
    430019b4:	d37e7c13 	ubfiz	x19, x0, #2, #32
    430019b8:	f9434e81 	ldr	x1, [x20, #1688]
    430019bc:	f90013f5 	str	x21, [sp, #32]
    430019c0:	f9400835 	ldr	x21, [x1, #16]
    430019c4:	b8736aa0 	ldr	w0, [x21, x19]
    430019c8:	35000180 	cbnz	w0, 430019f8 <gicv2_set_pe_target_mask+0x54>
    430019cc:	f9400020 	ldr	x0, [x1]
    430019d0:	97ffff1c 	bl	43001640 <gicv2_get_cpuif_id>
    430019d4:	b8336aa0 	str	w0, [x21, x19]
    430019d8:	f9434e80 	ldr	x0, [x20, #1688]
    430019dc:	d2800081 	mov	x1, #0x4                   	// #4
    430019e0:	f94013f5 	ldr	x21, [sp, #32]
    430019e4:	f9400800 	ldr	x0, [x0, #16]
    430019e8:	8b130000 	add	x0, x0, x19
    430019ec:	a94153f3 	ldp	x19, x20, [sp, #16]
    430019f0:	a8c37bfd 	ldp	x29, x30, [sp], #48
    430019f4:	1400138f 	b	43006830 <flush_dcache_range>
    430019f8:	a94153f3 	ldp	x19, x20, [sp, #16]
    430019fc:	f94013f5 	ldr	x21, [sp, #32]
    43001a00:	a8c37bfd 	ldp	x29, x30, [sp], #48
    43001a04:	d65f03c0 	ret

0000000043001a08 <udelay>:
    43001a08:	a9bd7bfd 	stp	x29, x30, [sp, #-48]!
    43001a0c:	910003fd 	mov	x29, sp
    43001a10:	a90153f3 	stp	x19, x20, [sp, #16]
    43001a14:	f0000054 	adrp	x20, 4300c000 <__STACKS_START__+0xf00>
    43001a18:	2a0003f3 	mov	w19, w0
    43001a1c:	f9435280 	ldr	x0, [x20, #1696]
    43001a20:	f9400000 	ldr	x0, [x0]
    43001a24:	f90013f5 	str	x21, [sp, #32]
    43001a28:	d63f0000 	blr	x0
    43001a2c:	2a0003f5 	mov	w21, w0
    43001a30:	f9435282 	ldr	x2, [x20, #1696]
    43001a34:	29410841 	ldp	w1, w2, [x2, #8]
    43001a38:	d1000420 	sub	x0, x1, #0x1
    43001a3c:	9ba20273 	umaddl	x19, w19, w2, x0
    43001a40:	9ac10a73 	udiv	x19, x19, x1
    43001a44:	91000673 	add	x19, x19, #0x1
    43001a48:	f9435280 	ldr	x0, [x20, #1696]
    43001a4c:	f9400000 	ldr	x0, [x0]
    43001a50:	d63f0000 	blr	x0
    43001a54:	4b0002a1 	sub	w1, w21, w0
    43001a58:	eb13003f 	cmp	x1, x19
    43001a5c:	54ffff63 	b.cc	43001a48 <udelay+0x40>  // b.lo, b.ul, b.last
    43001a60:	a94153f3 	ldp	x19, x20, [sp, #16]
    43001a64:	f94013f5 	ldr	x21, [sp, #32]
    43001a68:	a8c37bfd 	ldp	x29, x30, [sp], #48
    43001a6c:	d65f03c0 	ret

0000000043001a70 <mdelay>:
    43001a70:	52807d01 	mov	w1, #0x3e8                 	// #1000
    43001a74:	1b017c00 	mul	w0, w0, w1
    43001a78:	17ffffe4 	b	43001a08 <udelay>

0000000043001a7c <timer_init>:
    43001a7c:	f0000041 	adrp	x1, 4300c000 <__STACKS_START__+0xf00>
    43001a80:	f9035020 	str	x0, [x1, #1696]
    43001a84:	d65f03c0 	ret

0000000043001a88 <get_timer_value>:
    43001a88:	d53be020 	mrs	x0, cntpct_el0
    43001a8c:	2a2003e0 	mvn	w0, w0
    43001a90:	d65f03c0 	ret

0000000043001a94 <generic_delay_timer_init_args>:
    43001a94:	2a0003e4 	mov	w4, w0
    43001a98:	f0000043 	adrp	x3, 4300c000 <__STACKS_START__+0xf00>
    43001a9c:	911aa060 	add	x0, x3, #0x6a8
    43001aa0:	90000002 	adrp	x2, 43001000 <bl31_entrypoint>
    43001aa4:	912a2042 	add	x2, x2, #0xa88
    43001aa8:	f9035462 	str	x2, [x3, #1704]
    43001aac:	29010404 	stp	w4, w1, [x0, #8]
    43001ab0:	17fffff3 	b	43001a7c <timer_init>

0000000043001ab4 <generic_delay_timer_init>:
    43001ab4:	a9bf7bfd 	stp	x29, x30, [sp, #-16]!
    43001ab8:	910003fd 	mov	x29, sp
    43001abc:	94000945 	bl	43003fd0 <plat_get_syscnt_freq2>
    43001ac0:	2a0003e1 	mov	w1, w0
    43001ac4:	52884800 	mov	w0, #0x4240                	// #16960
    43001ac8:	528000c3 	mov	w3, #0x6                   	// #6
    43001acc:	72a001e0 	movk	w0, #0xf, lsl #16
    43001ad0:	52800142 	mov	w2, #0xa                   	// #10
    43001ad4:	1ac20824 	udiv	w4, w1, w2
    43001ad8:	1b028485 	msub	w5, w4, w2, w1
    43001adc:	350000a5 	cbnz	w5, 43001af0 <generic_delay_timer_init+0x3c>
    43001ae0:	1ac20800 	udiv	w0, w0, w2
    43001ae4:	2a0403e1 	mov	w1, w4
    43001ae8:	71000463 	subs	w3, w3, #0x1
    43001aec:	54ffff41 	b.ne	43001ad4 <generic_delay_timer_init+0x20>  // b.any
    43001af0:	a8c17bfd 	ldp	x29, x30, [sp], #16
    43001af4:	17ffffe8 	b	43001a94 <generic_delay_timer_init_args>

0000000043001af8 <print_errata_status>:
    43001af8:	d65f03c0 	ret

0000000043001afc <cm_init>:
    43001afc:	d65f03c0 	ret

0000000043001b00 <cm_setup_context>:
    43001b00:	a9bd7bfd 	stp	x29, x30, [sp, #-48]!
    43001b04:	910003fd 	mov	x29, sp
    43001b08:	a90153f3 	stp	x19, x20, [sp, #16]
    43001b0c:	aa0003f3 	mov	x19, x0
    43001b10:	aa0103f4 	mov	x20, x1
    43001b14:	d2804801 	mov	x1, #0x240                 	// #576
    43001b18:	f90013f5 	str	x21, [sp, #32]
    43001b1c:	940013bb 	bl	43006a08 <zeromem>
    43001b20:	d53e1100 	mrs	x0, scr_el3
    43001b24:	9281a1e1 	mov	x1, #0xfffffffffffff2f0    	// #-3344
    43001b28:	f2f7ffe1 	movk	x1, #0xbfff, lsl #48
    43001b2c:	8a010000 	and	x0, x0, x1
    43001b30:	b9401281 	ldr	w1, [x20, #16]
    43001b34:	d3441022 	ubfx	x2, x1, #4, #1
    43001b38:	37200041 	tbnz	w1, #4, 43001b40 <cm_setup_context+0x40>
    43001b3c:	b2760000 	orr	x0, x0, #0x400
    43001b40:	b9400683 	ldr	w3, [x20, #4]
    43001b44:	36100043 	tbz	w3, #2, 43001b4c <cm_setup_context+0x4c>
    43001b48:	b2750000 	orr	x0, x0, #0x800
    43001b4c:	d53e1143 	mrs	x3, cptr_el3
    43001b50:	f9009e63 	str	x3, [x19, #312]
    43001b54:	35000302 	cbnz	w2, 43001bb4 <cm_setup_context+0xb4>
    43001b58:	d3420c22 	ubfx	x2, x1, #2, #2
    43001b5c:	7100085f 	cmp	w2, #0x2
    43001b60:	54000041 	b.ne	43001b68 <cm_setup_context+0x68>  // b.any
    43001b64:	b2780000 	orr	x0, x0, #0x100
    43001b68:	f9008260 	str	x0, [x19, #256]
    43001b6c:	2a0103e1 	mov	w1, w1
    43001b70:	f9400680 	ldr	x0, [x20, #8]
    43001b74:	a9118261 	stp	x1, x0, [x19, #280]
    43001b78:	d2800802 	mov	x2, #0x40                  	// #64
    43001b7c:	91006281 	add	x1, x20, #0x18
    43001b80:	aa1303e0 	mov	x0, x19
    43001b84:	94001565 	bl	43007118 <memcpy>
    43001b88:	b9400680 	ldr	w0, [x20, #4]
    43001b8c:	52800421 	mov	w1, #0x21                  	// #33
    43001b90:	6a010000 	ands	w0, w0, w1
    43001b94:	54000160 	b.eq	43001bc0 <cm_setup_context+0xc0>  // b.none
    43001b98:	7100041f 	cmp	w0, #0x1
    43001b9c:	540002e0 	b.eq	43001bf8 <cm_setup_context+0xf8>  // b.none
    43001ba0:	90000040 	adrp	x0, 43009000 <suspend_binary_ca7+0x2e0>
    43001ba4:	912e1c00 	add	x0, x0, #0xb87
    43001ba8:	94000feb 	bl	43005b54 <tf_log>
    43001bac:	94001063 	bl	43005d38 <console_flush>
    43001bb0:	94001314 	bl	43006800 <el3_panic>
    43001bb4:	12000c22 	and	w2, w1, #0xf
    43001bb8:	7100285f 	cmp	w2, #0xa
    43001bbc:	17ffffe9 	b	43001b60 <cm_setup_context+0x60>
    43001bc0:	f9408274 	ldr	x20, [x19, #256]
    43001bc4:	52800000 	mov	w0, #0x0                   	// #0
    43001bc8:	97fffdd4 	bl	43001318 <get_scr_el3_from_routing_model>
    43001bcc:	d5380421 	mrs	x1, id_aa64pfr1_el1
    43001bd0:	53082c21 	ubfx	w1, w1, #8, #4
    43001bd4:	aa000280 	orr	x0, x20, x0
    43001bd8:	7100043f 	cmp	w1, #0x1
    43001bdc:	54000041 	b.ne	43001be4 <cm_setup_context+0xe4>  // b.any
    43001be0:	b2660000 	orr	x0, x0, #0x4000000
    43001be4:	f94013f5 	ldr	x21, [sp, #32]
    43001be8:	f9008260 	str	x0, [x19, #256]
    43001bec:	a94153f3 	ldp	x19, x20, [sp, #16]
    43001bf0:	a8c37bfd 	ldp	x29, x30, [sp], #48
    43001bf4:	d65f03c0 	ret
    43001bf8:	f9408275 	ldr	x21, [x19, #256]
    43001bfc:	97fffdc7 	bl	43001318 <get_scr_el3_from_routing_model>
    43001c00:	b9401282 	ldr	w2, [x20, #16]
    43001c04:	d2810001 	mov	x1, #0x800                 	// #2048
    43001c08:	aa0002b5 	orr	x21, x21, x0
    43001c0c:	d2800020 	mov	x0, #0x1                   	// #1
    43001c10:	f2a08060 	movk	x0, #0x403, lsl #16
    43001c14:	aa0002b5 	orr	x21, x21, x0
    43001c18:	b9400680 	ldr	w0, [x20, #4]
    43001c1c:	d2810703 	mov	x3, #0x838                 	// #2104
    43001c20:	f27c005f 	tst	x2, #0x10
    43001c24:	f2a018a3 	movk	x3, #0xc5, lsl #16
    43001c28:	f2a61a01 	movk	x1, #0x30d0, lsl #16
    43001c2c:	f9008275 	str	x21, [x19, #256]
    43001c30:	d3689c00 	lsl	x0, x0, #24
    43001c34:	92670000 	and	x0, x0, #0x2000000
    43001c38:	aa010001 	orr	x1, x0, x1
    43001c3c:	aa030000 	orr	x0, x0, x3
    43001c40:	9a811000 	csel	x0, x0, x1, ne  // ne = any
    43001c44:	f900b260 	str	x0, [x19, #352]
    43001c48:	d5381020 	mrs	x0, actlr_el1
    43001c4c:	f94013f5 	ldr	x21, [sp, #32]
    43001c50:	f900da60 	str	x0, [x19, #432]
    43001c54:	aa1303e0 	mov	x0, x19
    43001c58:	a94153f3 	ldp	x19, x20, [sp, #16]
    43001c5c:	a8c37bfd 	ldp	x29, x30, [sp], #48
    43001c60:	1400104b 	b	43005d8c <pmuv3_enable>

0000000043001c64 <cm_manage_extensions_el3>:
    43001c64:	1400104b 	b	43005d90 <pmuv3_disable_el3>

0000000043001c68 <cm_init_context_by_index>:
    43001c68:	a9be7bfd 	stp	x29, x30, [sp, #-32]!
    43001c6c:	910003fd 	mov	x29, sp
    43001c70:	f9000bf3 	str	x19, [sp, #16]
    43001c74:	aa0103f3 	mov	x19, x1
    43001c78:	52800421 	mov	w1, #0x21                  	// #33
    43001c7c:	b9400662 	ldr	w2, [x19, #4]
    43001c80:	0a010041 	and	w1, w2, w1
    43001c84:	97fffd4d 	bl	430011b8 <cm_get_context_by_index>
    43001c88:	aa1303e1 	mov	x1, x19
    43001c8c:	f9400bf3 	ldr	x19, [sp, #16]
    43001c90:	a8c27bfd 	ldp	x29, x30, [sp], #32
    43001c94:	17ffff9b 	b	43001b00 <cm_setup_context>

0000000043001c98 <cm_init_my_context>:
    43001c98:	a9be7bfd 	stp	x29, x30, [sp, #-32]!
    43001c9c:	910003fd 	mov	x29, sp
    43001ca0:	f9000bf3 	str	x19, [sp, #16]
    43001ca4:	aa0003f3 	mov	x19, x0
    43001ca8:	52800420 	mov	w0, #0x21                  	// #33
    43001cac:	b9400661 	ldr	w1, [x19, #4]
    43001cb0:	0a000020 	and	w0, w1, w0
    43001cb4:	97fffd3c 	bl	430011a4 <cm_get_context>
    43001cb8:	aa1303e1 	mov	x1, x19
    43001cbc:	f9400bf3 	ldr	x19, [sp, #16]
    43001cc0:	a8c27bfd 	ldp	x29, x30, [sp], #32
    43001cc4:	17ffff8f 	b	43001b00 <cm_setup_context>

0000000043001cc8 <cm_el1_sysregs_context_restore>:
    43001cc8:	a9be7bfd 	stp	x29, x30, [sp, #-32]!
    43001ccc:	910003fd 	mov	x29, sp
    43001cd0:	a90153f3 	stp	x19, x20, [sp, #16]
    43001cd4:	2a0003f3 	mov	w19, w0
    43001cd8:	97fffd33 	bl	430011a4 <cm_get_context>
    43001cdc:	91054000 	add	x0, x0, #0x150
    43001ce0:	9400118f 	bl	4300631c <el1_sysregs_context_restore>
    43001ce4:	34000273 	cbz	w19, 43001d30 <cm_el1_sysregs_context_restore+0x68>
    43001ce8:	b0000053 	adrp	x19, 4300a000 <__func__.7+0x8a>
    43001cec:	b0000054 	adrp	x20, 4300a000 <__func__.7+0x8a>
    43001cf0:	9113e273 	add	x19, x19, #0x4f8
    43001cf4:	9113e294 	add	x20, x20, #0x4f8
    43001cf8:	eb14027f 	cmp	x19, x20
    43001cfc:	54000142 	b.cs	43001d24 <cm_el1_sysregs_context_restore+0x5c>  // b.hs, b.nlast
    43001d00:	f8408661 	ldr	x1, [x19], #8
    43001d04:	d2800000 	mov	x0, #0x0                   	// #0
    43001d08:	d63f0020 	blr	x1
    43001d0c:	17fffffb 	b	43001cf8 <cm_el1_sysregs_context_restore+0x30>
    43001d10:	f8408661 	ldr	x1, [x19], #8
    43001d14:	d2800000 	mov	x0, #0x0                   	// #0
    43001d18:	d63f0020 	blr	x1
    43001d1c:	eb14027f 	cmp	x19, x20
    43001d20:	54ffff83 	b.cc	43001d10 <cm_el1_sysregs_context_restore+0x48>  // b.lo, b.ul, b.last
    43001d24:	a94153f3 	ldp	x19, x20, [sp, #16]
    43001d28:	a8c27bfd 	ldp	x29, x30, [sp], #32
    43001d2c:	d65f03c0 	ret
    43001d30:	b0000053 	adrp	x19, 4300a000 <__func__.7+0x8a>
    43001d34:	b0000054 	adrp	x20, 4300a000 <__func__.7+0x8a>
    43001d38:	9113c273 	add	x19, x19, #0x4f0
    43001d3c:	9113e294 	add	x20, x20, #0x4f8
    43001d40:	17fffff7 	b	43001d1c <cm_el1_sysregs_context_restore+0x54>

0000000043001d44 <cm_set_next_eret_context>:
    43001d44:	a9bf7bfd 	stp	x29, x30, [sp, #-16]!
    43001d48:	910003fd 	mov	x29, sp
    43001d4c:	97fffd16 	bl	430011a4 <cm_get_context>
    43001d50:	d50041bf 	msr	spsel, #0x1
    43001d54:	9100001f 	mov	sp, x0
    43001d58:	d50040bf 	msr	spsel, #0x0
    43001d5c:	a8c17bfd 	ldp	x29, x30, [sp], #16
    43001d60:	d65f03c0 	ret

0000000043001d64 <cm_prepare_el3_exit>:
    43001d64:	a9be7bfd 	stp	x29, x30, [sp, #-32]!
    43001d68:	910003fd 	mov	x29, sp
    43001d6c:	f9000bf3 	str	x19, [sp, #16]
    43001d70:	2a0003f3 	mov	w19, w0
    43001d74:	97fffd0c 	bl	430011a4 <cm_get_context>
    43001d78:	7100067f 	cmp	w19, #0x1
    43001d7c:	540004e1 	b.ne	43001e18 <cm_prepare_el3_exit+0xb4>  // b.any
    43001d80:	f9408001 	ldr	x1, [x0, #256]
    43001d84:	d5380403 	mrs	x3, id_aa64pfr0_el1
    43001d88:	92780022 	and	x2, x1, #0x100
    43001d8c:	36400121 	tbz	w1, #8, 43001db0 <cm_prepare_el3_exit+0x4c>
    43001d90:	f940b000 	ldr	x0, [x0, #352]
    43001d94:	d2810601 	mov	x1, #0x830                 	// #2096
    43001d98:	f2a618a1 	movk	x1, #0x30c5, lsl #16
    43001d9c:	92670000 	and	x0, x0, #0x2000000
    43001da0:	aa010000 	orr	x0, x0, x1
    43001da4:	d51c1000 	msr	sctlr_el2, x0
    43001da8:	52800000 	mov	w0, #0x0                   	// #0
    43001dac:	14000017 	b	43001e08 <cm_prepare_el3_exit+0xa4>
    43001db0:	f2780c7f 	tst	x3, #0xf00
    43001db4:	54ffffa0 	b.eq	43001da8 <cm_prepare_el3_exit+0x44>  // b.none
    43001db8:	f2760021 	ands	x1, x1, #0x400
    43001dbc:	d2b00000 	mov	x0, #0x80000000            	// #2147483648
    43001dc0:	9a800021 	csel	x1, x1, x0, eq  // eq = none
    43001dc4:	b2580421 	orr	x1, x1, #0x30000000000
    43001dc8:	d51c1101 	msr	hcr_el2, x1
    43001dcc:	d2867fe0 	mov	x0, #0x33ff                	// #13311
    43001dd0:	d51c1140 	msr	cptr_el2, x0
    43001dd4:	d2800060 	mov	x0, #0x3                   	// #3
    43001dd8:	d51ce100 	msr	cnthctl_el2, x0
    43001ddc:	d51ce062 	msr	cntvoff_el2, x2
    43001de0:	d5380000 	mrs	x0, midr_el1
    43001de4:	d51c0000 	msr	vpidr_el2, x0
    43001de8:	d53800a0 	mrs	x0, mpidr_el1
    43001dec:	d51c00a0 	msr	vmpidr_el2, x0
    43001df0:	d51c2102 	msr	vttbr_el2, x2
    43001df4:	d51c1122 	msr	mdcr_el2, x2
    43001df8:	d51c1162 	msr	hstr_el2, x2
    43001dfc:	d51ce222 	msr	cnthp_ctl_el2, x2
    43001e00:	94000ff3 	bl	43005dcc <pmuv3_init_el2_unused>
    43001e04:	2a1303e0 	mov	w0, w19
    43001e08:	d5380501 	mrs	x1, id_aa64dfr0_el1
    43001e0c:	f2600c3f 	tst	x1, #0xf00000000
    43001e10:	54000040 	b.eq	43001e18 <cm_prepare_el3_exit+0xb4>  // b.none
    43001e14:	94000012 	bl	43001e5c <spe_enable>
    43001e18:	2a1303e0 	mov	w0, w19
    43001e1c:	97ffffab 	bl	43001cc8 <cm_el1_sysregs_context_restore>
    43001e20:	2a1303e0 	mov	w0, w19
    43001e24:	f9400bf3 	ldr	x19, [sp, #16]
    43001e28:	a8c27bfd 	ldp	x29, x30, [sp], #32
    43001e2c:	17ffffc6 	b	43001d44 <cm_set_next_eret_context>

0000000043001e30 <cm_prepare_el3_exit_ns>:
    43001e30:	52800020 	mov	w0, #0x1                   	// #1
    43001e34:	17ffffcc 	b	43001d64 <cm_prepare_el3_exit>

0000000043001e38 <spe_drain_buffers_hook>:
    43001e38:	d5380500 	mrs	x0, id_aa64dfr0_el1
    43001e3c:	f2600c1f 	tst	x0, #0xf00000000
    43001e40:	540000a0 	b.eq	43001e54 <spe_drain_buffers_hook+0x1c>  // b.none
    43001e44:	d503223f 	psb	csync
    43001e48:	d503379f 	dsb	nsh
    43001e4c:	d2800000 	mov	x0, #0x0                   	// #0
    43001e50:	d65f03c0 	ret
    43001e54:	92800000 	mov	x0, #0xffffffffffffffff    	// #-1
    43001e58:	17fffffe 	b	43001e50 <spe_drain_buffers_hook+0x18>

0000000043001e5c <spe_enable>:
    43001e5c:	72001c1f 	tst	w0, #0xff
    43001e60:	540000c0 	b.eq	43001e78 <spe_enable+0x1c>  // b.none
    43001e64:	d53c1120 	mrs	x0, mdcr_el2
    43001e68:	92407c00 	and	x0, x0, #0xffffffff
    43001e6c:	9271f800 	and	x0, x0, #0xffffffffffffbfff
    43001e70:	b2740400 	orr	x0, x0, #0x3000
    43001e74:	d51c1120 	msr	mdcr_el2, x0
    43001e78:	d53e1320 	mrs	x0, mdcr_el3
    43001e7c:	d2860001 	mov	x1, #0x3000                	// #12288
    43001e80:	f2c00201 	movk	x1, #0x10, lsl #32
    43001e84:	aa010000 	orr	x0, x0, x1
    43001e88:	d51e1320 	msr	mdcr_el3, x0
    43001e8c:	d65f03c0 	ret

0000000043001e90 <bakery_lock_get>:
    43001e90:	a9be7bfd 	stp	x29, x30, [sp, #-32]!
    43001e94:	910003fd 	mov	x29, sp
    43001e98:	f9000bf3 	str	x19, [sp, #16]
    43001e9c:	aa0003f3 	mov	x19, x0
    43001ea0:	94001230 	bl	43006760 <plat_my_core_pos>
    43001ea4:	d37f7c03 	ubfiz	x3, x0, #1, #32
    43001ea8:	52800021 	mov	w1, #0x1                   	// #1
    43001eac:	78236a61 	strh	w1, [x19, x3]
    43001eb0:	79400261 	ldrh	w1, [x19]
    43001eb4:	79400662 	ldrh	w2, [x19, #2]
    43001eb8:	d3413c21 	ubfx	x1, x1, #1, #15
    43001ebc:	d3413c42 	ubfx	x2, x2, #1, #15
    43001ec0:	6b02003f 	cmp	w1, w2
    43001ec4:	1a822021 	csel	w1, w1, w2, cs  // cs = hs, nlast
    43001ec8:	11000421 	add	w1, w1, #0x1
    43001ecc:	531f3822 	ubfiz	w2, w1, #1, #15
    43001ed0:	2a012001 	orr	w1, w0, w1, lsl #8
    43001ed4:	78236a62 	strh	w2, [x19, x3]
    43001ed8:	52800002 	mov	w2, #0x0                   	// #0
    43001edc:	6b02001f 	cmp	w0, w2
    43001ee0:	54000200 	b.eq	43001f20 <bakery_lock_get+0x90>  // b.none
    43001ee4:	d37f0045 	ubfiz	x5, x2, #1, #1
    43001ee8:	78656a64 	ldrh	w4, [x19, x5]
    43001eec:	8b050266 	add	x6, x19, x5
    43001ef0:	12003c83 	and	w3, w4, #0xffff
    43001ef4:	3707ffa4 	tbnz	w4, #0, 43001ee8 <bakery_lock_get+0x58>
    43001ef8:	53017c63 	lsr	w3, w3, #1
    43001efc:	34000123 	cbz	w3, 43001f20 <bakery_lock_get+0x90>
    43001f00:	2a032044 	orr	w4, w2, w3, lsl #8
    43001f04:	6b04003f 	cmp	w1, w4
    43001f08:	540000c9 	b.ls	43001f20 <bakery_lock_get+0x90>  // b.plast
    43001f0c:	d503205f 	wfe
    43001f10:	794000c4 	ldrh	w4, [x6]
    43001f14:	d3413c84 	ubfx	x4, x4, #1, #15
    43001f18:	6b04007f 	cmp	w3, w4
    43001f1c:	54ffff80 	b.eq	43001f0c <bakery_lock_get+0x7c>  // b.none
    43001f20:	340000a2 	cbz	w2, 43001f34 <bakery_lock_get+0xa4>
    43001f24:	d5033bbf 	dmb	ish
    43001f28:	f9400bf3 	ldr	x19, [sp, #16]
    43001f2c:	a8c27bfd 	ldp	x29, x30, [sp], #32
    43001f30:	d65f03c0 	ret
    43001f34:	52800022 	mov	w2, #0x1                   	// #1
    43001f38:	17ffffe9 	b	43001edc <bakery_lock_get+0x4c>

0000000043001f3c <bakery_lock_release>:
    43001f3c:	a9be7bfd 	stp	x29, x30, [sp, #-32]!
    43001f40:	910003fd 	mov	x29, sp
    43001f44:	f9000bf3 	str	x19, [sp, #16]
    43001f48:	aa0003f3 	mov	x19, x0
    43001f4c:	94001205 	bl	43006760 <plat_my_core_pos>
    43001f50:	d5033bbf 	dmb	ish
    43001f54:	2a0003e1 	mov	w1, w0
    43001f58:	78217a7f 	strh	wzr, [x19, x1, lsl #1]
    43001f5c:	d5033f9f 	dsb	sy
    43001f60:	d503209f 	sev
    43001f64:	f9400bf3 	ldr	x19, [sp, #16]
    43001f68:	a8c27bfd 	ldp	x29, x30, [sp], #32
    43001f6c:	d65f03c0 	ret

0000000043001f70 <psci_set_req_local_pwr_state>:
    43001f70:	51000400 	sub	w0, w0, #0x1
    43001f74:	12001c42 	and	w2, w2, #0xff
    43001f78:	7100041f 	cmp	w0, #0x1
    43001f7c:	54000128 	b.hi	43001fa0 <psci_set_req_local_pwr_state+0x30>  // b.pmore
    43001f80:	f0000043 	adrp	x3, 4300c000 <__STACKS_START__+0xf00>
    43001f84:	b94af863 	ldr	w3, [x3, #2808]
    43001f88:	6b01007f 	cmp	w3, w1
    43001f8c:	540000a9 	b.ls	43001fa0 <psci_set_req_local_pwr_state+0x30>  // b.plast
    43001f90:	f0000043 	adrp	x3, 4300c000 <__STACKS_START__+0xf00>
    43001f94:	91335063 	add	x3, x3, #0xcd4
    43001f98:	8b204460 	add	x0, x3, w0, uxtw #1
    43001f9c:	38214802 	strb	w2, [x0, w1, uxtw]
    43001fa0:	d65f03c0 	ret

0000000043001fa4 <psci_validate_power_state>:
    43001fa4:	52bf9fc2 	mov	w2, #0xfcfe0000            	// #-50462720
    43001fa8:	6a02001f 	tst	w0, w2
    43001fac:	540000c1 	b.ne	43001fc4 <psci_validate_power_state+0x20>  // b.any
    43001fb0:	f0000042 	adrp	x2, 4300c000 <__STACKS_START__+0xf00>
    43001fb4:	f9436c42 	ldr	x2, [x2, #1752]
    43001fb8:	f9403042 	ldr	x2, [x2, #96]
    43001fbc:	aa0203f0 	mov	x16, x2
    43001fc0:	d61f0200 	br	x16
    43001fc4:	12800020 	mov	w0, #0xfffffffe            	// #-2
    43001fc8:	d65f03c0 	ret

0000000043001fcc <psci_query_sys_suspend_pwrstate>:
    43001fcc:	f0000041 	adrp	x1, 4300c000 <__STACKS_START__+0xf00>
    43001fd0:	f9436c21 	ldr	x1, [x1, #1752]
    43001fd4:	f9403821 	ldr	x1, [x1, #112]
    43001fd8:	aa0103f0 	mov	x16, x1
    43001fdc:	d61f0200 	br	x16

0000000043001fe0 <psci_is_last_on_cpu>:
    43001fe0:	a9bd7bfd 	stp	x29, x30, [sp, #-48]!
    43001fe4:	910003fd 	mov	x29, sp
    43001fe8:	a90153f3 	stp	x19, x20, [sp, #16]
    43001fec:	f0000054 	adrp	x20, 4300c000 <__STACKS_START__+0xf00>
    43001ff0:	912be294 	add	x20, x20, #0xaf8
    43001ff4:	f90013f5 	str	x21, [sp, #32]
    43001ff8:	940011da 	bl	43006760 <plat_my_core_pos>
    43001ffc:	2a0003f5 	mov	w21, w0
    43002000:	52800013 	mov	w19, #0x0                   	// #0
    43002004:	b9400280 	ldr	w0, [x20]
    43002008:	6b13001f 	cmp	w0, w19
    4300200c:	540000c8 	b.hi	43002024 <psci_is_last_on_cpu+0x44>  // b.pmore
    43002010:	52800020 	mov	w0, #0x1                   	// #1
    43002014:	a94153f3 	ldp	x19, x20, [sp, #16]
    43002018:	f94013f5 	ldr	x21, [sp, #32]
    4300201c:	a8c37bfd 	ldp	x29, x30, [sp], #48
    43002020:	d65f03c0 	ret
    43002024:	6b15027f 	cmp	w19, w21
    43002028:	54000061 	b.ne	43002034 <psci_is_last_on_cpu+0x54>  // b.any
    4300202c:	11000673 	add	w19, w19, #0x1
    43002030:	17fffff5 	b	43002004 <psci_is_last_on_cpu+0x24>
    43002034:	2a1303e0 	mov	w0, w19
    43002038:	9400112c 	bl	430064e8 <_cpu_data_by_index>
    4300203c:	b9401800 	ldr	w0, [x0, #24]
    43002040:	7100041f 	cmp	w0, #0x1
    43002044:	54ffff40 	b.eq	4300202c <psci_is_last_on_cpu+0x4c>  // b.none
    43002048:	52800000 	mov	w0, #0x0                   	// #0
    4300204c:	17fffff2 	b	43002014 <psci_is_last_on_cpu+0x34>

0000000043002050 <psci_init_req_local_pwr_states>:
    43002050:	d0000040 	adrp	x0, 4300c000 <__STACKS_START__+0xf00>
    43002054:	b94af801 	ldr	w1, [x0, #2808]
    43002058:	34000181 	cbz	w1, 43002088 <psci_init_req_local_pwr_states+0x38>
    4300205c:	d0000043 	adrp	x3, 4300c000 <__STACKS_START__+0xf00>
    43002060:	52800040 	mov	w0, #0x2                   	// #2
    43002064:	91335062 	add	x2, x3, #0xcd4
    43002068:	39335060 	strb	w0, [x3, #3284]
    4300206c:	7100043f 	cmp	w1, #0x1
    43002070:	54000040 	b.eq	43002078 <psci_init_req_local_pwr_states+0x28>  // b.none
    43002074:	39000440 	strb	w0, [x2, #1]
    43002078:	39000840 	strb	w0, [x2, #2]
    4300207c:	7100043f 	cmp	w1, #0x1
    43002080:	54000040 	b.eq	43002088 <psci_init_req_local_pwr_states+0x38>  // b.none
    43002084:	39000c40 	strb	w0, [x2, #3]
    43002088:	d65f03c0 	ret

000000004300208c <psci_get_target_local_pwr_states>:
    4300208c:	a9be7bfd 	stp	x29, x30, [sp, #-32]!
    43002090:	910003fd 	mov	x29, sp
    43002094:	a90153f3 	stp	x19, x20, [sp, #16]
    43002098:	2a0003f4 	mov	w20, w0
    4300209c:	aa0103f3 	mov	x19, x1
    430020a0:	d53ed040 	mrs	x0, tpidr_el3
    430020a4:	39408000 	ldrb	w0, [x0, #32]
    430020a8:	39000020 	strb	w0, [x1]
    430020ac:	940011ad 	bl	43006760 <plat_my_core_pos>
    430020b0:	d37c7c00 	ubfiz	x0, x0, #4, #32
    430020b4:	d0000041 	adrp	x1, 4300c000 <__STACKS_START__+0xf00>
    430020b8:	911ae021 	add	x1, x1, #0x6b8
    430020bc:	8b000021 	add	x1, x1, x0
    430020c0:	f0000060 	adrp	x0, 43011000 <psci_locks>
    430020c4:	91003000 	add	x0, x0, #0xc
    430020c8:	52800022 	mov	w2, #0x1                   	// #1
    430020cc:	b9400823 	ldr	w3, [x1, #8]
    430020d0:	6b14005f 	cmp	w2, w20
    430020d4:	2a0203e1 	mov	w1, w2
    430020d8:	540000e9 	b.ls	430020f4 <psci_get_target_local_pwr_states+0x68>  // b.plast
    430020dc:	8b010273 	add	x19, x19, x1
    430020e0:	7100085f 	cmp	w2, #0x2
    430020e4:	54000169 	b.ls	43002110 <psci_get_target_local_pwr_states+0x84>  // b.plast
    430020e8:	a94153f3 	ldp	x19, x20, [sp, #16]
    430020ec:	a8c27bfd 	ldp	x29, x30, [sp], #32
    430020f0:	d65f03c0 	ret
    430020f4:	d37c7c63 	ubfiz	x3, x3, #4, #32
    430020f8:	11000442 	add	w2, w2, #0x1
    430020fc:	8b030003 	add	x3, x0, x3
    43002100:	39403064 	ldrb	w4, [x3, #12]
    43002104:	38216a64 	strb	w4, [x19, x1]
    43002108:	b9400863 	ldr	w3, [x3, #8]
    4300210c:	17fffff1 	b	430020d0 <psci_get_target_local_pwr_states+0x44>
    43002110:	11000442 	add	w2, w2, #0x1
    43002114:	3800167f 	strb	wzr, [x19], #1
    43002118:	17fffff2 	b	430020e0 <psci_get_target_local_pwr_states+0x54>

000000004300211c <psci_set_target_local_pwr_states>:
    4300211c:	a9be7bfd 	stp	x29, x30, [sp, #-32]!
    43002120:	910003fd 	mov	x29, sp
    43002124:	a90153f3 	stp	x19, x20, [sp, #16]
    43002128:	aa0103f3 	mov	x19, x1
    4300212c:	2a0003f4 	mov	w20, w0
    43002130:	39400021 	ldrb	w1, [x1]
    43002134:	d53ed040 	mrs	x0, tpidr_el3
    43002138:	39008001 	strb	w1, [x0, #32]
    4300213c:	d53ed040 	mrs	x0, tpidr_el3
    43002140:	91008000 	add	x0, x0, #0x20
    43002144:	d2800021 	mov	x1, #0x1                   	// #1
    43002148:	940011ba 	bl	43006830 <flush_dcache_range>
    4300214c:	94001185 	bl	43006760 <plat_my_core_pos>
    43002150:	d37c7c00 	ubfiz	x0, x0, #4, #32
    43002154:	d0000042 	adrp	x2, 4300c000 <__STACKS_START__+0xf00>
    43002158:	911ae042 	add	x2, x2, #0x6b8
    4300215c:	8b000042 	add	x2, x2, x0
    43002160:	f0000060 	adrp	x0, 43011000 <psci_locks>
    43002164:	91003000 	add	x0, x0, #0xc
    43002168:	52800023 	mov	w3, #0x1                   	// #1
    4300216c:	b9400842 	ldr	w2, [x2, #8]
    43002170:	6b14007f 	cmp	w3, w20
    43002174:	54000089 	b.ls	43002184 <psci_set_target_local_pwr_states+0x68>  // b.plast
    43002178:	a94153f3 	ldp	x19, x20, [sp, #16]
    4300217c:	a8c27bfd 	ldp	x29, x30, [sp], #32
    43002180:	d65f03c0 	ret
    43002184:	d37c7c42 	ubfiz	x2, x2, #4, #32
    43002188:	38634a61 	ldrb	w1, [x19, w3, uxtw]
    4300218c:	8b020002 	add	x2, x0, x2
    43002190:	11000463 	add	w3, w3, #0x1
    43002194:	39003041 	strb	w1, [x2, #12]
    43002198:	b9400842 	ldr	w2, [x2, #8]
    4300219c:	17fffff5 	b	43002170 <psci_set_target_local_pwr_states+0x54>

00000000430021a0 <psci_get_parent_pwr_domain_nodes>:
    430021a0:	d37c7c03 	ubfiz	x3, x0, #4, #32
    430021a4:	d0000040 	adrp	x0, 4300c000 <__STACKS_START__+0xf00>
    430021a8:	911ae000 	add	x0, x0, #0x6b8
    430021ac:	f0000064 	adrp	x4, 43011000 <psci_locks>
    430021b0:	8b030000 	add	x0, x0, x3
    430021b4:	d1001042 	sub	x2, x2, #0x4
    430021b8:	91003084 	add	x4, x4, #0xc
    430021bc:	d2800003 	mov	x3, #0x0                   	// #0
    430021c0:	b9400800 	ldr	w0, [x0, #8]
    430021c4:	91000463 	add	x3, x3, #0x1
    430021c8:	6b03003f 	cmp	w1, w3
    430021cc:	54000042 	b.cs	430021d4 <psci_get_parent_pwr_domain_nodes+0x34>  // b.hs, b.nlast
    430021d0:	d65f03c0 	ret
    430021d4:	b8237840 	str	w0, [x2, x3, lsl #2]
    430021d8:	d37c7c00 	ubfiz	x0, x0, #4, #32
    430021dc:	8b000080 	add	x0, x4, x0
    430021e0:	b9400800 	ldr	w0, [x0, #8]
    430021e4:	17fffff8 	b	430021c4 <psci_get_parent_pwr_domain_nodes+0x24>

00000000430021e8 <psci_set_pwr_domains_to_run>:
    430021e8:	a9be7bfd 	stp	x29, x30, [sp, #-32]!
    430021ec:	910003fd 	mov	x29, sp
    430021f0:	f9000bf3 	str	x19, [sp, #16]
    430021f4:	2a0003f3 	mov	w19, w0
    430021f8:	9400115a 	bl	43006760 <plat_my_core_pos>
    430021fc:	2a0003e1 	mov	w1, w0
    43002200:	d0000042 	adrp	x2, 4300c000 <__STACKS_START__+0xf00>
    43002204:	911ae042 	add	x2, x2, #0x6b8
    43002208:	d37c7c20 	ubfiz	x0, x1, #4, #32
    4300220c:	f0000066 	adrp	x6, 43011000 <psci_locks>
    43002210:	8b000042 	add	x2, x2, x0
    43002214:	910030c6 	add	x6, x6, #0xc
    43002218:	52800025 	mov	w5, #0x1                   	// #1
    4300221c:	b9400844 	ldr	w4, [x2, #8]
    43002220:	6b1300bf 	cmp	w5, w19
    43002224:	54000169 	b.ls	43002250 <psci_set_pwr_domains_to_run+0x68>  // b.plast
    43002228:	d53ed040 	mrs	x0, tpidr_el3
    4300222c:	b900181f 	str	wzr, [x0, #24]
    43002230:	d53ed040 	mrs	x0, tpidr_el3
    43002234:	3900801f 	strb	wzr, [x0, #32]
    43002238:	d53ed040 	mrs	x0, tpidr_el3
    4300223c:	f9400bf3 	ldr	x19, [sp, #16]
    43002240:	91006000 	add	x0, x0, #0x18
    43002244:	a8c27bfd 	ldp	x29, x30, [sp], #32
    43002248:	d2800181 	mov	x1, #0xc                   	// #12
    4300224c:	14001179 	b	43006830 <flush_dcache_range>
    43002250:	d37c7c84 	ubfiz	x4, x4, #4, #32
    43002254:	2a0503e0 	mov	w0, w5
    43002258:	8b0400c4 	add	x4, x6, x4
    4300225c:	52800002 	mov	w2, #0x0                   	// #0
    43002260:	110004a5 	add	w5, w5, #0x1
    43002264:	3900309f 	strb	wzr, [x4, #12]
    43002268:	97ffff42 	bl	43001f70 <psci_set_req_local_pwr_state>
    4300226c:	b9400884 	ldr	w4, [x4, #8]
    43002270:	17ffffec 	b	43002220 <psci_set_pwr_domains_to_run+0x38>

0000000043002274 <psci_do_state_coordination>:
    43002274:	a9bb7bfd 	stp	x29, x30, [sp, #-80]!
    43002278:	910003fd 	mov	x29, sp
    4300227c:	a90153f3 	stp	x19, x20, [sp, #16]
    43002280:	a9025bf5 	stp	x21, x22, [sp, #32]
    43002284:	aa0103f5 	mov	x21, x1
    43002288:	a90363f7 	stp	x23, x24, [sp, #48]
    4300228c:	2a0003f7 	mov	w23, w0
    43002290:	f0000078 	adrp	x24, 43011000 <psci_locks>
    43002294:	a9046bf9 	stp	x25, x26, [sp, #64]
    43002298:	94001132 	bl	43006760 <plat_my_core_pos>
    4300229c:	2a0003f6 	mov	w22, w0
    430022a0:	d0000040 	adrp	x0, 4300c000 <__STACKS_START__+0xf00>
    430022a4:	911ae000 	add	x0, x0, #0x6b8
    430022a8:	d37c7ec1 	ubfiz	x1, x22, #4, #32
    430022ac:	d0000059 	adrp	x25, 4300c000 <__STACKS_START__+0xf00>
    430022b0:	8b010000 	add	x0, x0, x1
    430022b4:	91003318 	add	x24, x24, #0xc
    430022b8:	912be339 	add	x25, x25, #0xaf8
    430022bc:	52800024 	mov	w4, #0x1                   	// #1
    430022c0:	b9400814 	ldr	w20, [x0, #8]
    430022c4:	6b17009f 	cmp	w4, w23
    430022c8:	11000493 	add	w19, w4, #0x1
    430022cc:	54000129 	b.ls	430022f0 <psci_do_state_coordination+0x7c>  // b.plast
    430022d0:	6b17027f 	cmp	w19, w23
    430022d4:	540004c9 	b.ls	4300236c <psci_do_state_coordination+0xf8>  // b.plast
    430022d8:	a94153f3 	ldp	x19, x20, [sp, #16]
    430022dc:	a9425bf5 	ldp	x21, x22, [sp, #32]
    430022e0:	a94363f7 	ldp	x23, x24, [sp, #48]
    430022e4:	a9446bf9 	ldp	x25, x26, [sp, #64]
    430022e8:	a8c57bfd 	ldp	x29, x30, [sp], #80
    430022ec:	d65f03c0 	ret
    430022f0:	2a0403fa 	mov	w26, w4
    430022f4:	2a1603e1 	mov	w1, w22
    430022f8:	2a0403e0 	mov	w0, w4
    430022fc:	2a1403f4 	mov	w20, w20
    43002300:	387a6aa2 	ldrb	w2, [x21, x26]
    43002304:	97ffff1b 	bl	43001f70 <psci_set_req_local_pwr_state>
    43002308:	51000481 	sub	w1, w4, #0x1
    4300230c:	7100043f 	cmp	w1, #0x1
    43002310:	540002a8 	b.hi	43002364 <psci_do_state_coordination+0xf0>  // b.pmore
    43002314:	d37cee80 	lsl	x0, x20, #4
    43002318:	b9400323 	ldr	w3, [x25]
    4300231c:	b8606b02 	ldr	w2, [x24, x0]
    43002320:	2a0203e0 	mov	w0, w2
    43002324:	6b03005f 	cmp	w2, w3
    43002328:	8b214400 	add	x0, x0, w1, uxtw #1
    4300232c:	d0000041 	adrp	x1, 4300c000 <__STACKS_START__+0xf00>
    43002330:	91335021 	add	x1, x1, #0xcd4
    43002334:	8b000021 	add	x1, x1, x0
    43002338:	9a9f3021 	csel	x1, x1, xzr, cc  // cc = lo, ul, last
    4300233c:	8b141314 	add	x20, x24, x20, lsl #4
    43002340:	2a0403e0 	mov	w0, w4
    43002344:	b9400682 	ldr	w2, [x20, #4]
    43002348:	94000cce 	bl	43005680 <plat_get_target_pwr_state>
    4300234c:	383a6aa0 	strb	w0, [x21, x26]
    43002350:	72001c1f 	tst	w0, #0xff
    43002354:	54fffbe0 	b.eq	430022d0 <psci_do_state_coordination+0x5c>  // b.none
    43002358:	b9400a94 	ldr	w20, [x20, #8]
    4300235c:	2a1303e4 	mov	w4, w19
    43002360:	17ffffd9 	b	430022c4 <psci_do_state_coordination+0x50>
    43002364:	d2800001 	mov	x1, #0x0                   	// #0
    43002368:	17fffff5 	b	4300233c <psci_do_state_coordination+0xc8>
    4300236c:	2a1303e5 	mov	w5, w19
    43002370:	2a1303e0 	mov	w0, w19
    43002374:	2a1603e1 	mov	w1, w22
    43002378:	11000673 	add	w19, w19, #0x1
    4300237c:	38656aa2 	ldrb	w2, [x21, x5]
    43002380:	97fffefc 	bl	43001f70 <psci_set_req_local_pwr_state>
    43002384:	38256abf 	strb	wzr, [x21, x5]
    43002388:	17ffffd2 	b	430022d0 <psci_do_state_coordination+0x5c>

000000004300238c <psci_find_max_off_lvl>:
    4300238c:	aa0003e1 	mov	x1, x0
    43002390:	39400800 	ldrb	w0, [x0, #2]
    43002394:	7100081f 	cmp	w0, #0x2
    43002398:	54000120 	b.eq	430023bc <psci_find_max_off_lvl+0x30>  // b.none
    4300239c:	39400420 	ldrb	w0, [x1, #1]
    430023a0:	7100081f 	cmp	w0, #0x2
    430023a4:	540000e0 	b.eq	430023c0 <psci_find_max_off_lvl+0x34>  // b.none
    430023a8:	39400021 	ldrb	w1, [x1]
    430023ac:	52800060 	mov	w0, #0x3                   	// #3
    430023b0:	7100083f 	cmp	w1, #0x2
    430023b4:	54000041 	b.ne	430023bc <psci_find_max_off_lvl+0x30>  // b.any
    430023b8:	52800000 	mov	w0, #0x0                   	// #0
    430023bc:	d65f03c0 	ret
    430023c0:	52800020 	mov	w0, #0x1                   	// #1
    430023c4:	17fffffe 	b	430023bc <psci_find_max_off_lvl+0x30>

00000000430023c8 <psci_find_target_suspend_lvl>:
    430023c8:	39400801 	ldrb	w1, [x0, #2]
    430023cc:	35000101 	cbnz	w1, 430023ec <psci_find_target_suspend_lvl+0x24>
    430023d0:	39400401 	ldrb	w1, [x0, #1]
    430023d4:	35000101 	cbnz	w1, 430023f4 <psci_find_target_suspend_lvl+0x2c>
    430023d8:	39400001 	ldrb	w1, [x0]
    430023dc:	52800060 	mov	w0, #0x3                   	// #3
    430023e0:	34000041 	cbz	w1, 430023e8 <psci_find_target_suspend_lvl+0x20>
    430023e4:	52800000 	mov	w0, #0x0                   	// #0
    430023e8:	d65f03c0 	ret
    430023ec:	52800040 	mov	w0, #0x2                   	// #2
    430023f0:	17fffffe 	b	430023e8 <psci_find_target_suspend_lvl+0x20>
    430023f4:	52800020 	mov	w0, #0x1                   	// #1
    430023f8:	17fffffc 	b	430023e8 <psci_find_target_suspend_lvl+0x20>

00000000430023fc <psci_acquire_pwr_domain_locks>:
    430023fc:	a9bc7bfd 	stp	x29, x30, [sp, #-64]!
    43002400:	910003fd 	mov	x29, sp
    43002404:	a90153f3 	stp	x19, x20, [sp, #16]
    43002408:	2a0003f4 	mov	w20, w0
    4300240c:	52800033 	mov	w19, #0x1                   	// #1
    43002410:	a9025bf5 	stp	x21, x22, [sp, #32]
    43002414:	f0000076 	adrp	x22, 43011000 <psci_locks>
    43002418:	aa0103f5 	mov	x21, x1
    4300241c:	910002d6 	add	x22, x22, #0x0
    43002420:	f9001bf7 	str	x23, [sp, #48]
    43002424:	f0000077 	adrp	x23, 43011000 <psci_locks>
    43002428:	910032f7 	add	x23, x23, #0xc
    4300242c:	6b14027f 	cmp	w19, w20
    43002430:	540000c9 	b.ls	43002448 <psci_acquire_pwr_domain_locks+0x4c>  // b.plast
    43002434:	a94153f3 	ldp	x19, x20, [sp, #16]
    43002438:	a9425bf5 	ldp	x21, x22, [sp, #32]
    4300243c:	f9401bf7 	ldr	x23, [sp, #48]
    43002440:	a8c47bfd 	ldp	x29, x30, [sp], #64
    43002444:	d65f03c0 	ret
    43002448:	51000660 	sub	w0, w19, #0x1
    4300244c:	11000673 	add	w19, w19, #0x1
    43002450:	b8607aa0 	ldr	w0, [x21, x0, lsl #2]
    43002454:	8b0012e0 	add	x0, x23, x0, lsl #4
    43002458:	79401c00 	ldrh	w0, [x0, #14]
    4300245c:	8b000ac0 	add	x0, x22, x0, lsl #2
    43002460:	97fffe8c 	bl	43001e90 <bakery_lock_get>
    43002464:	17fffff2 	b	4300242c <psci_acquire_pwr_domain_locks+0x30>

0000000043002468 <psci_release_pwr_domain_locks>:
    43002468:	a9bd7bfd 	stp	x29, x30, [sp, #-48]!
    4300246c:	910003fd 	mov	x29, sp
    43002470:	a90153f3 	stp	x19, x20, [sp, #16]
    43002474:	2a0003f3 	mov	w19, w0
    43002478:	aa0103f4 	mov	x20, x1
    4300247c:	a9025bf5 	stp	x21, x22, [sp, #32]
    43002480:	f0000075 	adrp	x21, 43011000 <psci_locks>
    43002484:	f0000076 	adrp	x22, 43011000 <psci_locks>
    43002488:	910002b5 	add	x21, x21, #0x0
    4300248c:	910032d6 	add	x22, x22, #0xc
    43002490:	350000b3 	cbnz	w19, 430024a4 <psci_release_pwr_domain_locks+0x3c>
    43002494:	a94153f3 	ldp	x19, x20, [sp, #16]
    43002498:	a9425bf5 	ldp	x21, x22, [sp, #32]
    4300249c:	a8c37bfd 	ldp	x29, x30, [sp], #48
    430024a0:	d65f03c0 	ret
    430024a4:	51000673 	sub	w19, w19, #0x1
    430024a8:	b8735a80 	ldr	w0, [x20, w19, uxtw #2]
    430024ac:	8b0012c0 	add	x0, x22, x0, lsl #4
    430024b0:	79401c00 	ldrh	w0, [x0, #14]
    430024b4:	8b000aa0 	add	x0, x21, x0, lsl #2
    430024b8:	97fffea1 	bl	43001f3c <bakery_lock_release>
    430024bc:	17fffff5 	b	43002490 <psci_release_pwr_domain_locks+0x28>

00000000430024c0 <psci_validate_mpidr>:
    430024c0:	a9bf7bfd 	stp	x29, x30, [sp, #-16]!
    430024c4:	910003fd 	mov	x29, sp
    430024c8:	94000d02 	bl	430058d0 <plat_core_pos_by_mpidr>
    430024cc:	7100041f 	cmp	w0, #0x1
    430024d0:	a8c17bfd 	ldp	x29, x30, [sp], #16
    430024d4:	12800020 	mov	w0, #0xfffffffe            	// #-2
    430024d8:	1a9f8000 	csel	w0, w0, wzr, hi  // hi = pmore
    430024dc:	d65f03c0 	ret

00000000430024e0 <psci_validate_entry_point>:
    430024e0:	a9bb7bfd 	stp	x29, x30, [sp, #-80]!
    430024e4:	910003fd 	mov	x29, sp
    430024e8:	a90153f3 	stp	x19, x20, [sp, #16]
    430024ec:	aa0003f4 	mov	x20, x0
    430024f0:	d0000040 	adrp	x0, 4300c000 <__STACKS_START__+0xf00>
    430024f4:	aa0103f3 	mov	x19, x1
    430024f8:	a9025bf5 	stp	x21, x22, [sp, #32]
    430024fc:	f9436c00 	ldr	x0, [x0, #1752]
    43002500:	a90363f7 	stp	x23, x24, [sp, #48]
    43002504:	aa0203f8 	mov	x24, x2
    43002508:	f9403401 	ldr	x1, [x0, #104]
    4300250c:	f90023f9 	str	x25, [sp, #64]
    43002510:	b5000361 	cbnz	x1, 4300257c <psci_validate_entry_point+0x9c>
    43002514:	d53e1117 	mrs	x23, scr_el3
    43002518:	d5381000 	mrs	x0, sctlr_el1
    4300251c:	927802f9 	and	x25, x23, #0x100
    43002520:	37400437 	tbnz	w23, #8, 430025a4 <psci_validate_entry_point+0xc4>
    43002524:	f2670000 	ands	x0, x0, #0x2000000
    43002528:	52802021 	mov	w1, #0x101                 	// #257
    4300252c:	72a00b01 	movk	w1, #0x58, lsl #16
    43002530:	d2800075 	mov	x21, #0x3                   	// #3
    43002534:	9a9f16a0 	csinc	x0, x21, xzr, ne  // ne = any
    43002538:	29000281 	stp	w1, w0, [x20]
    4300253c:	f9000693 	str	x19, [x20, #8]
    43002540:	1a9f07f6 	cset	w22, ne  // ne = any
    43002544:	91006280 	add	x0, x20, #0x18
    43002548:	d2800801 	mov	x1, #0x40                  	// #64
    4300254c:	9400112f 	bl	43006a08 <zeromem>
    43002550:	f9000e98 	str	x24, [x20, #24]
    43002554:	365002d7 	tbz	w23, #10, 430025ac <psci_validate_entry_point+0xcc>
    43002558:	37000193 	tbnz	w19, #0, 43002588 <psci_validate_entry_point+0xa8>
    4300255c:	f100033f 	cmp	x25, #0x0
    43002560:	52807821 	mov	w1, #0x3c1                 	// #961
    43002564:	1a9f07e0 	cset	w0, ne  // ne = any
    43002568:	11000400 	add	w0, w0, #0x1
    4300256c:	2a000820 	orr	w0, w1, w0, lsl #2
    43002570:	b9001280 	str	w0, [x20, #16]
    43002574:	52800000 	mov	w0, #0x0                   	// #0
    43002578:	14000005 	b	4300258c <psci_validate_entry_point+0xac>
    4300257c:	aa1303e0 	mov	x0, x19
    43002580:	d63f0020 	blr	x1
    43002584:	34fffc80 	cbz	w0, 43002514 <psci_validate_entry_point+0x34>
    43002588:	12800100 	mov	w0, #0xfffffff7            	// #-9
    4300258c:	a94153f3 	ldp	x19, x20, [sp, #16]
    43002590:	a9425bf5 	ldp	x21, x22, [sp, #32]
    43002594:	a94363f7 	ldp	x23, x24, [sp, #48]
    43002598:	f94023f9 	ldr	x25, [sp, #64]
    4300259c:	a8c57bfd 	ldp	x29, x30, [sp], #80
    430025a0:	d65f03c0 	ret
    430025a4:	d53c1000 	mrs	x0, sctlr_el2
    430025a8:	17ffffdf 	b	43002524 <psci_validate_entry_point+0x44>
    430025ac:	52800140 	mov	w0, #0xa                   	// #10
    430025b0:	f100033f 	cmp	x25, #0x0
    430025b4:	1a8002b5 	csel	w21, w21, w0, eq  // eq = none
    430025b8:	531b0273 	ubfiz	w19, w19, #5, #1
    430025bc:	52803a00 	mov	w0, #0x1d0                 	// #464
    430025c0:	2a150273 	orr	w19, w19, w21
    430025c4:	2a162416 	orr	w22, w0, w22, lsl #9
    430025c8:	2a160273 	orr	w19, w19, w22
    430025cc:	b9001293 	str	w19, [x20, #16]
    430025d0:	17ffffe9 	b	43002574 <psci_validate_entry_point+0x94>

00000000430025d4 <psci_warmboot_entrypoint>:
    430025d4:	a9bd7bfd 	stp	x29, x30, [sp, #-48]!
    430025d8:	910003fd 	mov	x29, sp
    430025dc:	a90153f3 	stp	x19, x20, [sp, #16]
    430025e0:	94001060 	bl	43006760 <plat_my_core_pos>
    430025e4:	2a0003f4 	mov	w20, w0
    430025e8:	790043ff 	strh	wzr, [sp, #32]
    430025ec:	39008bff 	strb	wzr, [sp, #34]
    430025f0:	f90017ff 	str	xzr, [sp, #40]
    430025f4:	97fffd9c 	bl	43001c64 <cm_manage_extensions_el3>
    430025f8:	d53ed040 	mrs	x0, tpidr_el3
    430025fc:	b9401800 	ldr	w0, [x0, #24]
    43002600:	7100041f 	cmp	w0, #0x1
    43002604:	540000c1 	b.ne	4300261c <psci_warmboot_entrypoint+0x48>  // b.any
    43002608:	f0000020 	adrp	x0, 43009000 <suspend_binary_ca7+0x2e0>
    4300260c:	912e8000 	add	x0, x0, #0xba0
    43002610:	94000d51 	bl	43005b54 <tf_log>
    43002614:	94000dc9 	bl	43005d38 <console_flush>
    43002618:	9400107a 	bl	43006800 <el3_panic>
    4300261c:	d53ed040 	mrs	x0, tpidr_el3
    43002620:	b9401c13 	ldr	w19, [x0, #28]
    43002624:	9100a3e2 	add	x2, sp, #0x28
    43002628:	52800040 	mov	w0, #0x2                   	// #2
    4300262c:	71000e7f 	cmp	w19, #0x3
    43002630:	1a801273 	csel	w19, w19, w0, ne  // ne = any
    43002634:	2a1403e0 	mov	w0, w20
    43002638:	2a1303e1 	mov	w1, w19
    4300263c:	97fffed9 	bl	430021a0 <psci_get_parent_pwr_domain_nodes>
    43002640:	9100a3e1 	add	x1, sp, #0x28
    43002644:	2a1303e0 	mov	w0, w19
    43002648:	97ffff6d 	bl	430023fc <psci_acquire_pwr_domain_locks>
    4300264c:	910083e1 	add	x1, sp, #0x20
    43002650:	2a1303e0 	mov	w0, w19
    43002654:	97fffe8e 	bl	4300208c <psci_get_target_local_pwr_states>
    43002658:	d53ed040 	mrs	x0, tpidr_el3
    4300265c:	b9401800 	ldr	w0, [x0, #24]
    43002660:	910083e1 	add	x1, sp, #0x20
    43002664:	7100081f 	cmp	w0, #0x2
    43002668:	2a1403e0 	mov	w0, w20
    4300266c:	54000141 	b.ne	43002694 <psci_warmboot_entrypoint+0xc0>  // b.any
    43002670:	9400021f 	bl	43002eec <psci_cpu_on_finish>
    43002674:	2a1303e0 	mov	w0, w19
    43002678:	97fffedc 	bl	430021e8 <psci_set_pwr_domains_to_run>
    4300267c:	9100a3e1 	add	x1, sp, #0x28
    43002680:	2a1303e0 	mov	w0, w19
    43002684:	97ffff79 	bl	43002468 <psci_release_pwr_domain_locks>
    43002688:	a94153f3 	ldp	x19, x20, [sp, #16]
    4300268c:	a8c37bfd 	ldp	x29, x30, [sp], #48
    43002690:	d65f03c0 	ret
    43002694:	94000390 	bl	430034d4 <psci_cpu_suspend_finish>
    43002698:	17fffff7 	b	43002674 <psci_warmboot_entrypoint+0xa0>

000000004300269c <psci_spd_migrate_info>:
    4300269c:	d0000041 	adrp	x1, 4300c000 <__STACKS_START__+0xf00>
    430026a0:	f9437021 	ldr	x1, [x1, #1760]
    430026a4:	b40000a1 	cbz	x1, 430026b8 <psci_spd_migrate_info+0x1c>
    430026a8:	f9401821 	ldr	x1, [x1, #48]
    430026ac:	b4000061 	cbz	x1, 430026b8 <psci_spd_migrate_info+0x1c>
    430026b0:	aa0103f0 	mov	x16, x1
    430026b4:	d61f0200 	br	x16
    430026b8:	12800000 	mov	w0, #0xffffffff            	// #-1
    430026bc:	d65f03c0 	ret

00000000430026c0 <psci_print_power_domain_map>:
    430026c0:	d65f03c0 	ret

00000000430026c4 <psci_pwrdown_cpu>:
    430026c4:	14000f99 	b	43006528 <psci_do_pwrdown_cache_maintenance>

00000000430026c8 <psci_cpu_on>:
    430026c8:	a9b77bfd 	stp	x29, x30, [sp, #-144]!
    430026cc:	910003fd 	mov	x29, sp
    430026d0:	a90153f3 	stp	x19, x20, [sp, #16]
    430026d4:	aa0003f3 	mov	x19, x0
    430026d8:	aa0103f4 	mov	x20, x1
    430026dc:	f90013f5 	str	x21, [sp, #32]
    430026e0:	aa0203f5 	mov	x21, x2
    430026e4:	97ffff77 	bl	430024c0 <psci_validate_mpidr>
    430026e8:	350001a0 	cbnz	w0, 4300271c <psci_cpu_on+0x54>
    430026ec:	aa1503e2 	mov	x2, x21
    430026f0:	aa1403e1 	mov	x1, x20
    430026f4:	9100e3e0 	add	x0, sp, #0x38
    430026f8:	97ffff7a 	bl	430024e0 <psci_validate_entry_point>
    430026fc:	35000080 	cbnz	w0, 4300270c <psci_cpu_on+0x44>
    43002700:	9100e3e1 	add	x1, sp, #0x38
    43002704:	aa1303e0 	mov	x0, x19
    43002708:	940001a1 	bl	43002d8c <psci_cpu_on_start>
    4300270c:	a94153f3 	ldp	x19, x20, [sp, #16]
    43002710:	f94013f5 	ldr	x21, [sp, #32]
    43002714:	a8c97bfd 	ldp	x29, x30, [sp], #144
    43002718:	d65f03c0 	ret
    4300271c:	12800020 	mov	w0, #0xfffffffe            	// #-2
    43002720:	17fffffb 	b	4300270c <psci_cpu_on+0x44>

0000000043002724 <psci_cpu_suspend>:
    43002724:	a9b67bfd 	stp	x29, x30, [sp, #-160]!
    43002728:	910003fd 	mov	x29, sp
    4300272c:	a90153f3 	stp	x19, x20, [sp, #16]
    43002730:	2a0003f4 	mov	w20, w0
    43002734:	a9025bf5 	stp	x21, x22, [sp, #32]
    43002738:	aa0103f6 	mov	x22, x1
    4300273c:	910103e1 	add	x1, sp, #0x40
    43002740:	f9001bf7 	str	x23, [sp, #48]
    43002744:	aa0203f7 	mov	x23, x2
    43002748:	790083ff 	strh	wzr, [sp, #64]
    4300274c:	39010bff 	strb	wzr, [sp, #66]
    43002750:	97fffe15 	bl	43001fa4 <psci_validate_power_state>
    43002754:	2a0003f3 	mov	w19, w0
    43002758:	35000300 	cbnz	w0, 430027b8 <psci_cpu_suspend+0x94>
    4300275c:	910103e0 	add	x0, sp, #0x40
    43002760:	d3504294 	ubfx	x20, x20, #16, #1
    43002764:	97ffff19 	bl	430023c8 <psci_find_target_suspend_lvl>
    43002768:	2a0003f5 	mov	w21, w0
    4300276c:	71000c1f 	cmp	w0, #0x3
    43002770:	540000c1 	b.ne	43002788 <psci_cpu_suspend+0x64>  // b.any
    43002774:	f0000020 	adrp	x0, 43009000 <suspend_binary_ca7+0x2e0>
    43002778:	912f0800 	add	x0, x0, #0xbc2
    4300277c:	94000cf6 	bl	43005b54 <tf_log>
    43002780:	94000d6e 	bl	43005d38 <console_flush>
    43002784:	9400101f 	bl	43006800 <el3_panic>
    43002788:	2a000280 	orr	w0, w20, w0
    4300278c:	35000220 	cbnz	w0, 430027d0 <psci_cpu_suspend+0xac>
    43002790:	d0000040 	adrp	x0, 4300c000 <__STACKS_START__+0xf00>
    43002794:	f9436c00 	ldr	x0, [x0, #1752]
    43002798:	f9400001 	ldr	x1, [x0]
    4300279c:	b4000381 	cbz	x1, 4300280c <psci_cpu_suspend+0xe8>
    430027a0:	394103e0 	ldrb	w0, [sp, #64]
    430027a4:	d53ed042 	mrs	x2, tpidr_el3
    430027a8:	39008040 	strb	w0, [x2, #32]
    430027ac:	d63f0020 	blr	x1
    430027b0:	d53ed040 	mrs	x0, tpidr_el3
    430027b4:	3900801f 	strb	wzr, [x0, #32]
    430027b8:	2a1303e0 	mov	w0, w19
    430027bc:	a94153f3 	ldp	x19, x20, [sp, #16]
    430027c0:	a9425bf5 	ldp	x21, x22, [sp, #32]
    430027c4:	f9401bf7 	ldr	x23, [sp, #48]
    430027c8:	a8ca7bfd 	ldp	x29, x30, [sp], #160
    430027cc:	d65f03c0 	ret
    430027d0:	35000114 	cbnz	w20, 430027f0 <psci_cpu_suspend+0xcc>
    430027d4:	2a1403e3 	mov	w3, w20
    430027d8:	910103e2 	add	x2, sp, #0x40
    430027dc:	2a1503e1 	mov	w1, w21
    430027e0:	910123e0 	add	x0, sp, #0x48
    430027e4:	940002cc 	bl	43003314 <psci_cpu_suspend_start>
    430027e8:	2a0003f3 	mov	w19, w0
    430027ec:	17fffff3 	b	430027b8 <psci_cpu_suspend+0x94>
    430027f0:	aa1703e2 	mov	x2, x23
    430027f4:	aa1603e1 	mov	x1, x22
    430027f8:	910123e0 	add	x0, sp, #0x48
    430027fc:	97ffff39 	bl	430024e0 <psci_validate_entry_point>
    43002800:	2a0003f3 	mov	w19, w0
    43002804:	34fffe80 	cbz	w0, 430027d4 <psci_cpu_suspend+0xb0>
    43002808:	17ffffec 	b	430027b8 <psci_cpu_suspend+0x94>
    4300280c:	12800033 	mov	w19, #0xfffffffe            	// #-2
    43002810:	17ffffea 	b	430027b8 <psci_cpu_suspend+0x94>

0000000043002814 <psci_system_suspend>:
    43002814:	a9b87bfd 	stp	x29, x30, [sp, #-128]!
    43002818:	910003fd 	mov	x29, sp
    4300281c:	a90153f3 	stp	x19, x20, [sp, #16]
    43002820:	aa0003f3 	mov	x19, x0
    43002824:	aa0103f4 	mov	x20, x1
    43002828:	97fffdee 	bl	43001fe0 <psci_is_last_on_cpu>
    4300282c:	72001c1f 	tst	w0, #0xff
    43002830:	540000a1 	b.ne	43002844 <psci_system_suspend+0x30>  // b.any
    43002834:	12800040 	mov	w0, #0xfffffffd            	// #-3
    43002838:	a94153f3 	ldp	x19, x20, [sp, #16]
    4300283c:	a8c87bfd 	ldp	x29, x30, [sp], #128
    43002840:	d65f03c0 	ret
    43002844:	aa1403e2 	mov	x2, x20
    43002848:	aa1303e1 	mov	x1, x19
    4300284c:	9100a3e0 	add	x0, sp, #0x28
    43002850:	97ffff24 	bl	430024e0 <psci_validate_entry_point>
    43002854:	35ffff20 	cbnz	w0, 43002838 <psci_system_suspend+0x24>
    43002858:	910083e0 	add	x0, sp, #0x20
    4300285c:	97fffddc 	bl	43001fcc <psci_query_sys_suspend_pwrstate>
    43002860:	910083e0 	add	x0, sp, #0x20
    43002864:	97fffed9 	bl	430023c8 <psci_find_target_suspend_lvl>
    43002868:	7100041f 	cmp	w0, #0x1
    4300286c:	54fffe49 	b.ls	43002834 <psci_system_suspend+0x20>  // b.plast
    43002870:	910083e2 	add	x2, sp, #0x20
    43002874:	9100a3e0 	add	x0, sp, #0x28
    43002878:	52800023 	mov	w3, #0x1                   	// #1
    4300287c:	52800041 	mov	w1, #0x2                   	// #2
    43002880:	940002a5 	bl	43003314 <psci_cpu_suspend_start>
    43002884:	17ffffed 	b	43002838 <psci_system_suspend+0x24>

0000000043002888 <psci_cpu_off>:
    43002888:	52800040 	mov	w0, #0x2                   	// #2
    4300288c:	140000f2 	b	43002c54 <psci_do_cpu_off>

0000000043002890 <psci_affinity_info>:
    43002890:	340000e1 	cbz	w1, 430028ac <psci_affinity_info+0x1c>
    43002894:	12800020 	mov	w0, #0xfffffffe            	// #-2
    43002898:	d65f03c0 	ret
    4300289c:	12800020 	mov	w0, #0xfffffffe            	// #-2
    430028a0:	f9400bf3 	ldr	x19, [sp, #16]
    430028a4:	a8c27bfd 	ldp	x29, x30, [sp], #32
    430028a8:	d65f03c0 	ret
    430028ac:	a9be7bfd 	stp	x29, x30, [sp, #-32]!
    430028b0:	910003fd 	mov	x29, sp
    430028b4:	f9000bf3 	str	x19, [sp, #16]
    430028b8:	94000c06 	bl	430058d0 <plat_core_pos_by_mpidr>
    430028bc:	2a0003f3 	mov	w19, w0
    430028c0:	3100041f 	cmn	w0, #0x1
    430028c4:	54fffec0 	b.eq	4300289c <psci_affinity_info+0xc>  // b.none
    430028c8:	94000f08 	bl	430064e8 <_cpu_data_by_index>
    430028cc:	91006000 	add	x0, x0, #0x18
    430028d0:	d2800081 	mov	x1, #0x4                   	// #4
    430028d4:	94000fd7 	bl	43006830 <flush_dcache_range>
    430028d8:	2a1303e0 	mov	w0, w19
    430028dc:	94000f03 	bl	430064e8 <_cpu_data_by_index>
    430028e0:	b9401800 	ldr	w0, [x0, #24]
    430028e4:	17ffffef 	b	430028a0 <psci_affinity_info+0x10>

00000000430028e8 <psci_migrate>:
    430028e8:	a9bd7bfd 	stp	x29, x30, [sp, #-48]!
    430028ec:	910003fd 	mov	x29, sp
    430028f0:	f9000bf3 	str	x19, [sp, #16]
    430028f4:	aa0003f3 	mov	x19, x0
    430028f8:	9100a3e0 	add	x0, sp, #0x28
    430028fc:	97ffff68 	bl	4300269c <psci_spd_migrate_info>
    43002900:	340000e0 	cbz	w0, 4300291c <psci_migrate+0x34>
    43002904:	7100041f 	cmp	w0, #0x1
    43002908:	12800040 	mov	w0, #0xfffffffd            	// #-3
    4300290c:	5a9f0000 	csinv	w0, w0, wzr, eq  // eq = none
    43002910:	f9400bf3 	ldr	x19, [sp, #16]
    43002914:	a8c37bfd 	ldp	x29, x30, [sp], #48
    43002918:	d65f03c0 	ret
    4300291c:	d53800a0 	mrs	x0, mpidr_el1
    43002920:	f94017e1 	ldr	x1, [sp, #40]
    43002924:	eb00003f 	cmp	x1, x0
    43002928:	54000161 	b.ne	43002954 <psci_migrate+0x6c>  // b.any
    4300292c:	aa1303e0 	mov	x0, x19
    43002930:	97fffee4 	bl	430024c0 <psci_validate_mpidr>
    43002934:	35000140 	cbnz	w0, 4300295c <psci_migrate+0x74>
    43002938:	d53800a0 	mrs	x0, mpidr_el1
    4300293c:	d0000041 	adrp	x1, 4300c000 <__STACKS_START__+0xf00>
    43002940:	f9437021 	ldr	x1, [x1, #1760]
    43002944:	f9401422 	ldr	x2, [x1, #40]
    43002948:	aa1303e1 	mov	x1, x19
    4300294c:	d63f0040 	blr	x2
    43002950:	17fffff0 	b	43002910 <psci_migrate+0x28>
    43002954:	128000c0 	mov	w0, #0xfffffff9            	// #-7
    43002958:	17ffffee 	b	43002910 <psci_migrate+0x28>
    4300295c:	12800020 	mov	w0, #0xfffffffe            	// #-2
    43002960:	17ffffec 	b	43002910 <psci_migrate+0x28>

0000000043002964 <psci_migrate_info_type>:
    43002964:	a9be7bfd 	stp	x29, x30, [sp, #-32]!
    43002968:	910003fd 	mov	x29, sp
    4300296c:	910063e0 	add	x0, sp, #0x18
    43002970:	97ffff4b 	bl	4300269c <psci_spd_migrate_info>
    43002974:	a8c27bfd 	ldp	x29, x30, [sp], #32
    43002978:	d65f03c0 	ret

000000004300297c <psci_migrate_info_up_cpu>:
    4300297c:	a9be7bfd 	stp	x29, x30, [sp, #-32]!
    43002980:	910003fd 	mov	x29, sp
    43002984:	910063e0 	add	x0, sp, #0x18
    43002988:	97ffff45 	bl	4300269c <psci_spd_migrate_info>
    4300298c:	f9400fe1 	ldr	x1, [sp, #24]
    43002990:	7100041f 	cmp	w0, #0x1
    43002994:	a8c27bfd 	ldp	x29, x30, [sp], #32
    43002998:	92800020 	mov	x0, #0xfffffffffffffffe    	// #-2
    4300299c:	9a809020 	csel	x0, x1, x0, ls  // ls = plast
    430029a0:	d65f03c0 	ret

00000000430029a4 <psci_node_hw_state>:
    430029a4:	a9be7bfd 	stp	x29, x30, [sp, #-32]!
    430029a8:	910003fd 	mov	x29, sp
    430029ac:	a90153f3 	stp	x19, x20, [sp, #16]
    430029b0:	aa0003f4 	mov	x20, x0
    430029b4:	2a0103f3 	mov	w19, w1
    430029b8:	97fffec2 	bl	430024c0 <psci_validate_mpidr>
    430029bc:	35000180 	cbnz	w0, 430029ec <psci_node_hw_state+0x48>
    430029c0:	71000a7f 	cmp	w19, #0x2
    430029c4:	54000148 	b.hi	430029ec <psci_node_hw_state+0x48>  // b.pmore
    430029c8:	d0000040 	adrp	x0, 4300c000 <__STACKS_START__+0xf00>
    430029cc:	2a1303e1 	mov	w1, w19
    430029d0:	f9436c00 	ldr	x0, [x0, #1752]
    430029d4:	f9404402 	ldr	x2, [x0, #136]
    430029d8:	aa1403e0 	mov	x0, x20
    430029dc:	a94153f3 	ldp	x19, x20, [sp, #16]
    430029e0:	aa0203f0 	mov	x16, x2
    430029e4:	a8c27bfd 	ldp	x29, x30, [sp], #32
    430029e8:	d61f0200 	br	x16
    430029ec:	12800020 	mov	w0, #0xfffffffe            	// #-2
    430029f0:	a94153f3 	ldp	x19, x20, [sp, #16]
    430029f4:	a8c27bfd 	ldp	x29, x30, [sp], #32
    430029f8:	d65f03c0 	ret

00000000430029fc <psci_features>:
    430029fc:	d0000041 	adrp	x1, 4300c000 <__STACKS_START__+0xf00>
    43002a00:	52b00002 	mov	w2, #0x80000000            	// #-2147483648
    43002a04:	b94afc21 	ldr	w1, [x1, #2812]
    43002a08:	6b02001f 	cmp	w0, w2
    43002a0c:	54000240 	b.eq	43002a54 <psci_features+0x58>  // b.none
    43002a10:	36f00080 	tbz	w0, #30, 43002a20 <psci_features+0x24>
    43002a14:	528c1742 	mov	w2, #0x60ba                	// #24762
    43002a18:	72a002e2 	movk	w2, #0x17, lsl #16
    43002a1c:	0a020021 	and	w1, w1, w2
    43002a20:	d3587402 	ubfx	x2, x0, #24, #6
    43002a24:	7100105f 	cmp	w2, #0x4
    43002a28:	540001a1 	b.ne	43002a5c <psci_features+0x60>  // b.any
    43002a2c:	d3505c04 	ubfx	x4, x0, #16, #8
    43002a30:	531f7c02 	lsr	w2, w0, #31
    43002a34:	36f80140 	tbz	w0, #31, 43002a5c <psci_features+0x60>
    43002a38:	121b2803 	and	w3, w0, #0xffe0
    43002a3c:	2a040063 	orr	w3, w3, w4
    43002a40:	350000e3 	cbnz	w3, 43002a5c <psci_features+0x60>
    43002a44:	1ac02040 	lsl	w0, w2, w0
    43002a48:	6a01001f 	tst	w0, w1
    43002a4c:	5a9f13e0 	csetm	w0, eq  // eq = none
    43002a50:	d65f03c0 	ret
    43002a54:	52800000 	mov	w0, #0x0                   	// #0
    43002a58:	17fffffe 	b	43002a50 <psci_features+0x54>
    43002a5c:	12800000 	mov	w0, #0xffffffff            	// #-1
    43002a60:	17fffffc 	b	43002a50 <psci_features+0x54>

0000000043002a64 <psci_smc_handler>:
    43002a64:	360009e7 	tbz	w7, #0, 43002ba0 <psci_smc_handler+0x13c>
    43002a68:	d0000045 	adrp	x5, 4300c000 <__STACKS_START__+0xf00>
    43002a6c:	2a0003e4 	mov	w4, w0
    43002a70:	aa0103e0 	mov	x0, x1
    43002a74:	aa0203e1 	mov	x1, x2
    43002a78:	b94afca5 	ldr	w5, [x5, #2812]
    43002a7c:	aa0303e2 	mov	x2, x3
    43002a80:	52800023 	mov	w3, #0x1                   	// #1
    43002a84:	1ac42063 	lsl	w3, w3, w4
    43002a88:	6a05007f 	tst	w3, w5
    43002a8c:	540008a0 	b.eq	43002ba0 <psci_smc_handler+0x13c>  // b.none
    43002a90:	a9bf7bfd 	stp	x29, x30, [sp, #-16]!
    43002a94:	910003fd 	mov	x29, sp
    43002a98:	37f00704 	tbnz	w4, #30, 43002b78 <psci_smc_handler+0x114>
    43002a9c:	52af8003 	mov	w3, #0x7c000000            	// #2080374784
    43002aa0:	0b030084 	add	w4, w4, w3
    43002aa4:	7100509f 	cmp	w4, #0x14
    43002aa8:	54000808 	b.hi	43002ba8 <psci_smc_handler+0x144>  // b.pmore
    43002aac:	b0000023 	adrp	x3, 43007000 <efuse_write+0x350>
    43002ab0:	91350063 	add	x3, x3, #0xd40
    43002ab4:	38644863 	ldrb	w3, [x3, w4, uxtw]
    43002ab8:	10000064 	adr	x4, 43002ac4 <psci_smc_handler+0x60>
    43002abc:	8b238883 	add	x3, x4, w3, sxtb #2
    43002ac0:	d61f0060 	br	x3
    43002ac4:	320083e0 	mov	w0, #0x10001               	// #65537
    43002ac8:	a8c17bfd 	ldp	x29, x30, [sp], #16
    43002acc:	d65f03c0 	ret
    43002ad0:	97ffff6e 	bl	43002888 <psci_cpu_off>
    43002ad4:	93407c00 	sxtw	x0, w0
    43002ad8:	17fffffc 	b	43002ac8 <psci_smc_handler+0x64>
    43002adc:	2a0203e2 	mov	w2, w2
    43002ae0:	2a0103e1 	mov	w1, w1
    43002ae4:	97ffff10 	bl	43002724 <psci_cpu_suspend>
    43002ae8:	17fffffb 	b	43002ad4 <psci_smc_handler+0x70>
    43002aec:	2a0203e2 	mov	w2, w2
    43002af0:	2a0103e1 	mov	w1, w1
    43002af4:	2a0003e0 	mov	w0, w0
    43002af8:	97fffef4 	bl	430026c8 <psci_cpu_on>
    43002afc:	17fffff6 	b	43002ad4 <psci_smc_handler+0x70>
    43002b00:	2a0003e0 	mov	w0, w0
    43002b04:	97ffff63 	bl	43002890 <psci_affinity_info>
    43002b08:	17fffff3 	b	43002ad4 <psci_smc_handler+0x70>
    43002b0c:	2a0003e0 	mov	w0, w0
    43002b10:	97ffff76 	bl	430028e8 <psci_migrate>
    43002b14:	17fffff0 	b	43002ad4 <psci_smc_handler+0x70>
    43002b18:	97ffff93 	bl	43002964 <psci_migrate_info_type>
    43002b1c:	17ffffee 	b	43002ad4 <psci_smc_handler+0x70>
    43002b20:	a8c17bfd 	ldp	x29, x30, [sp], #16
    43002b24:	17ffff96 	b	4300297c <psci_migrate_info_up_cpu>
    43002b28:	2a0003e0 	mov	w0, w0
    43002b2c:	97ffff9e 	bl	430029a4 <psci_node_hw_state>
    43002b30:	17ffffe9 	b	43002ad4 <psci_smc_handler+0x70>
    43002b34:	2a0103e1 	mov	w1, w1
    43002b38:	2a0003e0 	mov	w0, w0
    43002b3c:	97ffff36 	bl	43002814 <psci_system_suspend>
    43002b40:	17ffffe5 	b	43002ad4 <psci_smc_handler+0x70>
    43002b44:	9400028c 	bl	43003574 <psci_system_off>
    43002b48:	94000299 	bl	430035ac <psci_system_reset>
    43002b4c:	97ffffac 	bl	430029fc <psci_features>
    43002b50:	17ffffe1 	b	43002ad4 <psci_smc_handler+0x70>
    43002b54:	a8c17bfd 	ldp	x29, x30, [sp], #16
    43002b58:	14000016 	b	43002bb0 <psci_mem_protect>
    43002b5c:	2a0103e1 	mov	w1, w1
    43002b60:	2a0003e0 	mov	w0, w0
    43002b64:	a8c17bfd 	ldp	x29, x30, [sp], #16
    43002b68:	14000029 	b	43002c0c <psci_mem_chk_range>
    43002b6c:	2a0103e1 	mov	w1, w1
    43002b70:	a8c17bfd 	ldp	x29, x30, [sp], #16
    43002b74:	1400029c 	b	430035e4 <psci_system_reset2>
    43002b78:	12b88003 	mov	w3, #0x3bffffff            	// #1006632959
    43002b7c:	0b030084 	add	w4, w4, w3
    43002b80:	71004c9f 	cmp	w4, #0x13
    43002b84:	54000128 	b.hi	43002ba8 <psci_smc_handler+0x144>  // b.pmore
    43002b88:	b0000023 	adrp	x3, 43007000 <efuse_write+0x350>
    43002b8c:	91356063 	add	x3, x3, #0xd58
    43002b90:	38644863 	ldrb	w3, [x3, w4, uxtw]
    43002b94:	10000064 	adr	x4, 43002ba0 <psci_smc_handler+0x13c>
    43002b98:	8b238883 	add	x3, x4, w3, sxtb #2
    43002b9c:	d61f0060 	br	x3
    43002ba0:	92800000 	mov	x0, #0xffffffffffffffff    	// #-1
    43002ba4:	d65f03c0 	ret
    43002ba8:	92800000 	mov	x0, #0xffffffffffffffff    	// #-1
    43002bac:	17ffffc7 	b	43002ac8 <psci_smc_handler+0x64>

0000000043002bb0 <psci_mem_protect>:
    43002bb0:	a9bd7bfd 	stp	x29, x30, [sp, #-48]!
    43002bb4:	910003fd 	mov	x29, sp
    43002bb8:	a90153f3 	stp	x19, x20, [sp, #16]
    43002bbc:	d0000054 	adrp	x20, 4300c000 <__STACKS_START__+0xf00>
    43002bc0:	2a0003f3 	mov	w19, w0
    43002bc4:	f9436e80 	ldr	x0, [x20, #1752]
    43002bc8:	f9404c01 	ldr	x1, [x0, #152]
    43002bcc:	9100b3e0 	add	x0, sp, #0x2c
    43002bd0:	d63f0020 	blr	x1
    43002bd4:	36f800a0 	tbz	w0, #31, 43002be8 <psci_mem_protect+0x38>
    43002bd8:	92800000 	mov	x0, #0xffffffffffffffff    	// #-1
    43002bdc:	a94153f3 	ldp	x19, x20, [sp, #16]
    43002be0:	a8c37bfd 	ldp	x29, x30, [sp], #48
    43002be4:	d65f03c0 	ret
    43002be8:	f9436e80 	ldr	x0, [x20, #1752]
    43002bec:	f9405001 	ldr	x1, [x0, #160]
    43002bf0:	2a1303e0 	mov	w0, w19
    43002bf4:	d63f0020 	blr	x1
    43002bf8:	37ffff00 	tbnz	w0, #31, 43002bd8 <psci_mem_protect+0x28>
    43002bfc:	b9402fe0 	ldr	w0, [sp, #44]
    43002c00:	7100001f 	cmp	w0, #0x0
    43002c04:	9a9f07e0 	cset	x0, ne  // ne = any
    43002c08:	17fffff5 	b	43002bdc <psci_mem_protect+0x2c>

0000000043002c0c <psci_mem_chk_range>:
    43002c0c:	b50000c1 	cbnz	x1, 43002c24 <psci_mem_chk_range+0x18>
    43002c10:	92800040 	mov	x0, #0xfffffffffffffffd    	// #-3
    43002c14:	d65f03c0 	ret
    43002c18:	92800040 	mov	x0, #0xfffffffffffffffd    	// #-3
    43002c1c:	a8c17bfd 	ldp	x29, x30, [sp], #16
    43002c20:	d65f03c0 	ret
    43002c24:	cb0103e2 	neg	x2, x1
    43002c28:	eb00005f 	cmp	x2, x0
    43002c2c:	54ffff23 	b.cc	43002c10 <psci_mem_chk_range+0x4>  // b.lo, b.ul, b.last
    43002c30:	a9bf7bfd 	stp	x29, x30, [sp, #-16]!
    43002c34:	d0000042 	adrp	x2, 4300c000 <__STACKS_START__+0xf00>
    43002c38:	910003fd 	mov	x29, sp
    43002c3c:	f9436c42 	ldr	x2, [x2, #1752]
    43002c40:	f9404842 	ldr	x2, [x2, #144]
    43002c44:	d63f0040 	blr	x2
    43002c48:	37fffe80 	tbnz	w0, #31, 43002c18 <psci_mem_chk_range+0xc>
    43002c4c:	d2800000 	mov	x0, #0x0                   	// #0
    43002c50:	17fffff3 	b	43002c1c <psci_mem_chk_range+0x10>

0000000043002c54 <psci_do_cpu_off>:
    43002c54:	a9bc7bfd 	stp	x29, x30, [sp, #-64]!
    43002c58:	910003fd 	mov	x29, sp
    43002c5c:	a90153f3 	stp	x19, x20, [sp, #16]
    43002c60:	2a0003f4 	mov	w20, w0
    43002c64:	a9025bf5 	stp	x21, x22, [sp, #32]
    43002c68:	94000ebe 	bl	43006760 <plat_my_core_pos>
    43002c6c:	d0000055 	adrp	x21, 4300c000 <__STACKS_START__+0xf00>
    43002c70:	2a0003f6 	mov	w22, w0
    43002c74:	52800040 	mov	w0, #0x2                   	// #2
    43002c78:	3900c3e0 	strb	w0, [sp, #48]
    43002c7c:	3900c7e0 	strb	w0, [sp, #49]
    43002c80:	3900cbe0 	strb	w0, [sp, #50]
    43002c84:	f9436ea0 	ldr	x0, [x21, #1752]
    43002c88:	f9001fff 	str	xzr, [sp, #56]
    43002c8c:	f9400c01 	ldr	x1, [x0, #24]
    43002c90:	b4000161 	cbz	x1, 43002cbc <psci_do_cpu_off+0x68>
    43002c94:	9100c3e0 	add	x0, sp, #0x30
    43002c98:	d63f0020 	blr	x1
    43002c9c:	2a0003f3 	mov	w19, w0
    43002ca0:	31000c1f 	cmn	w0, #0x3
    43002ca4:	540000e1 	b.ne	43002cc0 <psci_do_cpu_off+0x6c>  // b.any
    43002ca8:	2a1303e0 	mov	w0, w19
    43002cac:	a94153f3 	ldp	x19, x20, [sp, #16]
    43002cb0:	a9425bf5 	ldp	x21, x22, [sp, #32]
    43002cb4:	a8c47bfd 	ldp	x29, x30, [sp], #64
    43002cb8:	d65f03c0 	ret
    43002cbc:	52800013 	mov	w19, #0x0                   	// #0
    43002cc0:	9100e3e2 	add	x2, sp, #0x38
    43002cc4:	2a1403e1 	mov	w1, w20
    43002cc8:	2a1603e0 	mov	w0, w22
    43002ccc:	97fffd35 	bl	430021a0 <psci_get_parent_pwr_domain_nodes>
    43002cd0:	2a1403e0 	mov	w0, w20
    43002cd4:	9100e3e1 	add	x1, sp, #0x38
    43002cd8:	97fffdc9 	bl	430023fc <psci_acquire_pwr_domain_locks>
    43002cdc:	d0000040 	adrp	x0, 4300c000 <__STACKS_START__+0xf00>
    43002ce0:	f9437000 	ldr	x0, [x0, #1760]
    43002ce4:	b40000e0 	cbz	x0, 43002d00 <psci_do_cpu_off+0xac>
    43002ce8:	f9400401 	ldr	x1, [x0, #8]
    43002cec:	b40000a1 	cbz	x1, 43002d00 <psci_do_cpu_off+0xac>
    43002cf0:	d2800000 	mov	x0, #0x0                   	// #0
    43002cf4:	d63f0020 	blr	x1
    43002cf8:	2a0003f3 	mov	w19, w0
    43002cfc:	350001c0 	cbnz	w0, 43002d34 <psci_do_cpu_off+0xe0>
    43002d00:	9100c3e1 	add	x1, sp, #0x30
    43002d04:	2a1403e0 	mov	w0, w20
    43002d08:	97fffd5b 	bl	43002274 <psci_do_state_coordination>
    43002d0c:	9100c3e1 	add	x1, sp, #0x30
    43002d10:	2a1403e0 	mov	w0, w20
    43002d14:	97fffd02 	bl	4300211c <psci_set_target_local_pwr_states>
    43002d18:	9100c3e0 	add	x0, sp, #0x30
    43002d1c:	97fffd9c 	bl	4300238c <psci_find_max_off_lvl>
    43002d20:	97fffe69 	bl	430026c4 <psci_pwrdown_cpu>
    43002d24:	f9436ea0 	ldr	x0, [x21, #1752]
    43002d28:	f9400801 	ldr	x1, [x0, #16]
    43002d2c:	9100c3e0 	add	x0, sp, #0x30
    43002d30:	d63f0020 	blr	x1
    43002d34:	9100e3e1 	add	x1, sp, #0x38
    43002d38:	2a1403e0 	mov	w0, w20
    43002d3c:	97fffdcb 	bl	43002468 <psci_release_pwr_domain_locks>
    43002d40:	35fffb53 	cbnz	w19, 43002ca8 <psci_do_cpu_off+0x54>
    43002d44:	d53ed040 	mrs	x0, tpidr_el3
    43002d48:	d2800081 	mov	x1, #0x4                   	// #4
    43002d4c:	91006000 	add	x0, x0, #0x18
    43002d50:	94000eb8 	bl	43006830 <flush_dcache_range>
    43002d54:	d53ed040 	mrs	x0, tpidr_el3
    43002d58:	52800021 	mov	w1, #0x1                   	// #1
    43002d5c:	b9001801 	str	w1, [x0, #24]
    43002d60:	d5033b9f 	dsb	ish
    43002d64:	d53ed040 	mrs	x0, tpidr_el3
    43002d68:	d2800081 	mov	x1, #0x4                   	// #4
    43002d6c:	91006000 	add	x0, x0, #0x18
    43002d70:	94000ecc 	bl	430068a0 <inv_dcache_range>
    43002d74:	f9436ea0 	ldr	x0, [x21, #1752]
    43002d78:	f9402401 	ldr	x1, [x0, #72]
    43002d7c:	b4000061 	cbz	x1, 43002d88 <psci_do_cpu_off+0x134>
    43002d80:	9100c3e0 	add	x0, sp, #0x30
    43002d84:	d63f0020 	blr	x1
    43002d88:	94000e04 	bl	43006598 <psci_power_down_wfi>

0000000043002d8c <psci_cpu_on_start>:
    43002d8c:	a9bc7bfd 	stp	x29, x30, [sp, #-64]!
    43002d90:	910003fd 	mov	x29, sp
    43002d94:	a90153f3 	stp	x19, x20, [sp, #16]
    43002d98:	aa0003f4 	mov	x20, x0
    43002d9c:	a9025bf5 	stp	x21, x22, [sp, #32]
    43002da0:	aa0103f6 	mov	x22, x1
    43002da4:	d2800195 	mov	x21, #0xc                   	// #12
    43002da8:	f9001bf7 	str	x23, [sp, #48]
    43002dac:	94000ac9 	bl	430058d0 <plat_core_pos_by_mpidr>
    43002db0:	d0000042 	adrp	x2, 4300c000 <__STACKS_START__+0xf00>
    43002db4:	911ae042 	add	x2, x2, #0x6b8
    43002db8:	8b2052b5 	add	x21, x21, w0, uxtw #4
    43002dbc:	2a0003f3 	mov	w19, w0
    43002dc0:	8b0202b5 	add	x21, x21, x2
    43002dc4:	aa1503e0 	mov	x0, x21
    43002dc8:	94000dce 	bl	43006500 <spin_lock>
    43002dcc:	2a1303e0 	mov	w0, w19
    43002dd0:	94000dc6 	bl	430064e8 <_cpu_data_by_index>
    43002dd4:	d2800081 	mov	x1, #0x4                   	// #4
    43002dd8:	91006000 	add	x0, x0, #0x18
    43002ddc:	94000e95 	bl	43006830 <flush_dcache_range>
    43002de0:	2a1303e0 	mov	w0, w19
    43002de4:	94000dc1 	bl	430064e8 <_cpu_data_by_index>
    43002de8:	b9401800 	ldr	w0, [x0, #24]
    43002dec:	34000780 	cbz	w0, 43002edc <psci_cpu_on_start+0x150>
    43002df0:	7100081f 	cmp	w0, #0x2
    43002df4:	54000780 	b.eq	43002ee4 <psci_cpu_on_start+0x158>  // b.none
    43002df8:	d0000040 	adrp	x0, 4300c000 <__STACKS_START__+0xf00>
    43002dfc:	f9437000 	ldr	x0, [x0, #1760]
    43002e00:	b40000a0 	cbz	x0, 43002e14 <psci_cpu_on_start+0x88>
    43002e04:	f9400001 	ldr	x1, [x0]
    43002e08:	b4000061 	cbz	x1, 43002e14 <psci_cpu_on_start+0x88>
    43002e0c:	aa1403e0 	mov	x0, x20
    43002e10:	d63f0020 	blr	x1
    43002e14:	2a1303e0 	mov	w0, w19
    43002e18:	52800057 	mov	w23, #0x2                   	// #2
    43002e1c:	94000db3 	bl	430064e8 <_cpu_data_by_index>
    43002e20:	b9001817 	str	w23, [x0, #24]
    43002e24:	2a1303e0 	mov	w0, w19
    43002e28:	94000db0 	bl	430064e8 <_cpu_data_by_index>
    43002e2c:	91006000 	add	x0, x0, #0x18
    43002e30:	d2800081 	mov	x1, #0x4                   	// #4
    43002e34:	94000e7f 	bl	43006830 <flush_dcache_range>
    43002e38:	2a1303e0 	mov	w0, w19
    43002e3c:	94000dab 	bl	430064e8 <_cpu_data_by_index>
    43002e40:	b9401800 	ldr	w0, [x0, #24]
    43002e44:	6b17001f 	cmp	w0, w23
    43002e48:	54000120 	b.eq	43002e6c <psci_cpu_on_start+0xe0>  // b.none
    43002e4c:	2a1303e0 	mov	w0, w19
    43002e50:	94000da6 	bl	430064e8 <_cpu_data_by_index>
    43002e54:	b9001817 	str	w23, [x0, #24]
    43002e58:	2a1303e0 	mov	w0, w19
    43002e5c:	94000da3 	bl	430064e8 <_cpu_data_by_index>
    43002e60:	91006000 	add	x0, x0, #0x18
    43002e64:	d2800081 	mov	x1, #0x4                   	// #4
    43002e68:	94000e72 	bl	43006830 <flush_dcache_range>
    43002e6c:	d0000040 	adrp	x0, 4300c000 <__STACKS_START__+0xf00>
    43002e70:	f9436c00 	ldr	x0, [x0, #1752]
    43002e74:	f9400401 	ldr	x1, [x0, #8]
    43002e78:	aa1403e0 	mov	x0, x20
    43002e7c:	d63f0020 	blr	x1
    43002e80:	2a0003f4 	mov	w20, w0
    43002e84:	35000180 	cbnz	w0, 43002eb4 <psci_cpu_on_start+0x128>
    43002e88:	aa1603e1 	mov	x1, x22
    43002e8c:	2a1303e0 	mov	w0, w19
    43002e90:	97fffb76 	bl	43001c68 <cm_init_context_by_index>
    43002e94:	aa1503e0 	mov	x0, x21
    43002e98:	94000da2 	bl	43006520 <spin_unlock>
    43002e9c:	2a1403e0 	mov	w0, w20
    43002ea0:	a94153f3 	ldp	x19, x20, [sp, #16]
    43002ea4:	a9425bf5 	ldp	x21, x22, [sp, #32]
    43002ea8:	f9401bf7 	ldr	x23, [sp, #48]
    43002eac:	a8c47bfd 	ldp	x29, x30, [sp], #64
    43002eb0:	d65f03c0 	ret
    43002eb4:	2a1303e0 	mov	w0, w19
    43002eb8:	94000d8c 	bl	430064e8 <_cpu_data_by_index>
    43002ebc:	52800021 	mov	w1, #0x1                   	// #1
    43002ec0:	b9001801 	str	w1, [x0, #24]
    43002ec4:	2a1303e0 	mov	w0, w19
    43002ec8:	94000d88 	bl	430064e8 <_cpu_data_by_index>
    43002ecc:	91006000 	add	x0, x0, #0x18
    43002ed0:	d2800081 	mov	x1, #0x4                   	// #4
    43002ed4:	94000e57 	bl	43006830 <flush_dcache_range>
    43002ed8:	17ffffef 	b	43002e94 <psci_cpu_on_start+0x108>
    43002edc:	12800074 	mov	w20, #0xfffffffc            	// #-4
    43002ee0:	17ffffed 	b	43002e94 <psci_cpu_on_start+0x108>
    43002ee4:	12800094 	mov	w20, #0xfffffffb            	// #-5
    43002ee8:	17ffffeb 	b	43002e94 <psci_cpu_on_start+0x108>

0000000043002eec <psci_cpu_on_finish>:
    43002eec:	a9bd7bfd 	stp	x29, x30, [sp, #-48]!
    43002ef0:	910003fd 	mov	x29, sp
    43002ef4:	a9025bf5 	stp	x21, x22, [sp, #32]
    43002ef8:	d0000055 	adrp	x21, 4300c000 <__STACKS_START__+0xf00>
    43002efc:	a90153f3 	stp	x19, x20, [sp, #16]
    43002f00:	2a0003f3 	mov	w19, w0
    43002f04:	aa0103f4 	mov	x20, x1
    43002f08:	f9436ea0 	ldr	x0, [x21, #1752]
    43002f0c:	f9401801 	ldr	x1, [x0, #48]
    43002f10:	aa1403e0 	mov	x0, x20
    43002f14:	d63f0020 	blr	x1
    43002f18:	94000d93 	bl	43006564 <psci_do_pwrup_cache_maintenance>
    43002f1c:	f9436ea0 	ldr	x0, [x21, #1752]
    43002f20:	f9401c01 	ldr	x1, [x0, #56]
    43002f24:	b4000061 	cbz	x1, 43002f30 <psci_cpu_on_finish+0x44>
    43002f28:	aa1403e0 	mov	x0, x20
    43002f2c:	d63f0020 	blr	x1
    43002f30:	d2800194 	mov	x20, #0xc                   	// #12
    43002f34:	d0000055 	adrp	x21, 4300c000 <__STACKS_START__+0xf00>
    43002f38:	8b335294 	add	x20, x20, w19, uxtw #4
    43002f3c:	911ae2b5 	add	x21, x21, #0x6b8
    43002f40:	8b150294 	add	x20, x20, x21
    43002f44:	9400001f 	bl	43002fc0 <psci_arch_setup>
    43002f48:	aa1403e0 	mov	x0, x20
    43002f4c:	94000d6d 	bl	43006500 <spin_lock>
    43002f50:	aa1403e0 	mov	x0, x20
    43002f54:	94000d73 	bl	43006520 <spin_unlock>
    43002f58:	d0000040 	adrp	x0, 4300c000 <__STACKS_START__+0xf00>
    43002f5c:	f9437000 	ldr	x0, [x0, #1760]
    43002f60:	b40000a0 	cbz	x0, 43002f74 <psci_cpu_on_finish+0x88>
    43002f64:	f9400c01 	ldr	x1, [x0, #24]
    43002f68:	b4000061 	cbz	x1, 43002f74 <psci_cpu_on_finish+0x88>
    43002f6c:	d2800000 	mov	x0, #0x0                   	// #0
    43002f70:	d63f0020 	blr	x1
    43002f74:	90000054 	adrp	x20, 4300a000 <__func__.7+0x8a>
    43002f78:	90000056 	adrp	x22, 4300a000 <__func__.7+0x8a>
    43002f7c:	9113c294 	add	x20, x20, #0x4f0
    43002f80:	9113c2d6 	add	x22, x22, #0x4f0
    43002f84:	eb16029f 	cmp	x20, x22
    43002f88:	54000143 	b.cc	43002fb0 <psci_cpu_on_finish+0xc4>  // b.lo, b.ul, b.last
    43002f8c:	d53800a1 	mrs	x1, mpidr_el1
    43002f90:	d37c7e73 	ubfiz	x19, x19, #4, #32
    43002f94:	92409c21 	and	x1, x1, #0xffffffffff
    43002f98:	9260dc21 	and	x1, x1, #0xffffffff00ffffff
    43002f9c:	f8336aa1 	str	x1, [x21, x19]
    43002fa0:	a94153f3 	ldp	x19, x20, [sp, #16]
    43002fa4:	a9425bf5 	ldp	x21, x22, [sp, #32]
    43002fa8:	a8c37bfd 	ldp	x29, x30, [sp], #48
    43002fac:	17fffba1 	b	43001e30 <cm_prepare_el3_exit_ns>
    43002fb0:	f8408681 	ldr	x1, [x20], #8
    43002fb4:	d2800000 	mov	x0, #0x0                   	// #0
    43002fb8:	d63f0020 	blr	x1
    43002fbc:	17fffff2 	b	43002f84 <psci_cpu_on_finish+0x98>

0000000043002fc0 <psci_arch_setup>:
    43002fc0:	a9bf7bfd 	stp	x29, x30, [sp, #-16]!
    43002fc4:	910003fd 	mov	x29, sp
    43002fc8:	94000402 	bl	43003fd0 <plat_get_syscnt_freq2>
    43002fcc:	2a0003e0 	mov	w0, w0
    43002fd0:	d51be000 	msr	cntfrq_el0, x0
    43002fd4:	94000c9c 	bl	43006244 <init_cpu_ops>
    43002fd8:	a8c17bfd 	ldp	x29, x30, [sp], #16
    43002fdc:	17fffac7 	b	43001af8 <print_errata_status>

0000000043002fe0 <psci_setup>:
    43002fe0:	a9b87bfd 	stp	x29, x30, [sp, #-128]!
    43002fe4:	910003fd 	mov	x29, sp
    43002fe8:	a90153f3 	stp	x19, x20, [sp, #16]
    43002fec:	52800013 	mov	w19, #0x0                   	// #0
    43002ff0:	a9025bf5 	stp	x21, x22, [sp, #32]
    43002ff4:	aa0003f5 	mov	x21, x0
    43002ff8:	d0000056 	adrp	x22, 4300c000 <__STACKS_START__+0xf00>
    43002ffc:	a90363f7 	stp	x23, x24, [sp, #48]
    43003000:	910682d6 	add	x22, x22, #0x1a0
    43003004:	52800017 	mov	w23, #0x0                   	// #0
    43003008:	a9046bf9 	stp	x25, x26, [sp, #64]
    4300300c:	b000005a 	adrp	x26, 4300c000 <__STACKS_START__+0xf00>
    43003010:	911ae35a 	add	x26, x26, #0x6b8
    43003014:	a90573fb 	stp	x27, x28, [sp, #80]
    43003018:	97ffffea 	bl	43002fc0 <psci_arch_setup>
    4300301c:	94000a2a 	bl	430058c4 <plat_get_power_domain_tree_desc>
    43003020:	aa0003fb 	mov	x27, x0
    43003024:	52800001 	mov	w1, #0x0                   	// #0
    43003028:	52800039 	mov	w25, #0x1                   	// #1
    4300302c:	52800058 	mov	w24, #0x2                   	// #2
    43003030:	0b170323 	add	w3, w25, w23
    43003034:	52800019 	mov	w25, #0x0                   	// #0
    43003038:	14000009 	b	4300305c <psci_setup+0x7c>
    4300303c:	38774b7c 	ldrb	w28, [x27, w23, uxtw]
    43003040:	2a0103f3 	mov	w19, w1
    43003044:	0b010384 	add	w4, w28, w1
    43003048:	6b04027f 	cmp	w19, w4
    4300304c:	54000d83 	b.cc	430031fc <psci_setup+0x21c>  // b.lo, b.ul, b.last
    43003050:	0b1c0339 	add	w25, w25, w28
    43003054:	110006f7 	add	w23, w23, #0x1
    43003058:	2a1303e1 	mov	w1, w19
    4300305c:	6b17007f 	cmp	w3, w23
    43003060:	54fffee1 	b.ne	4300303c <psci_setup+0x5c>  // b.any
    43003064:	71000718 	subs	w24, w24, #0x1
    43003068:	540011a0 	b.eq	4300329c <psci_setup+0x2bc>  // b.none
    4300306c:	3100071f 	cmn	w24, #0x1
    43003070:	54fffe01 	b.ne	43003030 <psci_setup+0x50>  // b.any
    43003074:	b0000040 	adrp	x0, 4300c000 <__STACKS_START__+0xf00>
    43003078:	d0000074 	adrp	x20, 43011000 <psci_locks>
    4300307c:	912be016 	add	x22, x0, #0xaf8
    43003080:	91003294 	add	x20, x20, #0xc
    43003084:	b90af813 	str	w19, [x0, #2808]
    43003088:	52800018 	mov	w24, #0x0                   	// #0
    4300308c:	52800017 	mov	w23, #0x0                   	// #0
    43003090:	52800013 	mov	w19, #0x0                   	// #0
    43003094:	b94002c0 	ldr	w0, [x22]
    43003098:	6b00027f 	cmp	w19, w0
    4300309c:	54001043 	b.cc	430032a4 <psci_setup+0x2c4>  // b.lo, b.ul, b.last
    430030a0:	d53800b3 	mrs	x19, mpidr_el1
    430030a4:	94000daf 	bl	43006760 <plat_my_core_pos>
    430030a8:	d37c7c00 	ubfiz	x0, x0, #4, #32
    430030ac:	b0000042 	adrp	x2, 4300c000 <__STACKS_START__+0xf00>
    430030b0:	911ae042 	add	x2, x2, #0x6b8
    430030b4:	92409e61 	and	x1, x19, #0xffffffffff
    430030b8:	b0000053 	adrp	x19, 4300c000 <__STACKS_START__+0xf00>
    430030bc:	9260dc21 	and	x1, x1, #0xffffffff00ffffff
    430030c0:	911b6274 	add	x20, x19, #0x6d8
    430030c4:	f8206841 	str	x1, [x2, x0]
    430030c8:	97fffbe2 	bl	43002050 <psci_init_req_local_pwr_states>
    430030cc:	52800040 	mov	w0, #0x2                   	// #2
    430030d0:	97fffc46 	bl	430021e8 <psci_set_pwr_domains_to_run>
    430030d4:	f94006a0 	ldr	x0, [x21, #8]
    430030d8:	aa1403e1 	mov	x1, x20
    430030dc:	94000962 	bl	43005664 <plat_setup_psci_ops>
    430030e0:	aa1403e0 	mov	x0, x20
    430030e4:	d2800101 	mov	x1, #0x8                   	// #8
    430030e8:	94000dd2 	bl	43006830 <flush_dcache_range>
    430030ec:	f9436e61 	ldr	x1, [x19, #1752]
    430030f0:	52808223 	mov	w3, #0x411                 	// #1041
    430030f4:	b0000040 	adrp	x0, 4300c000 <__STACKS_START__+0xf00>
    430030f8:	f9400822 	ldr	x2, [x1, #16]
    430030fc:	f100005f 	cmp	x2, #0x0
    43003100:	528082a2 	mov	w2, #0x415                 	// #1045
    43003104:	1a831042 	csel	w2, w2, w3, ne  // ne = any
    43003108:	b90afc02 	str	w2, [x0, #2812]
    4300310c:	f9400423 	ldr	x3, [x1, #8]
    43003110:	b40000a3 	cbz	x3, 43003124 <psci_setup+0x144>
    43003114:	f9401823 	ldr	x3, [x1, #48]
    43003118:	b4000063 	cbz	x3, 43003124 <psci_setup+0x144>
    4300311c:	321d0042 	orr	w2, w2, #0x8
    43003120:	b90afc02 	str	w2, [x0, #2812]
    43003124:	f9401422 	ldr	x2, [x1, #40]
    43003128:	b40001a2 	cbz	x2, 4300315c <psci_setup+0x17c>
    4300312c:	f9402022 	ldr	x2, [x1, #64]
    43003130:	b4000162 	cbz	x2, 4300315c <psci_setup+0x17c>
    43003134:	f9403022 	ldr	x2, [x1, #96]
    43003138:	b4000082 	cbz	x2, 43003148 <psci_setup+0x168>
    4300313c:	b94afc02 	ldr	w2, [x0, #2812]
    43003140:	321f0042 	orr	w2, w2, #0x2
    43003144:	b90afc02 	str	w2, [x0, #2812]
    43003148:	f9403822 	ldr	x2, [x1, #112]
    4300314c:	b4000082 	cbz	x2, 4300315c <psci_setup+0x17c>
    43003150:	b94afc02 	ldr	w2, [x0, #2812]
    43003154:	32120042 	orr	w2, w2, #0x4000
    43003158:	b90afc02 	str	w2, [x0, #2812]
    4300315c:	f9402822 	ldr	x2, [x1, #80]
    43003160:	b4000082 	cbz	x2, 43003170 <psci_setup+0x190>
    43003164:	b94afc02 	ldr	w2, [x0, #2812]
    43003168:	32180042 	orr	w2, w2, #0x100
    4300316c:	b90afc02 	str	w2, [x0, #2812]
    43003170:	f9402c22 	ldr	x2, [x1, #88]
    43003174:	b4000082 	cbz	x2, 43003184 <psci_setup+0x1a4>
    43003178:	b94afc02 	ldr	w2, [x0, #2812]
    4300317c:	32170042 	orr	w2, w2, #0x200
    43003180:	b90afc02 	str	w2, [x0, #2812]
    43003184:	f9404422 	ldr	x2, [x1, #136]
    43003188:	b4000082 	cbz	x2, 43003198 <psci_setup+0x1b8>
    4300318c:	b94afc02 	ldr	w2, [x0, #2812]
    43003190:	32130042 	orr	w2, w2, #0x2000
    43003194:	b90afc02 	str	w2, [x0, #2812]
    43003198:	f9404c22 	ldr	x2, [x1, #152]
    4300319c:	b40000c2 	cbz	x2, 430031b4 <psci_setup+0x1d4>
    430031a0:	f9405022 	ldr	x2, [x1, #160]
    430031a4:	b4000082 	cbz	x2, 430031b4 <psci_setup+0x1d4>
    430031a8:	b94afc02 	ldr	w2, [x0, #2812]
    430031ac:	320d0042 	orr	w2, w2, #0x80000
    430031b0:	b90afc02 	str	w2, [x0, #2812]
    430031b4:	f9404822 	ldr	x2, [x1, #144]
    430031b8:	b4000082 	cbz	x2, 430031c8 <psci_setup+0x1e8>
    430031bc:	b94afc02 	ldr	w2, [x0, #2812]
    430031c0:	320c0042 	orr	w2, w2, #0x100000
    430031c4:	b90afc02 	str	w2, [x0, #2812]
    430031c8:	f9405421 	ldr	x1, [x1, #168]
    430031cc:	b4000081 	cbz	x1, 430031dc <psci_setup+0x1fc>
    430031d0:	b94afc01 	ldr	w1, [x0, #2812]
    430031d4:	320e0021 	orr	w1, w1, #0x40000
    430031d8:	b90afc01 	str	w1, [x0, #2812]
    430031dc:	52800000 	mov	w0, #0x0                   	// #0
    430031e0:	a94153f3 	ldp	x19, x20, [sp, #16]
    430031e4:	a9425bf5 	ldp	x21, x22, [sp, #32]
    430031e8:	a94363f7 	ldp	x23, x24, [sp, #48]
    430031ec:	a9446bf9 	ldp	x25, x26, [sp, #64]
    430031f0:	a94573fb 	ldp	x27, x28, [sp, #80]
    430031f4:	a8c87bfd 	ldp	x29, x30, [sp], #128
    430031f8:	d65f03c0 	ret
    430031fc:	510006e2 	sub	w2, w23, #0x1
    43003200:	12003e74 	and	w20, w19, #0xffff
    43003204:	340001b8 	cbz	w24, 43003238 <psci_setup+0x258>
    43003208:	d0000061 	adrp	x1, 43011000 <psci_locks>
    4300320c:	91003021 	add	x1, x1, #0xc
    43003210:	8b34d034 	add	x20, x1, w20, sxtw #4
    43003214:	d37c3e60 	ubfiz	x0, x19, #4, #16
    43003218:	8b010001 	add	x1, x0, x1
    4300321c:	52800040 	mov	w0, #0x2                   	// #2
    43003220:	39003698 	strb	w24, [x20, #13]
    43003224:	79001c33 	strh	w19, [x1, #14]
    43003228:	b9000a82 	str	w2, [x20, #8]
    4300322c:	39003280 	strb	w0, [x20, #12]
    43003230:	11000673 	add	w19, w19, #0x1
    43003234:	17ffff85 	b	43003048 <psci_setup+0x68>
    43003238:	8b34d341 	add	x1, x26, w20, sxtw #4
    4300323c:	937c7e80 	sbfiz	x0, x20, #4, #32
    43003240:	290d13e3 	stp	w3, w4, [sp, #104]
    43003244:	b9000822 	str	w2, [x1, #8]
    43003248:	92800001 	mov	x1, #0xffffffffffffffff    	// #-1
    4300324c:	f8206b41 	str	x1, [x26, x0]
    43003250:	2a1403e0 	mov	w0, w20
    43003254:	94000ca5 	bl	430064e8 <_cpu_data_by_index>
    43003258:	aa0003e1 	mov	x1, x0
    4300325c:	91006000 	add	x0, x0, #0x18
    43003260:	52800022 	mov	w2, #0x1                   	// #1
    43003264:	b9001822 	str	w2, [x1, #24]
    43003268:	52800061 	mov	w1, #0x3                   	// #3
    4300326c:	b9000401 	str	w1, [x0, #4]
    43003270:	52800041 	mov	w1, #0x2                   	// #2
    43003274:	39002001 	strb	w1, [x0, #8]
    43003278:	d2800181 	mov	x1, #0xc                   	// #12
    4300327c:	94000d6d 	bl	43006830 <flush_dcache_range>
    43003280:	52804801 	mov	w1, #0x240                 	// #576
    43003284:	2a1403e0 	mov	w0, w20
    43003288:	52800022 	mov	w2, #0x1                   	// #1
    4300328c:	9ba15a81 	umaddl	x1, w20, w1, x22
    43003290:	97fff7d5 	bl	430011e4 <cm_set_context_by_index>
    43003294:	294d13e3 	ldp	w3, w4, [sp, #104]
    43003298:	17ffffe6 	b	43003230 <psci_setup+0x250>
    4300329c:	52800001 	mov	w1, #0x0                   	// #0
    430032a0:	17ffff64 	b	43003030 <psci_setup+0x50>
    430032a4:	9101e3e2 	add	x2, sp, #0x78
    430032a8:	2a1303e0 	mov	w0, w19
    430032ac:	52800041 	mov	w1, #0x2                   	// #2
    430032b0:	97fffbbc 	bl	430021a0 <psci_get_parent_pwr_domain_nodes>
    430032b4:	b9407fe2 	ldr	w2, [sp, #124]
    430032b8:	6b02031f 	cmp	w24, w2
    430032bc:	2a0203e0 	mov	w0, w2
    430032c0:	54000060 	b.eq	430032cc <psci_setup+0x2ec>  // b.none
    430032c4:	d37cec01 	lsl	x1, x0, #4
    430032c8:	b8216a93 	str	w19, [x20, x1]
    430032cc:	8b001280 	add	x0, x20, x0, lsl #4
    430032d0:	b9400401 	ldr	w1, [x0, #4]
    430032d4:	11000421 	add	w1, w1, #0x1
    430032d8:	b9000401 	str	w1, [x0, #4]
    430032dc:	b9407be0 	ldr	w0, [sp, #120]
    430032e0:	6b0002ff 	cmp	w23, w0
    430032e4:	2a0003e1 	mov	w1, w0
    430032e8:	54000060 	b.eq	430032f4 <psci_setup+0x314>  // b.none
    430032ec:	d37cec23 	lsl	x3, x1, #4
    430032f0:	b8236a93 	str	w19, [x20, x3]
    430032f4:	8b011281 	add	x1, x20, x1, lsl #4
    430032f8:	11000673 	add	w19, w19, #0x1
    430032fc:	2a0203f8 	mov	w24, w2
    43003300:	2a0003f7 	mov	w23, w0
    43003304:	b9400423 	ldr	w3, [x1, #4]
    43003308:	11000463 	add	w3, w3, #0x1
    4300330c:	b9000423 	str	w3, [x1, #4]
    43003310:	17ffff61 	b	43003094 <psci_setup+0xb4>

0000000043003314 <psci_cpu_suspend_start>:
    43003314:	a9b97bfd 	stp	x29, x30, [sp, #-112]!
    43003318:	910003fd 	mov	x29, sp
    4300331c:	a90153f3 	stp	x19, x20, [sp, #16]
    43003320:	2a0103f3 	mov	w19, w1
    43003324:	aa0203f4 	mov	x20, x2
    43003328:	a9025bf5 	stp	x21, x22, [sp, #32]
    4300332c:	2a0303f6 	mov	w22, w3
    43003330:	a90363f7 	stp	x23, x24, [sp, #48]
    43003334:	a9046bf9 	stp	x25, x26, [sp, #64]
    43003338:	aa0003f9 	mov	x25, x0
    4300333c:	94000d09 	bl	43006760 <plat_my_core_pos>
    43003340:	910183e2 	add	x2, sp, #0x60
    43003344:	2a0003f8 	mov	w24, w0
    43003348:	2a1303e1 	mov	w1, w19
    4300334c:	f90033ff 	str	xzr, [sp, #96]
    43003350:	97fffb94 	bl	430021a0 <psci_get_parent_pwr_domain_nodes>
    43003354:	910183e1 	add	x1, sp, #0x60
    43003358:	2a1303e0 	mov	w0, w19
    4300335c:	97fffc28 	bl	430023fc <psci_acquire_pwr_domain_locks>
    43003360:	d538c100 	mrs	x0, isr_el1
    43003364:	b50007a0 	cbnz	x0, 43003458 <psci_cpu_suspend_start+0x144>
    43003368:	aa1403e1 	mov	x1, x20
    4300336c:	2a1303e0 	mov	w0, w19
    43003370:	97fffbc1 	bl	43002274 <psci_do_state_coordination>
    43003374:	aa1403e1 	mov	x1, x20
    43003378:	2a1303e0 	mov	w0, w19
    4300337c:	97fffb68 	bl	4300211c <psci_set_target_local_pwr_states>
    43003380:	34000436 	cbz	w22, 43003404 <psci_cpu_suspend_start+0xf0>
    43003384:	aa1403e0 	mov	x0, x20
    43003388:	f0000035 	adrp	x21, 4300a000 <__func__.7+0x8a>
    4300338c:	f000003a 	adrp	x26, 4300a000 <__func__.7+0x8a>
    43003390:	97fffbff 	bl	4300238c <psci_find_max_off_lvl>
    43003394:	9113c2b5 	add	x21, x21, #0x4f0
    43003398:	2a0003f7 	mov	w23, w0
    4300339c:	9113c35a 	add	x26, x26, #0x4f0
    430033a0:	eb1a02bf 	cmp	x21, x26
    430033a4:	54000523 	b.cc	43003448 <psci_cpu_suspend_start+0x134>  // b.lo, b.ul, b.last
    430033a8:	d53ed040 	mrs	x0, tpidr_el3
    430033ac:	b9001c13 	str	w19, [x0, #28]
    430033b0:	d53ed040 	mrs	x0, tpidr_el3
    430033b4:	d2800081 	mov	x1, #0x4                   	// #4
    430033b8:	91007000 	add	x0, x0, #0x1c
    430033bc:	94000d1d 	bl	43006830 <flush_dcache_range>
    430033c0:	b0000040 	adrp	x0, 4300c000 <__STACKS_START__+0xf00>
    430033c4:	f9437000 	ldr	x0, [x0, #1760]
    430033c8:	b40000a0 	cbz	x0, 430033dc <psci_cpu_suspend_start+0xc8>
    430033cc:	f9400801 	ldr	x1, [x0, #16]
    430033d0:	b4000061 	cbz	x1, 430033dc <psci_cpu_suspend_start+0xc8>
    430033d4:	2a1703e0 	mov	w0, w23
    430033d8:	d63f0020 	blr	x1
    430033dc:	b0000040 	adrp	x0, 4300c000 <__STACKS_START__+0xf00>
    430033e0:	f9436c00 	ldr	x0, [x0, #1752]
    430033e4:	f9401001 	ldr	x1, [x0, #32]
    430033e8:	b4000061 	cbz	x1, 430033f4 <psci_cpu_suspend_start+0xe0>
    430033ec:	aa1403e0 	mov	x0, x20
    430033f0:	d63f0020 	blr	x1
    430033f4:	aa1903e0 	mov	x0, x25
    430033f8:	97fffa28 	bl	43001c98 <cm_init_my_context>
    430033fc:	2a1703e0 	mov	w0, w23
    43003400:	97fffcb1 	bl	430026c4 <psci_pwrdown_cpu>
    43003404:	b0000040 	adrp	x0, 4300c000 <__STACKS_START__+0xf00>
    43003408:	52800015 	mov	w21, #0x0                   	// #0
    4300340c:	f9436c00 	ldr	x0, [x0, #1752]
    43003410:	f9401401 	ldr	x1, [x0, #40]
    43003414:	aa1403e0 	mov	x0, x20
    43003418:	d63f0020 	blr	x1
    4300341c:	910183e1 	add	x1, sp, #0x60
    43003420:	2a1303e0 	mov	w0, w19
    43003424:	97fffc11 	bl	43002468 <psci_release_pwr_domain_locks>
    43003428:	35000495 	cbnz	w21, 430034b8 <psci_cpu_suspend_start+0x1a4>
    4300342c:	b0000055 	adrp	x21, 4300c000 <__STACKS_START__+0xf00>
    43003430:	340001b6 	cbz	w22, 43003464 <psci_cpu_suspend_start+0x150>
    43003434:	f9436ea0 	ldr	x0, [x21, #1752]
    43003438:	f9402401 	ldr	x1, [x0, #72]
    4300343c:	b4000121 	cbz	x1, 43003460 <psci_cpu_suspend_start+0x14c>
    43003440:	aa1403e0 	mov	x0, x20
    43003444:	d63f0020 	blr	x1
    43003448:	f84086a1 	ldr	x1, [x21], #8
    4300344c:	d2800000 	mov	x0, #0x0                   	// #0
    43003450:	d63f0020 	blr	x1
    43003454:	17ffffd3 	b	430033a0 <psci_cpu_suspend_start+0x8c>
    43003458:	52800035 	mov	w21, #0x1                   	// #1
    4300345c:	17fffff0 	b	4300341c <psci_cpu_suspend_start+0x108>
    43003460:	94000c4e 	bl	43006598 <psci_power_down_wfi>
    43003464:	d503207f 	wfi
    43003468:	9101a3e2 	add	x2, sp, #0x68
    4300346c:	2a1303e1 	mov	w1, w19
    43003470:	2a1803e0 	mov	w0, w24
    43003474:	f90037ff 	str	xzr, [sp, #104]
    43003478:	97fffb4a 	bl	430021a0 <psci_get_parent_pwr_domain_nodes>
    4300347c:	9101a3e1 	add	x1, sp, #0x68
    43003480:	2a1303e0 	mov	w0, w19
    43003484:	97fffbde 	bl	430023fc <psci_acquire_pwr_domain_locks>
    43003488:	910163e1 	add	x1, sp, #0x58
    4300348c:	2a1303e0 	mov	w0, w19
    43003490:	97fffaff 	bl	4300208c <psci_get_target_local_pwr_states>
    43003494:	f9436ea0 	ldr	x0, [x21, #1752]
    43003498:	f9402001 	ldr	x1, [x0, #64]
    4300349c:	910163e0 	add	x0, sp, #0x58
    430034a0:	d63f0020 	blr	x1
    430034a4:	2a1303e0 	mov	w0, w19
    430034a8:	97fffb50 	bl	430021e8 <psci_set_pwr_domains_to_run>
    430034ac:	9101a3e1 	add	x1, sp, #0x68
    430034b0:	2a1303e0 	mov	w0, w19
    430034b4:	97fffbed 	bl	43002468 <psci_release_pwr_domain_locks>
    430034b8:	52800000 	mov	w0, #0x0                   	// #0
    430034bc:	a94153f3 	ldp	x19, x20, [sp, #16]
    430034c0:	a9425bf5 	ldp	x21, x22, [sp, #32]
    430034c4:	a94363f7 	ldp	x23, x24, [sp, #48]
    430034c8:	a9446bf9 	ldp	x25, x26, [sp, #64]
    430034cc:	a8c77bfd 	ldp	x29, x30, [sp], #112
    430034d0:	d65f03c0 	ret

00000000430034d4 <psci_cpu_suspend_finish>:
    430034d4:	a9be7bfd 	stp	x29, x30, [sp, #-32]!
    430034d8:	b0000040 	adrp	x0, 4300c000 <__STACKS_START__+0xf00>
    430034dc:	910003fd 	mov	x29, sp
    430034e0:	f9436c00 	ldr	x0, [x0, #1752]
    430034e4:	a90153f3 	stp	x19, x20, [sp, #16]
    430034e8:	aa0103f3 	mov	x19, x1
    430034ec:	f9402001 	ldr	x1, [x0, #64]
    430034f0:	aa1303e0 	mov	x0, x19
    430034f4:	d63f0020 	blr	x1
    430034f8:	94000c1b 	bl	43006564 <psci_do_pwrup_cache_maintenance>
    430034fc:	940002b5 	bl	43003fd0 <plat_get_syscnt_freq2>
    43003500:	2a0003e0 	mov	w0, w0
    43003504:	d51be000 	msr	cntfrq_el0, x0
    43003508:	b0000054 	adrp	x20, 4300c000 <__STACKS_START__+0xf00>
    4300350c:	f9437280 	ldr	x0, [x20, #1760]
    43003510:	b4000120 	cbz	x0, 43003534 <psci_cpu_suspend_finish+0x60>
    43003514:	f9401000 	ldr	x0, [x0, #32]
    43003518:	b40000e0 	cbz	x0, 43003534 <psci_cpu_suspend_finish+0x60>
    4300351c:	aa1303e0 	mov	x0, x19
    43003520:	97fffb9b 	bl	4300238c <psci_find_max_off_lvl>
    43003524:	f9437281 	ldr	x1, [x20, #1760]
    43003528:	2a0003e0 	mov	w0, w0
    4300352c:	f9401021 	ldr	x1, [x1, #32]
    43003530:	d63f0020 	blr	x1
    43003534:	d53ed040 	mrs	x0, tpidr_el3
    43003538:	f0000033 	adrp	x19, 4300a000 <__func__.7+0x8a>
    4300353c:	f0000034 	adrp	x20, 4300a000 <__func__.7+0x8a>
    43003540:	9113c273 	add	x19, x19, #0x4f0
    43003544:	9113c294 	add	x20, x20, #0x4f0
    43003548:	52800061 	mov	w1, #0x3                   	// #3
    4300354c:	b9001c01 	str	w1, [x0, #28]
    43003550:	eb14027f 	cmp	x19, x20
    43003554:	54000083 	b.cc	43003564 <psci_cpu_suspend_finish+0x90>  // b.lo, b.ul, b.last
    43003558:	a94153f3 	ldp	x19, x20, [sp, #16]
    4300355c:	a8c27bfd 	ldp	x29, x30, [sp], #32
    43003560:	17fffa34 	b	43001e30 <cm_prepare_el3_exit_ns>
    43003564:	f8408661 	ldr	x1, [x19], #8
    43003568:	d2800000 	mov	x0, #0x0                   	// #0
    4300356c:	d63f0020 	blr	x1
    43003570:	17fffff8 	b	43003550 <psci_cpu_suspend_finish+0x7c>

0000000043003574 <psci_system_off>:
    43003574:	a9bf7bfd 	stp	x29, x30, [sp, #-16]!
    43003578:	910003fd 	mov	x29, sp
    4300357c:	97fffc51 	bl	430026c0 <psci_print_power_domain_map>
    43003580:	b0000040 	adrp	x0, 4300c000 <__STACKS_START__+0xf00>
    43003584:	f9437000 	ldr	x0, [x0, #1760]
    43003588:	b4000080 	cbz	x0, 43003598 <psci_system_off+0x24>
    4300358c:	f9401c00 	ldr	x0, [x0, #56]
    43003590:	b4000040 	cbz	x0, 43003598 <psci_system_off+0x24>
    43003594:	d63f0000 	blr	x0
    43003598:	940009e8 	bl	43005d38 <console_flush>
    4300359c:	b0000040 	adrp	x0, 4300c000 <__STACKS_START__+0xf00>
    430035a0:	f9436c00 	ldr	x0, [x0, #1752]
    430035a4:	f9402800 	ldr	x0, [x0, #80]
    430035a8:	d63f0000 	blr	x0

00000000430035ac <psci_system_reset>:
    430035ac:	a9bf7bfd 	stp	x29, x30, [sp, #-16]!
    430035b0:	910003fd 	mov	x29, sp
    430035b4:	97fffc43 	bl	430026c0 <psci_print_power_domain_map>
    430035b8:	b0000040 	adrp	x0, 4300c000 <__STACKS_START__+0xf00>
    430035bc:	f9437000 	ldr	x0, [x0, #1760]
    430035c0:	b4000080 	cbz	x0, 430035d0 <psci_system_reset+0x24>
    430035c4:	f9402000 	ldr	x0, [x0, #64]
    430035c8:	b4000040 	cbz	x0, 430035d0 <psci_system_reset+0x24>
    430035cc:	d63f0000 	blr	x0
    430035d0:	940009da 	bl	43005d38 <console_flush>
    430035d4:	b0000040 	adrp	x0, 4300c000 <__STACKS_START__+0xf00>
    430035d8:	f9436c00 	ldr	x0, [x0, #1752]
    430035dc:	f9402c00 	ldr	x0, [x0, #88]
    430035e0:	d63f0000 	blr	x0

00000000430035e4 <psci_system_reset2>:
    430035e4:	a9bd7bfd 	stp	x29, x30, [sp, #-48]!
    430035e8:	910003fd 	mov	x29, sp
    430035ec:	a90153f3 	stp	x19, x20, [sp, #16]
    430035f0:	2a0003f3 	mov	w19, w0
    430035f4:	aa0103f4 	mov	x20, x1
    430035f8:	f90013f5 	str	x21, [sp, #32]
    430035fc:	531f7e75 	lsr	w21, w19, #31
    43003600:	97fffc30 	bl	430026c0 <psci_print_power_domain_map>
    43003604:	36f80233 	tbz	w19, #31, 43003648 <psci_system_reset2+0x64>
    43003608:	b0000040 	adrp	x0, 4300c000 <__STACKS_START__+0xf00>
    4300360c:	f9437000 	ldr	x0, [x0, #1760]
    43003610:	b5000300 	cbnz	x0, 43003670 <psci_system_reset2+0x8c>
    43003614:	940009c9 	bl	43005d38 <console_flush>
    43003618:	b0000040 	adrp	x0, 4300c000 <__STACKS_START__+0xf00>
    4300361c:	aa1403e2 	mov	x2, x20
    43003620:	2a1303e1 	mov	w1, w19
    43003624:	f9436c00 	ldr	x0, [x0, #1752]
    43003628:	f9405403 	ldr	x3, [x0, #168]
    4300362c:	2a1503e0 	mov	w0, w21
    43003630:	d63f0060 	blr	x3
    43003634:	93407c00 	sxtw	x0, w0
    43003638:	a94153f3 	ldp	x19, x20, [sp, #16]
    4300363c:	f94013f5 	ldr	x21, [sp, #32]
    43003640:	a8c37bfd 	ldp	x29, x30, [sp], #48
    43003644:	d65f03c0 	ret
    43003648:	350001d3 	cbnz	w19, 43003680 <psci_system_reset2+0x9c>
    4300364c:	b0000040 	adrp	x0, 4300c000 <__STACKS_START__+0xf00>
    43003650:	f9436c00 	ldr	x0, [x0, #1752]
    43003654:	f9405001 	ldr	x1, [x0, #160]
    43003658:	b4fffd81 	cbz	x1, 43003608 <psci_system_reset2+0x24>
    4300365c:	52800000 	mov	w0, #0x0                   	// #0
    43003660:	d63f0020 	blr	x1
    43003664:	36fffd20 	tbz	w0, #31, 43003608 <psci_system_reset2+0x24>
    43003668:	92800000 	mov	x0, #0xffffffffffffffff    	// #-1
    4300366c:	17fffff3 	b	43003638 <psci_system_reset2+0x54>
    43003670:	f9402000 	ldr	x0, [x0, #64]
    43003674:	b4fffd00 	cbz	x0, 43003614 <psci_system_reset2+0x30>
    43003678:	d63f0000 	blr	x0
    4300367c:	17ffffe6 	b	43003614 <psci_system_reset2+0x30>
    43003680:	92800020 	mov	x0, #0xfffffffffffffffe    	// #-2
    43003684:	17ffffed 	b	43003638 <psci_system_reset2+0x54>

0000000043003688 <xlat_arch_current_el>:
    43003688:	d5384240 	mrs	x0, currentel
    4300368c:	53020c00 	ubfx	w0, w0, #2, #2
    43003690:	d65f03c0 	ret

0000000043003694 <xlat_arch_get_xn_desc>:
    43003694:	71000c1f 	cmp	w0, #0x3
    43003698:	d2e00801 	mov	x1, #0x40000000000000      	// #18014398509481984
    4300369c:	d2e00400 	mov	x0, #0x20000000000000      	// #9007199254740992
    430036a0:	9a800020 	csel	x0, x1, x0, eq  // eq = none
    430036a4:	d65f03c0 	ret

00000000430036a8 <init_xlat_tables>:
    430036a8:	a9be7bfd 	stp	x29, x30, [sp, #-32]!
    430036ac:	910003fd 	mov	x29, sp
    430036b0:	940000b8 	bl	43003990 <print_mmap>
    430036b4:	d2800000 	mov	x0, #0x0                   	// #0
    430036b8:	910043e4 	add	x4, sp, #0x10
    430036bc:	910063e3 	add	x3, sp, #0x18
    430036c0:	52800022 	mov	w2, #0x1                   	// #1
    430036c4:	b0000041 	adrp	x1, 4300c000 <__STACKS_START__+0xf00>
    430036c8:	91060021 	add	x1, x1, #0x180
    430036cc:	940000fb 	bl	43003ab8 <init_xlation_table>
    430036d0:	f9400be0 	ldr	x0, [sp, #16]
    430036d4:	f2540c1f 	tst	x0, #0xf00000000000
    430036d8:	540001a1 	b.ne	4300370c <init_xlat_tables+0x64>  // b.any
    430036dc:	f256041f 	tst	x0, #0xc0000000000
    430036e0:	540001a1 	b.ne	43003714 <init_xlat_tables+0x6c>  // b.any
    430036e4:	f258041f 	tst	x0, #0x30000000000
    430036e8:	540001a1 	b.ne	4300371c <init_xlat_tables+0x74>  // b.any
    430036ec:	f25c0c1f 	tst	x0, #0xf000000000
    430036f0:	540001a1 	b.ne	43003724 <init_xlat_tables+0x7c>  // b.any
    430036f4:	f2600c1f 	tst	x0, #0xf00000000
    430036f8:	9a9f07e0 	cset	x0, ne  // ne = any
    430036fc:	b0000041 	adrp	x1, 4300c000 <__STACKS_START__+0xf00>
    43003700:	f9037420 	str	x0, [x1, #1768]
    43003704:	a8c27bfd 	ldp	x29, x30, [sp], #32
    43003708:	d65f03c0 	ret
    4300370c:	d28000a0 	mov	x0, #0x5                   	// #5
    43003710:	17fffffb 	b	430036fc <init_xlat_tables+0x54>
    43003714:	d2800080 	mov	x0, #0x4                   	// #4
    43003718:	17fffff9 	b	430036fc <init_xlat_tables+0x54>
    4300371c:	d2800060 	mov	x0, #0x3                   	// #3
    43003720:	17fffff7 	b	430036fc <init_xlat_tables+0x54>
    43003724:	d2800040 	mov	x0, #0x2                   	// #2
    43003728:	17fffff5 	b	430036fc <init_xlat_tables+0x54>

000000004300372c <enable_mmu_el3>:
    4300372c:	d2809fe1 	mov	x1, #0x4ff                 	// #1279
    43003730:	f2a00881 	movk	x1, #0x44, lsl #16
    43003734:	d51ea201 	msr	mair_el3, x1
    43003738:	d50e871f 	tlbi	alle3
    4300373c:	d2800401 	mov	x1, #0x20                  	// #32
    43003740:	f27f001f 	tst	x0, #0x2
    43003744:	d286a402 	mov	x2, #0x3520                	// #13600
    43003748:	9a821022 	csel	x2, x1, x2, ne  // ne = any
    4300374c:	b0000041 	adrp	x1, 4300c000 <__STACKS_START__+0xf00>
    43003750:	f9437421 	ldr	x1, [x1, #1768]
    43003754:	aa014041 	orr	x1, x2, x1, lsl #16
    43003758:	d2b01002 	mov	x2, #0x80800000            	// #2155872256
    4300375c:	aa020021 	orr	x1, x1, x2
    43003760:	d51e2041 	msr	tcr_el3, x1
    43003764:	b0000041 	adrp	x1, 4300c000 <__STACKS_START__+0xf00>
    43003768:	91060021 	add	x1, x1, #0x180
    4300376c:	d51e2001 	msr	ttbr0_el3, x1
    43003770:	d5033b9f 	dsb	ish
    43003774:	d5033fdf 	isb
    43003778:	d53e1003 	mrs	x3, sctlr_el3
    4300377c:	52800021 	mov	w1, #0x1                   	// #1
    43003780:	121d7862 	and	w2, w3, #0xfffffffb
    43003784:	72a00101 	movk	w1, #0x8, lsl #16
    43003788:	2a010042 	orr	w2, w2, w1
    4300378c:	11001021 	add	w1, w1, #0x4
    43003790:	f240001f 	tst	x0, #0x1
    43003794:	2a030021 	orr	w1, w1, w3
    43003798:	1a820020 	csel	w0, w1, w2, eq  // eq = none
    4300379c:	d51e1000 	msr	sctlr_el3, x0
    430037a0:	d5033fdf 	isb
    430037a4:	d65f03c0 	ret

00000000430037a8 <enable_mmu_direct_el3>:
    430037a8:	17ffffe1 	b	4300372c <enable_mmu_el3>

00000000430037ac <init_xlation_table_inner>:
    430037ac:	a9ba7bfd 	stp	x29, x30, [sp, #-96]!
    430037b0:	910003fd 	mov	x29, sp
    430037b4:	a90153f3 	stp	x19, x20, [sp, #16]
    430037b8:	aa0203f4 	mov	x20, x2
    430037bc:	0b030c62 	add	w2, w3, w3, lsl #3
    430037c0:	a9025bf5 	stp	x21, x22, [sp, #32]
    430037c4:	2a0303f5 	mov	w21, w3
    430037c8:	71000ebf 	cmp	w21, #0x3
    430037cc:	a90363f7 	stp	x23, x24, [sp, #48]
    430037d0:	528004f8 	mov	w24, #0x27                  	// #39
    430037d4:	4b020302 	sub	w2, w24, w2
    430037d8:	d2800023 	mov	x3, #0x1                   	// #1
    430037dc:	d2803ff8 	mov	x24, #0x1ff                 	// #511
    430037e0:	b0000057 	adrp	x23, 4300c000 <__STACKS_START__+0xf00>
    430037e4:	912c02f7 	add	x23, x23, #0xb00
    430037e8:	a9046bf9 	stp	x25, x26, [sp, #64]
    430037ec:	d2800079 	mov	x25, #0x3                   	// #3
    430037f0:	d000005a 	adrp	x26, 4300d000 <xlat_tables>
    430037f4:	9a830339 	csel	x25, x25, x3, eq  // eq = none
    430037f8:	9100035a 	add	x26, x26, #0x0
    430037fc:	9ac22318 	lsl	x24, x24, x2
    43003800:	a90573fb 	stp	x27, x28, [sp, #80]
    43003804:	9ac2207c 	lsl	x28, x3, x2
    43003808:	a940cc02 	ldp	x2, x19, [x0, #8]
    4300380c:	b4000293 	cbz	x19, 4300385c <init_xlation_table_inner+0xb0>
    43003810:	8b020273 	add	x19, x19, x2
    43003814:	d1000673 	sub	x19, x19, #0x1
    43003818:	eb01027f 	cmp	x19, x1
    4300381c:	540001e2 	b.cs	43003858 <init_xlation_table_inner+0xac>  // b.hs, b.nlast
    43003820:	91008000 	add	x0, x0, #0x20
    43003824:	ea18003f 	tst	x1, x24
    43003828:	540000a0 	b.eq	4300383c <init_xlation_table_inner+0x90>  // b.none
    4300382c:	d1000423 	sub	x3, x1, #0x1
    43003830:	b27f7be2 	mov	x2, #0xfffffffe            	// #4294967294
    43003834:	eb02007f 	cmp	x3, x2
    43003838:	54fffe89 	b.ls	43003808 <init_xlation_table_inner+0x5c>  // b.plast
    4300383c:	a94153f3 	ldp	x19, x20, [sp, #16]
    43003840:	a9425bf5 	ldp	x21, x22, [sp, #32]
    43003844:	a94363f7 	ldp	x23, x24, [sp, #48]
    43003848:	a9446bf9 	ldp	x25, x26, [sp, #64]
    4300384c:	a94573fb 	ldp	x27, x28, [sp, #80]
    43003850:	a8c67bfd 	ldp	x29, x30, [sp], #96
    43003854:	d65f03c0 	ret
    43003858:	92800013 	mov	x19, #0xffffffffffffffff    	// #-1
    4300385c:	8b1c003b 	add	x27, x1, x28
    43003860:	d1000766 	sub	x6, x27, #0x1
    43003864:	eb0200df 	cmp	x6, x2
    43003868:	54000903 	b.cc	43003988 <init_xlation_table_inner+0x1dc>  // b.lo, b.ul, b.last
    4300386c:	340005d5 	cbz	w21, 43003924 <init_xlation_table_inner+0x178>
    43003870:	aa0003e4 	mov	x4, x0
    43003874:	12800005 	mov	w5, #0xffffffff            	// #-1
    43003878:	f9400883 	ldr	x3, [x4, #16]
    4300387c:	b4000283 	cbz	x3, 430038cc <init_xlation_table_inner+0x120>
    43003880:	f9400487 	ldr	x7, [x4, #8]
    43003884:	eb0700df 	cmp	x6, x7
    43003888:	54000223 	b.cc	430038cc <init_xlation_table_inner+0x120>  // b.lo, b.ul, b.last
    4300388c:	8b070063 	add	x3, x3, x7
    43003890:	d1000463 	sub	x3, x3, #0x1
    43003894:	eb03003f 	cmp	x1, x3
    43003898:	54000168 	b.hi	430038c4 <init_xlation_table_inner+0x118>  // b.pmore
    4300389c:	35000085 	cbnz	w5, 430038ac <init_xlation_table_inner+0x100>
    430038a0:	b9401888 	ldr	w8, [x4, #24]
    430038a4:	6b16011f 	cmp	w8, w22
    430038a8:	540000e0 	b.eq	430038c4 <init_xlation_table_inner+0x118>  // b.none
    430038ac:	eb07003f 	cmp	x1, x7
    430038b0:	540003a3 	b.cc	43003924 <init_xlation_table_inner+0x178>  // b.lo, b.ul, b.last
    430038b4:	eb0300df 	cmp	x6, x3
    430038b8:	54000368 	b.hi	43003924 <init_xlation_table_inner+0x178>  // b.pmore
    430038bc:	b9401896 	ldr	w22, [x4, #24]
    430038c0:	52800005 	mov	w5, #0x0                   	// #0
    430038c4:	91008084 	add	x4, x4, #0x20
    430038c8:	17ffffec 	b	43003878 <init_xlation_table_inner+0xcc>
    430038cc:	350002c5 	cbnz	w5, 43003924 <init_xlation_table_inner+0x178>
    430038d0:	f9400013 	ldr	x19, [x0]
    430038d4:	b0000044 	adrp	x4, 4300c000 <__STACKS_START__+0xf00>
    430038d8:	f27d02df 	tst	x22, #0x8
    430038dc:	8b130033 	add	x19, x1, x19
    430038e0:	cb020273 	sub	x19, x19, x2
    430038e4:	aa190262 	orr	x2, x19, x25
    430038e8:	d37f7ed3 	ubfiz	x19, x22, #1, #32
    430038ec:	f9437884 	ldr	x4, [x4, #1776]
    430038f0:	927b0273 	and	x19, x19, #0x20
    430038f4:	b2760263 	orr	x3, x19, #0x400
    430038f8:	9a9f17f3 	cset	x19, eq  // eq = none
    430038fc:	aa131c93 	orr	x19, x4, x19, lsl #7
    43003900:	aa020273 	orr	x19, x19, x2
    43003904:	aa030273 	orr	x19, x19, x3
    43003908:	72000ac3 	ands	w3, w22, #0x7
    4300390c:	54000261 	b.ne	43003958 <init_xlation_table_inner+0x1ac>  // b.any
    43003910:	b0000042 	adrp	x2, 4300c000 <__STACKS_START__+0xf00>
    43003914:	f9437c42 	ldr	x2, [x2, #1784]
    43003918:	aa020273 	orr	x19, x19, x2
    4300391c:	d2804082 	mov	x2, #0x204                 	// #516
    43003920:	aa020273 	orr	x19, x19, x2
    43003924:	b100067f 	cmn	x19, #0x1
    43003928:	54000121 	b.ne	4300394c <init_xlation_table_inner+0x1a0>  // b.any
    4300392c:	b94002e3 	ldr	w3, [x23]
    43003930:	d3747c62 	ubfiz	x2, x3, #12, #32
    43003934:	11000463 	add	w3, w3, #0x1
    43003938:	8b1a0042 	add	x2, x2, x26
    4300393c:	b90002e3 	str	w3, [x23]
    43003940:	b2400453 	orr	x19, x2, #0x3
    43003944:	110006a3 	add	w3, w21, #0x1
    43003948:	97ffff99 	bl	430037ac <init_xlation_table_inner>
    4300394c:	aa1b03e1 	mov	x1, x27
    43003950:	f8008693 	str	x19, [x20], #8
    43003954:	17ffffb4 	b	43003824 <init_xlation_table_inner+0x78>
    43003958:	52800502 	mov	w2, #0x28                  	// #40
    4300395c:	6a0202df 	tst	w22, w2
    43003960:	54000080 	b.eq	43003970 <init_xlation_table_inner+0x1c4>  // b.none
    43003964:	b0000042 	adrp	x2, 4300c000 <__STACKS_START__+0xf00>
    43003968:	f9437c42 	ldr	x2, [x2, #1784]
    4300396c:	aa020273 	orr	x19, x19, x2
    43003970:	b2780662 	orr	x2, x19, #0x300
    43003974:	7100087f 	cmp	w3, #0x2
    43003978:	d2804104 	mov	x4, #0x208                 	// #520
    4300397c:	aa040273 	orr	x19, x19, x4
    43003980:	9a821273 	csel	x19, x19, x2, ne  // ne = any
    43003984:	17ffffe8 	b	43003924 <init_xlation_table_inner+0x178>
    43003988:	d2800013 	mov	x19, #0x0                   	// #0
    4300398c:	17fffff0 	b	4300394c <init_xlation_table_inner+0x1a0>

0000000043003990 <print_mmap>:
    43003990:	d65f03c0 	ret

0000000043003994 <mmap_add_region>:
    43003994:	b4000722 	cbz	x2, 43003a78 <mmap_add_region+0xe4>
    43003998:	a9bc7bfd 	stp	x29, x30, [sp, #-64]!
    4300399c:	910003fd 	mov	x29, sp
    430039a0:	a90153f3 	stp	x19, x20, [sp, #16]
    430039a4:	aa0103f3 	mov	x19, x1
    430039a8:	b0000041 	adrp	x1, 4300c000 <__STACKS_START__+0xf00>
    430039ac:	911c0021 	add	x1, x1, #0x700
    430039b0:	a9025bf5 	stp	x21, x22, [sp, #32]
    430039b4:	aa0203f5 	mov	x21, x2
    430039b8:	aa0103e2 	mov	x2, x1
    430039bc:	a90363f7 	stp	x23, x24, [sp, #48]
    430039c0:	aa0003f7 	mov	x23, x0
    430039c4:	2a0303f8 	mov	w24, w3
    430039c8:	f9400420 	ldr	x0, [x1, #8]
    430039cc:	aa0103e4 	mov	x4, x1
    430039d0:	91008021 	add	x1, x1, #0x20
    430039d4:	eb13001f 	cmp	x0, x19
    430039d8:	540003e2 	b.cs	43003a54 <mmap_add_region+0xc0>  // b.hs, b.nlast
    430039dc:	f85f0020 	ldur	x0, [x1, #-16]
    430039e0:	b5ffff40 	cbnz	x0, 430039c8 <mmap_add_region+0x34>
    430039e4:	aa0403f4 	mov	x20, x4
    430039e8:	91080042 	add	x2, x2, #0x200
    430039ec:	aa1403e1 	mov	x1, x20
    430039f0:	cb140042 	sub	x2, x2, x20
    430039f4:	91008280 	add	x0, x20, #0x20
    430039f8:	94000dd0 	bl	43007138 <memmove>
    430039fc:	d10006b6 	sub	x22, x21, #0x1
    43003a00:	b0000040 	adrp	x0, 4300c000 <__STACKS_START__+0xf00>
    43003a04:	8b1702d6 	add	x22, x22, x23
    43003a08:	a9004e97 	stp	x23, x19, [x20]
    43003a0c:	f9449001 	ldr	x1, [x0, #2336]
    43003a10:	f9000a95 	str	x21, [x20, #16]
    43003a14:	b9001a98 	str	w24, [x20, #24]
    43003a18:	eb16003f 	cmp	x1, x22
    43003a1c:	54000042 	b.cs	43003a24 <mmap_add_region+0x90>  // b.hs, b.nlast
    43003a20:	f9049016 	str	x22, [x0, #2336]
    43003a24:	b0000040 	adrp	x0, 4300c000 <__STACKS_START__+0xf00>
    43003a28:	d1000673 	sub	x19, x19, #0x1
    43003a2c:	8b150273 	add	x19, x19, x21
    43003a30:	f9449401 	ldr	x1, [x0, #2344]
    43003a34:	eb13003f 	cmp	x1, x19
    43003a38:	54000042 	b.cs	43003a40 <mmap_add_region+0xac>  // b.hs, b.nlast
    43003a3c:	f9049413 	str	x19, [x0, #2344]
    43003a40:	a94153f3 	ldp	x19, x20, [sp, #16]
    43003a44:	a9425bf5 	ldp	x21, x22, [sp, #32]
    43003a48:	a94363f7 	ldp	x23, x24, [sp, #48]
    43003a4c:	a8c47bfd 	ldp	x29, x30, [sp], #64
    43003a50:	d65f03c0 	ret
    43003a54:	f9400480 	ldr	x0, [x4, #8]
    43003a58:	aa0403f4 	mov	x20, x4
    43003a5c:	91008084 	add	x4, x4, #0x20
    43003a60:	eb13001f 	cmp	x0, x19
    43003a64:	54fffc21 	b.ne	430039e8 <mmap_add_region+0x54>  // b.any
    43003a68:	f85f0080 	ldur	x0, [x4, #-16]
    43003a6c:	eb15001f 	cmp	x0, x21
    43003a70:	54ffff28 	b.hi	43003a54 <mmap_add_region+0xc0>  // b.pmore
    43003a74:	17ffffdd 	b	430039e8 <mmap_add_region+0x54>
    43003a78:	d65f03c0 	ret

0000000043003a7c <mmap_add>:
    43003a7c:	a9be7bfd 	stp	x29, x30, [sp, #-32]!
    43003a80:	910003fd 	mov	x29, sp
    43003a84:	f9000bf3 	str	x19, [sp, #16]
    43003a88:	aa0003f3 	mov	x19, x0
    43003a8c:	f9400a62 	ldr	x2, [x19, #16]
    43003a90:	b9401a63 	ldr	w3, [x19, #24]
    43003a94:	b50000a2 	cbnz	x2, 43003aa8 <mmap_add+0x2c>
    43003a98:	35000083 	cbnz	w3, 43003aa8 <mmap_add+0x2c>
    43003a9c:	f9400bf3 	ldr	x19, [sp, #16]
    43003aa0:	a8c27bfd 	ldp	x29, x30, [sp], #32
    43003aa4:	d65f03c0 	ret
    43003aa8:	f9400661 	ldr	x1, [x19, #8]
    43003aac:	f8420660 	ldr	x0, [x19], #32
    43003ab0:	97ffffb9 	bl	43003994 <mmap_add_region>
    43003ab4:	17fffff6 	b	43003a8c <mmap_add+0x10>

0000000043003ab8 <init_xlation_table>:
    43003ab8:	a9bc7bfd 	stp	x29, x30, [sp, #-64]!
    43003abc:	910003fd 	mov	x29, sp
    43003ac0:	a90153f3 	stp	x19, x20, [sp, #16]
    43003ac4:	aa0403f3 	mov	x19, x4
    43003ac8:	aa0303f4 	mov	x20, x3
    43003acc:	a9025bf5 	stp	x21, x22, [sp, #32]
    43003ad0:	aa0103f6 	mov	x22, x1
    43003ad4:	aa0003f5 	mov	x21, x0
    43003ad8:	a90363f7 	stp	x23, x24, [sp, #48]
    43003adc:	2a0203f7 	mov	w23, w2
    43003ae0:	97fffeea 	bl	43003688 <xlat_arch_current_el>
    43003ae4:	2a0003f8 	mov	w24, w0
    43003ae8:	97fffeeb 	bl	43003694 <xlat_arch_get_xn_desc>
    43003aec:	b0000041 	adrp	x1, 4300c000 <__STACKS_START__+0xf00>
    43003af0:	71000f1f 	cmp	w24, #0x3
    43003af4:	2a1703e3 	mov	w3, w23
    43003af8:	aa1603e2 	mov	x2, x22
    43003afc:	f9037c20 	str	x0, [x1, #1784]
    43003b00:	9a9f17e0 	cset	x0, eq  // eq = none
    43003b04:	b0000041 	adrp	x1, 4300c000 <__STACKS_START__+0xf00>
    43003b08:	d37ae400 	lsl	x0, x0, #6
    43003b0c:	f9037820 	str	x0, [x1, #1776]
    43003b10:	aa1503e1 	mov	x1, x21
    43003b14:	b0000040 	adrp	x0, 4300c000 <__STACKS_START__+0xf00>
    43003b18:	911c0000 	add	x0, x0, #0x700
    43003b1c:	97ffff24 	bl	430037ac <init_xlation_table_inner>
    43003b20:	b0000040 	adrp	x0, 4300c000 <__STACKS_START__+0xf00>
    43003b24:	a9425bf5 	ldp	x21, x22, [sp, #32]
    43003b28:	f9449400 	ldr	x0, [x0, #2344]
    43003b2c:	a94363f7 	ldp	x23, x24, [sp, #48]
    43003b30:	f9000280 	str	x0, [x20]
    43003b34:	b0000040 	adrp	x0, 4300c000 <__STACKS_START__+0xf00>
    43003b38:	f9449000 	ldr	x0, [x0, #2336]
    43003b3c:	f9000260 	str	x0, [x19]
    43003b40:	a94153f3 	ldp	x19, x20, [sp, #16]
    43003b44:	a8c47bfd 	ldp	x29, x30, [sp], #64
    43003b48:	d65f03c0 	ret

0000000043003b4c <plat_arm_gic_init>:
    43003b4c:	a9bf7bfd 	stp	x29, x30, [sp, #-16]!
    43003b50:	910003fd 	mov	x29, sp
    43003b54:	97fff769 	bl	430018f8 <gicv2_distif_init>
    43003b58:	97fff756 	bl	430018b0 <gicv2_pcpu_distif_init>
    43003b5c:	94000b01 	bl	43006760 <plat_my_core_pos>
    43003b60:	97fff791 	bl	430019a4 <gicv2_set_pe_target_mask>
    43003b64:	a8c17bfd 	ldp	x29, x30, [sp], #16
    43003b68:	17fff742 	b	43001870 <gicv2_cpuif_enable>

0000000043003b6c <plat_ic_get_pending_interrupt_type>:
    43003b6c:	a9bf7bfd 	stp	x29, x30, [sp, #-16]!
    43003b70:	910003fd 	mov	x29, sp
    43003b74:	97fff786 	bl	4300198c <gicv2_get_pending_interrupt_type>
    43003b78:	710ff41f 	cmp	w0, #0x3fd
    43003b7c:	540000c9 	b.ls	43003b94 <plat_ic_get_pending_interrupt_type+0x28>  // b.plast
    43003b80:	710ffc1f 	cmp	w0, #0x3ff
    43003b84:	1a9f17e0 	cset	w0, eq  // eq = none
    43003b88:	11000800 	add	w0, w0, #0x2
    43003b8c:	a8c17bfd 	ldp	x29, x30, [sp], #16
    43003b90:	d65f03c0 	ret
    43003b94:	52800000 	mov	w0, #0x0                   	// #0
    43003b98:	17fffffd 	b	43003b8c <plat_ic_get_pending_interrupt_type+0x20>

0000000043003b9c <mtk_efuse_get_len>:
    43003b9c:	b4000341 	cbz	x1, 43003c04 <mtk_efuse_get_len+0x68>
    43003ba0:	2a0003e2 	mov	w2, w0
    43003ba4:	7100601f 	cmp	w0, #0x18
    43003ba8:	54000328 	b.hi	43003c0c <mtk_efuse_get_len+0x70>  // b.pmore
    43003bac:	2a0003e3 	mov	w3, w0
    43003bb0:	b0000040 	adrp	x0, 4300c000 <__STACKS_START__+0xf00>
    43003bb4:	912c1000 	add	x0, x0, #0xb04
    43003bb8:	d2800184 	mov	x4, #0xc                   	// #12
    43003bbc:	9b040063 	madd	x3, x3, x4, x0
    43003bc0:	39402060 	ldrb	w0, [x3, #8]
    43003bc4:	35000160 	cbnz	w0, 43003bf0 <mtk_efuse_get_len+0x54>
    43003bc8:	a9bf7bfd 	stp	x29, x30, [sp, #-16]!
    43003bcc:	d0000021 	adrp	x1, 43009000 <suspend_binary_ca7+0x2e0>
    43003bd0:	d0000020 	adrp	x0, 43009000 <suspend_binary_ca7+0x2e0>
    43003bd4:	910003fd 	mov	x29, sp
    43003bd8:	91322021 	add	x1, x1, #0xc88
    43003bdc:	912fd400 	add	x0, x0, #0xbf5
    43003be0:	940007dd 	bl	43005b54 <tf_log>
    43003be4:	52800060 	mov	w0, #0x3                   	// #3
    43003be8:	a8c17bfd 	ldp	x29, x30, [sp], #16
    43003bec:	d65f03c0 	ret
    43003bf0:	b9400460 	ldr	w0, [x3, #4]
    43003bf4:	b9000020 	str	w0, [x1]
    43003bf8:	34fffe80 	cbz	w0, 43003bc8 <mtk_efuse_get_len+0x2c>
    43003bfc:	52800000 	mov	w0, #0x0                   	// #0
    43003c00:	d65f03c0 	ret
    43003c04:	52800020 	mov	w0, #0x1                   	// #1
    43003c08:	d65f03c0 	ret
    43003c0c:	52800040 	mov	w0, #0x2                   	// #2
    43003c10:	d65f03c0 	ret

0000000043003c14 <mtk_efuse_send_data>:
    43003c14:	f100001f 	cmp	x0, #0x0
    43003c18:	fa401824 	ccmp	x1, #0x0, #0x4, ne  // ne = any
    43003c1c:	540001c0 	b.eq	43003c54 <mtk_efuse_send_data+0x40>  // b.none
    43003c20:	7100605f 	cmp	w2, #0x18
    43003c24:	7a489862 	ccmp	w3, #0x8, #0x2, ls  // ls = plast
    43003c28:	54000168 	b.hi	43003c54 <mtk_efuse_send_data+0x40>  // b.pmore
    43003c2c:	8b224002 	add	x2, x0, w2, uxtw
    43003c30:	d2800004 	mov	x4, #0x0                   	// #0
    43003c34:	6b04007f 	cmp	w3, w4
    43003c38:	54000068 	b.hi	43003c44 <mtk_efuse_send_data+0x30>  // b.pmore
    43003c3c:	52800000 	mov	w0, #0x0                   	// #0
    43003c40:	d65f03c0 	ret
    43003c44:	38646820 	ldrb	w0, [x1, x4]
    43003c48:	38246840 	strb	w0, [x2, x4]
    43003c4c:	91000484 	add	x4, x4, #0x1
    43003c50:	17fffff9 	b	43003c34 <mtk_efuse_send_data+0x20>
    43003c54:	52800020 	mov	w0, #0x1                   	// #1
    43003c58:	17fffffa 	b	43003c40 <mtk_efuse_send_data+0x2c>

0000000043003c5c <mtk_efuse_get_data>:
    43003c5c:	f100003f 	cmp	x1, #0x0
    43003c60:	fa401804 	ccmp	x0, #0x0, #0x4, ne  // ne = any
    43003c64:	540001c0 	b.eq	43003c9c <mtk_efuse_get_data+0x40>  // b.none
    43003c68:	7100605f 	cmp	w2, #0x18
    43003c6c:	7a489862 	ccmp	w3, #0x8, #0x2, ls  // ls = plast
    43003c70:	54000168 	b.hi	43003c9c <mtk_efuse_get_data+0x40>  // b.pmore
    43003c74:	8b224022 	add	x2, x1, w2, uxtw
    43003c78:	d2800004 	mov	x4, #0x0                   	// #0
    43003c7c:	6b04007f 	cmp	w3, w4
    43003c80:	54000068 	b.hi	43003c8c <mtk_efuse_get_data+0x30>  // b.pmore
    43003c84:	52800000 	mov	w0, #0x0                   	// #0
    43003c88:	d65f03c0 	ret
    43003c8c:	38646841 	ldrb	w1, [x2, x4]
    43003c90:	38246801 	strb	w1, [x0, x4]
    43003c94:	91000484 	add	x4, x4, #0x1
    43003c98:	17fffff9 	b	43003c7c <mtk_efuse_get_data+0x20>
    43003c9c:	52800020 	mov	w0, #0x1                   	// #1
    43003ca0:	17fffffa 	b	43003c88 <mtk_efuse_get_data+0x2c>

0000000043003ca4 <mtk_efuse_read>:
    43003ca4:	a9bc7bfd 	stp	x29, x30, [sp, #-64]!
    43003ca8:	910003fd 	mov	x29, sp
    43003cac:	a90153f3 	stp	x19, x20, [sp, #16]
    43003cb0:	a9025bf5 	stp	x21, x22, [sp, #32]
    43003cb4:	b9003fff 	str	wzr, [sp, #60]
    43003cb8:	b4000521 	cbz	x1, 43003d5c <mtk_efuse_read+0xb8>
    43003cbc:	2a0003f5 	mov	w21, w0
    43003cc0:	aa0103f3 	mov	x19, x1
    43003cc4:	2a0203f6 	mov	w22, w2
    43003cc8:	9100f3e1 	add	x1, sp, #0x3c
    43003ccc:	97ffffb4 	bl	43003b9c <mtk_efuse_get_len>
    43003cd0:	2a0003f4 	mov	w20, w0
    43003cd4:	350003a0 	cbnz	w0, 43003d48 <mtk_efuse_read+0xa4>
    43003cd8:	b9403fe0 	ldr	w0, [sp, #60]
    43003cdc:	6b16001f 	cmp	w0, w22
    43003ce0:	54000428 	b.hi	43003d64 <mtk_efuse_read+0xc0>  // b.pmore
    43003ce4:	2a1603e2 	mov	w2, w22
    43003ce8:	aa1303e0 	mov	x0, x19
    43003cec:	52800001 	mov	w1, #0x0                   	// #0
    43003cf0:	94000d1f 	bl	4300716c <memset>
    43003cf4:	2a1503e0 	mov	w0, w21
    43003cf8:	d2800181 	mov	x1, #0xc                   	// #12
    43003cfc:	b0000043 	adrp	x3, 4300c000 <__STACKS_START__+0xf00>
    43003d00:	912c1063 	add	x3, x3, #0xb04
    43003d04:	b9403fe2 	ldr	w2, [sp, #60]
    43003d08:	9b017c00 	mul	x0, x0, x1
    43003d0c:	aa1303e1 	mov	x1, x19
    43003d10:	b8606860 	ldr	w0, [x3, x0]
    43003d14:	94000ba4 	bl	43006ba4 <efuse_read>
    43003d18:	2a0003f3 	mov	w19, w0
    43003d1c:	34000160 	cbz	w0, 43003d48 <mtk_efuse_read+0xa4>
    43003d20:	2a0003e3 	mov	w3, w0
    43003d24:	2a1503e2 	mov	w2, w21
    43003d28:	d0000021 	adrp	x1, 43009000 <suspend_binary_ca7+0x2e0>
    43003d2c:	d0000020 	adrp	x0, 43009000 <suspend_binary_ca7+0x2e0>
    43003d30:	9131e421 	add	x1, x1, #0xc79
    43003d34:	91306800 	add	x0, x0, #0xc1a
    43003d38:	94000787 	bl	43005b54 <tf_log>
    43003d3c:	7100027f 	cmp	w19, #0x0
    43003d40:	5a93a673 	cneg	w19, w19, lt  // lt = tstop
    43003d44:	11002a74 	add	w20, w19, #0xa
    43003d48:	2a1403e0 	mov	w0, w20
    43003d4c:	a94153f3 	ldp	x19, x20, [sp, #16]
    43003d50:	a9425bf5 	ldp	x21, x22, [sp, #32]
    43003d54:	a8c47bfd 	ldp	x29, x30, [sp], #64
    43003d58:	d65f03c0 	ret
    43003d5c:	52800034 	mov	w20, #0x1                   	// #1
    43003d60:	17fffffa 	b	43003d48 <mtk_efuse_read+0xa4>
    43003d64:	52800094 	mov	w20, #0x4                   	// #4
    43003d68:	17fffff8 	b	43003d48 <mtk_efuse_read+0xa4>

0000000043003d6c <mtk_efuse_write>:
    43003d6c:	a9bb7bfd 	stp	x29, x30, [sp, #-80]!
    43003d70:	910003fd 	mov	x29, sp
    43003d74:	a90153f3 	stp	x19, x20, [sp, #16]
    43003d78:	a9025bf5 	stp	x21, x22, [sp, #32]
    43003d7c:	f9001bf7 	str	x23, [sp, #48]
    43003d80:	b9004fff 	str	wzr, [sp, #76]
    43003d84:	b4000521 	cbz	x1, 43003e28 <mtk_efuse_write+0xbc>
    43003d88:	2a0003f6 	mov	w22, w0
    43003d8c:	aa0103f5 	mov	x21, x1
    43003d90:	2a0203f7 	mov	w23, w2
    43003d94:	910133e1 	add	x1, sp, #0x4c
    43003d98:	97ffff81 	bl	43003b9c <mtk_efuse_get_len>
    43003d9c:	2a0003f4 	mov	w20, w0
    43003da0:	35000380 	cbnz	w0, 43003e10 <mtk_efuse_write+0xa4>
    43003da4:	b9404fe2 	ldr	w2, [sp, #76]
    43003da8:	6b17005f 	cmp	w2, w23
    43003dac:	54000428 	b.hi	43003e30 <mtk_efuse_write+0xc4>  // b.pmore
    43003db0:	2a1603e0 	mov	w0, w22
    43003db4:	d2800181 	mov	x1, #0xc                   	// #12
    43003db8:	b0000043 	adrp	x3, 4300c000 <__STACKS_START__+0xf00>
    43003dbc:	912c1063 	add	x3, x3, #0xb04
    43003dc0:	9b017c00 	mul	x0, x0, x1
    43003dc4:	aa1503e1 	mov	x1, x21
    43003dc8:	b8606860 	ldr	w0, [x3, x0]
    43003dcc:	94000bb9 	bl	43006cb0 <efuse_write>
    43003dd0:	2a0003f3 	mov	w19, w0
    43003dd4:	2a1703e2 	mov	w2, w23
    43003dd8:	aa1503e0 	mov	x0, x21
    43003ddc:	52800001 	mov	w1, #0x0                   	// #0
    43003de0:	94000ce3 	bl	4300716c <memset>
    43003de4:	34000173 	cbz	w19, 43003e10 <mtk_efuse_write+0xa4>
    43003de8:	2a1303e3 	mov	w3, w19
    43003dec:	2a1603e2 	mov	w2, w22
    43003df0:	d0000021 	adrp	x1, 43009000 <suspend_binary_ca7+0x2e0>
    43003df4:	d0000020 	adrp	x0, 43009000 <suspend_binary_ca7+0x2e0>
    43003df8:	9131a421 	add	x1, x1, #0xc69
    43003dfc:	91310400 	add	x0, x0, #0xc41
    43003e00:	94000755 	bl	43005b54 <tf_log>
    43003e04:	7100027f 	cmp	w19, #0x0
    43003e08:	5a93a673 	cneg	w19, w19, lt  // lt = tstop
    43003e0c:	11002a74 	add	w20, w19, #0xa
    43003e10:	2a1403e0 	mov	w0, w20
    43003e14:	a94153f3 	ldp	x19, x20, [sp, #16]
    43003e18:	a9425bf5 	ldp	x21, x22, [sp, #32]
    43003e1c:	f9401bf7 	ldr	x23, [sp, #48]
    43003e20:	a8c57bfd 	ldp	x29, x30, [sp], #80
    43003e24:	d65f03c0 	ret
    43003e28:	52800034 	mov	w20, #0x1                   	// #1
    43003e2c:	17fffff9 	b	43003e10 <mtk_efuse_write+0xa4>
    43003e30:	52800094 	mov	w20, #0x4                   	// #4
    43003e34:	17fffff7 	b	43003e10 <mtk_efuse_write+0xa4>

0000000043003e38 <plat_get_spsr_for_bl33_entry>:
    43003e38:	52807920 	mov	w0, #0x3c9                 	// #969
    43003e3c:	d65f03c0 	ret

0000000043003e40 <plat_is_smccc_feature_available>:
    43003e40:	d2800041 	mov	x1, #0x2                   	// #2
    43003e44:	f2b00001 	movk	x1, #0x8000, lsl #16
    43003e48:	eb01001f 	cmp	x0, x1
    43003e4c:	5a9f03e0 	csetm	w0, ne  // ne = any
    43003e50:	d65f03c0 	ret

0000000043003e54 <plat_get_soc_version>:
    43003e54:	528ec440 	mov	w0, #0x7622                	// #30242
    43003e58:	72a084c0 	movk	w0, #0x426, lsl #16
    43003e5c:	d65f03c0 	ret

0000000043003e60 <plat_get_soc_revision>:
    43003e60:	52800000 	mov	w0, #0x0                   	// #0
    43003e64:	d65f03c0 	ret

0000000043003e68 <mediatek_sip_handler>:
    43003e68:	a9be7bfd 	stp	x29, x30, [sp, #-32]!
    43003e6c:	aa0103e8 	mov	x8, x1
    43003e70:	910003fd 	mov	x29, sp
    43003e74:	f9000bf3 	str	x19, [sp, #16]
    43003e78:	aa0603f3 	mov	x19, x6
    43003e7c:	37f000a0 	tbnz	w0, #30, 43003e90 <mediatek_sip_handler+0x28>
    43003e80:	92407c28 	and	x8, x1, #0xffffffff
    43003e84:	92407c42 	and	x2, x2, #0xffffffff
    43003e88:	92407c63 	and	x3, x3, #0xffffffff
    43003e8c:	92407c84 	and	x4, x4, #0xffffffff
    43003e90:	360000a7 	tbz	w7, #0, 43003ea4 <mediatek_sip_handler+0x3c>
    43003e94:	52800021 	mov	w1, #0x1                   	// #1
    43003e98:	72b04001 	movk	w1, #0x8200, lsl #16
    43003e9c:	6b01001f 	cmp	w0, w1
    43003ea0:	540000c0 	b.eq	43003eb8 <mediatek_sip_handler+0x50>  // b.none
    43003ea4:	aa1303e6 	mov	x6, x19
    43003ea8:	aa0803e1 	mov	x1, x8
    43003eac:	f9400bf3 	ldr	x19, [sp, #16]
    43003eb0:	a8c27bfd 	ldp	x29, x30, [sp], #32
    43003eb4:	14000608 	b	430056d4 <mediatek_plat_sip_handler>
    43003eb8:	2a0203e1 	mov	w1, w2
    43003ebc:	2a0803e0 	mov	w0, w8
    43003ec0:	940005fa 	bl	430056a8 <mt_sip_set_authorized_sreg>
    43003ec4:	f9000260 	str	x0, [x19]
    43003ec8:	aa1303e0 	mov	x0, x19
    43003ecc:	f9400bf3 	ldr	x19, [sp, #16]
    43003ed0:	a8c27bfd 	ldp	x29, x30, [sp], #32
    43003ed4:	d65f03c0 	ret

0000000043003ed8 <sip_smc_handler>:
    43003ed8:	529fe02a 	mov	w10, #0xff01                	// #65281
    43003edc:	aa0603e8 	mov	x8, x6
    43003ee0:	72b0400a 	movk	w10, #0x8200, lsl #16
    43003ee4:	6b0a001f 	cmp	w0, w10
    43003ee8:	54000160 	b.eq	43003f14 <sip_smc_handler+0x3c>  // b.none
    43003eec:	1100094a 	add	w10, w10, #0x2
    43003ef0:	6b0a001f 	cmp	w0, w10
    43003ef4:	54000280 	b.eq	43003f44 <sip_smc_handler+0x6c>  // b.none
    43003ef8:	51000d4a 	sub	w10, w10, #0x3
    43003efc:	6b0a001f 	cmp	w0, w10
    43003f00:	54000281 	b.ne	43003f50 <sip_smc_handler+0x78>  // b.any
    43003f04:	d28001c0 	mov	x0, #0xe                   	// #14
    43003f08:	f9000100 	str	x0, [x8]
    43003f0c:	aa0803e0 	mov	x0, x8
    43003f10:	d65f03c0 	ret
    43003f14:	d28000a0 	mov	x0, #0x5                   	// #5
    43003f18:	f2a7a1e0 	movk	x0, #0x3d0f, lsl #16
    43003f1c:	f9000cc0 	str	x0, [x6, #24]
    43003f20:	d29cb000 	mov	x0, #0xe580                	// #58752
    43003f24:	f2b2b1e0 	movk	x0, #0x958f, lsl #16
    43003f28:	f90008c0 	str	x0, [x6, #16]
    43003f2c:	d2884c40 	mov	x0, #0x4262                	// #16994
    43003f30:	f2a9afa0 	movk	x0, #0x4d7d, lsl #16
    43003f34:	f90004c0 	str	x0, [x6, #8]
    43003f38:	d2857480 	mov	x0, #0x2ba4                	// #11172
    43003f3c:	f2beeb00 	movk	x0, #0xf758, lsl #16
    43003f40:	17fffff2 	b	43003f08 <sip_smc_handler+0x30>
    43003f44:	d2800020 	mov	x0, #0x1                   	// #1
    43003f48:	a90000df 	stp	xzr, x0, [x6]
    43003f4c:	17fffff0 	b	43003f0c <sip_smc_handler+0x34>
    43003f50:	17ffffc6 	b	43003e68 <mediatek_sip_handler>

0000000043003f54 <plat_configure_mmu_el3>:
    43003f54:	a9bd7bfd 	stp	x29, x30, [sp, #-48]!
    43003f58:	910003fd 	mov	x29, sp
    43003f5c:	a90153f3 	stp	x19, x20, [sp, #16]
    43003f60:	aa0403f3 	mov	x19, x4
    43003f64:	aa0203f4 	mov	x20, x2
    43003f68:	aa0103e2 	mov	x2, x1
    43003f6c:	aa0003e1 	mov	x1, x0
    43003f70:	a9025bf5 	stp	x21, x22, [sp, #32]
    43003f74:	aa0503f5 	mov	x21, x5
    43003f78:	aa0303f6 	mov	x22, x3
    43003f7c:	52800143 	mov	w3, #0xa                   	// #10
    43003f80:	97fffe85 	bl	43003994 <mmap_add_region>
    43003f84:	cb1402c2 	sub	x2, x22, x20
    43003f88:	aa1403e1 	mov	x1, x20
    43003f8c:	aa1403e0 	mov	x0, x20
    43003f90:	52800043 	mov	w3, #0x2                   	// #2
    43003f94:	97fffe80 	bl	43003994 <mmap_add_region>
    43003f98:	cb1302a2 	sub	x2, x21, x19
    43003f9c:	aa1303e1 	mov	x1, x19
    43003fa0:	52800103 	mov	w3, #0x8                   	// #8
    43003fa4:	aa1303e0 	mov	x0, x19
    43003fa8:	97fffe7b 	bl	43003994 <mmap_add_region>
    43003fac:	90000020 	adrp	x0, 43007000 <efuse_write+0x350>
    43003fb0:	911c2000 	add	x0, x0, #0x708
    43003fb4:	97fffeb2 	bl	43003a7c <mmap_add>
    43003fb8:	97fffdbc 	bl	430036a8 <init_xlat_tables>
    43003fbc:	a94153f3 	ldp	x19, x20, [sp, #16]
    43003fc0:	52800000 	mov	w0, #0x0                   	// #0
    43003fc4:	a9425bf5 	ldp	x21, x22, [sp, #32]
    43003fc8:	a8c37bfd 	ldp	x29, x30, [sp], #48
    43003fcc:	17fffdd8 	b	4300372c <enable_mmu_el3>

0000000043003fd0 <plat_get_syscnt_freq2>:
    43003fd0:	d53be000 	mrs	x0, cntfrq_el0
    43003fd4:	d65f03c0 	ret

0000000043003fd8 <plat_cci_init>:
    43003fd8:	a9bf7bfd 	stp	x29, x30, [sp, #-16]!
    43003fdc:	52800042 	mov	w2, #0x2                   	// #2
    43003fe0:	d2a20720 	mov	x0, #0x10390000            	// #272171008
    43003fe4:	910003fd 	mov	x29, sp
    43003fe8:	90000021 	adrp	x1, 43007000 <efuse_write+0x350>
    43003fec:	9135b021 	add	x1, x1, #0xd6c
    43003ff0:	97fff52b 	bl	4300149c <cci_init>
    43003ff4:	d2800100 	mov	x0, #0x8                   	// #8
    43003ff8:	52800021 	mov	w1, #0x1                   	// #1
    43003ffc:	f2a20720 	movk	x0, #0x1039, lsl #16
    43004000:	b9000001 	str	w1, [x0]
    43004004:	a8c17bfd 	ldp	x29, x30, [sp], #16
    43004008:	d65f03c0 	ret

000000004300400c <plat_cci_enable>:
    4300400c:	d53800a0 	mrs	x0, mpidr_el1
    43004010:	53083c00 	ubfx	w0, w0, #8, #8
    43004014:	17fff527 	b	430014b0 <cci_enable_snoop_dvm_reqs>

0000000043004018 <plat_cci_disable>:
    43004018:	d53800a0 	mrs	x0, mpidr_el1
    4300401c:	53083c00 	ubfx	w0, w0, #8, #8
    43004020:	17fff533 	b	430014ec <cci_disable_snoop_dvm_reqs>

0000000043004024 <bl31_plat_get_next_image_ep_info>:
    43004024:	7100041f 	cmp	w0, #0x1
    43004028:	90000041 	adrp	x1, 4300c000 <__STACKS_START__+0xf00>
    4300402c:	90000042 	adrp	x2, 4300c000 <__STACKS_START__+0xf00>
    43004030:	91262020 	add	x0, x1, #0x988
    43004034:	9124c042 	add	x2, x2, #0x930
    43004038:	9a820000 	csel	x0, x0, x2, eq  // eq = none
    4300403c:	f9400401 	ldr	x1, [x0, #8]
    43004040:	f100003f 	cmp	x1, #0x0
    43004044:	9a9f1000 	csel	x0, x0, xzr, ne  // ne = any
    43004048:	d65f03c0 	ret

000000004300404c <bl31_early_platform_setup2>:
    4300404c:	a9be7bfd 	stp	x29, x30, [sp, #-32]!
    43004050:	52984002 	mov	w2, #0xc200                	// #49664
    43004054:	528f0801 	mov	w1, #0x7840                	// #30784
    43004058:	910003fd 	mov	x29, sp
    4300405c:	d2840000 	mov	x0, #0x2000                	// #8192
    43004060:	52800023 	mov	w3, #0x1                   	// #1
    43004064:	72a00022 	movk	w2, #0x1, lsl #16
    43004068:	72a02fa1 	movk	w1, #0x17d, lsl #16
    4300406c:	90000044 	adrp	x4, 4300c000 <__STACKS_START__+0xf00>
    43004070:	f2a22000 	movk	x0, #0x1100, lsl #16
    43004074:	91278084 	add	x4, x4, #0x9e0
    43004078:	f9000bf3 	str	x19, [sp, #16]
    4300407c:	940009a3 	bl	43006708 <console_hsuart_register>
    43004080:	90000042 	adrp	x2, 4300c000 <__STACKS_START__+0xf00>
    43004084:	9124c040 	add	x0, x2, #0x930
    43004088:	d2802021 	mov	x1, #0x101                 	// #257
    4300408c:	f2a00b01 	movk	x1, #0x58, lsl #16
    43004090:	f9049841 	str	x1, [x2, #2352]
    43004094:	d2a86042 	mov	x2, #0x43020000            	// #1124204544
    43004098:	f9000402 	str	x2, [x0, #8]
    4300409c:	b900101f 	str	wzr, [x0, #16]
    430040a0:	90000040 	adrp	x0, 4300c000 <__STACKS_START__+0xf00>
    430040a4:	91262013 	add	x19, x0, #0x988
    430040a8:	f904c401 	str	x1, [x0, #2440]
    430040ac:	d2a83c00 	mov	x0, #0x41e00000            	// #1105199104
    430040b0:	f9000660 	str	x0, [x19, #8]
    430040b4:	97ffff61 	bl	43003e38 <plat_get_spsr_for_bl33_entry>
    430040b8:	b9001260 	str	w0, [x19, #16]
    430040bc:	12800421 	mov	w1, #0xffffffde            	// #-34
    430040c0:	b9400660 	ldr	w0, [x19, #4]
    430040c4:	0a010000 	and	w0, w0, w1
    430040c8:	32000000 	orr	w0, w0, #0x1
    430040cc:	b9000660 	str	w0, [x19, #4]
    430040d0:	f9400bf3 	ldr	x19, [sp, #16]
    430040d4:	a8c27bfd 	ldp	x29, x30, [sp], #32
    430040d8:	d65f03c0 	ret

00000000430040dc <bl31_platform_setup>:
    430040dc:	d2800781 	mov	x1, #0x3c                  	// #60
    430040e0:	a9bf7bfd 	stp	x29, x30, [sp, #-16]!
    430040e4:	f2a20401 	movk	x1, #0x1020, lsl #16
    430040e8:	910003fd 	mov	x29, sp
    430040ec:	b9400020 	ldr	w0, [x1]
    430040f0:	32140c00 	orr	w0, w0, #0xf000
    430040f4:	b9000020 	str	w0, [x1]
    430040f8:	d0000060 	adrp	x0, 43012000 <RAM_REGION_END>
    430040fc:	d2810101 	mov	x1, #0x808                 	// #2056
    43004100:	91000000 	add	x0, x0, #0x0
    43004104:	f2a20001 	movk	x1, #0x1000, lsl #16
    43004108:	110ffc00 	add	w0, w0, #0x3ff
    4300410c:	12161c00 	and	w0, w0, #0x3fc00
    43004110:	b9000020 	str	w0, [x1]
    43004114:	d2810080 	mov	x0, #0x804                 	// #2052
    43004118:	111fc421 	add	w1, w1, #0x7f1
    4300411c:	f2a20000 	movk	x0, #0x1000, lsl #16
    43004120:	b9000001 	str	w1, [x0]
    43004124:	97fff664 	bl	43001ab4 <generic_delay_timer_init>
    43004128:	9400043b 	bl	43005214 <plat_mt_gic_driver_init>
    4300412c:	a8c17bfd 	ldp	x29, x30, [sp], #16
    43004130:	1400043c 	b	43005220 <plat_mt_gic_init>

0000000043004134 <bl31_plat_arch_setup>:
    43004134:	a9bf7bfd 	stp	x29, x30, [sp, #-16]!
    43004138:	910003fd 	mov	x29, sp
    4300413c:	97ffffa7 	bl	43003fd8 <plat_cci_init>
    43004140:	97ffffb3 	bl	4300400c <plat_cci_enable>
    43004144:	a8c17bfd 	ldp	x29, x30, [sp], #16
    43004148:	b0ffffe2 	adrp	x2, 43001000 <bl31_entrypoint>
    4300414c:	d0000065 	adrp	x5, 43012000 <RAM_REGION_END>
    43004150:	91000042 	add	x2, x2, #0x0
    43004154:	910000a5 	add	x5, x5, #0x0
    43004158:	aa0203e0 	mov	x0, x2
    4300415c:	cb0200a1 	sub	x1, x5, x2
    43004160:	b0000064 	adrp	x4, 43011000 <psci_locks>
    43004164:	f0000023 	adrp	x3, 4300b000 <__RO_END_UNALIGNED__>
    43004168:	91000084 	add	x4, x4, #0x0
    4300416c:	91000063 	add	x3, x3, #0x0
    43004170:	17ffff79 	b	43003f54 <plat_configure_mmu_el3>

0000000043004174 <wait_for_state_idle.constprop.0>:
    43004174:	a9bd7bfd 	stp	x29, x30, [sp, #-48]!
    43004178:	910003fd 	mov	x29, sp
    4300417c:	a90153f3 	stp	x19, x20, [sp, #16]
    43004180:	d2821494 	mov	x20, #0x10a4                	// #4260
    43004184:	b0000033 	adrp	x19, 43009000 <suspend_binary_ca7+0x2e0>
    43004188:	91333a73 	add	x19, x19, #0xcce
    4300418c:	a9025bf5 	stp	x21, x22, [sp, #32]
    43004190:	d2821515 	mov	x21, #0x10a8                	// #4264
    43004194:	f2a20014 	movk	x20, #0x1000, lsl #16
    43004198:	f2a20015 	movk	x21, #0x1000, lsl #16
    4300419c:	52800036 	mov	w22, #0x1                   	// #1
    430041a0:	b9400281 	ldr	w1, [x20]
    430041a4:	d3504821 	ubfx	x1, x1, #16, #3
    430041a8:	7100103f 	cmp	w1, #0x4
    430041ac:	540001a0 	b.eq	430041e0 <wait_for_state_idle.constprop.0+0x6c>  // b.none
    430041b0:	7100183f 	cmp	w1, #0x6
    430041b4:	540000c0 	b.eq	430041cc <wait_for_state_idle.constprop.0+0x58>  // b.none
    430041b8:	7100083f 	cmp	w1, #0x2
    430041bc:	54000161 	b.ne	430041e8 <wait_for_state_idle.constprop.0+0x74>  // b.any
    430041c0:	b0000020 	adrp	x0, 43009000 <suspend_binary_ca7+0x2e0>
    430041c4:	9133a800 	add	x0, x0, #0xcea
    430041c8:	14000004 	b	430041d8 <wait_for_state_idle.constprop.0+0x64>
    430041cc:	b0000020 	adrp	x0, 43009000 <suspend_binary_ca7+0x2e0>
    430041d0:	9132ac00 	add	x0, x0, #0xcab
    430041d4:	b90002b6 	str	w22, [x21]
    430041d8:	9400065f 	bl	43005b54 <tf_log>
    430041dc:	17fffff1 	b	430041a0 <wait_for_state_idle.constprop.0+0x2c>
    430041e0:	aa1303e0 	mov	x0, x19
    430041e4:	17fffffd 	b	430041d8 <wait_for_state_idle.constprop.0+0x64>
    430041e8:	35fffdc1 	cbnz	w1, 430041a0 <wait_for_state_idle.constprop.0+0x2c>
    430041ec:	52800000 	mov	w0, #0x0                   	// #0
    430041f0:	a94153f3 	ldp	x19, x20, [sp, #16]
    430041f4:	a9425bf5 	ldp	x21, x22, [sp, #32]
    430041f8:	a8c37bfd 	ldp	x29, x30, [sp], #48
    430041fc:	d65f03c0 	ret

0000000043004200 <pwrap_read>:
    43004200:	a9bd7bfd 	stp	x29, x30, [sp, #-48]!
    43004204:	910003fd 	mov	x29, sp
    43004208:	a90153f3 	stp	x19, x20, [sp, #16]
    4300420c:	aa0103f4 	mov	x20, x1
    43004210:	f90013f5 	str	x21, [sp, #32]
    43004214:	53103c15 	lsl	w21, w0, #16
    43004218:	b900003f 	str	wzr, [x1]
    4300421c:	97ffffd6 	bl	43004174 <wait_for_state_idle.constprop.0>
    43004220:	350003a0 	cbnz	w0, 43004294 <pwrap_read+0x94>
    43004224:	d2821400 	mov	x0, #0x10a0                	// #4256
    43004228:	d2821482 	mov	x2, #0x10a4                	// #4260
    4300422c:	f2a20000 	movk	x0, #0x1000, lsl #16
    43004230:	f2a20002 	movk	x2, #0x1000, lsl #16
    43004234:	b9000015 	str	w21, [x0]
    43004238:	b9400040 	ldr	w0, [x2]
    4300423c:	d3504801 	ubfx	x1, x0, #16, #3
    43004240:	7100183f 	cmp	w1, #0x6
    43004244:	54ffffa1 	b.ne	43004238 <pwrap_read+0x38>  // b.any
    43004248:	b9400281 	ldr	w1, [x20]
    4300424c:	0b202020 	add	w0, w1, w0, uxth
    43004250:	b9000280 	str	w0, [x20]
    43004254:	d2821500 	mov	x0, #0x10a8                	// #4264
    43004258:	52800021 	mov	w1, #0x1                   	// #1
    4300425c:	f2a20000 	movk	x0, #0x1000, lsl #16
    43004260:	b9000001 	str	w1, [x0]
    43004264:	97ffffc4 	bl	43004174 <wait_for_state_idle.constprop.0>
    43004268:	2a0003f3 	mov	w19, w0
    4300426c:	34000180 	cbz	w0, 4300429c <pwrap_read+0x9c>
    43004270:	b0000020 	adrp	x0, 43009000 <suspend_binary_ca7+0x2e0>
    43004274:	2a1303e1 	mov	w1, w19
    43004278:	91341000 	add	x0, x0, #0xd04
    4300427c:	94000636 	bl	43005b54 <tf_log>
    43004280:	2a1303e0 	mov	w0, w19
    43004284:	a94153f3 	ldp	x19, x20, [sp, #16]
    43004288:	f94013f5 	ldr	x21, [sp, #32]
    4300428c:	a8c37bfd 	ldp	x29, x30, [sp], #48
    43004290:	d65f03c0 	ret
    43004294:	2a0003f3 	mov	w19, w0
    43004298:	17fffff6 	b	43004270 <pwrap_read+0x70>
    4300429c:	d2821400 	mov	x0, #0x10a0                	// #4256
    430042a0:	d2821482 	mov	x2, #0x10a4                	// #4260
    430042a4:	f2a20000 	movk	x0, #0x1000, lsl #16
    430042a8:	320202b5 	orr	w21, w21, #0x40000000
    430042ac:	f2a20002 	movk	x2, #0x1000, lsl #16
    430042b0:	b9000015 	str	w21, [x0]
    430042b4:	b9400040 	ldr	w0, [x2]
    430042b8:	d3504801 	ubfx	x1, x0, #16, #3
    430042bc:	7100183f 	cmp	w1, #0x6
    430042c0:	54ffffa1 	b.ne	430042b4 <pwrap_read+0xb4>  // b.any
    430042c4:	b9400281 	ldr	w1, [x20]
    430042c8:	0b004020 	add	w0, w1, w0, lsl #16
    430042cc:	b9000280 	str	w0, [x20]
    430042d0:	d2821500 	mov	x0, #0x10a8                	// #4264
    430042d4:	52800021 	mov	w1, #0x1                   	// #1
    430042d8:	f2a20000 	movk	x0, #0x1000, lsl #16
    430042dc:	b9000001 	str	w1, [x0]
    430042e0:	17ffffe8 	b	43004280 <pwrap_read+0x80>

00000000430042e4 <pwrap_write>:
    430042e4:	a9bb7bfd 	stp	x29, x30, [sp, #-80]!
    430042e8:	910003fd 	mov	x29, sp
    430042ec:	a90153f3 	stp	x19, x20, [sp, #16]
    430042f0:	2a0103f4 	mov	w20, w1
    430042f4:	a9025bf5 	stp	x21, x22, [sp, #32]
    430042f8:	2a0003f5 	mov	w21, w0
    430042fc:	f9001bf7 	str	x23, [sp, #48]
    43004300:	97ffff9d 	bl	43004174 <wait_for_state_idle.constprop.0>
    43004304:	350002e0 	cbnz	w0, 43004360 <pwrap_write+0x7c>
    43004308:	d2821416 	mov	x22, #0x10a0                	// #4256
    4300430c:	12003e80 	and	w0, w20, #0xffff
    43004310:	f2a20016 	movk	x22, #0x1000, lsl #16
    43004314:	2a154000 	orr	w0, w0, w21, lsl #16
    43004318:	32010000 	orr	w0, w0, #0x80000000
    4300431c:	910133e1 	add	x1, sp, #0x4c
    43004320:	b90002c0 	str	w0, [x22]
    43004324:	2a1503e0 	mov	w0, w21
    43004328:	53103eb7 	lsl	w23, w21, #16
    4300432c:	97ffffb5 	bl	43004200 <pwrap_read>
    43004330:	97ffff91 	bl	43004174 <wait_for_state_idle.constprop.0>
    43004334:	2a0003f3 	mov	w19, w0
    43004338:	35000160 	cbnz	w0, 43004364 <pwrap_write+0x80>
    4300433c:	2a5442f4 	orr	w20, w23, w20, lsr #16
    43004340:	32020694 	orr	w20, w20, #0xc0000000
    43004344:	b90002d4 	str	w20, [x22]
    43004348:	2a1303e0 	mov	w0, w19
    4300434c:	a94153f3 	ldp	x19, x20, [sp, #16]
    43004350:	a9425bf5 	ldp	x21, x22, [sp, #32]
    43004354:	f9401bf7 	ldr	x23, [sp, #48]
    43004358:	a8c57bfd 	ldp	x29, x30, [sp], #80
    4300435c:	d65f03c0 	ret
    43004360:	2a0003f3 	mov	w19, w0
    43004364:	2a1303e1 	mov	w1, w19
    43004368:	b0000020 	adrp	x0, 43009000 <suspend_binary_ca7+0x2e0>
    4300436c:	91341000 	add	x0, x0, #0xd04
    43004370:	940005f9 	bl	43005b54 <tf_log>
    43004374:	17fffff5 	b	43004348 <pwrap_write+0x64>

0000000043004378 <Write_trigger>:
    43004378:	a9bd7bfd 	stp	x29, x30, [sp, #-48]!
    4300437c:	52800021 	mov	w1, #0x1                   	// #1
    43004380:	529c0780 	mov	w0, #0xe03c                	// #57404
    43004384:	910003fd 	mov	x29, sp
    43004388:	f9000bf3 	str	x19, [sp, #16]
    4300438c:	d2800c93 	mov	x19, #0x64                  	// #100
    43004390:	97ffffd5 	bl	430042e4 <pwrap_write>
    43004394:	52800140 	mov	w0, #0xa                   	// #10
    43004398:	97fff5b6 	bl	43001a70 <mdelay>
    4300439c:	9100b3e1 	add	x1, sp, #0x2c
    430043a0:	529c0000 	mov	w0, #0xe000                	// #57344
    430043a4:	b9002fff 	str	wzr, [sp, #44]
    430043a8:	97ffff96 	bl	43004200 <pwrap_read>
    430043ac:	79405be0 	ldrh	w0, [sp, #44]
    430043b0:	36300140 	tbz	w0, #6, 430043d8 <Write_trigger+0x60>
    430043b4:	f1000673 	subs	x19, x19, #0x1
    430043b8:	54fffee1 	b.ne	43004394 <Write_trigger+0x1c>  // b.any
    430043bc:	b0000020 	adrp	x0, 43009000 <suspend_binary_ca7+0x2e0>
    430043c0:	91348000 	add	x0, x0, #0xd20
    430043c4:	940005e4 	bl	43005b54 <tf_log>
    430043c8:	52800000 	mov	w0, #0x0                   	// #0
    430043cc:	f9400bf3 	ldr	x19, [sp, #16]
    430043d0:	a8c37bfd 	ldp	x29, x30, [sp], #48
    430043d4:	d65f03c0 	ret
    430043d8:	52800020 	mov	w0, #0x1                   	// #1
    430043dc:	17fffffc 	b	430043cc <Write_trigger+0x54>

00000000430043e0 <rtc_bbpu_power_down>:
    430043e0:	a9bf7bfd 	stp	x29, x30, [sp, #-16]!
    430043e4:	528b0d41 	mov	w1, #0x586a                	// #22634
    430043e8:	529c06c0 	mov	w0, #0xe036                	// #57398
    430043ec:	910003fd 	mov	x29, sp
    430043f0:	97ffffbd 	bl	430042e4 <pwrap_write>
    430043f4:	97ffffe1 	bl	43004378 <Write_trigger>
    430043f8:	34000160 	cbz	w0, 43004424 <rtc_bbpu_power_down+0x44>
    430043fc:	529226c1 	mov	w1, #0x9136                	// #37174
    43004400:	529c06c0 	mov	w0, #0xe036                	// #57398
    43004404:	97ffffb8 	bl	430042e4 <pwrap_write>
    43004408:	97ffffdc 	bl	43004378 <Write_trigger>
    4300440c:	340000c0 	cbz	w0, 43004424 <rtc_bbpu_power_down+0x44>
    43004410:	52886121 	mov	w1, #0x4309                	// #17161
    43004414:	529c0000 	mov	w0, #0xe000                	// #57344
    43004418:	97ffffb3 	bl	430042e4 <pwrap_write>
    4300441c:	a8c17bfd 	ldp	x29, x30, [sp], #16
    43004420:	17ffffd6 	b	43004378 <Write_trigger>
    43004424:	a8c17bfd 	ldp	x29, x30, [sp], #16
    43004428:	d65f03c0 	ret

000000004300442c <mtcmos_power_on.constprop.0>:
    4300442c:	b9400401 	ldr	w1, [x0, #4]
    43004430:	528c0002 	mov	w2, #0x6000                	// #24576
    43004434:	72a20002 	movk	w2, #0x1000, lsl #16
    43004438:	52800023 	mov	w3, #0x1                   	// #1
    4300443c:	0b020021 	add	w1, w1, w2
    43004440:	d28c0002 	mov	x2, #0x6000                	// #24576
    43004444:	f2a20002 	movk	x2, #0x1000, lsl #16
    43004448:	b9400c04 	ldr	w4, [x0, #12]
    4300444c:	93407c21 	sxtw	x1, w1
    43004450:	72a162c3 	movk	w3, #0xb16, lsl #16
    43004454:	b9000043 	str	w3, [x2]
    43004458:	d28cc187 	mov	x7, #0x660c                	// #26124
    4300445c:	d28cc206 	mov	x6, #0x6610                	// #26128
    43004460:	f2a20007 	movk	x7, #0x1000, lsl #16
    43004464:	b9400022 	ldr	w2, [x1]
    43004468:	f2a20006 	movk	x6, #0x1000, lsl #16
    4300446c:	321e0043 	orr	w3, w2, #0x4
    43004470:	b9000023 	str	w3, [x1]
    43004474:	321e0443 	orr	w3, w2, #0xc
    43004478:	b9000023 	str	w3, [x1]
    4300447c:	b9400003 	ldr	w3, [x0]
    43004480:	b94000e5 	ldr	w5, [x7]
    43004484:	6a0300bf 	tst	w5, w3
    43004488:	54ffffc0 	b.eq	43004480 <mtcmos_power_on.constprop.0+0x54>  // b.none
    4300448c:	b94000c5 	ldr	w5, [x6]
    43004490:	6a05007f 	tst	w3, w5
    43004494:	54ffff60 	b.eq	43004480 <mtcmos_power_on.constprop.0+0x54>  // b.none
    43004498:	121b7843 	and	w3, w2, #0xffffffef
    4300449c:	321e0463 	orr	w3, w3, #0xc
    430044a0:	b9000023 	str	w3, [x1]
    430044a4:	12800243 	mov	w3, #0xffffffed            	// #-19
    430044a8:	0a030042 	and	w2, w2, w3
    430044ac:	321e0443 	orr	w3, w2, #0xc
    430044b0:	b9000023 	str	w3, [x1]
    430044b4:	528001a3 	mov	w3, #0xd                   	// #13
    430044b8:	2a030042 	orr	w2, w2, w3
    430044bc:	b9000022 	str	w2, [x1]
    430044c0:	b9400803 	ldr	w3, [x0, #8]
    430044c4:	0a230042 	bic	w2, w2, w3
    430044c8:	b9000022 	str	w2, [x1]
    430044cc:	b9400022 	ldr	w2, [x1]
    430044d0:	6a02009f 	tst	w4, w2
    430044d4:	54ffffc1 	b.ne	430044cc <mtcmos_power_on.constprop.0+0xa0>  // b.any
    430044d8:	b9401001 	ldr	w1, [x0, #16]
    430044dc:	34000161 	cbz	w1, 43004508 <mtcmos_power_on.constprop.0+0xdc>
    430044e0:	d2804402 	mov	x2, #0x220                 	// #544
    430044e4:	f2a20002 	movk	x2, #0x1000, lsl #16
    430044e8:	91002042 	add	x2, x2, #0x8
    430044ec:	b85f8043 	ldur	w3, [x2, #-8]
    430044f0:	0a210061 	bic	w1, w3, w1
    430044f4:	b81f8041 	stur	w1, [x2, #-8]
    430044f8:	b9401000 	ldr	w0, [x0, #16]
    430044fc:	b9400041 	ldr	w1, [x2]
    43004500:	6a00003f 	tst	w1, w0
    43004504:	54ffffc1 	b.ne	430044fc <mtcmos_power_on.constprop.0+0xd0>  // b.any
    43004508:	52800000 	mov	w0, #0x0                   	// #0
    4300450c:	d65f03c0 	ret

0000000043004510 <mtcmos_little_cpu_on>:
    43004510:	a9be7bfd 	stp	x29, x30, [sp, #-32]!
    43004514:	d28c0000 	mov	x0, #0x6000                	// #24576
    43004518:	f2a20000 	movk	x0, #0x1000, lsl #16
    4300451c:	910003fd 	mov	x29, sp
    43004520:	52800021 	mov	w1, #0x1                   	// #1
    43004524:	f9000bf3 	str	x19, [sp, #16]
    43004528:	d28c4313 	mov	x19, #0x6218                	// #25112
    4300452c:	72a162c1 	movk	w1, #0xb16, lsl #16
    43004530:	f2a20013 	movk	x19, #0x1000, lsl #16
    43004534:	b9000001 	str	w1, [x0]
    43004538:	b9400260 	ldr	w0, [x19]
    4300453c:	321e0000 	orr	w0, w0, #0x4
    43004540:	b9000260 	str	w0, [x19]
    43004544:	52800020 	mov	w0, #0x1                   	// #1
    43004548:	97fff530 	bl	43001a08 <udelay>
    4300454c:	b9400260 	ldr	w0, [x19]
    43004550:	d28cc182 	mov	x2, #0x660c                	// #26124
    43004554:	d28cc201 	mov	x1, #0x6610                	// #26128
    43004558:	f2a20002 	movk	x2, #0x1000, lsl #16
    4300455c:	321d0000 	orr	w0, w0, #0x8
    43004560:	f2a20001 	movk	x1, #0x1000, lsl #16
    43004564:	b9000260 	str	w0, [x19]
    43004568:	b9400040 	ldr	w0, [x2]
    4300456c:	3667ffe0 	tbz	w0, #12, 43004568 <mtcmos_little_cpu_on+0x58>
    43004570:	b9400020 	ldr	w0, [x1]
    43004574:	3667ffa0 	tbz	w0, #12, 43004568 <mtcmos_little_cpu_on+0x58>
    43004578:	d28c4300 	mov	x0, #0x6218                	// #25112
    4300457c:	f2a20000 	movk	x0, #0x1000, lsl #16
    43004580:	b9400001 	ldr	w1, [x0]
    43004584:	121e7821 	and	w1, w1, #0xfffffffd
    43004588:	b9000001 	str	w1, [x0]
    4300458c:	d28c4c81 	mov	x1, #0x6264                	// #25188
    43004590:	f2a20001 	movk	x1, #0x1000, lsl #16
    43004594:	b9400022 	ldr	w2, [x1]
    43004598:	121f7842 	and	w2, w2, #0xfffffffe
    4300459c:	b9000022 	str	w2, [x1]
    430045a0:	b9400022 	ldr	w2, [x1]
    430045a4:	3747ffe2 	tbnz	w2, #8, 430045a0 <mtcmos_little_cpu_on+0x90>
    430045a8:	b9400001 	ldr	w1, [x0]
    430045ac:	f9400bf3 	ldr	x19, [sp, #16]
    430045b0:	321a0021 	orr	w1, w1, #0x40
    430045b4:	b9000001 	str	w1, [x0]
    430045b8:	b9400001 	ldr	w1, [x0]
    430045bc:	121a7821 	and	w1, w1, #0xffffffdf
    430045c0:	b9000001 	str	w1, [x0]
    430045c4:	b9400001 	ldr	w1, [x0]
    430045c8:	121b7821 	and	w1, w1, #0xffffffef
    430045cc:	b9000001 	str	w1, [x0]
    430045d0:	b9400001 	ldr	w1, [x0]
    430045d4:	32000021 	orr	w1, w1, #0x1
    430045d8:	b9000001 	str	w1, [x0]
    430045dc:	a8c27bfd 	ldp	x29, x30, [sp], #32
    430045e0:	d65f03c0 	ret

00000000430045e4 <mtcmos_non_cpu_ctrl>:
    430045e4:	7100043f 	cmp	w1, #0x1
    430045e8:	540000e0 	b.eq	43004604 <mtcmos_non_cpu_ctrl+0x20>  // b.none
    430045ec:	7100083f 	cmp	w1, #0x2
    430045f0:	54000120 	b.eq	43004614 <mtcmos_non_cpu_ctrl+0x30>  // b.none
    430045f4:	35000181 	cbnz	w1, 43004624 <mtcmos_non_cpu_ctrl+0x40>
    430045f8:	f0000020 	adrp	x0, 4300b000 <__RO_END_UNALIGNED__>
    430045fc:	91001000 	add	x0, x0, #0x4
    43004600:	17ffff8b 	b	4300442c <mtcmos_power_on.constprop.0>
    43004604:	f0000020 	adrp	x0, 4300b000 <__RO_END_UNALIGNED__>
    43004608:	91001000 	add	x0, x0, #0x4
    4300460c:	91005000 	add	x0, x0, #0x14
    43004610:	17fffffc 	b	43004600 <mtcmos_non_cpu_ctrl+0x1c>
    43004614:	f0000020 	adrp	x0, 4300b000 <__RO_END_UNALIGNED__>
    43004618:	91001000 	add	x0, x0, #0x4
    4300461c:	9100a000 	add	x0, x0, #0x28
    43004620:	17fffff8 	b	43004600 <mtcmos_non_cpu_ctrl+0x1c>
    43004624:	12800000 	mov	w0, #0xffffffff            	// #-1
    43004628:	d65f03c0 	ret

000000004300462c <spm_lock_get>:
    4300462c:	b0000060 	adrp	x0, 43011000 <psci_locks>
    43004630:	91002000 	add	x0, x0, #0x8
    43004634:	17fff617 	b	43001e90 <bakery_lock_get>

0000000043004638 <spm_lock_release>:
    43004638:	b0000060 	adrp	x0, 43011000 <psci_locks>
    4300463c:	91002000 	add	x0, x0, #0x8
    43004640:	17fff63f 	b	43001f3c <bakery_lock_release>

0000000043004644 <is_mcdi_ready>:
    43004644:	f0000020 	adrp	x0, 4300b000 <__RO_END_UNALIGNED__>
    43004648:	b940e000 	ldr	w0, [x0, #224]
    4300464c:	d65f03c0 	ret

0000000043004650 <is_hotplug_ready>:
    43004650:	f0000020 	adrp	x0, 4300b000 <__RO_END_UNALIGNED__>
    43004654:	b940e400 	ldr	w0, [x0, #228]
    43004658:	d65f03c0 	ret

000000004300465c <set_mcdi_ready>:
    4300465c:	f0000021 	adrp	x1, 4300b000 <__RO_END_UNALIGNED__>
    43004660:	91038020 	add	x0, x1, #0xe0
    43004664:	52800022 	mov	w2, #0x1                   	// #1
    43004668:	b900e022 	str	w2, [x1, #224]
    4300466c:	2900fc1f 	stp	wzr, wzr, [x0, #4]
    43004670:	d65f03c0 	ret

0000000043004674 <set_suspend_ready>:
    43004674:	f0000021 	adrp	x1, 4300b000 <__RO_END_UNALIGNED__>
    43004678:	91038020 	add	x0, x1, #0xe0
    4300467c:	b900e03f 	str	wzr, [x1, #224]
    43004680:	52800021 	mov	w1, #0x1                   	// #1
    43004684:	2900841f 	stp	wzr, w1, [x0, #4]
    43004688:	d65f03c0 	ret

000000004300468c <clear_all_ready>:
    4300468c:	f0000021 	adrp	x1, 4300b000 <__RO_END_UNALIGNED__>
    43004690:	91038020 	add	x0, x1, #0xe0
    43004694:	b900e03f 	str	wzr, [x1, #224]
    43004698:	2900fc1f 	stp	wzr, wzr, [x0, #4]
    4300469c:	d65f03c0 	ret

00000000430046a0 <spm_reset_and_init_pcm>:
    430046a0:	d28c6200 	mov	x0, #0x6310                	// #25360
    430046a4:	52900001 	mov	w1, #0x8000                	// #32768
    430046a8:	f2a20000 	movk	x0, #0x1000, lsl #16
    430046ac:	72a162c1 	movk	w1, #0xb16, lsl #16
    430046b0:	d28c7883 	mov	x3, #0x63c4                	// #25540
    430046b4:	b9000001 	str	w1, [x0]
    430046b8:	52a162c1 	mov	w1, #0xb160000             	// #185991168
    430046bc:	b9000001 	str	w1, [x0]
    430046c0:	52909201 	mov	w1, #0x8490                	// #33936
    430046c4:	f2a20003 	movk	x3, #0x1000, lsl #16
    430046c8:	52807d20 	mov	w0, #0x3e9                 	// #1001
    430046cc:	72a00081 	movk	w1, #0x4, lsl #16
    430046d0:	b9400062 	ldr	w2, [x3]
    430046d4:	6b01005f 	cmp	w2, w1
    430046d8:	54000060 	b.eq	430046e4 <spm_reset_and_init_pcm+0x44>  // b.none
    430046dc:	71000400 	subs	w0, w0, #0x1
    430046e0:	54ffff81 	b.ne	430046d0 <spm_reset_and_init_pcm+0x30>  // b.any
    430046e4:	d28c6200 	mov	x0, #0x6310                	// #25360
    430046e8:	52800101 	mov	w1, #0x8                   	// #8
    430046ec:	f2a20000 	movk	x0, #0x1000, lsl #16
    430046f0:	72a162c1 	movk	w1, #0xb16, lsl #16
    430046f4:	52838902 	mov	w2, #0x1c48                	// #7240
    430046f8:	b9000001 	str	w1, [x0]
    430046fc:	d28c6281 	mov	x1, #0x6314                	// #25364
    43004700:	f2a20001 	movk	x1, #0x1000, lsl #16
    43004704:	72a162c2 	movk	w2, #0xb16, lsl #16
    43004708:	b9400020 	ldr	w0, [x1]
    4300470c:	12180400 	and	w0, w0, #0x300
    43004710:	2a020000 	orr	w0, w0, w2
    43004714:	b9000020 	str	w0, [x1]
    43004718:	d65f03c0 	ret

000000004300471c <spm_init_pcm_register>:
    4300471c:	d28c0200 	mov	x0, #0x6010                	// #24592
    43004720:	d28c6401 	mov	x1, #0x6320                	// #25376
    43004724:	f2a20000 	movk	x0, #0x1000, lsl #16
    43004728:	f2a20001 	movk	x1, #0x1000, lsl #16
    4300472c:	52a00022 	mov	w2, #0x10000               	// #65536
    43004730:	b9400000 	ldr	w0, [x0]
    43004734:	b9000020 	str	w0, [x1]
    43004738:	d28c6b00 	mov	x0, #0x6358                	// #25432
    4300473c:	f2a20000 	movk	x0, #0x1000, lsl #16
    43004740:	b9000002 	str	w2, [x0]
    43004744:	d28c0282 	mov	x2, #0x6014                	// #24596
    43004748:	f2a20002 	movk	x2, #0x1000, lsl #16
    4300474c:	b900001f 	str	wzr, [x0]
    43004750:	b9400042 	ldr	w2, [x2]
    43004754:	b9000022 	str	w2, [x1]
    43004758:	52a01001 	mov	w1, #0x800000              	// #8388608
    4300475c:	b9000001 	str	w1, [x0]
    43004760:	b900001f 	str	wzr, [x0]
    43004764:	d65f03c0 	ret

0000000043004768 <spm_set_power_control>:
    43004768:	79408801 	ldrh	w1, [x0, #68]
    4300476c:	79405003 	ldrh	w3, [x0, #40]
    43004770:	7100003f 	cmp	w1, #0x0
    43004774:	79408401 	ldrh	w1, [x0, #66]
    43004778:	1a9f17e2 	cset	w2, eq  // eq = none
    4300477c:	7100003f 	cmp	w1, #0x0
    43004780:	1a9f17e1 	cset	w1, eq  // eq = none
    43004784:	530f3821 	lsl	w1, w1, #17
    43004788:	2a025422 	orr	w2, w1, w2, lsl #21
    4300478c:	79408001 	ldrh	w1, [x0, #64]
    43004790:	7100003f 	cmp	w1, #0x0
    43004794:	1a9f17e1 	cset	w1, eq  // eq = none
    43004798:	7100007f 	cmp	w3, #0x0
    4300479c:	1a9f07e3 	cset	w3, ne  // ne = any
    430047a0:	53196063 	lsl	w3, w3, #7
    430047a4:	2a014061 	orr	w1, w3, w1, lsl #16
    430047a8:	79405803 	ldrh	w3, [x0, #44]
    430047ac:	2a020022 	orr	w2, w1, w2
    430047b0:	79405401 	ldrh	w1, [x0, #42]
    430047b4:	7100003f 	cmp	w1, #0x0
    430047b8:	1a9f07e1 	cset	w1, ne  // ne = any
    430047bc:	7100007f 	cmp	w3, #0x0
    430047c0:	1a9f07e3 	cset	w3, ne  // ne = any
    430047c4:	531b6863 	lsl	w3, w3, #5
    430047c8:	2a011861 	orr	w1, w3, w1, lsl #6
    430047cc:	d28c8003 	mov	x3, #0x6400                	// #25600
    430047d0:	2a020021 	orr	w1, w1, w2
    430047d4:	79405c02 	ldrh	w2, [x0, #46]
    430047d8:	f2a20003 	movk	x3, #0x1000, lsl #16
    430047dc:	7100005f 	cmp	w2, #0x0
    430047e0:	1a9f07e2 	cset	w2, ne  // ne = any
    430047e4:	2a021021 	orr	w1, w1, w2, lsl #4
    430047e8:	d28cc102 	mov	x2, #0x6608                	// #26120
    430047ec:	f2a20002 	movk	x2, #0x1000, lsl #16
    430047f0:	b9000041 	str	w1, [x2]
    430047f4:	79404c01 	ldrh	w1, [x0, #38]
    430047f8:	7100003f 	cmp	w1, #0x0
    430047fc:	d28d6181 	mov	x1, #0x6b0c                	// #27404
    43004800:	f2a20001 	movk	x1, #0x1000, lsl #16
    43004804:	1a9f07e2 	cset	w2, ne  // ne = any
    43004808:	b9000022 	str	w2, [x1]
    4300480c:	b9005c3f 	str	wzr, [x1, #92]
    43004810:	79409001 	ldrh	w1, [x0, #72]
    43004814:	b9400062 	ldr	w2, [x3]
    43004818:	7100003f 	cmp	w1, #0x0
    4300481c:	1a9f07e1 	cset	w1, ne  // ne = any
    43004820:	12197842 	and	w2, w2, #0xffffffbf
    43004824:	2a011841 	orr	w1, w2, w1, lsl #6
    43004828:	b9000061 	str	w1, [x3]
    4300482c:	79407001 	ldrh	w1, [x0, #56]
    43004830:	7100003f 	cmp	w1, #0x0
    43004834:	d28de001 	mov	x1, #0x6f00                	// #28416
    43004838:	f2a20001 	movk	x1, #0x1000, lsl #16
    4300483c:	1a9f07e2 	cset	w2, ne  // ne = any
    43004840:	b9000022 	str	w2, [x1]
    43004844:	79407401 	ldrh	w1, [x0, #58]
    43004848:	7100003f 	cmp	w1, #0x0
    4300484c:	d28de081 	mov	x1, #0x6f04                	// #28420
    43004850:	f2a20001 	movk	x1, #0x1000, lsl #16
    43004854:	1a9f07e2 	cset	w2, ne  // ne = any
    43004858:	b9000022 	str	w2, [x1]
    4300485c:	79407801 	ldrh	w1, [x0, #60]
    43004860:	79407c00 	ldrh	w0, [x0, #62]
    43004864:	7100003f 	cmp	w1, #0x0
    43004868:	d28de101 	mov	x1, #0x6f08                	// #28424
    4300486c:	1a9f07e2 	cset	w2, ne  // ne = any
    43004870:	f2a20001 	movk	x1, #0x1000, lsl #16
    43004874:	7100001f 	cmp	w0, #0x0
    43004878:	d28de180 	mov	x0, #0x6f0c                	// #28428
    4300487c:	f2a20000 	movk	x0, #0x1000, lsl #16
    43004880:	b9000022 	str	w2, [x1]
    43004884:	1a9f07e1 	cset	w1, ne  // ne = any
    43004888:	b9000001 	str	w1, [x0]
    4300488c:	d65f03c0 	ret

0000000043004890 <spm_set_wakeup_event>:
    43004890:	b9401001 	ldr	w1, [x0, #16]
    43004894:	350000a1 	cbnz	w1, 430048a8 <spm_set_wakeup_event+0x18>
    43004898:	b9400c01 	ldr	w1, [x0, #12]
    4300489c:	12a001e2 	mov	w2, #0xfff0ffff            	// #-983041
    430048a0:	7100003f 	cmp	w1, #0x0
    430048a4:	1a821021 	csel	w1, w1, w2, ne  // ne = any
    430048a8:	d28c6b82 	mov	x2, #0x635c                	// #25436
    430048ac:	52a162c3 	mov	w3, #0xb160000             	// #185991168
    430048b0:	f2a20002 	movk	x2, #0x1000, lsl #16
    430048b4:	b9000041 	str	w1, [x2]
    430048b8:	b85b8041 	ldur	w1, [x2, #-72]
    430048bc:	2a030021 	orr	w1, w1, w3
    430048c0:	b81b8041 	stur	w1, [x2, #-72]
    430048c4:	b9401801 	ldr	w1, [x0, #24]
    430048c8:	35000041 	cbnz	w1, 430048d0 <spm_set_wakeup_event+0x40>
    430048cc:	b9401401 	ldr	w1, [x0, #20]
    430048d0:	79408c00 	ldrh	w0, [x0, #70]
    430048d4:	34000040 	cbz	w0, 430048dc <spm_set_wakeup_event+0x4c>
    430048d8:	12077821 	and	w1, w1, #0xfeffffff
    430048dc:	d28d0200 	mov	x0, #0x6810                	// #26640
    430048e0:	2a2103e1 	mvn	w1, w1
    430048e4:	f2a20000 	movk	x0, #0x1000, lsl #16
    430048e8:	b9000001 	str	w1, [x0]
    430048ec:	529fc081 	mov	w1, #0xfe04                	// #65028
    430048f0:	b900f001 	str	w1, [x0, #240]
    430048f4:	d65f03c0 	ret

00000000430048f8 <spm_get_wakeup_status>:
    430048f8:	d28c6401 	mov	x1, #0x6320                	// #25376
    430048fc:	f2a20001 	movk	x1, #0x1000, lsl #16
    43004900:	b9400021 	ldr	w1, [x1]
    43004904:	b9000001 	str	w1, [x0]
    43004908:	d28c7601 	mov	x1, #0x63b0                	// #25520
    4300490c:	f2a20001 	movk	x1, #0x1000, lsl #16
    43004910:	b9400021 	ldr	w1, [x1]
    43004914:	b9000401 	str	w1, [x0, #4]
    43004918:	d28d2201 	mov	x1, #0x6910                	// #26896
    4300491c:	f2a20001 	movk	x1, #0x1000, lsl #16
    43004920:	b9400021 	ldr	w1, [x1]
    43004924:	b9000801 	str	w1, [x0, #8]
    43004928:	d28d2301 	mov	x1, #0x6918                	// #26904
    4300492c:	f2a20001 	movk	x1, #0x1000, lsl #16
    43004930:	b9400021 	ldr	w1, [x1]
    43004934:	b9000c01 	str	w1, [x0, #12]
    43004938:	d28c6c01 	mov	x1, #0x6360                	// #25440
    4300493c:	f2a20001 	movk	x1, #0x1000, lsl #16
    43004940:	b9400021 	ldr	w1, [x1]
    43004944:	b9001001 	str	w1, [x0, #16]
    43004948:	d28c7681 	mov	x1, #0x63b4                	// #25524
    4300494c:	f2a20001 	movk	x1, #0x1000, lsl #16
    43004950:	b9400021 	ldr	w1, [x1]
    43004954:	b9001401 	str	w1, [x0, #20]
    43004958:	d28d2401 	mov	x1, #0x6920                	// #26912
    4300495c:	f2a20001 	movk	x1, #0x1000, lsl #16
    43004960:	b9400021 	ldr	w1, [x1]
    43004964:	b9001801 	str	w1, [x0, #24]
    43004968:	d28d6d81 	mov	x1, #0x6b6c                	// #27500
    4300496c:	f2a20001 	movk	x1, #0x1000, lsl #16
    43004970:	b9400021 	ldr	w1, [x1]
    43004974:	b9001c01 	str	w1, [x0, #28]
    43004978:	d28c7801 	mov	x1, #0x63c0                	// #25536
    4300497c:	f2a20001 	movk	x1, #0x1000, lsl #16
    43004980:	b9400021 	ldr	w1, [x1]
    43004984:	b9002001 	str	w1, [x0, #32]
    43004988:	d28d2081 	mov	x1, #0x6904                	// #26884
    4300498c:	f2a20001 	movk	x1, #0x1000, lsl #16
    43004990:	b9400021 	ldr	w1, [x1]
    43004994:	b9002401 	str	w1, [x0, #36]
    43004998:	d65f03c0 	ret

000000004300499c <spm_init_event_vector>:
    4300499c:	d28c6801 	mov	x1, #0x6340                	// #25408
    430049a0:	b9401802 	ldr	w2, [x0, #24]
    430049a4:	f2a20001 	movk	x1, #0x1000, lsl #16
    430049a8:	b9000022 	str	w2, [x1]
    430049ac:	b9401c02 	ldr	w2, [x0, #28]
    430049b0:	b9000422 	str	w2, [x1, #4]
    430049b4:	b9402002 	ldr	w2, [x0, #32]
    430049b8:	b9000822 	str	w2, [x1, #8]
    430049bc:	b9402402 	ldr	w2, [x0, #36]
    430049c0:	b9000c22 	str	w2, [x1, #12]
    430049c4:	b9402802 	ldr	w2, [x0, #40]
    430049c8:	b9009022 	str	w2, [x1, #144]
    430049cc:	b9402c02 	ldr	w2, [x0, #44]
    430049d0:	b9009422 	str	w2, [x1, #148]
    430049d4:	b9403002 	ldr	w2, [x0, #48]
    430049d8:	b9009822 	str	w2, [x1, #152]
    430049dc:	b9403401 	ldr	w1, [x0, #52]
    430049e0:	d28c7b80 	mov	x0, #0x63dc                	// #25564
    430049e4:	f2a20000 	movk	x0, #0x1000, lsl #16
    430049e8:	b9000001 	str	w1, [x0]
    430049ec:	d65f03c0 	ret

00000000430049f0 <spm_kick_im_to_fetch>:
    430049f0:	d28c6303 	mov	x3, #0x6318                	// #25368
    430049f4:	b9401001 	ldr	w1, [x0, #16]
    430049f8:	f2a20003 	movk	x3, #0x1000, lsl #16
    430049fc:	f9400404 	ldr	x4, [x0, #8]
    43004a00:	51000421 	sub	w1, w1, #0x1
    43004a04:	b9400062 	ldr	w2, [x3]
    43004a08:	6b02009f 	cmp	w4, w2
    43004a0c:	d28c6382 	mov	x2, #0x631c                	// #25372
    43004a10:	f2a20002 	movk	x2, #0x1000, lsl #16
    43004a14:	540000e1 	b.ne	43004a30 <spm_kick_im_to_fetch+0x40>  // b.any
    43004a18:	b9400045 	ldr	w5, [x2]
    43004a1c:	6b05003f 	cmp	w1, w5
    43004a20:	54000081 	b.ne	43004a30 <spm_kick_im_to_fetch+0x40>  // b.any
    43004a24:	39405000 	ldrb	w0, [x0, #20]
    43004a28:	7100081f 	cmp	w0, #0x2
    43004a2c:	540002e9 	b.ls	43004a88 <spm_kick_im_to_fetch+0x98>  // b.plast
    43004a30:	b9000064 	str	w4, [x3]
    43004a34:	b9000041 	str	w1, [x2]
    43004a38:	d28c6200 	mov	x0, #0x6310                	// #25360
    43004a3c:	52800041 	mov	w1, #0x2                   	// #2
    43004a40:	f2a20000 	movk	x0, #0x1000, lsl #16
    43004a44:	72a162c1 	movk	w1, #0xb16, lsl #16
    43004a48:	52a162c3 	mov	w3, #0xb160000             	// #185991168
    43004a4c:	b9400002 	ldr	w2, [x0]
    43004a50:	121e7442 	and	w2, w2, #0xfffffffc
    43004a54:	2a010041 	orr	w1, w2, w1
    43004a58:	b9000001 	str	w1, [x0]
    43004a5c:	2a030042 	orr	w2, w2, w3
    43004a60:	b9000002 	str	w2, [x0]
    43004a64:	52800022 	mov	w2, #0x1                   	// #1
    43004a68:	b9400001 	ldr	w1, [x0]
    43004a6c:	72a162c2 	movk	w2, #0xb16, lsl #16
    43004a70:	121e7421 	and	w1, w1, #0xfffffffc
    43004a74:	2a020022 	orr	w2, w1, w2
    43004a78:	b9000002 	str	w2, [x0]
    43004a7c:	2a030021 	orr	w1, w1, w3
    43004a80:	b9000001 	str	w1, [x0]
    43004a84:	d65f03c0 	ret
    43004a88:	d28c6281 	mov	x1, #0x6314                	// #25364
    43004a8c:	52800022 	mov	w2, #0x1                   	// #1
    43004a90:	f2a20001 	movk	x1, #0x1000, lsl #16
    43004a94:	72a162c2 	movk	w2, #0xb16, lsl #16
    43004a98:	b9400020 	ldr	w0, [x1]
    43004a9c:	2a020000 	orr	w0, w0, w2
    43004aa0:	b9000020 	str	w0, [x1]
    43004aa4:	17ffffe5 	b	43004a38 <spm_kick_im_to_fetch+0x48>

0000000043004aa8 <spm_set_sysclk_settle>:
    43004aa8:	d28c2000 	mov	x0, #0x6100                	// #24832
    43004aac:	52801001 	mov	w1, #0x80                  	// #128
    43004ab0:	f2a20000 	movk	x0, #0x1000, lsl #16
    43004ab4:	b9000001 	str	w1, [x0]
    43004ab8:	d65f03c0 	ret

0000000043004abc <spm_kick_pcm_to_run>:
    43004abc:	d28c6283 	mov	x3, #0x6314                	// #25364
    43004ac0:	52a162c2 	mov	w2, #0xb160000             	// #185991168
    43004ac4:	f2a20003 	movk	x3, #0x1000, lsl #16
    43004ac8:	b9400061 	ldr	w1, [x3]
    43004acc:	12167421 	and	w1, w1, #0xfffffcff
    43004ad0:	2a020022 	orr	w2, w1, w2
    43004ad4:	b9000062 	str	w2, [x3]
    43004ad8:	d28c6b82 	mov	x2, #0x635c                	// #25436
    43004adc:	12a001e3 	mov	w3, #0xfff0ffff            	// #-983041
    43004ae0:	f2a20002 	movk	x2, #0x1000, lsl #16
    43004ae4:	b9400044 	ldr	w4, [x2]
    43004ae8:	6b03009f 	cmp	w4, w3
    43004aec:	54000049 	b.ls	43004af4 <spm_kick_pcm_to_run+0x38>  // b.plast
    43004af0:	b9000043 	str	w3, [x2]
    43004af4:	b9400042 	ldr	w2, [x2]
    43004af8:	d28d0483 	mov	x3, #0x6824                	// #26660
    43004afc:	f2a20003 	movk	x3, #0x1000, lsl #16
    43004b00:	1143c042 	add	w2, w2, #0xf0, lsl #12
    43004b04:	b9000062 	str	w2, [x3]
    43004b08:	52802002 	mov	w2, #0x100                 	// #256
    43004b0c:	72a162c2 	movk	w2, #0xb16, lsl #16
    43004b10:	2a020021 	orr	w1, w1, w2
    43004b14:	d28c6282 	mov	x2, #0x6314                	// #25364
    43004b18:	f2a20002 	movk	x2, #0x1000, lsl #16
    43004b1c:	b9000041 	str	w1, [x2]
    43004b20:	d28d6c01 	mov	x1, #0x6b60                	// #27488
    43004b24:	f2a20001 	movk	x1, #0x1000, lsl #16
    43004b28:	d1203021 	sub	x1, x1, #0x80c
    43004b2c:	12800002 	mov	w2, #0xffffffff            	// #-1
    43004b30:	b9080c3f 	str	wzr, [x1, #2060]
    43004b34:	b9000022 	str	w2, [x1]
    43004b38:	b81cc03f 	stur	wzr, [x1, #-52]
    43004b3c:	b940ac22 	ldr	w2, [x1, #172]
    43004b40:	12117842 	and	w2, w2, #0xffffbfff
    43004b44:	b900ac22 	str	w2, [x1, #172]
    43004b48:	d28d6102 	mov	x2, #0x6b08                	// #27400
    43004b4c:	f2a20002 	movk	x2, #0x1000, lsl #16
    43004b50:	b9400003 	ldr	w3, [x0]
    43004b54:	b9000043 	str	w3, [x2]
    43004b58:	79404802 	ldrh	w2, [x0, #36]
    43004b5c:	b940ac23 	ldr	w3, [x1, #172]
    43004b60:	7100005f 	cmp	w2, #0x0
    43004b64:	1a9f07e2 	cset	w2, ne  // ne = any
    43004b68:	121a7863 	and	w3, w3, #0xffffffdf
    43004b6c:	2a021462 	orr	w2, w3, w2, lsl #5
    43004b70:	b900ac22 	str	w2, [x1, #172]
    43004b74:	79404001 	ldrh	w1, [x0, #32]
    43004b78:	79404400 	ldrh	w0, [x0, #34]
    43004b7c:	7100003f 	cmp	w1, #0x0
    43004b80:	1a9f07e1 	cset	w1, ne  // ne = any
    43004b84:	7100001f 	cmp	w0, #0x0
    43004b88:	1a9f07e0 	cset	w0, ne  // ne = any
    43004b8c:	2a001c20 	orr	w0, w1, w0, lsl #7
    43004b90:	d28c6b01 	mov	x1, #0x6358                	// #25432
    43004b94:	f2a20001 	movk	x1, #0x1000, lsl #16
    43004b98:	b9000020 	str	w0, [x1]
    43004b9c:	d65f03c0 	ret

0000000043004ba0 <spm_clean_after_wakeup>:
    43004ba0:	d28c6282 	mov	x2, #0x6314                	// #25364
    43004ba4:	d28c6b00 	mov	x0, #0x6358                	// #25432
    43004ba8:	f2a20002 	movk	x2, #0x1000, lsl #16
    43004bac:	f2a20000 	movk	x0, #0x1000, lsl #16
    43004bb0:	52a162c3 	mov	w3, #0xb160000             	// #185991168
    43004bb4:	b9400041 	ldr	w1, [x2]
    43004bb8:	12177821 	and	w1, w1, #0xfffffeff
    43004bbc:	2a030021 	orr	w1, w1, w3
    43004bc0:	b9000041 	str	w1, [x2]
    43004bc4:	b900001f 	str	wzr, [x0]
    43004bc8:	12800001 	mov	w1, #0xffffffff            	// #-1
    43004bcc:	b904bc1f 	str	wzr, [x0, #1212]
    43004bd0:	b9400040 	ldr	w0, [x2]
    43004bd4:	121a7800 	and	w0, w0, #0xffffffdf
    43004bd8:	2a030000 	orr	w0, w0, w3
    43004bdc:	b9000040 	str	w0, [x2]
    43004be0:	d28d0200 	mov	x0, #0x6810                	// #26640
    43004be4:	f2a20000 	movk	x0, #0x1000, lsl #16
    43004be8:	d110b000 	sub	x0, x0, #0x42c
    43004bec:	b9042c01 	str	w1, [x0, #1068]
    43004bf0:	529fe181 	mov	w1, #0xff0c                	// #65292
    43004bf4:	b9051c01 	str	w1, [x0, #1308]
    43004bf8:	52800181 	mov	w1, #0xc                   	// #12
    43004bfc:	b9052001 	str	w1, [x0, #1312]
    43004c00:	52801fe1 	mov	w1, #0xff                  	// #255
    43004c04:	b9000001 	str	w1, [x0]
    43004c08:	d65f03c0 	ret

0000000043004c0c <spm_output_wake_reason>:
    43004c0c:	29400801 	ldp	w1, w2, [x0]
    43004c10:	aa0003e3 	mov	x3, x0
    43004c14:	34000161 	cbz	w1, 43004c40 <spm_output_wake_reason+0x34>
    43004c18:	a9bf7bfd 	stp	x29, x30, [sp, #-16]!
    43004c1c:	b0000020 	adrp	x0, 43009000 <suspend_binary_ca7+0x2e0>
    43004c20:	9134f000 	add	x0, x0, #0xd3c
    43004c24:	910003fd 	mov	x29, sp
    43004c28:	b9401c64 	ldr	w4, [x3, #28]
    43004c2c:	b9401463 	ldr	w3, [x3, #20]
    43004c30:	940003c9 	bl	43005b54 <tf_log>
    43004c34:	52800040 	mov	w0, #0x2                   	// #2
    43004c38:	a8c17bfd 	ldp	x29, x30, [sp], #16
    43004c3c:	d65f03c0 	ret
    43004c40:	360002c2 	tbz	w2, #0, 43004c98 <spm_output_wake_reason+0x8c>
    43004c44:	b9400c64 	ldr	w4, [x3, #12]
    43004c48:	528000c1 	mov	w1, #0x6                   	// #6
    43004c4c:	52800060 	mov	w0, #0x3                   	// #3
    43004c50:	f26d009f 	tst	x4, #0x80000
    43004c54:	1a800020 	csel	w0, w1, w0, eq  // eq = none
    43004c58:	f26c009f 	tst	x4, #0x100000
    43004c5c:	528000a1 	mov	w1, #0x5                   	// #5
    43004c60:	1a810000 	csel	w0, w0, w1, eq  // eq = none
    43004c64:	52800021 	mov	w1, #0x1                   	// #1
    43004c68:	528000a4 	mov	w4, #0x5                   	// #5
    43004c6c:	1ac12445 	lsr	w5, w2, w1
    43004c70:	11000421 	add	w1, w1, #0x1
    43004c74:	f24000bf 	tst	x5, #0x1
    43004c78:	1a840000 	csel	w0, w0, w4, eq  // eq = none
    43004c7c:	7100803f 	cmp	w1, #0x20
    43004c80:	54ffff61 	b.ne	43004c6c <spm_output_wake_reason+0x60>  // b.any
    43004c84:	b9402061 	ldr	w1, [x3, #32]
    43004c88:	f26c003f 	tst	x1, #0x100000
    43004c8c:	52800081 	mov	w1, #0x4                   	// #4
    43004c90:	1a811000 	csel	w0, w0, w1, ne  // ne = any
    43004c94:	d65f03c0 	ret
    43004c98:	528000c0 	mov	w0, #0x6                   	// #6
    43004c9c:	17fffff2 	b	43004c64 <spm_output_wake_reason+0x58>

0000000043004ca0 <spm_clear_hotplug>:
    43004ca0:	d28c6400 	mov	x0, #0x6320                	// #25376
    43004ca4:	5297dde1 	mov	w1, #0xbeef                	// #48879
    43004ca8:	f2a20000 	movk	x0, #0x1000, lsl #16
    43004cac:	72b7dde1 	movk	w1, #0xbeef, lsl #16
    43004cb0:	d28c7882 	mov	x2, #0x63c4                	// #25540
    43004cb4:	b9000001 	str	w1, [x0]
    43004cb8:	52a00801 	mov	w1, #0x400000              	// #4194304
    43004cbc:	b9003801 	str	w1, [x0, #56]
    43004cc0:	f2a20002 	movk	x2, #0x1000, lsl #16
    43004cc4:	52909201 	mov	w1, #0x8490                	// #33936
    43004cc8:	b900381f 	str	wzr, [x0, #56]
    43004ccc:	b9400040 	ldr	w0, [x2]
    43004cd0:	121c3400 	and	w0, w0, #0x3fff0
    43004cd4:	6b01001f 	cmp	w0, w1
    43004cd8:	54ffffa1 	b.ne	43004ccc <spm_clear_hotplug+0x2c>  // b.any
    43004cdc:	17fffe6c 	b	4300468c <clear_all_ready>

0000000043004ce0 <spm_mcdi_prepare_for_off_state>:
    43004ce0:	a9bd7bfd 	stp	x29, x30, [sp, #-48]!
    43004ce4:	910003fd 	mov	x29, sp
    43004ce8:	a90153f3 	stp	x19, x20, [sp, #16]
    43004cec:	aa0003f3 	mov	x19, x0
    43004cf0:	f90013f5 	str	x21, [sp, #32]
    43004cf4:	2a0103f5 	mov	w21, w1
    43004cf8:	97fffe4d 	bl	4300462c <spm_lock_get>
    43004cfc:	97fffe52 	bl	43004644 <is_mcdi_ready>
    43004d00:	35000280 	cbnz	w0, 43004d50 <spm_mcdi_prepare_for_off_state+0x70>
    43004d04:	97fffe53 	bl	43004650 <is_hotplug_ready>
    43004d08:	7100041f 	cmp	w0, #0x1
    43004d0c:	54000041 	b.ne	43004d14 <spm_mcdi_prepare_for_off_state+0x34>  // b.any
    43004d10:	97ffffe4 	bl	43004ca0 <spm_clear_hotplug>
    43004d14:	f0000020 	adrp	x0, 4300b000 <__RO_END_UNALIGNED__>
    43004d18:	91010014 	add	x20, x0, #0x40
    43004d1c:	b9400681 	ldr	w1, [x20, #4]
    43004d20:	b9004001 	str	w1, [x0, #64]
    43004d24:	97fffe5f 	bl	430046a0 <spm_reset_and_init_pcm>
    43004d28:	f0000000 	adrp	x0, 43007000 <efuse_write+0x350>
    43004d2c:	911e2000 	add	x0, x0, #0x788
    43004d30:	97ffff30 	bl	430049f0 <spm_kick_im_to_fetch>
    43004d34:	aa1403e0 	mov	x0, x20
    43004d38:	97fffe8c 	bl	43004768 <spm_set_power_control>
    43004d3c:	aa1403e0 	mov	x0, x20
    43004d40:	97fffed4 	bl	43004890 <spm_set_wakeup_event>
    43004d44:	aa1403e0 	mov	x0, x20
    43004d48:	97ffff5d 	bl	43004abc <spm_kick_pcm_to_run>
    43004d4c:	97fffe44 	bl	4300465c <set_mcdi_ready>
    43004d50:	12001e61 	and	w1, w19, #0xff
    43004d54:	71000c3f 	cmp	w1, #0x3
    43004d58:	54000188 	b.hi	43004d88 <spm_mcdi_prepare_for_off_state+0xa8>  // b.pmore
    43004d5c:	f0000000 	adrp	x0, 43007000 <efuse_write+0x350>
    43004d60:	52800022 	mov	w2, #0x1                   	// #1
    43004d64:	9135d000 	add	x0, x0, #0xd74
    43004d68:	38614800 	ldrb	w0, [x0, w1, uxtw]
    43004d6c:	10000061 	adr	x1, 43004d78 <spm_mcdi_prepare_for_off_state+0x98>
    43004d70:	8b208820 	add	x0, x1, w0, sxtb #2
    43004d74:	d61f0000 	br	x0
    43004d78:	d28d6600 	mov	x0, #0x6b30                	// #27440
    43004d7c:	f2a20000 	movk	x0, #0x1000, lsl #16
    43004d80:	b9000002 	str	w2, [x0]
    43004d84:	b903d002 	str	w2, [x0, #976]
    43004d88:	710006bf 	cmp	w21, #0x1
    43004d8c:	54000241 	b.ne	43004dd4 <spm_mcdi_prepare_for_off_state+0xf4>  // b.any
    43004d90:	d28cc180 	mov	x0, #0x660c                	// #26124
    43004d94:	f2401e73 	ands	x19, x19, #0xff
    43004d98:	f2a20000 	movk	x0, #0x1000, lsl #16
    43004d9c:	91001000 	add	x0, x0, #0x4
    43004da0:	b85fc001 	ldur	w1, [x0, #-4]
    43004da4:	b9400000 	ldr	w0, [x0]
    43004da8:	2a000021 	orr	w1, w1, w0
    43004dac:	54000280 	b.eq	43004dfc <spm_mcdi_prepare_for_off_state+0x11c>  // b.none
    43004db0:	d3492420 	ubfx	x0, x1, #9, #1
    43004db4:	f100067f 	cmp	x19, #0x1
    43004db8:	54000241 	b.ne	43004e00 <spm_mcdi_prepare_for_off_state+0x120>  // b.any
    43004dbc:	350000c0 	cbnz	w0, 43004dd4 <spm_mcdi_prepare_for_off_state+0xf4>
    43004dc0:	d28d6001 	mov	x1, #0x6b00                	// #27392
    43004dc4:	f2a20001 	movk	x1, #0x1000, lsl #16
    43004dc8:	b9400020 	ldr	w0, [x1]
    43004dcc:	320f0000 	orr	w0, w0, #0x20000
    43004dd0:	b9000020 	str	w0, [x1]
    43004dd4:	a94153f3 	ldp	x19, x20, [sp, #16]
    43004dd8:	f94013f5 	ldr	x21, [sp, #32]
    43004ddc:	a8c37bfd 	ldp	x29, x30, [sp], #48
    43004de0:	17fffe16 	b	43004638 <spm_lock_release>
    43004de4:	d28d6680 	mov	x0, #0x6b34                	// #27444
    43004de8:	17ffffe5 	b	43004d7c <spm_mcdi_prepare_for_off_state+0x9c>
    43004dec:	d28d6700 	mov	x0, #0x6b38                	// #27448
    43004df0:	17ffffe3 	b	43004d7c <spm_mcdi_prepare_for_off_state+0x9c>
    43004df4:	d28d6780 	mov	x0, #0x6b3c                	// #27452
    43004df8:	17ffffe1 	b	43004d7c <spm_mcdi_prepare_for_off_state+0x9c>
    43004dfc:	52800000 	mov	w0, #0x0                   	// #0
    43004e00:	d34a2821 	ubfx	x1, x1, #10, #1
    43004e04:	2a010000 	orr	w0, w0, w1
    43004e08:	17ffffed 	b	43004dbc <spm_mcdi_prepare_for_off_state+0xdc>

0000000043004e0c <spm_mcdi_finish_for_on_state>:
    43004e0c:	a9be7bfd 	stp	x29, x30, [sp, #-32]!
    43004e10:	910003fd 	mov	x29, sp
    43004e14:	a90153f3 	stp	x19, x20, [sp, #16]
    43004e18:	d346fc14 	lsr	x20, x0, #6
    43004e1c:	92401c13 	and	x19, x0, #0xff
    43004e20:	97fffe03 	bl	4300462c <spm_lock_get>
    43004e24:	927e1e94 	and	x20, x20, #0x3fc
    43004e28:	d28d6001 	mov	x1, #0x6b00                	// #27392
    43004e2c:	aa130294 	orr	x20, x20, x19
    43004e30:	f2a20001 	movk	x1, #0x1000, lsl #16
    43004e34:	b9400020 	ldr	w0, [x1]
    43004e38:	120e7800 	and	w0, w0, #0xfffdffff
    43004e3c:	b9000020 	str	w0, [x1]
    43004e40:	71000e7f 	cmp	w19, #0x3
    43004e44:	540001a8 	b.hi	43004e78 <spm_mcdi_finish_for_on_state+0x6c>  // b.pmore
    43004e48:	f0000000 	adrp	x0, 43007000 <efuse_write+0x350>
    43004e4c:	2a1303e1 	mov	w1, w19
    43004e50:	9135e000 	add	x0, x0, #0xd78
    43004e54:	38614800 	ldrb	w0, [x0, w1, uxtw]
    43004e58:	10000061 	adr	x1, 43004e64 <spm_mcdi_finish_for_on_state+0x58>
    43004e5c:	8b208820 	add	x0, x1, w0, sxtb #2
    43004e60:	d61f0000 	br	x0
    43004e64:	d28de000 	mov	x0, #0x6f00                	// #28416
    43004e68:	f2a20000 	movk	x0, #0x1000, lsl #16
    43004e6c:	d10f4000 	sub	x0, x0, #0x3d0
    43004e70:	b903d01f 	str	wzr, [x0, #976]
    43004e74:	b900001f 	str	wzr, [x0]
    43004e78:	52800020 	mov	w0, #0x1                   	// #1
    43004e7c:	1ad42014 	lsl	w20, w0, w20
    43004e80:	d28c7c80 	mov	x0, #0x63e4                	// #25572
    43004e84:	f2a20000 	movk	x0, #0x1000, lsl #16
    43004e88:	b9000014 	str	w20, [x0]
    43004e8c:	a94153f3 	ldp	x19, x20, [sp, #16]
    43004e90:	a8c27bfd 	ldp	x29, x30, [sp], #32
    43004e94:	17fffde9 	b	43004638 <spm_lock_release>
    43004e98:	d28de080 	mov	x0, #0x6f04                	// #28420
    43004e9c:	17fffff3 	b	43004e68 <spm_mcdi_finish_for_on_state+0x5c>
    43004ea0:	d28de100 	mov	x0, #0x6f08                	// #28424
    43004ea4:	17fffff1 	b	43004e68 <spm_mcdi_finish_for_on_state+0x5c>
    43004ea8:	d28de180 	mov	x0, #0x6f0c                	// #28428
    43004eac:	17ffffef 	b	43004e68 <spm_mcdi_finish_for_on_state+0x5c>

0000000043004eb0 <spm_system_suspend>:
    43004eb0:	a9be7bfd 	stp	x29, x30, [sp, #-32]!
    43004eb4:	910003fd 	mov	x29, sp
    43004eb8:	f9000bf3 	str	x19, [sp, #16]
    43004ebc:	97fffddc 	bl	4300462c <spm_lock_get>
    43004ec0:	f0000021 	adrp	x1, 4300b000 <__RO_END_UNALIGNED__>
    43004ec4:	91023033 	add	x19, x1, #0x8c
    43004ec8:	52844742 	mov	w2, #0x223a                	// #8762
    43004ecc:	b9400660 	ldr	w0, [x19, #4]
    43004ed0:	7100001f 	cmp	w0, #0x0
    43004ed4:	1a821000 	csel	w0, w0, w2, ne  // ne = any
    43004ed8:	b9008c20 	str	w0, [x1, #140]
    43004edc:	97fffef3 	bl	43004aa8 <spm_set_sysclk_settle>
    43004ee0:	97fffdf0 	bl	430046a0 <spm_reset_and_init_pcm>
    43004ee4:	97fffe0e 	bl	4300471c <spm_init_pcm_register>
    43004ee8:	aa1303e0 	mov	x0, x19
    43004eec:	97fffe1f 	bl	43004768 <spm_set_power_control>
    43004ef0:	aa1303e0 	mov	x0, x19
    43004ef4:	97fffe67 	bl	43004890 <spm_set_wakeup_event>
    43004ef8:	aa1303e0 	mov	x0, x19
    43004efc:	f0000013 	adrp	x19, 43007000 <efuse_write+0x350>
    43004f00:	97fffeef 	bl	43004abc <spm_kick_pcm_to_run>
    43004f04:	911f0273 	add	x19, x19, #0x7c0
    43004f08:	aa1303e0 	mov	x0, x19
    43004f0c:	97fffea4 	bl	4300499c <spm_init_event_vector>
    43004f10:	aa1303e0 	mov	x0, x19
    43004f14:	97fffeb7 	bl	430049f0 <spm_kick_im_to_fetch>
    43004f18:	97fffdd7 	bl	43004674 <set_suspend_ready>
    43004f1c:	f9400bf3 	ldr	x19, [sp, #16]
    43004f20:	a8c27bfd 	ldp	x29, x30, [sp], #32
    43004f24:	17fffdc5 	b	43004638 <spm_lock_release>

0000000043004f28 <spm_system_suspend_finish>:
    43004f28:	a9bc7bfd 	stp	x29, x30, [sp, #-64]!
    43004f2c:	910003fd 	mov	x29, sp
    43004f30:	97fffdbf 	bl	4300462c <spm_lock_get>
    43004f34:	910063e0 	add	x0, sp, #0x18
    43004f38:	97fffe70 	bl	430048f8 <spm_get_wakeup_status>
    43004f3c:	97ffff19 	bl	43004ba0 <spm_clean_after_wakeup>
    43004f40:	910063e0 	add	x0, sp, #0x18
    43004f44:	97ffff32 	bl	43004c0c <spm_output_wake_reason>
    43004f48:	90000041 	adrp	x1, 4300c000 <__STACKS_START__+0xf00>
    43004f4c:	b90c3020 	str	w0, [x1, #3120]
    43004f50:	97fffdcf 	bl	4300468c <clear_all_ready>
    43004f54:	a8c47bfd 	ldp	x29, x30, [sp], #64
    43004f58:	17fffdb8 	b	43004638 <spm_lock_release>

0000000043004f5c <generic_timer_backup>:
    43004f5c:	d53be021 	mrs	x1, cntpct_el0
    43004f60:	d280ce82 	mov	x2, #0x674                 	// #1652
    43004f64:	52800180 	mov	w0, #0xc                   	// #12
    43004f68:	f2a20402 	movk	x2, #0x1020, lsl #16
    43004f6c:	d360fc23 	lsr	x3, x1, #32
    43004f70:	b9000040 	str	w0, [x2]
    43004f74:	d280ce00 	mov	x0, #0x670                 	// #1648
    43004f78:	f2a20400 	movk	x0, #0x1020, lsl #16
    43004f7c:	b9000003 	str	w3, [x0]
    43004f80:	52800103 	mov	w3, #0x8                   	// #8
    43004f84:	b9000043 	str	w3, [x2]
    43004f88:	b9000001 	str	w1, [x0]
    43004f8c:	d65f03c0 	ret

0000000043004f90 <mtk_wdt_soft_reset>:
    43004f90:	d2840001 	mov	x1, #0x2000                	// #8192
    43004f94:	12800982 	mov	w2, #0xffffffb3            	// #-77
    43004f98:	f2a20421 	movk	x1, #0x1021, lsl #16
    43004f9c:	b9400020 	ldr	w0, [x1]
    43004fa0:	0a020000 	and	w0, w0, w2
    43004fa4:	52801002 	mov	w2, #0x80                  	// #128
    43004fa8:	72a44002 	movk	w2, #0x2200, lsl #16
    43004fac:	2a020000 	orr	w0, w0, w2
    43004fb0:	b9000020 	str	w0, [x1]
    43004fb4:	52824122 	mov	w2, #0x1209                	// #4617
    43004fb8:	b9401420 	ldr	w0, [x1, #20]
    43004fbc:	2a020000 	orr	w0, w0, w2
    43004fc0:	b9001420 	str	w0, [x1, #20]
    43004fc4:	d65f03c0 	ret

0000000043004fc8 <mtk_antirollback_check_mtk_ar_table_parms>:
    43004fc8:	a9bf7bfd 	stp	x29, x30, [sp, #-16]!
    43004fcc:	90000040 	adrp	x0, 4300c000 <__STACKS_START__+0xf00>
    43004fd0:	b0000021 	adrp	x1, 43009000 <suspend_binary_ca7+0x2e0>
    43004fd4:	910003fd 	mov	x29, sp
    43004fd8:	f9450800 	ldr	x0, [x0, #2576]
    43004fdc:	913dd821 	add	x1, x1, #0xf76
    43004fe0:	b50000e0 	cbnz	x0, 43004ffc <mtk_antirollback_check_mtk_ar_table_parms+0x34>
    43004fe4:	b0000020 	adrp	x0, 43009000 <suspend_binary_ca7+0x2e0>
    43004fe8:	9136a000 	add	x0, x0, #0xda8
    43004fec:	940002da 	bl	43005b54 <tf_log>
    43004ff0:	12800000 	mov	w0, #0xffffffff            	// #-1
    43004ff4:	a8c17bfd 	ldp	x29, x30, [sp], #16
    43004ff8:	d65f03c0 	ret
    43004ffc:	b0000020 	adrp	x0, 43009000 <suspend_binary_ca7+0x2e0>
    43005000:	91377400 	add	x0, x0, #0xddd
    43005004:	17fffffa 	b	43004fec <mtk_antirollback_check_mtk_ar_table_parms+0x24>

0000000043005008 <mtk_antirollback_get_efuse_ar_ver>:
    43005008:	a9bc7bfd 	stp	x29, x30, [sp, #-64]!
    4300500c:	910003fd 	mov	x29, sp
    43005010:	a90153f3 	stp	x19, x20, [sp, #16]
    43005014:	aa0003f4 	mov	x20, x0
    43005018:	52800393 	mov	w19, #0x1c                  	// #28
    4300501c:	f90013f5 	str	x21, [sp, #32]
    43005020:	9100c3f5 	add	x21, sp, #0x30
    43005024:	a9037fff 	stp	xzr, xzr, [sp, #48]
    43005028:	aa1503e1 	mov	x1, x21
    4300502c:	2a1303e0 	mov	w0, w19
    43005030:	52800082 	mov	w2, #0x4                   	// #4
    43005034:	940006dc 	bl	43006ba4 <efuse_read>
    43005038:	350002c0 	cbnz	w0, 43005090 <mtk_antirollback_get_efuse_ar_ver+0x88>
    4300503c:	11000673 	add	w19, w19, #0x1
    43005040:	910012b5 	add	x21, x21, #0x4
    43005044:	7100827f 	cmp	w19, #0x20
    43005048:	54ffff01 	b.ne	43005028 <mtk_antirollback_get_efuse_ar_ver+0x20>  // b.any
    4300504c:	a9430be1 	ldp	x1, x2, [sp, #48]
    43005050:	52800003 	mov	w3, #0x0                   	// #0
    43005054:	aa020021 	orr	x1, x1, x2
    43005058:	52800022 	mov	w2, #0x1                   	// #1
    4300505c:	14000005 	b	43005070 <mtk_antirollback_get_efuse_ar_ver+0x68>
    43005060:	f240003f 	tst	x1, #0x1
    43005064:	d341fc21 	lsr	x1, x1, #1
    43005068:	1a820063 	csel	w3, w3, w2, eq  // eq = none
    4300506c:	11000442 	add	w2, w2, #0x1
    43005070:	7101005f 	cmp	w2, #0x40
    43005074:	fa409824 	ccmp	x1, #0x0, #0x4, ls  // ls = plast
    43005078:	54ffff41 	b.ne	43005060 <mtk_antirollback_get_efuse_ar_ver+0x58>  // b.any
    4300507c:	b9000283 	str	w3, [x20]
    43005080:	a94153f3 	ldp	x19, x20, [sp, #16]
    43005084:	f94013f5 	ldr	x21, [sp, #32]
    43005088:	a8c47bfd 	ldp	x29, x30, [sp], #64
    4300508c:	d65f03c0 	ret
    43005090:	90000021 	adrp	x1, 43009000 <suspend_binary_ca7+0x2e0>
    43005094:	90000020 	adrp	x0, 43009000 <suspend_binary_ca7+0x2e0>
    43005098:	913d5021 	add	x1, x1, #0xf54
    4300509c:	9138b000 	add	x0, x0, #0xe2c
    430050a0:	940002ad 	bl	43005b54 <tf_log>
    430050a4:	12800000 	mov	w0, #0xffffffff            	// #-1
    430050a8:	17fffff6 	b	43005080 <mtk_antirollback_get_efuse_ar_ver+0x78>

00000000430050ac <mtk_antirollback_get_fit_ar_ver>:
    430050ac:	a9bd7bfd 	stp	x29, x30, [sp, #-48]!
    430050b0:	910003fd 	mov	x29, sp
    430050b4:	f9000bf3 	str	x19, [sp, #16]
    430050b8:	aa0003f3 	mov	x19, x0
    430050bc:	97ffffc3 	bl	43004fc8 <mtk_antirollback_check_mtk_ar_table_parms>
    430050c0:	35000120 	cbnz	w0, 430050e4 <mtk_antirollback_get_fit_ar_ver+0x38>
    430050c4:	9100b3e0 	add	x0, sp, #0x2c
    430050c8:	97ffffd0 	bl	43005008 <mtk_antirollback_get_efuse_ar_ver>
    430050cc:	34000100 	cbz	w0, 430050ec <mtk_antirollback_get_fit_ar_ver+0x40>
    430050d0:	90000021 	adrp	x1, 43009000 <suspend_binary_ca7+0x2e0>
    430050d4:	90000020 	adrp	x0, 43009000 <suspend_binary_ca7+0x2e0>
    430050d8:	913cd021 	add	x1, x1, #0xf34
    430050dc:	91392c00 	add	x0, x0, #0xe4b
    430050e0:	9400029d 	bl	43005b54 <tf_log>
    430050e4:	12800000 	mov	w0, #0xffffffff            	// #-1
    430050e8:	14000008 	b	43005108 <mtk_antirollback_get_fit_ar_ver+0x5c>
    430050ec:	f0000021 	adrp	x1, 4300c000 <__STACKS_START__+0xf00>
    430050f0:	52800283 	mov	w3, #0x14                  	// #20
    430050f4:	f9450822 	ldr	x2, [x1, #2576]
    430050f8:	b9402fe1 	ldr	w1, [sp, #44]
    430050fc:	9ba30821 	umaddl	x1, w1, w3, x2
    43005100:	b9401021 	ldr	w1, [x1, #16]
    43005104:	b9000261 	str	w1, [x19]
    43005108:	f9400bf3 	ldr	x19, [sp, #16]
    4300510c:	a8c37bfd 	ldp	x29, x30, [sp], #48
    43005110:	d65f03c0 	ret

0000000043005114 <mtk_antirollback_update_efuse_ar_ver>:
    43005114:	a9bb7bfd 	stp	x29, x30, [sp, #-80]!
    43005118:	910003fd 	mov	x29, sp
    4300511c:	a90153f3 	stp	x19, x20, [sp, #16]
    43005120:	a9025bf5 	stp	x21, x22, [sp, #32]
    43005124:	97ffffa9 	bl	43004fc8 <mtk_antirollback_check_mtk_ar_table_parms>
    43005128:	35000140 	cbnz	w0, 43005150 <mtk_antirollback_update_efuse_ar_ver+0x3c>
    4300512c:	9100f3e0 	add	x0, sp, #0x3c
    43005130:	97ffffb6 	bl	43005008 <mtk_antirollback_get_efuse_ar_ver>
    43005134:	2a0003f3 	mov	w19, w0
    43005138:	34000100 	cbz	w0, 43005158 <mtk_antirollback_update_efuse_ar_ver+0x44>
    4300513c:	90000021 	adrp	x1, 43009000 <suspend_binary_ca7+0x2e0>
    43005140:	90000020 	adrp	x0, 43009000 <suspend_binary_ca7+0x2e0>
    43005144:	913c3c21 	add	x1, x1, #0xf0f
    43005148:	91392c00 	add	x0, x0, #0xe4b
    4300514c:	94000282 	bl	43005b54 <tf_log>
    43005150:	12800013 	mov	w19, #0xffffffff            	// #-1
    43005154:	1400002b 	b	43005200 <mtk_antirollback_update_efuse_ar_ver+0xec>
    43005158:	b9403fe0 	ldr	w0, [sp, #60]
    4300515c:	3100041f 	cmn	w0, #0x1
    43005160:	54000500 	b.eq	43005200 <mtk_antirollback_update_efuse_ar_ver+0xec>  // b.none
    43005164:	12800001 	mov	w1, #0xffffffff            	// #-1
    43005168:	d2800000 	mov	x0, #0x0                   	// #0
    4300516c:	d37ff800 	lsl	x0, x0, #1
    43005170:	71000421 	subs	w1, w1, #0x1
    43005174:	b2400000 	orr	x0, x0, #0x1
    43005178:	54ffffa1 	b.ne	4300516c <mtk_antirollback_update_efuse_ar_ver+0x58>  // b.any
    4300517c:	910103f5 	add	x21, sp, #0x40
    43005180:	52800394 	mov	w20, #0x1c                  	// #28
    43005184:	d28008b6 	mov	x22, #0x45                  	// #69
    43005188:	a90403e0 	stp	x0, x0, [sp, #64]
    4300518c:	52800082 	mov	w2, #0x4                   	// #4
    43005190:	aa1503e1 	mov	x1, x21
    43005194:	2a1403e0 	mov	w0, w20
    43005198:	940006c6 	bl	43006cb0 <efuse_write>
    4300519c:	2a0003e2 	mov	w2, w0
    430051a0:	11001800 	add	w0, w0, #0x6
    430051a4:	7100181f 	cmp	w0, #0x6
    430051a8:	54000068 	b.hi	430051b4 <mtk_antirollback_update_efuse_ar_ver+0xa0>  // b.pmore
    430051ac:	9ac026c0 	lsr	x0, x22, x0
    430051b0:	37000200 	tbnz	w0, #0, 430051f0 <mtk_antirollback_update_efuse_ar_ver+0xdc>
    430051b4:	90000021 	adrp	x1, 43009000 <suspend_binary_ca7+0x2e0>
    430051b8:	90000020 	adrp	x0, 43009000 <suspend_binary_ca7+0x2e0>
    430051bc:	913b2021 	add	x1, x1, #0xec8
    430051c0:	9139a000 	add	x0, x0, #0xe68
    430051c4:	94000264 	bl	43005b54 <tf_log>
    430051c8:	90000021 	adrp	x1, 43009000 <suspend_binary_ca7+0x2e0>
    430051cc:	90000020 	adrp	x0, 43009000 <suspend_binary_ca7+0x2e0>
    430051d0:	913bb421 	add	x1, x1, #0xeed
    430051d4:	913a2c00 	add	x0, x0, #0xe8b
    430051d8:	9400025f 	bl	43005b54 <tf_log>
    430051dc:	90000021 	adrp	x1, 43009000 <suspend_binary_ca7+0x2e0>
    430051e0:	90000020 	adrp	x0, 43009000 <suspend_binary_ca7+0x2e0>
    430051e4:	913c3c21 	add	x1, x1, #0xf0f
    430051e8:	913aac00 	add	x0, x0, #0xeab
    430051ec:	17ffffd8 	b	4300514c <mtk_antirollback_update_efuse_ar_ver+0x38>
    430051f0:	11000694 	add	w20, w20, #0x1
    430051f4:	910012b5 	add	x21, x21, #0x4
    430051f8:	7100829f 	cmp	w20, #0x20
    430051fc:	54fffc81 	b.ne	4300518c <mtk_antirollback_update_efuse_ar_ver+0x78>  // b.any
    43005200:	2a1303e0 	mov	w0, w19
    43005204:	a94153f3 	ldp	x19, x20, [sp, #16]
    43005208:	a9425bf5 	ldp	x21, x22, [sp, #32]
    4300520c:	a8c57bfd 	ldp	x29, x30, [sp], #80
    43005210:	d65f03c0 	ret

0000000043005214 <plat_mt_gic_driver_init>:
    43005214:	d0000000 	adrp	x0, 43007000 <efuse_write+0x350>
    43005218:	911fe000 	add	x0, x0, #0x7f8
    4300521c:	17fff1cd 	b	43001950 <gicv2_driver_init>

0000000043005220 <plat_mt_gic_init>:
    43005220:	a9bf7bfd 	stp	x29, x30, [sp, #-16]!
    43005224:	910003fd 	mov	x29, sp
    43005228:	97fff1b4 	bl	430018f8 <gicv2_distif_init>
    4300522c:	97fff1a1 	bl	430018b0 <gicv2_pcpu_distif_init>
    43005230:	97fff190 	bl	43001870 <gicv2_cpuif_enable>
    43005234:	52800042 	mov	w2, #0x2                   	// #2
    43005238:	52801401 	mov	w1, #0xa0                  	// #160
    4300523c:	d2a20620 	mov	x0, #0x10310000            	// #271646720
    43005240:	97fff0d7 	bl	4300159c <gicd_write_icfgr>
    43005244:	d2814000 	mov	x0, #0xa00                 	// #2560
    43005248:	f2a20400 	movk	x0, #0x1020, lsl #16
    4300524c:	b900001f 	str	wzr, [x0]
    43005250:	b900041f 	str	wzr, [x0, #4]
    43005254:	b900081f 	str	wzr, [x0, #8]
    43005258:	b9000c1f 	str	wzr, [x0, #12]
    4300525c:	b900101f 	str	wzr, [x0, #16]
    43005260:	b900141f 	str	wzr, [x0, #20]
    43005264:	b900181f 	str	wzr, [x0, #24]
    43005268:	b9001c1f 	str	wzr, [x0, #28]
    4300526c:	a8c17bfd 	ldp	x29, x30, [sp], #16
    43005270:	d65f03c0 	ret

0000000043005274 <plat_cpu_standby>:
    43005274:	d53e1100 	mrs	x0, scr_el3
    43005278:	321f0001 	orr	w1, w0, #0x2
    4300527c:	d51e1101 	msr	scr_el3, x1
    43005280:	d5033fdf 	isb
    43005284:	d5033f9f 	dsb	sy
    43005288:	d503207f 	wfi
    4300528c:	92407c00 	and	x0, x0, #0xffffffff
    43005290:	d51e1100 	msr	scr_el3, x0
    43005294:	d65f03c0 	ret

0000000043005298 <plat_get_sys_suspend_power_state>:
    43005298:	52800041 	mov	w1, #0x2                   	// #2
    4300529c:	39000001 	strb	w1, [x0]
    430052a0:	39000401 	strb	w1, [x0, #1]
    430052a4:	39000801 	strb	w1, [x0, #2]
    430052a8:	d65f03c0 	ret

00000000430052ac <plat_validate_power_state>:
    430052ac:	2a0003e2 	mov	w2, w0
    430052b0:	d3586440 	ubfx	x0, x2, #24, #2
    430052b4:	d3504043 	ubfx	x3, x2, #16, #1
    430052b8:	71000c1f 	cmp	w0, #0x3
    430052bc:	54000100 	b.eq	430052dc <plat_validate_power_state+0x30>  // b.none
    430052c0:	35000123 	cbnz	w3, 430052e4 <plat_validate_power_state+0x38>
    430052c4:	350000c0 	cbnz	w0, 430052dc <plat_validate_power_state+0x30>
    430052c8:	52800020 	mov	w0, #0x1                   	// #1
    430052cc:	39000020 	strb	w0, [x1]
    430052d0:	52800000 	mov	w0, #0x0                   	// #0
    430052d4:	72003c5f 	tst	w2, #0xffff
    430052d8:	54000040 	b.eq	430052e0 <plat_validate_power_state+0x34>  // b.none
    430052dc:	12800020 	mov	w0, #0xfffffffe            	// #-2
    430052e0:	d65f03c0 	ret
    430052e4:	52800043 	mov	w3, #0x2                   	// #2
    430052e8:	39000023 	strb	w3, [x1]
    430052ec:	34ffff20 	cbz	w0, 430052d0 <plat_validate_power_state+0x24>
    430052f0:	39000423 	strb	w3, [x1, #1]
    430052f4:	7100081f 	cmp	w0, #0x2
    430052f8:	54fffec1 	b.ne	430052d0 <plat_validate_power_state+0x24>  // b.any
    430052fc:	39000820 	strb	w0, [x1, #2]
    43005300:	17fffff4 	b	430052d0 <plat_validate_power_state+0x24>

0000000043005304 <plat_mtk_system_reset>:
    43005304:	a9bf7bfd 	stp	x29, x30, [sp, #-16]!
    43005308:	910003fd 	mov	x29, sp
    4300530c:	97ffff21 	bl	43004f90 <mtk_wdt_soft_reset>
    43005310:	d503207f 	wfi
    43005314:	90000020 	adrp	x0, 43009000 <suspend_binary_ca7+0x2e0>
    43005318:	913e8000 	add	x0, x0, #0xfa0
    4300531c:	9400020e 	bl	43005b54 <tf_log>
    43005320:	94000286 	bl	43005d38 <console_flush>
    43005324:	94000537 	bl	43006800 <el3_panic>

0000000043005328 <plat_system_off>:
    43005328:	a9bf7bfd 	stp	x29, x30, [sp, #-16]!
    4300532c:	910003fd 	mov	x29, sp
    43005330:	97fffc2c 	bl	430043e0 <rtc_bbpu_power_down>
    43005334:	d503207f 	wfi
    43005338:	90000020 	adrp	x0, 43009000 <suspend_binary_ca7+0x2e0>
    4300533c:	913f2c00 	add	x0, x0, #0xfcb
    43005340:	94000205 	bl	43005b54 <tf_log>
    43005344:	9400027d 	bl	43005d38 <console_flush>
    43005348:	9400052e 	bl	43006800 <el3_panic>

000000004300534c <plat_power_domain_suspend_finish>:
    4300534c:	a9be7bfd 	stp	x29, x30, [sp, #-32]!
    43005350:	910003fd 	mov	x29, sp
    43005354:	a90153f3 	stp	x19, x20, [sp, #16]
    43005358:	aa0003f3 	mov	x19, x0
    4300535c:	d53800b4 	mrs	x20, mpidr_el1
    43005360:	39400000 	ldrb	w0, [x0]
    43005364:	7100041f 	cmp	w0, #0x1
    43005368:	540005a0 	b.eq	4300541c <plat_power_domain_suspend_finish+0xd0>  // b.none
    4300536c:	39400a60 	ldrb	w0, [x19, #2]
    43005370:	7100081f 	cmp	w0, #0x2
    43005374:	540000a1 	b.ne	43005388 <plat_power_domain_suspend_finish+0x3c>  // b.any
    43005378:	97fff9f5 	bl	43003b4c <plat_arm_gic_init>
    4300537c:	97fffeeb 	bl	43004f28 <spm_system_suspend_finish>
    43005380:	aa1403e0 	mov	x0, x20
    43005384:	94000168 	bl	43005924 <enable_scu>
    43005388:	39400660 	ldrb	w0, [x19, #1]
    4300538c:	7100081f 	cmp	w0, #0x2
    43005390:	54000041 	b.ne	43005398 <plat_power_domain_suspend_finish+0x4c>  // b.any
    43005394:	97fffb1e 	bl	4300400c <plat_cci_enable>
    43005398:	53083e80 	ubfx	w0, w20, #8, #8
    4300539c:	52801402 	mov	w2, #0xa0                  	// #160
    430053a0:	12001e81 	and	w1, w20, #0xff
    430053a4:	9ba27c00 	umull	x0, w0, w2
    430053a8:	52800a02 	mov	w2, #0x50                  	// #80
    430053ac:	9ba20020 	umaddl	x0, w1, w2, x0
    430053b0:	f0000021 	adrp	x1, 4300c000 <__STACKS_START__+0xf00>
    430053b4:	91292021 	add	x1, x1, #0xa48
    430053b8:	8b000021 	add	x1, x1, x0
    430053bc:	a9400820 	ldp	x0, x2, [x1]
    430053c0:	d518e100 	msr	cntkctl_el1, x0
    430053c4:	d51be242 	msr	cntp_cval_el0, x2
    430053c8:	a9410820 	ldp	x0, x2, [x1, #16]
    430053cc:	d51be200 	msr	cntp_tval_el0, x0
    430053d0:	d51be222 	msr	cntp_ctl_el0, x2
    430053d4:	a9420820 	ldp	x0, x2, [x1, #32]
    430053d8:	d51be300 	msr	cntv_tval_el0, x0
    430053dc:	d51be322 	msr	cntv_ctl_el0, x2
    430053e0:	39400a60 	ldrb	w0, [x19, #2]
    430053e4:	7100081f 	cmp	w0, #0x2
    430053e8:	54000140 	b.eq	43005410 <plat_power_domain_suspend_finish+0xc4>  // b.none
    430053ec:	aa1403e0 	mov	x0, x20
    430053f0:	52800001 	mov	w1, #0x0                   	// #0
    430053f4:	97fffe86 	bl	43004e0c <spm_mcdi_finish_for_on_state>
    430053f8:	39400660 	ldrb	w0, [x19, #1]
    430053fc:	7100081f 	cmp	w0, #0x2
    43005400:	54000081 	b.ne	43005410 <plat_power_domain_suspend_finish+0xc4>  // b.any
    43005404:	aa1403e0 	mov	x0, x20
    43005408:	52800021 	mov	w1, #0x1                   	// #1
    4300540c:	97fffe80 	bl	43004e0c <spm_mcdi_finish_for_on_state>
    43005410:	a94153f3 	ldp	x19, x20, [sp, #16]
    43005414:	a8c27bfd 	ldp	x29, x30, [sp], #32
    43005418:	17fff126 	b	430018b0 <gicv2_pcpu_distif_init>
    4300541c:	a94153f3 	ldp	x19, x20, [sp, #16]
    43005420:	a8c27bfd 	ldp	x29, x30, [sp], #32
    43005424:	d65f03c0 	ret

0000000043005428 <plat_power_domain_suspend>:
    43005428:	a9be7bfd 	stp	x29, x30, [sp, #-32]!
    4300542c:	910003fd 	mov	x29, sp
    43005430:	a90153f3 	stp	x19, x20, [sp, #16]
    43005434:	aa0003f4 	mov	x20, x0
    43005438:	d53800b3 	mrs	x19, mpidr_el1
    4300543c:	f0000021 	adrp	x1, 4300c000 <__STACKS_START__+0xf00>
    43005440:	d37d1e60 	ubfiz	x0, x19, #3, #8
    43005444:	91002000 	add	x0, x0, #0x8
    43005448:	f9457422 	ldr	x2, [x1, #2792]
    4300544c:	d2800601 	mov	x1, #0x30                  	// #48
    43005450:	f2a20401 	movk	x1, #0x1020, lsl #16
    43005454:	b8216802 	str	w2, [x0, x1]
    43005458:	39400a80 	ldrb	w0, [x20, #2]
    4300545c:	7100081f 	cmp	w0, #0x2
    43005460:	54000140 	b.eq	43005488 <plat_power_domain_suspend+0x60>  // b.none
    43005464:	aa1303e0 	mov	x0, x19
    43005468:	52800001 	mov	w1, #0x0                   	// #0
    4300546c:	97fffe1d 	bl	43004ce0 <spm_mcdi_prepare_for_off_state>
    43005470:	39400680 	ldrb	w0, [x20, #1]
    43005474:	7100081f 	cmp	w0, #0x2
    43005478:	54000081 	b.ne	43005488 <plat_power_domain_suspend+0x60>  // b.any
    4300547c:	aa1303e0 	mov	x0, x19
    43005480:	52800021 	mov	w1, #0x1                   	// #1
    43005484:	97fffe17 	bl	43004ce0 <spm_mcdi_prepare_for_off_state>
    43005488:	53083e60 	ubfx	w0, w19, #8, #8
    4300548c:	52801402 	mov	w2, #0xa0                  	// #160
    43005490:	12001e61 	and	w1, w19, #0xff
    43005494:	9ba27c00 	umull	x0, w0, w2
    43005498:	52800a02 	mov	w2, #0x50                  	// #80
    4300549c:	9ba20020 	umaddl	x0, w1, w2, x0
    430054a0:	f0000021 	adrp	x1, 4300c000 <__STACKS_START__+0xf00>
    430054a4:	91292021 	add	x1, x1, #0xa48
    430054a8:	8b000021 	add	x1, x1, x0
    430054ac:	d538e100 	mrs	x0, cntkctl_el1
    430054b0:	d53be242 	mrs	x2, cntp_cval_el0
    430054b4:	a9000820 	stp	x0, x2, [x1]
    430054b8:	d53be200 	mrs	x0, cntp_tval_el0
    430054bc:	d53be222 	mrs	x2, cntp_ctl_el0
    430054c0:	a9010820 	stp	x0, x2, [x1, #16]
    430054c4:	d53be300 	mrs	x0, cntv_tval_el0
    430054c8:	d53be322 	mrs	x2, cntv_ctl_el0
    430054cc:	a9020820 	stp	x0, x2, [x1, #32]
    430054d0:	d53be220 	mrs	x0, cntp_ctl_el0
    430054d4:	927f7800 	and	x0, x0, #0xfffffffe
    430054d8:	d51be220 	msr	cntp_ctl_el0, x0
    430054dc:	39400680 	ldrb	w0, [x20, #1]
    430054e0:	7100081f 	cmp	w0, #0x2
    430054e4:	54000041 	b.ne	430054ec <plat_power_domain_suspend+0xc4>  // b.any
    430054e8:	97fffacc 	bl	43004018 <plat_cci_disable>
    430054ec:	39400a80 	ldrb	w0, [x20, #2]
    430054f0:	7100081f 	cmp	w0, #0x2
    430054f4:	54000101 	b.ne	43005514 <plat_power_domain_suspend+0xec>  // b.any
    430054f8:	aa1303e0 	mov	x0, x19
    430054fc:	94000104 	bl	4300590c <disable_scu>
    43005500:	97fffe97 	bl	43004f5c <generic_timer_backup>
    43005504:	97fffe6b 	bl	43004eb0 <spm_system_suspend>
    43005508:	a94153f3 	ldp	x19, x20, [sp, #16]
    4300550c:	a8c27bfd 	ldp	x29, x30, [sp], #32
    43005510:	17fff0e0 	b	43001890 <gicv2_cpuif_disable>
    43005514:	a94153f3 	ldp	x19, x20, [sp, #16]
    43005518:	a8c27bfd 	ldp	x29, x30, [sp], #32
    4300551c:	d65f03c0 	ret

0000000043005520 <plat_power_domain_off>:
    43005520:	a9be7bfd 	stp	x29, x30, [sp, #-32]!
    43005524:	910003fd 	mov	x29, sp
    43005528:	a90153f3 	stp	x19, x20, [sp, #16]
    4300552c:	aa0003f3 	mov	x19, x0
    43005530:	d53800b4 	mrs	x20, mpidr_el1
    43005534:	97fff0d7 	bl	43001890 <gicv2_cpuif_disable>
    43005538:	aa1403e0 	mov	x0, x20
    4300553c:	52800021 	mov	w1, #0x1                   	// #1
    43005540:	940000f2 	bl	43005908 <trace_power_flow>
    43005544:	39400660 	ldrb	w0, [x19, #1]
    43005548:	7100081f 	cmp	w0, #0x2
    4300554c:	540000e1 	b.ne	43005568 <plat_power_domain_off+0x48>  // b.any
    43005550:	97fffab2 	bl	43004018 <plat_cci_disable>
    43005554:	aa1403e0 	mov	x0, x20
    43005558:	52800081 	mov	w1, #0x4                   	// #4
    4300555c:	a94153f3 	ldp	x19, x20, [sp, #16]
    43005560:	a8c27bfd 	ldp	x29, x30, [sp], #32
    43005564:	140000e9 	b	43005908 <trace_power_flow>
    43005568:	a94153f3 	ldp	x19, x20, [sp, #16]
    4300556c:	a8c27bfd 	ldp	x29, x30, [sp], #32
    43005570:	d65f03c0 	ret

0000000043005574 <plat_power_domain_on>:
    43005574:	a9bf7bfd 	stp	x29, x30, [sp, #-16]!
    43005578:	d2800781 	mov	x1, #0x3c                  	// #60
    4300557c:	f2a20401 	movk	x1, #0x1020, lsl #16
    43005580:	910003fd 	mov	x29, sp
    43005584:	529e0002 	mov	w2, #0xf000                	// #61440
    43005588:	b9000022 	str	w2, [x1]
    4300558c:	f0000021 	adrp	x1, 4300c000 <__STACKS_START__+0xf00>
    43005590:	d37d1c00 	ubfiz	x0, x0, #3, #8
    43005594:	91002000 	add	x0, x0, #0x8
    43005598:	f9457422 	ldr	x2, [x1, #2792]
    4300559c:	d2800601 	mov	x1, #0x30                  	// #48
    430055a0:	f2a20401 	movk	x1, #0x1020, lsl #16
    430055a4:	b8216802 	str	w2, [x0, x1]
    430055a8:	97fffbda 	bl	43004510 <mtcmos_little_cpu_on>
    430055ac:	52800000 	mov	w0, #0x0                   	// #0
    430055b0:	a8c17bfd 	ldp	x29, x30, [sp], #16
    430055b4:	d65f03c0 	ret

00000000430055b8 <mtk_system_pwr_domain_resume>:
    430055b8:	a9bf7bfd 	stp	x29, x30, [sp, #-16]!
    430055bc:	52984002 	mov	w2, #0xc200                	// #49664
    430055c0:	528f0801 	mov	w1, #0x7840                	// #30784
    430055c4:	d2840000 	mov	x0, #0x2000                	// #8192
    430055c8:	910003fd 	mov	x29, sp
    430055cc:	52800023 	mov	w3, #0x1                   	// #1
    430055d0:	72a00022 	movk	w2, #0x1, lsl #16
    430055d4:	72a02fa1 	movk	w1, #0x17d, lsl #16
    430055d8:	f0000024 	adrp	x4, 4300c000 <__STACKS_START__+0xf00>
    430055dc:	f2a22000 	movk	x0, #0x1100, lsl #16
    430055e0:	91286084 	add	x4, x4, #0xa18
    430055e4:	94000449 	bl	43006708 <console_hsuart_register>
    430055e8:	a8c17bfd 	ldp	x29, x30, [sp], #16
    430055ec:	17fff958 	b	43003b4c <plat_arm_gic_init>

00000000430055f0 <plat_power_domain_on_finish>:
    430055f0:	a9be7bfd 	stp	x29, x30, [sp, #-32]!
    430055f4:	910003fd 	mov	x29, sp
    430055f8:	a90153f3 	stp	x19, x20, [sp, #16]
    430055fc:	aa0003f3 	mov	x19, x0
    43005600:	d53800b4 	mrs	x20, mpidr_el1
    43005604:	39400800 	ldrb	w0, [x0, #2]
    43005608:	7100081f 	cmp	w0, #0x2
    4300560c:	54000041 	b.ne	43005614 <plat_power_domain_on_finish+0x24>  // b.any
    43005610:	97ffffea 	bl	430055b8 <mtk_system_pwr_domain_resume>
    43005614:	39400660 	ldrb	w0, [x19, #1]
    43005618:	7100081f 	cmp	w0, #0x2
    4300561c:	540000a1 	b.ne	43005630 <plat_power_domain_on_finish+0x40>  // b.any
    43005620:	97fffa7b 	bl	4300400c <plat_cci_enable>
    43005624:	aa1403e0 	mov	x0, x20
    43005628:	52800061 	mov	w1, #0x3                   	// #3
    4300562c:	940000b7 	bl	43005908 <trace_power_flow>
    43005630:	39400a60 	ldrb	w0, [x19, #2]
    43005634:	7100081f 	cmp	w0, #0x2
    43005638:	54000100 	b.eq	43005658 <plat_power_domain_on_finish+0x68>  // b.none
    4300563c:	97fff08d 	bl	43001870 <gicv2_cpuif_enable>
    43005640:	97fff09c 	bl	430018b0 <gicv2_pcpu_distif_init>
    43005644:	aa1403e0 	mov	x0, x20
    43005648:	52800001 	mov	w1, #0x0                   	// #0
    4300564c:	a94153f3 	ldp	x19, x20, [sp, #16]
    43005650:	a8c27bfd 	ldp	x29, x30, [sp], #32
    43005654:	140000ad 	b	43005908 <trace_power_flow>
    43005658:	a94153f3 	ldp	x19, x20, [sp, #16]
    4300565c:	a8c27bfd 	ldp	x29, x30, [sp], #32
    43005660:	d65f03c0 	ret

0000000043005664 <plat_setup_psci_ops>:
    43005664:	d0000002 	adrp	x2, 43007000 <efuse_write+0x350>
    43005668:	9120a042 	add	x2, x2, #0x828
    4300566c:	f9000022 	str	x2, [x1]
    43005670:	f0000021 	adrp	x1, 4300c000 <__STACKS_START__+0xf00>
    43005674:	f9057420 	str	x0, [x1, #2792]
    43005678:	52800000 	mov	w0, #0x0                   	// #0
    4300567c:	d65f03c0 	ret

0000000043005680 <plat_get_target_pwr_state>:
    43005680:	d2800003 	mov	x3, #0x0                   	// #0
    43005684:	52800040 	mov	w0, #0x2                   	// #2
    43005688:	38636824 	ldrb	w4, [x1, x3]
    4300568c:	91000463 	add	x3, x3, #0x1
    43005690:	6b00009f 	cmp	w4, w0
    43005694:	1a809080 	csel	w0, w4, w0, ls  // ls = plast
    43005698:	12001c00 	and	w0, w0, #0xff
    4300569c:	6b03005f 	cmp	w2, w3
    430056a0:	54ffff41 	b.ne	43005688 <plat_get_target_pwr_state+0x8>  // b.any
    430056a4:	d65f03c0 	ret

00000000430056a8 <mt_sip_set_authorized_sreg>:
    430056a8:	52812082 	mov	w2, #0x904                 	// #2308
    430056ac:	72a28002 	movk	w2, #0x1400, lsl #16
    430056b0:	6b02001f 	cmp	w0, w2
    430056b4:	540000c1 	b.ne	430056cc <mt_sip_set_authorized_sreg+0x24>  // b.any
    430056b8:	d2812080 	mov	x0, #0x904                 	// #2308
    430056bc:	f2a28000 	movk	x0, #0x1400, lsl #16
    430056c0:	b9000001 	str	w1, [x0]
    430056c4:	d2800000 	mov	x0, #0x0                   	// #0
    430056c8:	d65f03c0 	ret
    430056cc:	92800000 	mov	x0, #0xffffffffffffffff    	// #-1
    430056d0:	17fffffe 	b	430056c8 <mt_sip_set_authorized_sreg+0x20>

00000000430056d4 <mediatek_plat_sip_handler>:
    430056d4:	a9bc7bfd 	stp	x29, x30, [sp, #-64]!
    430056d8:	910003fd 	mov	x29, sp
    430056dc:	a90153f3 	stp	x19, x20, [sp, #16]
    430056e0:	aa0103f4 	mov	x20, x1
    430056e4:	5280a0a1 	mov	w1, #0x505                 	// #1285
    430056e8:	f90013f5 	str	x21, [sp, #32]
    430056ec:	aa0603f3 	mov	x19, x6
    430056f0:	29067fff 	stp	wzr, wzr, [sp, #48]
    430056f4:	72b84001 	movk	w1, #0xc200, lsl #16
    430056f8:	290713e3 	stp	w3, w4, [sp, #56]
    430056fc:	6b01001f 	cmp	w0, w1
    43005700:	54000488 	b.hi	43005790 <mediatek_plat_sip_handler+0xbc>  // b.pmore
    43005704:	51001421 	sub	w1, w1, #0x5
    43005708:	6b01001f 	cmp	w0, w1
    4300570c:	54000268 	b.hi	43005758 <mediatek_plat_sip_handler+0x84>  // b.pmore
    43005710:	52808061 	mov	w1, #0x403                 	// #1027
    43005714:	72b04001 	movk	w1, #0x8200, lsl #16
    43005718:	6b01001f 	cmp	w0, w1
    4300571c:	540005c0 	b.eq	430057d4 <mediatek_plat_sip_handler+0x100>  // b.none
    43005720:	11000421 	add	w1, w1, #0x1
    43005724:	6b01001f 	cmp	w0, w1
    43005728:	540005c0 	b.eq	430057e0 <mediatek_plat_sip_handler+0x10c>  // b.none
    4300572c:	51000821 	sub	w1, w1, #0x2
    43005730:	6b01001f 	cmp	w0, w1
    43005734:	54000420 	b.eq	430057b8 <mediatek_plat_sip_handler+0xe4>  // b.none
    43005738:	2a0003e2 	mov	w2, w0
    4300573c:	b0000021 	adrp	x1, 4300a000 <__func__.7+0x8a>
    43005740:	90000020 	adrp	x0, 43009000 <suspend_binary_ca7+0x2e0>
    43005744:	91003c21 	add	x1, x1, #0xf
    43005748:	913fd000 	add	x0, x0, #0xff4
    4300574c:	94000102 	bl	43005b54 <tf_log>
    43005750:	92800000 	mov	x0, #0xffffffffffffffff    	// #-1
    43005754:	1400001e 	b	430057cc <mediatek_plat_sip_handler+0xf8>
    43005758:	529f5fc3 	mov	w3, #0xfafe                	// #64254
    4300575c:	72a7bfe3 	movk	w3, #0x3dff, lsl #16
    43005760:	0b030003 	add	w3, w0, w3
    43005764:	71000c7f 	cmp	w3, #0x3
    43005768:	54000488 	b.hi	430057f8 <mediatek_plat_sip_handler+0x124>  // b.pmore
    4300576c:	90000021 	adrp	x1, 43009000 <suspend_binary_ca7+0x2e0>
    43005770:	f0000020 	adrp	x0, 4300c000 <__STACKS_START__+0xf00>
    43005774:	aa0203f5 	mov	x21, x2
    43005778:	91297021 	add	x1, x1, #0xa5c
    4300577c:	9130d000 	add	x0, x0, #0xc34
    43005780:	38634821 	ldrb	w1, [x1, w3, uxtw]
    43005784:	10000062 	adr	x2, 43005790 <mediatek_plat_sip_handler+0xbc>
    43005788:	8b218841 	add	x1, x2, w1, sxtb #2
    4300578c:	d61f0020 	br	x1
    43005790:	5280a401 	mov	w1, #0x520                 	// #1312
    43005794:	72b84001 	movk	w1, #0xc200, lsl #16
    43005798:	6b01001f 	cmp	w0, w1
    4300579c:	54000780 	b.eq	4300588c <mediatek_plat_sip_handler+0x1b8>  // b.none
    430057a0:	11000421 	add	w1, w1, #0x1
    430057a4:	6b01001f 	cmp	w0, w1
    430057a8:	54fffc81 	b.ne	43005738 <mediatek_plat_sip_handler+0x64>  // b.any
    430057ac:	97fffe5a 	bl	43005114 <mtk_antirollback_update_efuse_ar_ver>
    430057b0:	93407c00 	sxtw	x0, w0
    430057b4:	14000006 	b	430057cc <mediatek_plat_sip_handler+0xf8>
    430057b8:	2a1403e1 	mov	w1, w20
    430057bc:	52800020 	mov	w0, #0x1                   	// #1
    430057c0:	97fffb89 	bl	430045e4 <mtcmos_non_cpu_ctrl>
    430057c4:	7100001f 	cmp	w0, #0x0
    430057c8:	da9f03e0 	csetm	x0, ne  // ne = any
    430057cc:	f9000260 	str	x0, [x19]
    430057d0:	14000005 	b	430057e4 <mediatek_plat_sip_handler+0x110>
    430057d4:	2a1403e1 	mov	w1, w20
    430057d8:	52800000 	mov	w0, #0x0                   	// #0
    430057dc:	17fffff9 	b	430057c0 <mediatek_plat_sip_handler+0xec>
    430057e0:	f90000df 	str	xzr, [x6]
    430057e4:	aa1303e0 	mov	x0, x19
    430057e8:	a94153f3 	ldp	x19, x20, [sp, #16]
    430057ec:	f94013f5 	ldr	x21, [sp, #32]
    430057f0:	a8c47bfd 	ldp	x29, x30, [sp], #64
    430057f4:	d65f03c0 	ret
    430057f8:	9100c3e1 	add	x1, sp, #0x30
    430057fc:	2a1403e0 	mov	w0, w20
    43005800:	97fff8e7 	bl	43003b9c <mtk_efuse_get_len>
    43005804:	f9000e7f 	str	xzr, [x19, #24]
    43005808:	b94033e1 	ldr	w1, [sp, #48]
    4300580c:	a900fe61 	stp	x1, xzr, [x19, #8]
    43005810:	2a0003e0 	mov	w0, w0
    43005814:	17ffffee 	b	430057cc <mediatek_plat_sip_handler+0xf8>
    43005818:	2a1503e3 	mov	w3, w21
    4300581c:	2a1403e2 	mov	w2, w20
    43005820:	9100e3e1 	add	x1, sp, #0x38
    43005824:	97fff8fc 	bl	43003c14 <mtk_efuse_send_data>
    43005828:	a9017e7f 	stp	xzr, xzr, [x19, #16]
    4300582c:	f9000675 	str	x21, [x19, #8]
    43005830:	17fffff8 	b	43005810 <mediatek_plat_sip_handler+0x13c>
    43005834:	aa0003e1 	mov	x1, x0
    43005838:	2a1503e3 	mov	w3, w21
    4300583c:	2a1403e2 	mov	w2, w20
    43005840:	9100e3e0 	add	x0, sp, #0x38
    43005844:	97fff906 	bl	43003c5c <mtk_efuse_get_data>
    43005848:	b9403fe1 	ldr	w1, [sp, #60]
    4300584c:	f9000e61 	str	x1, [x19, #24]
    43005850:	b9403be1 	ldr	w1, [sp, #56]
    43005854:	f9000a61 	str	x1, [x19, #16]
    43005858:	17fffff5 	b	4300582c <mediatek_plat_sip_handler+0x158>
    4300585c:	aa0003e1 	mov	x1, x0
    43005860:	52800402 	mov	w2, #0x20                  	// #32
    43005864:	2a1403e0 	mov	w0, w20
    43005868:	97fff90f 	bl	43003ca4 <mtk_efuse_read>
    4300586c:	a900fe7f 	stp	xzr, xzr, [x19, #8]
    43005870:	f9000e7f 	str	xzr, [x19, #24]
    43005874:	17ffffe7 	b	43005810 <mediatek_plat_sip_handler+0x13c>
    43005878:	aa0003e1 	mov	x1, x0
    4300587c:	52800402 	mov	w2, #0x20                  	// #32
    43005880:	2a1403e0 	mov	w0, w20
    43005884:	97fff93a 	bl	43003d6c <mtk_efuse_write>
    43005888:	17fffff9 	b	4300586c <mediatek_plat_sip_handler+0x198>
    4300588c:	9100d3e0 	add	x0, sp, #0x34
    43005890:	97fffe07 	bl	430050ac <mtk_antirollback_get_fit_ar_ver>
    43005894:	93407c01 	sxtw	x1, w0
    43005898:	35000100 	cbnz	w0, 430058b8 <mediatek_plat_sip_handler+0x1e4>
    4300589c:	b94037e0 	ldr	w0, [sp, #52]
    430058a0:	6b14001f 	cmp	w0, w20
    430058a4:	540000a8 	b.hi	430058b8 <mediatek_plat_sip_handler+0x1e4>  // b.pmore
    430058a8:	2a0003e0 	mov	w0, w0
    430058ac:	f9000660 	str	x0, [x19, #8]
    430058b0:	d2800020 	mov	x0, #0x1                   	// #1
    430058b4:	17ffffc6 	b	430057cc <mediatek_plat_sip_handler+0xf8>
    430058b8:	b94037e0 	ldr	w0, [sp, #52]
    430058bc:	a9000261 	stp	x1, x0, [x19]
    430058c0:	17ffffc9 	b	430057e4 <mediatek_plat_sip_handler+0x110>

00000000430058c4 <plat_get_power_domain_tree_desc>:
    430058c4:	b0000020 	adrp	x0, 4300a000 <__func__.7+0x8a>
    430058c8:	9100a400 	add	x0, x0, #0x29
    430058cc:	d65f03c0 	ret

00000000430058d0 <plat_core_pos_by_mpidr>:
    430058d0:	92409c01 	and	x1, x0, #0xffffffffff
    430058d4:	92705c00 	and	x0, x0, #0xffffff0000
    430058d8:	9260dc21 	and	x1, x1, #0xffffffff00ffffff
    430058dc:	9260dc00 	and	x0, x0, #0xffffffff00ffffff
    430058e0:	b5000100 	cbnz	x0, 43005900 <plat_core_pos_by_mpidr+0x30>
    430058e4:	12001c20 	and	w0, w1, #0xff
    430058e8:	53083c22 	ubfx	w2, w1, #8, #8
    430058ec:	121f1821 	and	w1, w1, #0xfe
    430058f0:	2a010041 	orr	w1, w2, w1
    430058f4:	7100003f 	cmp	w1, #0x0
    430058f8:	5a9f0000 	csinv	w0, w0, wzr, eq  // eq = none
    430058fc:	d65f03c0 	ret
    43005900:	12800000 	mov	w0, #0xffffffff            	// #-1
    43005904:	17fffffe 	b	430058fc <plat_core_pos_by_mpidr+0x2c>

0000000043005908 <trace_power_flow>:
    43005908:	d65f03c0 	ret

000000004300590c <disable_scu>:
    4300590c:	d2800581 	mov	x1, #0x2c                  	// #44
    43005910:	f2a20401 	movk	x1, #0x1020, lsl #16
    43005914:	b9400020 	ldr	w0, [x1]
    43005918:	321c0000 	orr	w0, w0, #0x10
    4300591c:	b9000020 	str	w0, [x1]
    43005920:	d65f03c0 	ret

0000000043005924 <enable_scu>:
    43005924:	d2800581 	mov	x1, #0x2c                  	// #44
    43005928:	f2a20401 	movk	x1, #0x1020, lsl #16
    4300592c:	b9400020 	ldr	w0, [x1]
    43005930:	121b7800 	and	w0, w0, #0xffffffef
    43005934:	b9000020 	str	w0, [x1]
    43005938:	d65f03c0 	ret

000000004300593c <arm_arch_svc_smc_handler>:
    4300593c:	a9be7bfd 	stp	x29, x30, [sp, #-32]!
    43005940:	2a0003e2 	mov	w2, w0
    43005944:	aa0103e0 	mov	x0, x1
    43005948:	910003fd 	mov	x29, sp
    4300594c:	f9000bf3 	str	x19, [sp, #16]
    43005950:	32013be1 	mov	w1, #0x80003fff            	// #-2147467265
    43005954:	aa0603f3 	mov	x19, x6
    43005958:	6b01005f 	cmp	w2, w1
    4300595c:	54000240 	b.eq	430059a4 <arm_arch_svc_smc_handler+0x68>  // b.none
    43005960:	54000188 	b.hi	43005990 <arm_arch_svc_smc_handler+0x54>  // b.pmore
    43005964:	320107e1 	mov	w1, #0x80000001            	// #-2147483647
    43005968:	6b01005f 	cmp	w2, w1
    4300596c:	540002c0 	b.eq	430059c4 <arm_arch_svc_smc_handler+0x88>  // b.none
    43005970:	11000421 	add	w1, w1, #0x1
    43005974:	6b01005f 	cmp	w2, w1
    43005978:	540006e0 	b.eq	43005a54 <arm_arch_svc_smc_handler+0x118>  // b.none
    4300597c:	52b00000 	mov	w0, #0x80000000            	// #-2147483648
    43005980:	6b00005f 	cmp	w2, w0
    43005984:	54000180 	b.eq	430059b4 <arm_arch_svc_smc_handler+0x78>  // b.none
    43005988:	92800000 	mov	x0, #0xffffffffffffffff    	// #-1
    4300598c:	1400000c 	b	430059bc <arm_arch_svc_smc_handler+0x80>
    43005990:	52900020 	mov	w0, #0x8001                	// #32769
    43005994:	72afffe0 	movk	w0, #0x7fff, lsl #16
    43005998:	0b000042 	add	w2, w2, w0
    4300599c:	7100045f 	cmp	w2, #0x1
    430059a0:	54ffff48 	b.hi	43005988 <arm_arch_svc_smc_handler+0x4c>  // b.pmore
    430059a4:	aa1303e0 	mov	x0, x19
    430059a8:	f9400bf3 	ldr	x19, [sp, #16]
    430059ac:	a8c27bfd 	ldp	x29, x30, [sp], #32
    430059b0:	d65f03c0 	ret
    430059b4:	d2800080 	mov	x0, #0x4                   	// #4
    430059b8:	f2a00020 	movk	x0, #0x1, lsl #16
    430059bc:	f9000260 	str	x0, [x19]
    430059c0:	17fffff9 	b	430059a4 <arm_arch_svc_smc_handler+0x68>
    430059c4:	32013be1 	mov	w1, #0x80003fff            	// #-2147467265
    430059c8:	eb01001f 	cmp	x0, x1
    430059cc:	54000380 	b.eq	43005a3c <arm_arch_svc_smc_handler+0x100>  // b.none
    430059d0:	540001e8 	b.hi	43005a0c <arm_arch_svc_smc_handler+0xd0>  // b.pmore
    430059d4:	320107e1 	mov	w1, #0x80000001            	// #-2147483647
    430059d8:	eb01001f 	cmp	x0, x1
    430059dc:	540000c8 	b.hi	430059f4 <arm_arch_svc_smc_handler+0xb8>  // b.pmore
    430059e0:	b2407be1 	mov	x1, #0x7fffffff            	// #2147483647
    430059e4:	eb01001f 	cmp	x0, x1
    430059e8:	5a9f83e0 	csetm	w0, ls  // ls = plast
    430059ec:	93407c00 	sxtw	x0, w0
    430059f0:	17fffff3 	b	430059bc <arm_arch_svc_smc_handler+0x80>
    430059f4:	d2800041 	mov	x1, #0x2                   	// #2
    430059f8:	f2b00001 	movk	x1, #0x8000, lsl #16
    430059fc:	eb01001f 	cmp	x0, x1
    43005a00:	540001a0 	b.eq	43005a34 <arm_arch_svc_smc_handler+0xf8>  // b.none
    43005a04:	12800000 	mov	w0, #0xffffffff            	// #-1
    43005a08:	17fffff9 	b	430059ec <arm_arch_svc_smc_handler+0xb0>
    43005a0c:	32013fe1 	mov	w1, #0x80007fff            	// #-2147450881
    43005a10:	eb01001f 	cmp	x0, x1
    43005a14:	540001c0 	b.eq	43005a4c <arm_arch_svc_smc_handler+0x110>  // b.none
    43005a18:	320183e1 	mov	w1, #0x80008000            	// #-2147450880
    43005a1c:	eb01001f 	cmp	x0, x1
    43005a20:	54ffff21 	b.ne	43005a04 <arm_arch_svc_smc_handler+0xc8>  // b.any
    43005a24:	9400022e 	bl	430062dc <check_wa_cve_2017_5715>
    43005a28:	7100001f 	cmp	w0, #0x0
    43005a2c:	1a9f17e0 	cset	w0, eq  // eq = none
    43005a30:	17ffffef 	b	430059ec <arm_arch_svc_smc_handler+0xb0>
    43005a34:	97fff903 	bl	43003e40 <plat_is_smccc_feature_available>
    43005a38:	17ffffed 	b	430059ec <arm_arch_svc_smc_handler+0xb0>
    43005a3c:	94000230 	bl	430062fc <check_smccc_arch_wa3_applies>
    43005a40:	34ffff20 	cbz	w0, 43005a24 <arm_arch_svc_smc_handler+0xe8>
    43005a44:	52800000 	mov	w0, #0x0                   	// #0
    43005a48:	17ffffe9 	b	430059ec <arm_arch_svc_smc_handler+0xb0>
    43005a4c:	12800020 	mov	w0, #0xfffffffe            	// #-2
    43005a50:	17ffffe7 	b	430059ec <arm_arch_svc_smc_handler+0xb0>
    43005a54:	f100041f 	cmp	x0, #0x1
    43005a58:	54000061 	b.ne	43005a64 <arm_arch_svc_smc_handler+0x128>  // b.any
    43005a5c:	97fff901 	bl	43003e60 <plat_get_soc_revision>
    43005a60:	17ffffe3 	b	430059ec <arm_arch_svc_smc_handler+0xb0>
    43005a64:	b5000060 	cbnz	x0, 43005a70 <arm_arch_svc_smc_handler+0x134>
    43005a68:	97fff8fb 	bl	43003e54 <plat_get_soc_version>
    43005a6c:	17ffffe0 	b	430059ec <arm_arch_svc_smc_handler+0xb0>
    43005a70:	12800040 	mov	w0, #0xfffffffd            	// #-3
    43005a74:	17ffffde 	b	430059ec <arm_arch_svc_smc_handler+0xb0>

0000000043005a78 <std_svc_smc_handler>:
    43005a78:	a9be7bfd 	stp	x29, x30, [sp, #-32]!
    43005a7c:	910003fd 	mov	x29, sp
    43005a80:	f9000bf3 	str	x19, [sp, #16]
    43005a84:	aa0603f3 	mov	x19, x6
    43005a88:	37f000a0 	tbnz	w0, #30, 43005a9c <std_svc_smc_handler+0x24>
    43005a8c:	92407c21 	and	x1, x1, #0xffffffff
    43005a90:	92407c42 	and	x2, x2, #0xffffffff
    43005a94:	92407c63 	and	x3, x3, #0xffffffff
    43005a98:	92407c84 	and	x4, x4, #0xffffffff
    43005a9c:	721b281f 	tst	w0, #0xffe0
    43005aa0:	54000101 	b.ne	43005ac0 <std_svc_smc_handler+0x48>  // b.any
    43005aa4:	aa1303e6 	mov	x6, x19
    43005aa8:	97fff3ef 	bl	43002a64 <psci_smc_handler>
    43005aac:	f9000260 	str	x0, [x19]
    43005ab0:	aa1303e0 	mov	x0, x19
    43005ab4:	f9400bf3 	ldr	x19, [sp, #16]
    43005ab8:	a8c27bfd 	ldp	x29, x30, [sp], #32
    43005abc:	d65f03c0 	ret
    43005ac0:	529fe021 	mov	w1, #0xff01                	// #65281
    43005ac4:	72b08001 	movk	w1, #0x8400, lsl #16
    43005ac8:	6b01001f 	cmp	w0, w1
    43005acc:	54000120 	b.eq	43005af0 <std_svc_smc_handler+0x78>  // b.none
    43005ad0:	11000821 	add	w1, w1, #0x2
    43005ad4:	6b01001f 	cmp	w0, w1
    43005ad8:	54000240 	b.eq	43005b20 <std_svc_smc_handler+0xa8>  // b.none
    43005adc:	51000c21 	sub	w1, w1, #0x3
    43005ae0:	6b01001f 	cmp	w0, w1
    43005ae4:	d2800320 	mov	x0, #0x19                  	// #25
    43005ae8:	da9f0000 	csinv	x0, x0, xzr, eq  // eq = none
    43005aec:	17fffff0 	b	43005aac <std_svc_smc_handler+0x34>
    43005af0:	d2882ac0 	mov	x0, #0x4156                	// #16726
    43005af4:	f2bc5ec0 	movk	x0, #0xe2f6, lsl #16
    43005af8:	f9000e60 	str	x0, [x19, #24]
    43005afc:	d285b5c0 	mov	x0, #0x2dae                	// #11694
    43005b00:	f2bf7800 	movk	x0, #0xfbc0, lsl #16
    43005b04:	f9000a60 	str	x0, [x19, #16]
    43005b08:	d29f0c60 	mov	x0, #0xf863                	// #63587
    43005b0c:	f2a8fd00 	movk	x0, #0x47e8, lsl #16
    43005b10:	f9000660 	str	x0, [x19, #8]
    43005b14:	d2920b60 	mov	x0, #0x905b                	// #36955
    43005b18:	f2a211a0 	movk	x0, #0x108d, lsl #16
    43005b1c:	17ffffe4 	b	43005aac <std_svc_smc_handler+0x34>
    43005b20:	d2800020 	mov	x0, #0x1                   	// #1
    43005b24:	a900027f 	stp	xzr, x0, [x19]
    43005b28:	17ffffe2 	b	43005ab0 <std_svc_smc_handler+0x38>

0000000043005b2c <std_svc_setup>:
    43005b2c:	a9bf7bfd 	stp	x29, x30, [sp, #-16]!
    43005b30:	529ffc00 	mov	w0, #0xffe0                	// #65504
    43005b34:	910003fd 	mov	x29, sp
    43005b38:	97ffedb7 	bl	43001214 <get_arm_std_svc_args>
    43005b3c:	97fff529 	bl	43002fe0 <psci_setup>
    43005b40:	7100001f 	cmp	w0, #0x0
    43005b44:	1a9f07e0 	cset	w0, ne  // ne = any
    43005b48:	a8c17bfd 	ldp	x29, x30, [sp], #16
    43005b4c:	d65f03c0 	ret

0000000043005b50 <print_entry_point_info>:
    43005b50:	d65f03c0 	ret

0000000043005b54 <tf_log>:
    43005b54:	a9b67bfd 	stp	x29, x30, [sp, #-160]!
    43005b58:	910003fd 	mov	x29, sp
    43005b5c:	a90153f3 	stp	x19, x20, [sp, #16]
    43005b60:	aa0003f4 	mov	x20, x0
    43005b64:	a9068be1 	stp	x1, x2, [sp, #104]
    43005b68:	d0000021 	adrp	x1, 4300b000 <__RO_END_UNALIGNED__>
    43005b6c:	a90793e3 	stp	x3, x4, [sp, #120]
    43005b70:	b940d821 	ldr	w1, [x1, #216]
    43005b74:	a9089be5 	stp	x5, x6, [sp, #136]
    43005b78:	f9004fe7 	str	x7, [sp, #152]
    43005b7c:	39400000 	ldrb	w0, [x0]
    43005b80:	6b00003f 	cmp	w1, w0
    43005b84:	54000263 	b.cc	43005bd0 <tf_log+0x7c>  // b.lo, b.ul, b.last
    43005b88:	9400009c 	bl	43005df8 <plat_log_get_prefix>
    43005b8c:	aa0003f3 	mov	x19, x0
    43005b90:	39400260 	ldrb	w0, [x19]
    43005b94:	35000240 	cbnz	w0, 43005bdc <tf_log+0x88>
    43005b98:	910283e0 	add	x0, sp, #0xa0
    43005b9c:	a90403e0 	stp	x0, x0, [sp, #64]
    43005ba0:	910183e0 	add	x0, sp, #0x60
    43005ba4:	f9002be0 	str	x0, [sp, #80]
    43005ba8:	128006e0 	mov	w0, #0xffffffc8            	// #-56
    43005bac:	b9005be0 	str	w0, [sp, #88]
    43005bb0:	b9005fff 	str	wzr, [sp, #92]
    43005bb4:	a94407e0 	ldp	x0, x1, [sp, #64]
    43005bb8:	a90207e0 	stp	x0, x1, [sp, #32]
    43005bbc:	a94507e0 	ldp	x0, x1, [sp, #80]
    43005bc0:	a90307e0 	stp	x0, x1, [sp, #48]
    43005bc4:	910083e1 	add	x1, sp, #0x20
    43005bc8:	91000680 	add	x0, x20, #0x1
    43005bcc:	940005ba 	bl	430072b4 <vprintf>
    43005bd0:	a94153f3 	ldp	x19, x20, [sp, #16]
    43005bd4:	a8ca7bfd 	ldp	x29, x30, [sp], #160
    43005bd8:	d65f03c0 	ret
    43005bdc:	91000673 	add	x19, x19, #0x1
    43005be0:	9400004c 	bl	43005d10 <putchar>
    43005be4:	17ffffeb 	b	43005b90 <tf_log+0x3c>

0000000043005be8 <tf_log_newline>:
    43005be8:	d0000021 	adrp	x1, 4300b000 <__RO_END_UNALIGNED__>
    43005bec:	39400000 	ldrb	w0, [x0]
    43005bf0:	b940d821 	ldr	w1, [x1, #216]
    43005bf4:	6b00003f 	cmp	w1, w0
    43005bf8:	54000063 	b.cc	43005c04 <tf_log_newline+0x1c>  // b.lo, b.ul, b.last
    43005bfc:	52800140 	mov	w0, #0xa                   	// #10
    43005c00:	14000044 	b	43005d10 <putchar>
    43005c04:	d65f03c0 	ret

0000000043005c08 <console_is_registered>:
    43005c08:	f0000021 	adrp	x1, 4300c000 <__STACKS_START__+0xf00>
    43005c0c:	f9457821 	ldr	x1, [x1, #2800]
    43005c10:	b5000061 	cbnz	x1, 43005c1c <console_is_registered+0x14>
    43005c14:	52800000 	mov	w0, #0x0                   	// #0
    43005c18:	d65f03c0 	ret
    43005c1c:	eb00003f 	cmp	x1, x0
    43005c20:	54000060 	b.eq	43005c2c <console_is_registered+0x24>  // b.none
    43005c24:	f9400021 	ldr	x1, [x1]
    43005c28:	17fffffa 	b	43005c10 <console_is_registered+0x8>
    43005c2c:	52800020 	mov	w0, #0x1                   	// #1
    43005c30:	17fffffa 	b	43005c18 <console_is_registered+0x10>

0000000043005c34 <console_register>:
    43005c34:	a9bf7bfd 	stp	x29, x30, [sp, #-16]!
    43005c38:	aa0003e2 	mov	x2, x0
    43005c3c:	910003fd 	mov	x29, sp
    43005c40:	97fffff2 	bl	43005c08 <console_is_registered>
    43005c44:	7100041f 	cmp	w0, #0x1
    43005c48:	540000a0 	b.eq	43005c5c <console_register+0x28>  // b.none
    43005c4c:	f0000020 	adrp	x0, 4300c000 <__STACKS_START__+0xf00>
    43005c50:	f9457801 	ldr	x1, [x0, #2800]
    43005c54:	f9000041 	str	x1, [x2]
    43005c58:	f9057802 	str	x2, [x0, #2800]
    43005c5c:	52800020 	mov	w0, #0x1                   	// #1
    43005c60:	a8c17bfd 	ldp	x29, x30, [sp], #16
    43005c64:	d65f03c0 	ret

0000000043005c68 <console_switch_state>:
    43005c68:	d0000021 	adrp	x1, 4300b000 <__RO_END_UNALIGNED__>
    43005c6c:	39037020 	strb	w0, [x1, #220]
    43005c70:	d65f03c0 	ret

0000000043005c74 <console_putc>:
    43005c74:	a9bd7bfd 	stp	x29, x30, [sp, #-48]!
    43005c78:	910003fd 	mov	x29, sp
    43005c7c:	a9025bf5 	stp	x21, x22, [sp, #32]
    43005c80:	2a0003f5 	mov	w21, w0
    43005c84:	f0000020 	adrp	x0, 4300c000 <__STACKS_START__+0xf00>
    43005c88:	a90153f3 	stp	x19, x20, [sp, #16]
    43005c8c:	d0000036 	adrp	x22, 4300b000 <__RO_END_UNALIGNED__>
    43005c90:	910372d6 	add	x22, x22, #0xdc
    43005c94:	f9457813 	ldr	x19, [x0, #2800]
    43005c98:	12800ff4 	mov	w20, #0xffffff80            	// #-128
    43005c9c:	b50000d3 	cbnz	x19, 43005cb4 <console_putc+0x40>
    43005ca0:	2a1403e0 	mov	w0, w20
    43005ca4:	a94153f3 	ldp	x19, x20, [sp, #16]
    43005ca8:	a9425bf5 	ldp	x21, x22, [sp, #32]
    43005cac:	a8c37bfd 	ldp	x29, x30, [sp], #48
    43005cb0:	d65f03c0 	ret
    43005cb4:	f9400660 	ldr	x0, [x19, #8]
    43005cb8:	394002c1 	ldrb	w1, [x22]
    43005cbc:	ea00003f 	tst	x1, x0
    43005cc0:	54000180 	b.eq	43005cf0 <console_putc+0x7c>  // b.none
    43005cc4:	f9400a62 	ldr	x2, [x19, #16]
    43005cc8:	b4000142 	cbz	x2, 43005cf0 <console_putc+0x7c>
    43005ccc:	71002abf 	cmp	w21, #0xa
    43005cd0:	54000140 	b.eq	43005cf8 <console_putc+0x84>  // b.none
    43005cd4:	f9400a62 	ldr	x2, [x19, #16]
    43005cd8:	aa1303e1 	mov	x1, x19
    43005cdc:	2a1503e0 	mov	w0, w21
    43005ce0:	d63f0040 	blr	x2
    43005ce4:	3102029f 	cmn	w20, #0x80
    43005ce8:	7a401280 	ccmp	w20, w0, #0x0, ne  // ne = any
    43005cec:	1a80d294 	csel	w20, w20, w0, le
    43005cf0:	f9400273 	ldr	x19, [x19]
    43005cf4:	17ffffea 	b	43005c9c <console_putc+0x28>
    43005cf8:	3647fee0 	tbz	w0, #8, 43005cd4 <console_putc+0x60>
    43005cfc:	aa1303e1 	mov	x1, x19
    43005d00:	528001a0 	mov	w0, #0xd                   	// #13
    43005d04:	d63f0040 	blr	x2
    43005d08:	36fffe60 	tbz	w0, #31, 43005cd4 <console_putc+0x60>
    43005d0c:	17fffff6 	b	43005ce4 <console_putc+0x70>

0000000043005d10 <putchar>:
    43005d10:	a9be7bfd 	stp	x29, x30, [sp, #-32]!
    43005d14:	910003fd 	mov	x29, sp
    43005d18:	f9000bf3 	str	x19, [sp, #16]
    43005d1c:	2a0003f3 	mov	w19, w0
    43005d20:	97ffffd5 	bl	43005c74 <console_putc>
    43005d24:	7100001f 	cmp	w0, #0x0
    43005d28:	5a9f0260 	csinv	w0, w19, wzr, eq  // eq = none
    43005d2c:	f9400bf3 	ldr	x19, [sp, #16]
    43005d30:	a8c27bfd 	ldp	x29, x30, [sp], #32
    43005d34:	d65f03c0 	ret

0000000043005d38 <console_flush>:
    43005d38:	a9be7bfd 	stp	x29, x30, [sp, #-32]!
    43005d3c:	f0000020 	adrp	x0, 4300c000 <__STACKS_START__+0xf00>
    43005d40:	910003fd 	mov	x29, sp
    43005d44:	a90153f3 	stp	x19, x20, [sp, #16]
    43005d48:	d0000034 	adrp	x20, 4300b000 <__RO_END_UNALIGNED__>
    43005d4c:	91037294 	add	x20, x20, #0xdc
    43005d50:	f9457813 	ldr	x19, [x0, #2800]
    43005d54:	b5000093 	cbnz	x19, 43005d64 <console_flush+0x2c>
    43005d58:	a94153f3 	ldp	x19, x20, [sp, #16]
    43005d5c:	a8c27bfd 	ldp	x29, x30, [sp], #32
    43005d60:	d65f03c0 	ret
    43005d64:	f9400660 	ldr	x0, [x19, #8]
    43005d68:	39400281 	ldrb	w1, [x20]
    43005d6c:	ea00003f 	tst	x1, x0
    43005d70:	540000a0 	b.eq	43005d84 <console_flush+0x4c>  // b.none
    43005d74:	f9401261 	ldr	x1, [x19, #32]
    43005d78:	b4000061 	cbz	x1, 43005d84 <console_flush+0x4c>
    43005d7c:	aa1303e0 	mov	x0, x19
    43005d80:	d63f0020 	blr	x1
    43005d84:	f9400273 	ldr	x19, [x19]
    43005d88:	17fffff3 	b	43005d54 <console_flush+0x1c>

0000000043005d8c <pmuv3_enable>:
    43005d8c:	d65f03c0 	ret

0000000043005d90 <pmuv3_disable_el3>:
    43005d90:	d53e1320 	mrs	x0, mdcr_el3
    43005d94:	92a01041 	mov	x1, #0xffffffffff7dffff    	// #-8519681
    43005d98:	f2dffe61 	movk	x1, #0xfff3, lsl #32
    43005d9c:	8a010000 	and	x0, x0, x1
    43005da0:	d2a01001 	mov	x1, #0x800000              	// #8388608
    43005da4:	f2c00081 	movk	x1, #0x4, lsl #32
    43005da8:	aa010000 	orr	x0, x0, x1
    43005dac:	d51e1320 	msr	mdcr_el3, x0
    43005db0:	d53b9c00 	mrs	x0, pmcr_el0
    43005db4:	927d7000 	and	x0, x0, #0xfffffff8
    43005db8:	d28004c1 	mov	x1, #0x26                  	// #38
    43005dbc:	927af400 	and	x0, x0, #0xffffffffffffffcf
    43005dc0:	aa010000 	orr	x0, x0, x1
    43005dc4:	d51b9c00 	msr	pmcr_el0, x0
    43005dc8:	d65f03c0 	ret

0000000043005dcc <pmuv3_init_el2_unused>:
    43005dcc:	d53c1121 	mrs	x1, mdcr_el2
    43005dd0:	d53b9c00 	mrs	x0, pmcr_el0
    43005dd4:	d29fe002 	mov	x2, #0xff00                	// #65280
    43005dd8:	d34b3c00 	ubfx	x0, x0, #11, #5
    43005ddc:	f2bf6fa2 	movk	x2, #0xfb7d, lsl #16
    43005de0:	8a020021 	and	x1, x1, x2
    43005de4:	aa010000 	orr	x0, x0, x1
    43005de8:	d2a09041 	mov	x1, #0x4820000             	// #75628544
    43005dec:	aa010000 	orr	x0, x0, x1
    43005df0:	d51c1120 	msr	mdcr_el2, x0
    43005df4:	d65f03c0 	ret

0000000043005df8 <plat_log_get_prefix>:
    43005df8:	7100c81f 	cmp	w0, #0x32
    43005dfc:	52800641 	mov	w1, #0x32                  	// #50
    43005e00:	1a819000 	csel	w0, w0, w1, ls  // ls = plast
    43005e04:	52800141 	mov	w1, #0xa                   	// #10
    43005e08:	6b01001f 	cmp	w0, w1
    43005e0c:	1a812000 	csel	w0, w0, w1, cs  // cs = hs, nlast
    43005e10:	1ac10800 	udiv	w0, w0, w1
    43005e14:	d0000001 	adrp	x1, 43007000 <efuse_write+0x350>
    43005e18:	91236021 	add	x1, x1, #0x8d8
    43005e1c:	51000400 	sub	w0, w0, #0x1
    43005e20:	f8607820 	ldr	x0, [x1, x0, lsl #3]
    43005e24:	d65f03c0 	ret

0000000043005e28 <bl31_plat_runtime_setup>:
    43005e28:	52800040 	mov	w0, #0x2                   	// #2
    43005e2c:	17ffff8f 	b	43005c68 <console_switch_state>

0000000043005e30 <get_el_str>:
    43005e30:	2a0003e1 	mov	w1, w0
    43005e34:	71000c1f 	cmp	w0, #0x3
    43005e38:	54000100 	b.eq	43005e58 <get_el_str+0x28>  // b.none
    43005e3c:	7100083f 	cmp	w1, #0x2
    43005e40:	b0000022 	adrp	x2, 4300a000 <__func__.7+0x8a>
    43005e44:	b0000020 	adrp	x0, 4300a000 <__func__.7+0x8a>
    43005e48:	9101f041 	add	x1, x2, #0x7c
    43005e4c:	9101d000 	add	x0, x0, #0x74
    43005e50:	9a811000 	csel	x0, x0, x1, ne  // ne = any
    43005e54:	d65f03c0 	ret
    43005e58:	b0000020 	adrp	x0, 4300a000 <__func__.7+0x8a>
    43005e5c:	9101e000 	add	x0, x0, #0x78
    43005e60:	17fffffd 	b	43005e54 <get_el_str+0x24>

0000000043005e64 <plat_default_ea_handler>:
    43005e64:	a9bd7bfd 	stp	x29, x30, [sp, #-48]!
    43005e68:	910003fd 	mov	x29, sp
    43005e6c:	a90153f3 	stp	x19, x20, [sp, #16]
    43005e70:	2a0003f3 	mov	w19, w0
    43005e74:	aa0103f4 	mov	x20, x1
    43005e78:	f90013f5 	str	x21, [sp, #32]
    43005e7c:	d53e4015 	mrs	x21, spsr_el3
    43005e80:	90000020 	adrp	x0, 43009000 <suspend_binary_ca7+0x2e0>
    43005e84:	9134e800 	add	x0, x0, #0xd3a
    43005e88:	97ffff58 	bl	43005be8 <tf_log_newline>
    43005e8c:	d53800a3 	mrs	x3, mpidr_el1
    43005e90:	53020ea0 	ubfx	w0, w21, #2, #2
    43005e94:	97ffffe7 	bl	43005e30 <get_el_str>
    43005e98:	aa0303e1 	mov	x1, x3
    43005e9c:	aa0003e2 	mov	x2, x0
    43005ea0:	b0000020 	adrp	x0, 4300a000 <__func__.7+0x8a>
    43005ea4:	91020000 	add	x0, x0, #0x80
    43005ea8:	97ffff2b 	bl	43005b54 <tf_log>
    43005eac:	aa1403e2 	mov	x2, x20
    43005eb0:	2a1303e1 	mov	w1, w19
    43005eb4:	a94153f3 	ldp	x19, x20, [sp, #16]
    43005eb8:	b0000020 	adrp	x0, 4300a000 <__func__.7+0x8a>
    43005ebc:	f94013f5 	ldr	x21, [sp, #32]
    43005ec0:	9102d400 	add	x0, x0, #0xb5
    43005ec4:	a8c37bfd 	ldp	x29, x30, [sp], #48
    43005ec8:	17ffff23 	b	43005b54 <tf_log>

0000000043005ecc <report_unhandled_exception>:
    43005ecc:	9400030d 	bl	43006b00 <plat_panic_handler>

0000000043005ed0 <handle_lower_el_sync_ea>:
    43005ed0:	d53e521e 	mrs	x30, esr_el3
    43005ed4:	d35a7fde 	ubfx	x30, x30, #26, #6
    43005ed8:	f10083df 	cmp	x30, #0x20
    43005edc:	540001a0 	b.eq	43005f10 <handle_lower_el_sync_ea+0x40>  // b.none
    43005ee0:	f10093df 	cmp	x30, #0x24
    43005ee4:	54000160 	b.eq	43005f10 <handle_lower_el_sync_ea+0x40>  // b.none
    43005ee8:	a90007e0 	stp	x0, x1, [sp]
    43005eec:	a9010fe2 	stp	x2, x3, [sp, #16]
    43005ef0:	a90217e4 	stp	x4, x5, [sp, #32]
    43005ef4:	940000dc 	bl	43006264 <get_cpu_ops_ptr>
    43005ef8:	f9401400 	ldr	x0, [x0, #40]
    43005efc:	b4000160 	cbz	x0, 43005f28 <handle_lower_el_sync_ea+0x58>
    43005f00:	d53e5201 	mrs	x1, esr_el3
    43005f04:	d35a7c21 	ubfx	x1, x1, #26, #6
    43005f08:	d63f0000 	blr	x0
    43005f0c:	14000007 	b	43005f28 <handle_lower_el_sync_ea+0x58>
    43005f10:	9400012e 	bl	430063c8 <prepare_el3_entry>
    43005f14:	d2800020 	mov	x0, #0x1                   	// #1
    43005f18:	d53e5201 	mrs	x1, esr_el3
    43005f1c:	9400000e 	bl	43005f54 <delegate_sync_ea>
    43005f20:	d50040bf 	msr	spsel, #0x0
    43005f24:	14000157 	b	43006480 <el3_exit>
    43005f28:	a94007e0 	ldp	x0, x1, [sp]
    43005f2c:	a9410fe2 	ldp	x2, x3, [sp, #16]
    43005f30:	a94217e4 	ldp	x4, x5, [sp, #32]
    43005f34:	f9407bfe 	ldr	x30, [sp, #240]
    43005f38:	97ffffe5 	bl	43005ecc <report_unhandled_exception>

0000000043005f3c <handle_lower_el_async_ea>:
    43005f3c:	94000123 	bl	430063c8 <prepare_el3_entry>
    43005f40:	d2800000 	mov	x0, #0x0                   	// #0
    43005f44:	d53e5201 	mrs	x1, esr_el3
    43005f48:	94000004 	bl	43005f58 <delegate_async_ea>
    43005f4c:	d50040bf 	msr	spsel, #0x0
    43005f50:	1400014c 	b	43006480 <el3_exit>

0000000043005f54 <delegate_sync_ea>:
    43005f54:	14000002 	b	43005f5c <ea_proceed>

0000000043005f58 <delegate_async_ea>:
    43005f58:	14000001 	b	43005f5c <ea_proceed>

0000000043005f5c <ea_proceed>:
    43005f5c:	f94087e5 	ldr	x5, [sp, #264]
    43005f60:	b4000045 	cbz	x5, 43005f68 <ea_proceed+0xc>
    43005f64:	940002ea 	bl	43006b0c <plat_handle_double_fault>
    43005f68:	d53e4002 	mrs	x2, spsr_el3
    43005f6c:	d53e4023 	mrs	x3, elr_el3
    43005f70:	a9118fe2 	stp	x2, x3, [sp, #280]
    43005f74:	d53e1104 	mrs	x4, scr_el3
    43005f78:	d53e5205 	mrs	x5, esr_el3
    43005f7c:	a91017e4 	stp	x4, x5, [sp, #256]
    43005f80:	aa1f03e2 	mov	x2, xzr
    43005f84:	910003e3 	mov	x3, sp
    43005f88:	d3400084 	ubfx	x4, x4, #0, #1
    43005f8c:	f9408be5 	ldr	x5, [sp, #272]
    43005f90:	d50040bf 	msr	spsel, #0x0
    43005f94:	910000bf 	mov	sp, x5
    43005f98:	aa1e03fd 	mov	x29, x30
    43005f9c:	97ffffb2 	bl	43005e64 <plat_default_ea_handler>
    43005fa0:	d50041bf 	msr	spsel, #0x1
    43005fa4:	a9518be1 	ldp	x1, x2, [sp, #280]
    43005fa8:	d51e4001 	msr	spsr_el3, x1
    43005fac:	d51e4022 	msr	elr_el3, x2
    43005fb0:	a95013e3 	ldp	x3, x4, [sp, #256]
    43005fb4:	d51e1103 	msr	scr_el3, x3
    43005fb8:	d51e5204 	msr	esr_el3, x4
    43005fbc:	f90087ff 	str	xzr, [sp, #264]
    43005fc0:	d65f03a0 	ret	x29

0000000043005fc4 <sync_exception_handler>:
    43005fc4:	37f00640 	tbnz	w0, #30, 4300608c <smc_prohibited>

0000000043005fc8 <sync_handler64>:
    43005fc8:	94000100 	bl	430063c8 <prepare_el3_entry>
    43005fcc:	aa1f03e5 	mov	x5, xzr
    43005fd0:	910003e6 	mov	x6, sp
    43005fd4:	f94088cc 	ldr	x12, [x6, #272]
    43005fd8:	d50040bf 	msr	spsel, #0x0
    43005fdc:	d53e4010 	mrs	x16, spsr_el3
    43005fe0:	d53e4031 	mrs	x17, elr_el3
    43005fe4:	a911c4d0 	stp	x16, x17, [x6, #280]
    43005fe8:	d53e1112 	mrs	x18, scr_el3
    43005fec:	d53e5210 	mrs	x16, esr_el3
    43005ff0:	d35a7e11 	ubfx	x17, x16, #26, #6
    43005ff4:	f100623f 	cmp	x17, #0x18
    43005ff8:	540002c0 	b.eq	43006050 <sysreg_handler64>  // b.none
    43005ffc:	aa1f03e7 	mov	x7, xzr
    43006000:	b3400247 	bfxil	x7, x18, #0, #1
    43006004:	9100019f 	mov	sp, x12
    43006008:	36f80060 	tbz	w0, #31, 43006014 <sync_handler64+0x4c>
    4300600c:	f26f181f 	tst	x0, #0xfe0000
    43006010:	54000381 	b.ne	43006080 <smc_unknown>  // b.any
    43006014:	92700010 	and	x16, x0, #0x10000
    43006018:	aa1000e7 	orr	x7, x7, x16
    4300601c:	926ff800 	and	x0, x0, #0xfffffffffffeffff
    43006020:	d3587410 	ubfx	x16, x0, #24, #6
    43006024:	d35f7c0f 	ubfx	x15, x0, #31, #1
    43006028:	aa0f1a10 	orr	x16, x16, x15, lsl #6
    4300602c:	d000002e 	adrp	x14, 4300c000 <__STACKS_START__+0xf00>
    43006030:	913151ce 	add	x14, x14, #0xc54
    43006034:	387069cf 	ldrb	w15, [x14, x16]
    43006038:	3738024f 	tbnz	w15, #7, 43006080 <smc_unknown>
    4300603c:	10021beb 	adr	x11, 4300a3b8 <__svc_desc_mediatek_sip_svc+0x18>
    43006040:	531b69ea 	lsl	w10, w15, #5
    43006044:	f86a496f 	ldr	x15, [x11, w10, uxtw]
    43006048:	d63f01e0 	blr	x15
    4300604c:	1400010d 	b	43006480 <el3_exit>

0000000043006050 <sysreg_handler64>:
    43006050:	aa1003e0 	mov	x0, x16
    43006054:	aa0603e1 	mov	x1, x6
    43006058:	aa0603f3 	mov	x19, x6
    4300605c:	9100019f 	mov	sp, x12
    43006060:	97ffecac 	bl	43001310 <handle_sysreg_trap>
    43006064:	6a00001f 	tst	w0, w0
    43006068:	54003ca4 	b.mi	430067fc <elx_panic>  // b.first
    4300606c:	54000080 	b.eq	4300607c <sysreg_handler64+0x2c>  // b.none
    43006070:	f9409261 	ldr	x1, [x19, #288]
    43006074:	91001021 	add	x1, x1, #0x4
    43006078:	f9009261 	str	x1, [x19, #288]
    4300607c:	14000101 	b	43006480 <el3_exit>

0000000043006080 <smc_unknown>:
    43006080:	92800000 	mov	x0, #0xffffffffffffffff    	// #-1
    43006084:	f90000c0 	str	x0, [x6]
    43006088:	140000fe 	b	43006480 <el3_exit>

000000004300608c <smc_prohibited>:
    4300608c:	a94e77fc 	ldp	x28, x29, [sp, #224]
    43006090:	f9407bfe 	ldr	x30, [sp, #240]
    43006094:	92800000 	mov	x0, #0xffffffffffffffff    	// #-1
    43006098:	d69f03e0 	eret
    4300609c:	d503379f 	dsb	nsh
    430060a0:	d5033fdf 	isb

00000000430060a4 <aem_generic_core_pwr_dwn>:
    430060a4:	d53e1001 	mrs	x1, sctlr_el3
    430060a8:	927df821 	and	x1, x1, #0xfffffffffffffffb
    430060ac:	d51e1001 	msr	sctlr_el3, x1
    430060b0:	d5033fdf 	isb
    430060b4:	d5390021 	mrs	x1, clidr_el1
    430060b8:	f27a083f 	tst	x1, #0x1c0
    430060bc:	d2800020 	mov	x0, #0x1                   	// #1
    430060c0:	54004940 	b.eq	430069e8 <dcsw_op_level1>  // b.none
    430060c4:	aa1e03f2 	mov	x18, x30
    430060c8:	94000248 	bl	430069e8 <dcsw_op_level1>
    430060cc:	aa1203fe 	mov	x30, x18
    430060d0:	d2800020 	mov	x0, #0x1                   	// #1
    430060d4:	14000249 	b	430069f8 <dcsw_op_level2>

00000000430060d8 <aem_generic_cluster_pwr_dwn>:
    430060d8:	d53e1001 	mrs	x1, sctlr_el3
    430060dc:	927df821 	and	x1, x1, #0xfffffffffffffffb
    430060e0:	d51e1001 	msr	sctlr_el3, x1
    430060e4:	d5033fdf 	isb
    430060e8:	d2800020 	mov	x0, #0x1                   	// #1
    430060ec:	1400023a 	b	430069d4 <dcsw_op_all>

00000000430060f0 <cortex_a53_disable_dcache>:
    430060f0:	d53e1001 	mrs	x1, sctlr_el3
    430060f4:	927df821 	and	x1, x1, #0xfffffffffffffffb
    430060f8:	d51e1001 	msr	sctlr_el3, x1
    430060fc:	d5033fdf 	isb
    43006100:	d65f03c0 	ret

0000000043006104 <cortex_a53_disable_smp>:
    43006104:	d539f220 	mrs	x0, s3_1_c15_c2_1
    43006108:	9279f800 	and	x0, x0, #0xffffffffffffffbf
    4300610c:	d519f220 	msr	s3_1_c15_c2_1, x0
    43006110:	d5033fdf 	isb
    43006114:	d5033f9f 	dsb	sy
    43006118:	d65f03c0 	ret

000000004300611c <errata_a53_826319_wa>:
    4300611c:	aa1e03f1 	mov	x17, x30
    43006120:	94000007 	bl	4300613c <check_errata_826319>
    43006124:	b40000a0 	cbz	x0, 43006138 <errata_a53_826319_wa+0x1c>
    43006128:	d539f001 	mrs	x1, s3_1_c15_c0_0
    4300612c:	9271f821 	and	x1, x1, #0xffffffffffffbfff
    43006130:	b27d0021 	orr	x1, x1, #0x8
    43006134:	d519f001 	msr	s3_1_c15_c0_0, x1
    43006138:	d65f0220 	ret	x17

000000004300613c <check_errata_826319>:
    4300613c:	d2800041 	mov	x1, #0x2                   	// #2
    43006140:	1400005d 	b	430062b4 <cpu_rev_var_ls>

0000000043006144 <a53_disable_non_temporal_hint>:
    43006144:	aa1e03f1 	mov	x17, x30
    43006148:	94000006 	bl	43006160 <check_errata_disable_non_temporal_hint>
    4300614c:	b4000080 	cbz	x0, 4300615c <a53_disable_non_temporal_hint+0x18>
    43006150:	d539f201 	mrs	x1, s3_1_c15_c2_0
    43006154:	b2680021 	orr	x1, x1, #0x1000000
    43006158:	d519f201 	msr	s3_1_c15_c2_0, x1
    4300615c:	d65f0220 	ret	x17

0000000043006160 <check_errata_disable_non_temporal_hint>:
    43006160:	d2800061 	mov	x1, #0x3                   	// #3
    43006164:	14000054 	b	430062b4 <cpu_rev_var_ls>

0000000043006168 <errata_a53_855873_wa>:
    43006168:	aa1e03f1 	mov	x17, x30
    4300616c:	94000006 	bl	43006184 <check_errata_855873>
    43006170:	b4000080 	cbz	x0, 43006180 <errata_a53_855873_wa+0x18>
    43006174:	d539f201 	mrs	x1, s3_1_c15_c2_0
    43006178:	b2540021 	orr	x1, x1, #0x100000000000
    4300617c:	d519f201 	msr	s3_1_c15_c2_0, x1
    43006180:	d65f0220 	ret	x17

0000000043006184 <check_errata_855873>:
    43006184:	d2800061 	mov	x1, #0x3                   	// #3
    43006188:	14000050 	b	430062c8 <cpu_rev_var_hs>

000000004300618c <cortex_a53_reset_func>:
    4300618c:	aa1e03f3 	mov	x19, x30
    43006190:	94000045 	bl	430062a4 <cpu_get_rev_var>
    43006194:	aa0003f2 	mov	x18, x0
    43006198:	aa1203e0 	mov	x0, x18
    4300619c:	97ffffe0 	bl	4300611c <errata_a53_826319_wa>
    430061a0:	aa1203e0 	mov	x0, x18
    430061a4:	97ffffe8 	bl	43006144 <a53_disable_non_temporal_hint>
    430061a8:	aa1203e0 	mov	x0, x18
    430061ac:	97ffffef 	bl	43006168 <errata_a53_855873_wa>
    430061b0:	d539f220 	mrs	x0, s3_1_c15_c2_1
    430061b4:	b27a0000 	orr	x0, x0, #0x40
    430061b8:	d519f220 	msr	s3_1_c15_c2_1, x0
    430061bc:	d5033fdf 	isb
    430061c0:	d65f0260 	ret	x19

00000000430061c4 <cortex_a53_core_pwr_dwn>:
    430061c4:	aa1e03f2 	mov	x18, x30
    430061c8:	97ffffca 	bl	430060f0 <cortex_a53_disable_dcache>
    430061cc:	d2800020 	mov	x0, #0x1                   	// #1
    430061d0:	94000206 	bl	430069e8 <dcsw_op_level1>
    430061d4:	aa1203fe 	mov	x30, x18
    430061d8:	17ffffcb 	b	43006104 <cortex_a53_disable_smp>

00000000430061dc <cortex_a53_cluster_pwr_dwn>:
    430061dc:	aa1e03f2 	mov	x18, x30
    430061e0:	97ffffc4 	bl	430060f0 <cortex_a53_disable_dcache>
    430061e4:	d2800020 	mov	x0, #0x1                   	// #1
    430061e8:	94000200 	bl	430069e8 <dcsw_op_level1>
    430061ec:	94000244 	bl	43006afc <plat_disable_acp>
    430061f0:	d2800020 	mov	x0, #0x1                   	// #1
    430061f4:	94000201 	bl	430069f8 <dcsw_op_level2>
    430061f8:	aa1203fe 	mov	x30, x18
    430061fc:	17ffffc2 	b	43006104 <cortex_a53_disable_smp>

0000000043006200 <reset_handler>:
    43006200:	aa1e03f3 	mov	x19, x30
    43006204:	9400023d 	bl	43006af8 <plat_reset_handler>
    43006208:	94000017 	bl	43006264 <get_cpu_ops_ptr>
    4300620c:	f9400402 	ldr	x2, [x0, #8]
    43006210:	aa1303fe 	mov	x30, x19
    43006214:	b4000042 	cbz	x2, 4300621c <reset_handler+0x1c>
    43006218:	d61f0040 	br	x2
    4300621c:	d65f03c0 	ret

0000000043006220 <prepare_cpu_pwr_dwn>:
    43006220:	d2800022 	mov	x2, #0x1                   	// #1
    43006224:	eb02001f 	cmp	x0, x2
    43006228:	9a808042 	csel	x2, x2, x0, hi  // hi = pmore
    4300622c:	d53ed041 	mrs	x1, tpidr_el3
    43006230:	f9400820 	ldr	x0, [x1, #16]
    43006234:	d2800601 	mov	x1, #0x30                  	// #48
    43006238:	8b020c21 	add	x1, x1, x2, lsl #3
    4300623c:	f8616801 	ldr	x1, [x0, x1]
    43006240:	d61f0020 	br	x1

0000000043006244 <init_cpu_ops>:
    43006244:	d53ed046 	mrs	x6, tpidr_el3
    43006248:	f94008c0 	ldr	x0, [x6, #16]
    4300624c:	b50000a0 	cbnz	x0, 43006260 <init_cpu_ops+0x1c>
    43006250:	aa1e03ea 	mov	x10, x30
    43006254:	94000004 	bl	43006264 <get_cpu_ops_ptr>
    43006258:	f8010cc0 	str	x0, [x6, #16]!
    4300625c:	aa0a03fe 	mov	x30, x10
    43006260:	d65f03c0 	ret

0000000043006264 <get_cpu_ops_ptr>:
    43006264:	d5380002 	mrs	x2, midr_el1
    43006268:	d29ffe03 	mov	x3, #0xfff0                	// #65520
    4300626c:	f2bfe003 	movk	x3, #0xff00, lsl #16
    43006270:	0a030042 	and	w2, w2, w3
    43006274:	100213e5 	adr	x5, 4300a4f0 <__cb_func_spe_drain_buffers_hookcm_entering_secure_world>
    43006278:	d2800000 	mov	x0, #0x0                   	// #0
    4300627c:	10020c24 	adr	x4, 4300a400 <__CPU_OPS_START__>
    43006280:	eb05009f 	cmp	x4, x5
    43006284:	540000e0 	b.eq	430062a0 <search_def_ptr>  // b.none
    43006288:	f8450481 	ldr	x1, [x4], #80
    4300628c:	0a030021 	and	w1, w1, w3
    43006290:	6b02003f 	cmp	w1, w2
    43006294:	54ffff61 	b.ne	43006280 <get_cpu_ops_ptr+0x1c>  // b.any
    43006298:	d1014080 	sub	x0, x4, #0x50
    4300629c:	d65f03c0 	ret

00000000430062a0 <search_def_ptr>:
    430062a0:	d65f03c0 	ret

00000000430062a4 <cpu_get_rev_var>:
    430062a4:	d5380001 	mrs	x1, midr_el1
    430062a8:	d3505c20 	ubfx	x0, x1, #16, #8
    430062ac:	b3400c20 	bfxil	x0, x1, #0, #4
    430062b0:	d65f03c0 	ret

00000000430062b4 <cpu_rev_var_ls>:
    430062b4:	d2800022 	mov	x2, #0x1                   	// #1
    430062b8:	d2800003 	mov	x3, #0x0                   	// #0
    430062bc:	eb01001f 	cmp	x0, x1
    430062c0:	9a839040 	csel	x0, x2, x3, ls  // ls = plast
    430062c4:	d65f03c0 	ret

00000000430062c8 <cpu_rev_var_hs>:
    430062c8:	d2800022 	mov	x2, #0x1                   	// #1
    430062cc:	d2800003 	mov	x3, #0x0                   	// #0
    430062d0:	eb01001f 	cmp	x0, x1
    430062d4:	9a832040 	csel	x0, x2, x3, cs  // cs = hs, nlast
    430062d8:	d65f03c0 	ret

00000000430062dc <check_wa_cve_2017_5715>:
    430062dc:	d53ed040 	mrs	x0, tpidr_el3
    430062e0:	f9400800 	ldr	x0, [x0, #16]
    430062e4:	f9400800 	ldr	x0, [x0, #16]
    430062e8:	f100001f 	cmp	x0, #0x0
    430062ec:	54000040 	b.eq	430062f4 <check_wa_cve_2017_5715+0x18>  // b.none
    430062f0:	d61f0000 	br	x0
    430062f4:	d2800000 	mov	x0, #0x0                   	// #0
    430062f8:	d65f03c0 	ret

00000000430062fc <check_smccc_arch_wa3_applies>:
    430062fc:	d53ed040 	mrs	x0, tpidr_el3
    43006300:	f9400800 	ldr	x0, [x0, #16]
    43006304:	f9401000 	ldr	x0, [x0, #32]
    43006308:	f100001f 	cmp	x0, #0x0
    4300630c:	54000040 	b.eq	43006314 <check_smccc_arch_wa3_applies+0x18>  // b.none
    43006310:	d61f0000 	br	x0
    43006314:	d2800000 	mov	x0, #0x0                   	// #0
    43006318:	d65f03c0 	ret

000000004300631c <el1_sysregs_context_restore>:
    4300631c:	a9402809 	ldp	x9, x10, [x0]
    43006320:	d5184009 	msr	spsr_el1, x9
    43006324:	d518402a 	msr	elr_el1, x10
    43006328:	a941400f 	ldp	x15, x16, [x0, #16]
    4300632c:	d518100f 	msr	sctlr_el1, x15
    43006330:	d5182050 	msr	tcr_el1, x16
    43006334:	a9422411 	ldp	x17, x9, [x0, #32]
    43006338:	d5181051 	msr	cpacr_el1, x17
    4300633c:	d51a0009 	msr	csselr_el1, x9
    43006340:	a9432c0a 	ldp	x10, x11, [x0, #48]
    43006344:	d51c410a 	msr	sp_el1, x10
    43006348:	d518520b 	msr	esr_el1, x11
    4300634c:	a944340c 	ldp	x12, x13, [x0, #64]
    43006350:	d518200c 	msr	ttbr0_el1, x12
    43006354:	d518202d 	msr	ttbr1_el1, x13
    43006358:	a9453c0e 	ldp	x14, x15, [x0, #80]
    4300635c:	d518a20e 	msr	mair_el1, x14
    43006360:	d518a30f 	msr	amair_el1, x15
    43006364:	a9464410 	ldp	x16, x17, [x0, #96]
    43006368:	d5181030 	msr	actlr_el1, x16
    4300636c:	d518d091 	msr	tpidr_el1, x17
    43006370:	a9472809 	ldp	x9, x10, [x0, #112]
    43006374:	d51bd049 	msr	tpidr_el0, x9
    43006378:	d51bd06a 	msr	tpidrro_el0, x10
    4300637c:	a948380d 	ldp	x13, x14, [x0, #128]
    43006380:	d518740d 	msr	par_el1, x13
    43006384:	d518600e 	msr	far_el1, x14
    43006388:	a949400f 	ldp	x15, x16, [x0, #144]
    4300638c:	d518510f 	msr	afsr0_el1, x15
    43006390:	d5185130 	msr	afsr1_el1, x16
    43006394:	a94a2411 	ldp	x17, x9, [x0, #160]
    43006398:	d518d031 	msr	contextidr_el1, x17
    4300639c:	d518c009 	msr	vbar_el1, x9
    430063a0:	a94b300b 	ldp	x11, x12, [x0, #176]
    430063a4:	d51c432b 	msr	spsr_abt, x11
    430063a8:	d51c434c 	msr	spsr_und, x12
    430063ac:	a94c380d 	ldp	x13, x14, [x0, #192]
    430063b0:	d51c430d 	msr	spsr_irq, x13
    430063b4:	d51c436e 	msr	spsr_fiq, x14
    430063b8:	a94d400f 	ldp	x15, x16, [x0, #208]
    430063bc:	d51c300f 	msr	dacr32_el2, x15
    430063c0:	d51c5030 	msr	ifsr32_el2, x16
    430063c4:	d65f03c0 	ret

00000000430063c8 <prepare_el3_entry>:
    430063c8:	a90007e0 	stp	x0, x1, [sp]
    430063cc:	a9010fe2 	stp	x2, x3, [sp, #16]
    430063d0:	a90217e4 	stp	x4, x5, [sp, #32]
    430063d4:	a9031fe6 	stp	x6, x7, [sp, #48]
    430063d8:	a90427e8 	stp	x8, x9, [sp, #64]
    430063dc:	a9052fea 	stp	x10, x11, [sp, #80]
    430063e0:	a90637ec 	stp	x12, x13, [sp, #96]
    430063e4:	a9073fee 	stp	x14, x15, [sp, #112]
    430063e8:	a90847f0 	stp	x16, x17, [sp, #128]
    430063ec:	a9094ff2 	stp	x18, x19, [sp, #144]
    430063f0:	a90a57f4 	stp	x20, x21, [sp, #160]
    430063f4:	a90b5ff6 	stp	x22, x23, [sp, #176]
    430063f8:	a90c67f8 	stp	x24, x25, [sp, #192]
    430063fc:	a90d6ffa 	stp	x26, x27, [sp, #208]
    43006400:	a90e77fc 	stp	x28, x29, [sp, #224]
    43006404:	d5384112 	mrs	x18, sp_el0
    43006408:	f9007ff2 	str	x18, [sp, #248]
    4300640c:	d53b9c09 	mrs	x9, pmcr_el0
    43006410:	f90097e9 	str	x9, [sp, #296]
    43006414:	b27b0129 	orr	x9, x9, #0x20
    43006418:	d51b9c09 	msr	pmcr_el0, x9
    4300641c:	d5033fdf 	isb
    43006420:	d53e1108 	mrs	x8, scr_el3
    43006424:	b27d0108 	orr	x8, x8, #0x8
    43006428:	d51e1108 	msr	scr_el3, x8
    4300642c:	d65f03c0 	ret

0000000043006430 <restore_gp_pmcr_pauth_regs>:
    43006430:	f94097e0 	ldr	x0, [sp, #296]
    43006434:	d51b9c00 	msr	pmcr_el0, x0
    43006438:	a94007e0 	ldp	x0, x1, [sp]
    4300643c:	a9410fe2 	ldp	x2, x3, [sp, #16]
    43006440:	a94217e4 	ldp	x4, x5, [sp, #32]
    43006444:	a9431fe6 	ldp	x6, x7, [sp, #48]
    43006448:	a94427e8 	ldp	x8, x9, [sp, #64]
    4300644c:	a9452fea 	ldp	x10, x11, [sp, #80]
    43006450:	a94637ec 	ldp	x12, x13, [sp, #96]
    43006454:	a9473fee 	ldp	x14, x15, [sp, #112]
    43006458:	a94847f0 	ldp	x16, x17, [sp, #128]
    4300645c:	a9494ff2 	ldp	x18, x19, [sp, #144]
    43006460:	a94a57f4 	ldp	x20, x21, [sp, #160]
    43006464:	a94b5ff6 	ldp	x22, x23, [sp, #176]
    43006468:	a94c67f8 	ldp	x24, x25, [sp, #192]
    4300646c:	a94d6ffa 	ldp	x26, x27, [sp, #208]
    43006470:	f9407ffc 	ldr	x28, [sp, #248]
    43006474:	d518411c 	msr	sp_el0, x28
    43006478:	a94e77fc 	ldp	x28, x29, [sp, #224]
    4300647c:	d65f03c0 	ret

0000000043006480 <el3_exit>:
    43006480:	910003f1 	mov	x17, sp
    43006484:	d50041bf 	msr	spsel, #0x1
    43006488:	f9008bf1 	str	x17, [sp, #272]
    4300648c:	a953d3f3 	ldp	x19, x20, [sp, #312]
    43006490:	d51e1153 	msr	cptr_el3, x19
    43006494:	f2780273 	ands	x19, x19, #0x100
    43006498:	54000060 	b.eq	430064a4 <sve_not_enabled>  // b.none
    4300649c:	d5033fdf 	isb
    430064a0:	d51e1214 	msr	zcr_el3, x20

00000000430064a4 <sve_not_enabled>:
    430064a4:	d5033f9f 	dsb	sy
    430064a8:	f94083f2 	ldr	x18, [sp, #256]
    430064ac:	a951c7f0 	ldp	x16, x17, [sp, #280]
    430064b0:	d51e1112 	msr	scr_el3, x18
    430064b4:	d51e4010 	msr	spsr_el3, x16
    430064b8:	d51e4031 	msr	elr_el3, x17
    430064bc:	97ffffdd 	bl	43006430 <restore_gp_pmcr_pauth_regs>
    430064c0:	f9407bfe 	ldr	x30, [sp, #240]
    430064c4:	f9009bff 	str	xzr, [sp, #304]
    430064c8:	d69f03e0 	eret
    430064cc:	d503379f 	dsb	nsh
    430064d0:	d5033fdf 	isb

00000000430064d4 <init_cpu_data_ptr>:
    430064d4:	aa1e03ea 	mov	x10, x30
    430064d8:	940000a2 	bl	43006760 <plat_my_core_pos>
    430064dc:	94000003 	bl	430064e8 <_cpu_data_by_index>
    430064e0:	d51ed040 	msr	tpidr_el3, x0
    430064e4:	d65f0140 	ret	x10

00000000430064e8 <_cpu_data_by_index>:
    430064e8:	d2800801 	mov	x1, #0x40                  	// #64
    430064ec:	9b017c00 	mul	x0, x0, x1
    430064f0:	d0000021 	adrp	x1, 4300c000 <__STACKS_START__+0xf00>
    430064f4:	91040021 	add	x1, x1, #0x100
    430064f8:	8b010000 	add	x0, x0, x1
    430064fc:	d65f03c0 	ret

0000000043006500 <spin_lock>:
    43006500:	52800022 	mov	w2, #0x1                   	// #1
    43006504:	d50320bf 	sevl

0000000043006508 <l1>:
    43006508:	d503205f 	wfe

000000004300650c <l2>:
    4300650c:	885ffc01 	ldaxr	w1, [x0]
    43006510:	35ffffc1 	cbnz	w1, 43006508 <l1>
    43006514:	88017c02 	stxr	w1, w2, [x0]
    43006518:	35ffffa1 	cbnz	w1, 4300650c <l2>
    4300651c:	d65f03c0 	ret

0000000043006520 <spin_unlock>:
    43006520:	889ffc1f 	stlr	wzr, [x0]
    43006524:	d65f03c0 	ret

0000000043006528 <psci_do_pwrdown_cache_maintenance>:
    43006528:	a9bf7bfd 	stp	x29, x30, [sp, #-16]!
    4300652c:	a9bf53f3 	stp	x19, x20, [sp, #-16]!
    43006530:	97ffff3c 	bl	43006220 <prepare_cpu_pwr_dwn>
    43006534:	9400001c 	bl	430065a4 <plat_get_my_stack>
    43006538:	aa0003f3 	mov	x19, x0
    4300653c:	910003e1 	mov	x1, sp
    43006540:	cb010001 	sub	x1, x0, x1
    43006544:	910003e0 	mov	x0, sp
    43006548:	940000ba 	bl	43006830 <flush_dcache_range>
    4300654c:	d1200260 	sub	x0, x19, #0x800
    43006550:	cb2063e1 	sub	x1, sp, x0
    43006554:	940000d3 	bl	430068a0 <inv_dcache_range>
    43006558:	a8c153f3 	ldp	x19, x20, [sp], #16
    4300655c:	a8c17bfd 	ldp	x29, x30, [sp], #16
    43006560:	d65f03c0 	ret

0000000043006564 <psci_do_pwrup_cache_maintenance>:
    43006564:	a9bf7bfd 	stp	x29, x30, [sp, #-16]!
    43006568:	d5033ebf 	dmb	st
    4300656c:	9400000e 	bl	430065a4 <plat_get_my_stack>
    43006570:	910003e1 	mov	x1, sp
    43006574:	cb010001 	sub	x1, x0, x1
    43006578:	910003e0 	mov	x0, sp
    4300657c:	940000c9 	bl	430068a0 <inv_dcache_range>
    43006580:	d53e1000 	mrs	x0, sctlr_el3
    43006584:	b27e0000 	orr	x0, x0, #0x4
    43006588:	d51e1000 	msr	sctlr_el3, x0
    4300658c:	d5033fdf 	isb
    43006590:	a8c17bfd 	ldp	x29, x30, [sp], #16
    43006594:	d65f03c0 	ret

0000000043006598 <psci_power_down_wfi>:
    43006598:	d5033f9f 	dsb	sy
    4300659c:	d503207f 	wfi
    430065a0:	17ffffff 	b	4300659c <psci_power_down_wfi+0x4>

00000000430065a4 <plat_get_my_stack>:
    430065a4:	aa1e03ea 	mov	x10, x30
    430065a8:	9400006e 	bl	43006760 <plat_my_core_pos>
    430065ac:	b0000022 	adrp	x2, 4300b000 <__RO_END_UNALIGNED__>
    430065b0:	91240042 	add	x2, x2, #0x900
    430065b4:	d2810001 	mov	x1, #0x800                 	// #2048
    430065b8:	9b010800 	madd	x0, x0, x1, x2
    430065bc:	d65f0140 	ret	x10

00000000430065c0 <plat_set_my_stack>:
    430065c0:	aa1e03e9 	mov	x9, x30
    430065c4:	97fffff8 	bl	430065a4 <plat_get_my_stack>
    430065c8:	9100001f 	mov	sp, x0
    430065cc:	d65f0120 	ret	x9

00000000430065d0 <console_hsuart_init>:
    430065d0:	b4000580 	cbz	x0, 43006680 <init_fail>
    430065d4:	34000561 	cbz	w1, 43006680 <init_fail>
    430065d8:	34000542 	cbz	w2, 43006680 <init_fail>
    430065dc:	b900041f 	str	wzr, [x0, #4]
    430065e0:	52800064 	mov	w4, #0x3                   	// #3
    430065e4:	b9001004 	str	w4, [x0, #16]
    430065e8:	528000e4 	mov	w4, #0x7                   	// #7
    430065ec:	b9000804 	str	w4, [x0, #8]
    430065f0:	6b1f007f 	cmp	w3, wzr
    430065f4:	540000a1 	b.ne	43006608 <set_baud_force_high_speed>  // b.any
    430065f8:	52984003 	mov	w3, #0xc200                	// #49664
    430065fc:	72a00023 	movk	w3, #0x1, lsl #16
    43006600:	6b03005f 	cmp	w2, w3
    43006604:	5400016d 	b.le	43006630 <set_baud_low_speed>

0000000043006608 <set_baud_force_high_speed>:
    43006608:	52800063 	mov	w3, #0x3                   	// #3
    4300660c:	b9002403 	str	w3, [x0, #36]
    43006610:	51000423 	sub	w3, w1, #0x1
    43006614:	53185c44 	lsl	w4, w2, #8
    43006618:	0b040063 	add	w3, w3, w4
    4300661c:	1ac40863 	udiv	w3, w3, w4
    43006620:	1b027c62 	mul	w2, w3, w2
    43006624:	0b420421 	add	w1, w1, w2, lsr #1
    43006628:	1ac20821 	udiv	w1, w1, w2
    4300662c:	14000006 	b	43006644 <set_divisor>

0000000043006630 <set_baud_low_speed>:
    43006630:	b900241f 	str	wzr, [x0, #36]
    43006634:	0b020c21 	add	w1, w1, w2, lsl #3
    43006638:	531c6c42 	lsl	w2, w2, #4
    4300663c:	1ac20823 	udiv	w3, w1, w2
    43006640:	52800021 	mov	w1, #0x1                   	// #1

0000000043006644 <set_divisor>:
    43006644:	52801062 	mov	w2, #0x83                  	// #131
    43006648:	b9000c02 	str	w2, [x0, #12]
    4300664c:	12001c62 	and	w2, w3, #0xff
    43006650:	b9000002 	str	w2, [x0]
    43006654:	53083c63 	ubfx	w3, w3, #8, #8
    43006658:	b9000403 	str	w3, [x0, #4]
    4300665c:	52800062 	mov	w2, #0x3                   	// #3
    43006660:	b9000c02 	str	w2, [x0, #12]
    43006664:	51000423 	sub	w3, w1, #0x1
    43006668:	b9002803 	str	w3, [x0, #40]
    4300666c:	51000821 	sub	w1, w1, #0x2
    43006670:	13017c21 	asr	w1, w1, #1
    43006674:	b9002c01 	str	w1, [x0, #44]
    43006678:	52800020 	mov	w0, #0x1                   	// #1
    4300667c:	d65f03c0 	ret

0000000043006680 <init_fail>:
    43006680:	2a1f03e0 	mov	w0, wzr
    43006684:	d65f03c0 	ret

0000000043006688 <console_hsuart_core_getc>:
    43006688:	b9401401 	ldr	w1, [x0, #20]
    4300668c:	36000061 	tbz	w1, #0, 43006698 <no_char>
    43006690:	b9400000 	ldr	w0, [x0]
    43006694:	d65f03c0 	ret

0000000043006698 <no_char>:
    43006698:	12800000 	mov	w0, #0xffffffff            	// #-1
    4300669c:	d65f03c0 	ret

00000000430066a0 <console_hsuart_core_putc>:
    430066a0:	7100281f 	cmp	w0, #0xa
    430066a4:	540000e1 	b.ne	430066c0 <console_hsuart_core_putc+0x20>  // b.any
    430066a8:	b9401422 	ldr	w2, [x1, #20]
    430066ac:	121b0442 	and	w2, w2, #0x60
    430066b0:	7101805f 	cmp	w2, #0x60
    430066b4:	54ffffa1 	b.ne	430066a8 <console_hsuart_core_putc+0x8>  // b.any
    430066b8:	528001a2 	mov	w2, #0xd                   	// #13
    430066bc:	b9000022 	str	w2, [x1]
    430066c0:	b9401422 	ldr	w2, [x1, #20]
    430066c4:	121b0442 	and	w2, w2, #0x60
    430066c8:	7101805f 	cmp	w2, #0x60
    430066cc:	54ffffa1 	b.ne	430066c0 <console_hsuart_core_putc+0x20>  // b.any
    430066d0:	b9000020 	str	w0, [x1]
    430066d4:	d65f03c0 	ret

00000000430066d8 <console_hsuart_core_flush>:
    430066d8:	b9401401 	ldr	w1, [x0, #20]
    430066dc:	121b0421 	and	w1, w1, #0x60
    430066e0:	7101803f 	cmp	w1, #0x60
    430066e4:	54ffffa1 	b.ne	430066d8 <console_hsuart_core_flush>  // b.any
    430066e8:	2a1f03e0 	mov	w0, wzr
    430066ec:	d65f03c0 	ret

00000000430066f0 <console_hsuart_getc>:
    430066f0:	f9401400 	ldr	x0, [x0, #40]
    430066f4:	17ffffe5 	b	43006688 <console_hsuart_core_getc>

00000000430066f8 <console_hsuart_putc>:
    430066f8:	f9401421 	ldr	x1, [x1, #40]
    430066fc:	17ffffe9 	b	430066a0 <console_hsuart_core_putc>

0000000043006700 <console_hsuart_flush>:
    43006700:	f9401400 	ldr	x0, [x0, #40]
    43006704:	17fffff5 	b	430066d8 <console_hsuart_core_flush>

0000000043006708 <console_hsuart_register>:
    43006708:	aa1e03e7 	mov	x7, x30
    4300670c:	aa0403e6 	mov	x6, x4
    43006710:	b4000266 	cbz	x6, 4300675c <register_fail>
    43006714:	f90014c0 	str	x0, [x6, #40]
    43006718:	34000061 	cbz	w1, 43006724 <register_hsuart>
    4300671c:	97ffffad 	bl	430065d0 <console_hsuart_init>
    43006720:	b40001e0 	cbz	x0, 4300675c <register_fail>

0000000043006724 <register_hsuart>:
    43006724:	aa0603e0 	mov	x0, x6
    43006728:	aa0703fe 	mov	x30, x7
    4300672c:	90000001 	adrp	x1, 43006000 <sync_handler64+0x38>
    43006730:	911be021 	add	x1, x1, #0x6f8
    43006734:	f9000801 	str	x1, [x0, #16]
    43006738:	90000001 	adrp	x1, 43006000 <sync_handler64+0x38>
    4300673c:	911bc021 	add	x1, x1, #0x6f0
    43006740:	f9000c01 	str	x1, [x0, #24]
    43006744:	90000001 	adrp	x1, 43006000 <sync_handler64+0x38>
    43006748:	911c0021 	add	x1, x1, #0x700
    4300674c:	f9001001 	str	x1, [x0, #32]
    43006750:	d28000a1 	mov	x1, #0x5                   	// #5
    43006754:	f9000401 	str	x1, [x0, #8]
    43006758:	17fffd37 	b	43005c34 <console_register>

000000004300675c <register_fail>:
    4300675c:	d65f00e0 	ret	x7

0000000043006760 <plat_my_core_pos>:
    43006760:	d53800a0 	mrs	x0, mpidr_el1
    43006764:	92401c01 	and	x1, x0, #0xff
    43006768:	92781c00 	and	x0, x0, #0xff00
    4300676c:	8b401820 	add	x0, x1, x0, lsr #6
    43006770:	d65f03c0 	ret

0000000043006774 <plat_crash_console_init>:
    43006774:	d2840000 	mov	x0, #0x2000                	// #8192
    43006778:	f2a22000 	movk	x0, #0x1100, lsl #16
    4300677c:	d28f0801 	mov	x1, #0x7840                	// #30784
    43006780:	f2a02fa1 	movk	x1, #0x17d, lsl #16
    43006784:	d2984002 	mov	x2, #0xc200                	// #49664
    43006788:	f2a00022 	movk	x2, #0x1, lsl #16
    4300678c:	d2800023 	mov	x3, #0x1                   	// #1
    43006790:	17ffff90 	b	430065d0 <console_hsuart_init>

0000000043006794 <plat_crash_console_putc>:
    43006794:	d2840001 	mov	x1, #0x2000                	// #8192
    43006798:	f2a22001 	movk	x1, #0x1100, lsl #16
    4300679c:	17ffffc1 	b	430066a0 <console_hsuart_core_putc>

00000000430067a0 <plat_crash_console_flush>:
    430067a0:	d2840000 	mov	x0, #0x2000                	// #8192
    430067a4:	f2a22000 	movk	x0, #0x1100, lsl #16
    430067a8:	17ffffcc 	b	430066d8 <console_hsuart_core_flush>

00000000430067ac <asm_print_str>:
    430067ac:	aa1e03e3 	mov	x3, x30
    430067b0:	38401480 	ldrb	w0, [x4], #1
    430067b4:	b4000060 	cbz	x0, 430067c0 <asm_print_str+0x14>
    430067b8:	97fffff7 	bl	43006794 <plat_crash_console_putc>
    430067bc:	17fffffd 	b	430067b0 <asm_print_str+0x4>
    430067c0:	d65f0060 	ret	x3

00000000430067c4 <asm_print_hex>:
    430067c4:	d2800805 	mov	x5, #0x40                  	// #64

00000000430067c8 <asm_print_hex_bits>:
    430067c8:	aa1e03e3 	mov	x3, x30
    430067cc:	d10010a5 	sub	x5, x5, #0x4
    430067d0:	9ac52480 	lsr	x0, x4, x5
    430067d4:	92400c00 	and	x0, x0, #0xf
    430067d8:	f100281f 	cmp	x0, #0xa
    430067dc:	54000043 	b.cc	430067e4 <asm_print_hex_bits+0x1c>  // b.lo, b.ul, b.last
    430067e0:	91009c00 	add	x0, x0, #0x27
    430067e4:	9100c000 	add	x0, x0, #0x30
    430067e8:	97ffffeb 	bl	43006794 <plat_crash_console_putc>
    430067ec:	b5ffff05 	cbnz	x5, 430067cc <asm_print_hex_bits+0x4>
    430067f0:	d65f0060 	ret	x3

00000000430067f4 <asm_print_newline>:
    430067f4:	d2800140 	mov	x0, #0xa                   	// #10
    430067f8:	17ffffe7 	b	43006794 <plat_crash_console_putc>

00000000430067fc <elx_panic>:
    430067fc:	14000001 	b	43006800 <el3_panic>

0000000043006800 <el3_panic>:
    43006800:	aa1e03e6 	mov	x6, x30
    43006804:	97ffffdc 	bl	43006774 <plat_crash_console_init>
    43006808:	b4000100 	cbz	x0, 43006828 <_panic_handler>
    4300680c:	5001c664 	adr	x4, 4300a0da <aem_generic_errata_list_end>
    43006810:	97ffffe7 	bl	430067ac <asm_print_str>
    43006814:	aa0603e4 	mov	x4, x6
    43006818:	d1001084 	sub	x4, x4, #0x4
    4300681c:	97ffffea 	bl	430067c4 <asm_print_hex>
    43006820:	97fffff5 	bl	430067f4 <asm_print_newline>
    43006824:	97ffffdf 	bl	430067a0 <plat_crash_console_flush>

0000000043006828 <_panic_handler>:
    43006828:	aa0603fe 	mov	x30, x6
    4300682c:	140000b5 	b	43006b00 <plat_panic_handler>

0000000043006830 <flush_dcache_range>:
    43006830:	b40001a1 	cbz	x1, 43006864 <exit_loop_civac>
    43006834:	d53b0023 	mrs	x3, ctr_el0
    43006838:	d3504c63 	ubfx	x3, x3, #16, #4
    4300683c:	d2800082 	mov	x2, #0x4                   	// #4
    43006840:	9ac32042 	lsl	x2, x2, x3
    43006844:	8b010001 	add	x1, x0, x1
    43006848:	d1000443 	sub	x3, x2, #0x1
    4300684c:	8a230000 	bic	x0, x0, x3

0000000043006850 <loop_civac>:
    43006850:	d50b7e20 	dc	civac, x0
    43006854:	8b020000 	add	x0, x0, x2
    43006858:	eb01001f 	cmp	x0, x1
    4300685c:	54ffffa3 	b.cc	43006850 <loop_civac>  // b.lo, b.ul, b.last
    43006860:	d5033f9f 	dsb	sy

0000000043006864 <exit_loop_civac>:
    43006864:	d65f03c0 	ret

0000000043006868 <clean_dcache_range>:
    43006868:	b40001a1 	cbz	x1, 4300689c <exit_loop_cvac>
    4300686c:	d53b0023 	mrs	x3, ctr_el0
    43006870:	d3504c63 	ubfx	x3, x3, #16, #4
    43006874:	d2800082 	mov	x2, #0x4                   	// #4
    43006878:	9ac32042 	lsl	x2, x2, x3
    4300687c:	8b010001 	add	x1, x0, x1
    43006880:	d1000443 	sub	x3, x2, #0x1
    43006884:	8a230000 	bic	x0, x0, x3

0000000043006888 <loop_cvac>:
    43006888:	d50b7a20 	dc	cvac, x0
    4300688c:	8b020000 	add	x0, x0, x2
    43006890:	eb01001f 	cmp	x0, x1
    43006894:	54ffffa3 	b.cc	43006888 <loop_cvac>  // b.lo, b.ul, b.last
    43006898:	d5033f9f 	dsb	sy

000000004300689c <exit_loop_cvac>:
    4300689c:	d65f03c0 	ret

00000000430068a0 <inv_dcache_range>:
    430068a0:	b40001a1 	cbz	x1, 430068d4 <exit_loop_ivac>
    430068a4:	d53b0023 	mrs	x3, ctr_el0
    430068a8:	d3504c63 	ubfx	x3, x3, #16, #4
    430068ac:	d2800082 	mov	x2, #0x4                   	// #4
    430068b0:	9ac32042 	lsl	x2, x2, x3
    430068b4:	8b010001 	add	x1, x0, x1
    430068b8:	d1000443 	sub	x3, x2, #0x1
    430068bc:	8a230000 	bic	x0, x0, x3

00000000430068c0 <loop_ivac>:
    430068c0:	d5087620 	dc	ivac, x0
    430068c4:	8b020000 	add	x0, x0, x2
    430068c8:	eb01001f 	cmp	x0, x1
    430068cc:	54ffffa3 	b.cc	430068c0 <loop_ivac>  // b.lo, b.ul, b.last
    430068d0:	d5033f9f 	dsb	sy

00000000430068d4 <exit_loop_ivac>:
    430068d4:	d65f03c0 	ret

00000000430068d8 <do_dcsw_op>:
    430068d8:	b40004c3 	cbz	x3, 43006970 <exit>
    430068dc:	d538074c 	mrs	x12, id_aa64mmfr2_el1
    430068e0:	d3545d8c 	ubfx	x12, x12, #20, #4
    430068e4:	1000048e 	adr	x14, 43006974 <dcsw_loop_table>
    430068e8:	8b0015ce 	add	x14, x14, x0, lsl #5
    430068ec:	aa0903e0 	mov	x0, x9
    430068f0:	52800028 	mov	w8, #0x1                   	// #1

00000000430068f4 <loop1>:
    430068f4:	8b4a0542 	add	x2, x10, x10, lsr #1
    430068f8:	9ac22401 	lsr	x1, x0, x2
    430068fc:	92400821 	and	x1, x1, #0x7
    43006900:	f100083f 	cmp	x1, #0x2
    43006904:	540002a3 	b.cc	43006958 <level_done>  // b.lo, b.ul, b.last
    43006908:	d51a000a 	msr	csselr_el1, x10
    4300690c:	d5033fdf 	isb
    43006910:	d5390001 	mrs	x1, ccsidr_el1
    43006914:	92400822 	and	x2, x1, #0x7
    43006918:	91001042 	add	x2, x2, #0x4
    4300691c:	b400006c 	cbz	x12, 43006928 <loop1+0x34>
    43006920:	d3435c24 	ubfx	x4, x1, #3, #21
    43006924:	14000002 	b	4300692c <loop1+0x38>
    43006928:	d3433024 	ubfx	x4, x1, #3, #10
    4300692c:	5ac01085 	clz	w5, w4
    43006930:	1ac52089 	lsl	w9, w4, w5
    43006934:	1ac52110 	lsl	w16, w8, w5
    43006938:	2a090149 	orr	w9, w10, w9
    4300693c:	b400006c 	cbz	x12, 43006948 <loop1+0x54>
    43006940:	d360dc26 	ubfx	x6, x1, #32, #24
    43006944:	14000002 	b	4300694c <loop1+0x58>
    43006948:	530d6c26 	ubfx	w6, w1, #13, #15
    4300694c:	1ac22111 	lsl	w17, w8, w2
    43006950:	d5033f9f 	dsb	sy
    43006954:	d61f01c0 	br	x14

0000000043006958 <level_done>:
    43006958:	9100094a 	add	x10, x10, #0x2
    4300695c:	eb0a007f 	cmp	x3, x10
    43006960:	54fffca8 	b.hi	430068f4 <loop1>  // b.pmore
    43006964:	d51a001f 	msr	csselr_el1, xzr
    43006968:	d5033f9f 	dsb	sy
    4300696c:	d5033fdf 	isb

0000000043006970 <exit>:
    43006970:	d65f03c0 	ret

0000000043006974 <dcsw_loop_table>:
    43006974:	1ac220c7 	lsl	w7, w6, w2

0000000043006978 <loop3_isw>:
    43006978:	2a07012b 	orr	w11, w9, w7
    4300697c:	d508764b 	dc	isw, x11
    43006980:	6b1100e7 	subs	w7, w7, w17
    43006984:	54ffffa2 	b.cs	43006978 <loop3_isw>  // b.hs, b.nlast
    43006988:	eb100129 	subs	x9, x9, x16
    4300698c:	54ffff42 	b.cs	43006974 <dcsw_loop_table>  // b.hs, b.nlast
    43006990:	17fffff2 	b	43006958 <level_done>

0000000043006994 <loop2_cisw>:
    43006994:	1ac220c7 	lsl	w7, w6, w2

0000000043006998 <loop3_cisw>:
    43006998:	2a07012b 	orr	w11, w9, w7
    4300699c:	d5087e4b 	dc	cisw, x11
    430069a0:	6b1100e7 	subs	w7, w7, w17
    430069a4:	54ffffa2 	b.cs	43006998 <loop3_cisw>  // b.hs, b.nlast
    430069a8:	eb100129 	subs	x9, x9, x16
    430069ac:	54ffff42 	b.cs	43006994 <loop2_cisw>  // b.hs, b.nlast
    430069b0:	17ffffea 	b	43006958 <level_done>

00000000430069b4 <loop2_csw>:
    430069b4:	1ac220c7 	lsl	w7, w6, w2

00000000430069b8 <loop3_csw>:
    430069b8:	2a07012b 	orr	w11, w9, w7
    430069bc:	d5087a4b 	dc	csw, x11
    430069c0:	6b1100e7 	subs	w7, w7, w17
    430069c4:	54ffffa2 	b.cs	430069b8 <loop3_csw>  // b.hs, b.nlast
    430069c8:	eb100129 	subs	x9, x9, x16
    430069cc:	54ffff42 	b.cs	430069b4 <loop2_csw>  // b.hs, b.nlast
    430069d0:	17ffffe2 	b	43006958 <level_done>

00000000430069d4 <dcsw_op_all>:
    430069d4:	d5390029 	mrs	x9, clidr_el1
    430069d8:	d3586923 	ubfx	x3, x9, #24, #3
    430069dc:	d37ff863 	lsl	x3, x3, #1
    430069e0:	aa1f03ea 	mov	x10, xzr
    430069e4:	17ffffbd 	b	430068d8 <do_dcsw_op>

00000000430069e8 <dcsw_op_level1>:
    430069e8:	d5390029 	mrs	x9, clidr_el1
    430069ec:	d2800043 	mov	x3, #0x2                   	// #2
    430069f0:	d100086a 	sub	x10, x3, #0x2
    430069f4:	17ffffb9 	b	430068d8 <do_dcsw_op>

00000000430069f8 <dcsw_op_level2>:
    430069f8:	d5390029 	mrs	x9, clidr_el1
    430069fc:	d2800083 	mov	x3, #0x4                   	// #4
    43006a00:	d100086a 	sub	x10, x3, #0x2
    43006a04:	17ffffb5 	b	430068d8 <do_dcsw_op>

0000000043006a08 <zeromem>:
    43006a08:	8b010002 	add	x2, x0, x1
    43006a0c:	14000030 	b	43006acc <zero_normalmem+0xbc>

0000000043006a10 <zero_normalmem>:
    43006a10:	8b010002 	add	x2, x0, x1
    43006a14:	d53b00e3 	mrs	x3, dczid_el0
    43006a18:	d3400c63 	ubfx	x3, x3, #0, #4
    43006a1c:	d2800085 	mov	x5, #0x4                   	// #4
    43006a20:	9ac320a3 	lsl	x3, x5, x3
    43006a24:	eb03003f 	cmp	x1, x3
    43006a28:	54000523 	b.cc	43006acc <zero_normalmem+0xbc>  // b.lo, b.ul, b.last
    43006a2c:	d1000461 	sub	x1, x3, #0x1
    43006a30:	ea01001f 	tst	x0, x1
    43006a34:	54000260 	b.eq	43006a80 <zero_normalmem+0x70>  // b.none
    43006a38:	aa010004 	orr	x4, x0, x1
    43006a3c:	91000484 	add	x4, x4, #0x1
    43006a40:	b4000464 	cbz	x4, 43006acc <zero_normalmem+0xbc>
    43006a44:	eb02009f 	cmp	x4, x2
    43006a48:	54000428 	b.hi	43006acc <zero_normalmem+0xbc>  // b.pmore
    43006a4c:	f2400c1f 	tst	x0, #0xf
    43006a50:	540000e0 	b.eq	43006a6c <zero_normalmem+0x5c>  // b.none
    43006a54:	b2400c05 	orr	x5, x0, #0xf
    43006a58:	910004a5 	add	x5, x5, #0x1
    43006a5c:	b4000385 	cbz	x5, 43006acc <zero_normalmem+0xbc>
    43006a60:	3800141f 	strb	wzr, [x0], #1
    43006a64:	eb05001f 	cmp	x0, x5
    43006a68:	54ffffc1 	b.ne	43006a60 <zero_normalmem+0x50>  // b.any
    43006a6c:	eb04001f 	cmp	x0, x4
    43006a70:	54000082 	b.cs	43006a80 <zero_normalmem+0x70>  // b.hs, b.nlast
    43006a74:	a8817c1f 	stp	xzr, xzr, [x0], #16
    43006a78:	eb04001f 	cmp	x0, x4
    43006a7c:	54ffffc3 	b.cc	43006a74 <zero_normalmem+0x64>  // b.lo, b.ul, b.last
    43006a80:	8a210044 	bic	x4, x2, x1
    43006a84:	eb04001f 	cmp	x0, x4
    43006a88:	540000a2 	b.cs	43006a9c <zero_normalmem+0x8c>  // b.hs, b.nlast
    43006a8c:	d50b7420 	dc	zva, x0
    43006a90:	8b030000 	add	x0, x0, x3
    43006a94:	eb04001f 	cmp	x0, x4
    43006a98:	54ffffa3 	b.cc	43006a8c <zero_normalmem+0x7c>  // b.lo, b.ul, b.last
    43006a9c:	927cec44 	and	x4, x2, #0xfffffffffffffff0
    43006aa0:	eb04001f 	cmp	x0, x4
    43006aa4:	54000082 	b.cs	43006ab4 <zero_normalmem+0xa4>  // b.hs, b.nlast
    43006aa8:	a8817c1f 	stp	xzr, xzr, [x0], #16
    43006aac:	eb04001f 	cmp	x0, x4
    43006ab0:	54ffffc3 	b.cc	43006aa8 <zero_normalmem+0x98>  // b.lo, b.ul, b.last
    43006ab4:	eb02001f 	cmp	x0, x2
    43006ab8:	54000080 	b.eq	43006ac8 <zero_normalmem+0xb8>  // b.none
    43006abc:	3800141f 	strb	wzr, [x0], #1
    43006ac0:	eb02001f 	cmp	x0, x2
    43006ac4:	54ffffc1 	b.ne	43006abc <zero_normalmem+0xac>  // b.any
    43006ac8:	d65f03c0 	ret
    43006acc:	f2400c1f 	tst	x0, #0xf
    43006ad0:	54fffe60 	b.eq	43006a9c <zero_normalmem+0x8c>  // b.none
    43006ad4:	b2400c04 	orr	x4, x0, #0xf
    43006ad8:	91000484 	add	x4, x4, #0x1
    43006adc:	b4fffec4 	cbz	x4, 43006ab4 <zero_normalmem+0xa4>
    43006ae0:	eb02009f 	cmp	x4, x2
    43006ae4:	54fffe82 	b.cs	43006ab4 <zero_normalmem+0xa4>  // b.hs, b.nlast
    43006ae8:	3800141f 	strb	wzr, [x0], #1
    43006aec:	eb04001f 	cmp	x0, x4
    43006af0:	54ffffc1 	b.ne	43006ae8 <zero_normalmem+0xd8>  // b.any
    43006af4:	17ffffea 	b	43006a9c <zero_normalmem+0x8c>

0000000043006af8 <plat_reset_handler>:
    43006af8:	d65f03c0 	ret

0000000043006afc <plat_disable_acp>:
    43006afc:	d65f03c0 	ret

0000000043006b00 <plat_panic_handler>:
    43006b00:	d503207f 	wfi
    43006b04:	17ffffff 	b	43006b00 <plat_panic_handler>

0000000043006b08 <bl31_plat_enable_mmu>:
    43006b08:	17fff328 	b	430037a8 <enable_mmu_direct_el3>

0000000043006b0c <plat_handle_double_fault>:
    43006b0c:	17fffcf0 	b	43005ecc <report_unhandled_exception>

0000000043006b10 <plat_handle_el3_ea>:
    43006b10:	17fffcef 	b	43005ecc <report_unhandled_exception>

0000000043006b14 <efuse_wait.constprop.4>:
    43006b14:	a9bd7bfd 	stp	x29, x30, [sp, #-48]!
    43006b18:	2a0003e3 	mov	w3, w0
    43006b1c:	910003fd 	mov	x29, sp
    43006b20:	f9000bf3 	str	x19, [sp, #16]
    43006b24:	2a0103e2 	mov	w2, w1
    43006b28:	d2800093 	mov	x19, #0x4                   	// #4
    43006b2c:	d28c0000 	mov	x0, #0x6000                	// #24576
    43006b30:	f2a20400 	movk	x0, #0x1020, lsl #16
    43006b34:	b9400000 	ldr	w0, [x0]
    43006b38:	0a000060 	and	w0, w3, w0
    43006b3c:	6b00005f 	cmp	w2, w0
    43006b40:	540002a0 	b.eq	43006b94 <efuse_wait.constprop.4+0x80>  // b.none
    43006b44:	52807d00 	mov	w0, #0x3e8                 	// #1000
    43006b48:	f90013a2 	str	x2, [x29, #32]
    43006b4c:	f90017a3 	str	x3, [x29, #40]
    43006b50:	97ffebae 	bl	43001a08 <udelay>
    43006b54:	f1000673 	subs	x19, x19, #0x1
    43006b58:	f94013a2 	ldr	x2, [x29, #32]
    43006b5c:	f94017a3 	ldr	x3, [x29, #40]
    43006b60:	54fffe61 	b.ne	43006b2c <efuse_wait.constprop.4+0x18>  // b.any
    43006b64:	d28c0000 	mov	x0, #0x6000                	// #24576
    43006b68:	f2a20400 	movk	x0, #0x1020, lsl #16
    43006b6c:	b9400001 	ldr	w1, [x0]
    43006b70:	d28c0000 	mov	x0, #0x6000                	// #24576
    43006b74:	f2a20400 	movk	x0, #0x1020, lsl #16
    43006b78:	0a010061 	and	w1, w3, w1
    43006b7c:	b9400004 	ldr	w4, [x0]
    43006b80:	90000020 	adrp	x0, 4300a000 <__func__.7+0x8a>
    43006b84:	9103ac00 	add	x0, x0, #0xeb
    43006b88:	97fffbf3 	bl	43005b54 <tf_log>
    43006b8c:	12800000 	mov	w0, #0xffffffff            	// #-1
    43006b90:	14000002 	b	43006b98 <efuse_wait.constprop.4+0x84>
    43006b94:	52800000 	mov	w0, #0x0                   	// #0
    43006b98:	f9400bf3 	ldr	x19, [sp, #16]
    43006b9c:	a8c37bfd 	ldp	x29, x30, [sp], #48
    43006ba0:	d65f03c0 	ret

0000000043006ba4 <efuse_read>:
    43006ba4:	a9b77bfd 	stp	x29, x30, [sp, #-144]!
    43006ba8:	2a0003e4 	mov	w4, w0
    43006bac:	7100849f 	cmp	w4, #0x21
    43006bb0:	910003fd 	mov	x29, sp
    43006bb4:	aa0103e0 	mov	x0, x1
    43006bb8:	540000a8 	b.hi	43006bcc <efuse_read+0x28>  // b.pmore
    43006bbc:	6b1f005f 	cmp	w2, wzr
    43006bc0:	1a9f17e6 	cset	w6, eq  // eq = none
    43006bc4:	35000046 	cbnz	w6, 43006bcc <efuse_read+0x28>
    43006bc8:	b5000081 	cbnz	x1, 43006bd8 <efuse_read+0x34>
    43006bcc:	90000020 	adrp	x0, 4300a000 <__func__.7+0x8a>
    43006bd0:	91048c00 	add	x0, x0, #0x123
    43006bd4:	1400000a 	b	43006bfc <efuse_read+0x58>
    43006bd8:	b0000005 	adrp	x5, 43007000 <efuse_write+0x350>
    43006bdc:	912400a5 	add	x5, x5, #0x900
    43006be0:	d37b7c81 	ubfiz	x1, x4, #5, #32
    43006be4:	8b0100a3 	add	x3, x5, x1
    43006be8:	b86168a1 	ldr	w1, [x5, x1]
    43006bec:	6b01009f 	cmp	w4, w1
    43006bf0:	540000c0 	b.eq	43006c08 <efuse_read+0x64>  // b.none
    43006bf4:	90000020 	adrp	x0, 4300a000 <__func__.7+0x8a>
    43006bf8:	9104fc00 	add	x0, x0, #0x13f
    43006bfc:	97fffbd6 	bl	43005b54 <tf_log>
    43006c00:	12800020 	mov	w0, #0xfffffffe            	// #-2
    43006c04:	14000029 	b	43006ca8 <efuse_read+0x104>
    43006c08:	b9401465 	ldr	w5, [x3, #20]
    43006c0c:	39404067 	ldrb	w7, [x3, #16]
    43006c10:	120008a1 	and	w1, w5, #0x7
    43006c14:	6b1f003f 	cmp	w1, wzr
    43006c18:	1a9f07e1 	cset	w1, ne  // ne = any
    43006c1c:	0b450c21 	add	w1, w1, w5, lsr #3
    43006c20:	6b01005f 	cmp	w2, w1
    43006c24:	f9400463 	ldr	x3, [x3, #8]
    43006c28:	54000100 	b.eq	43006c48 <efuse_read+0xa4>  // b.none
    43006c2c:	90000020 	adrp	x0, 4300a000 <__func__.7+0x8a>
    43006c30:	91057000 	add	x0, x0, #0x15c
    43006c34:	2a0203e1 	mov	w1, w2
    43006c38:	2a0403e2 	mov	w2, w4
    43006c3c:	97fffbc6 	bl	43005b54 <tf_log>
    43006c40:	12800040 	mov	w0, #0xfffffffd            	// #-3
    43006c44:	14000019 	b	43006ca8 <efuse_read+0x104>
    43006c48:	71000c5f 	cmp	w2, #0x3
    43006c4c:	910043a1 	add	x1, x29, #0x10
    43006c50:	54000148 	b.hi	43006c78 <efuse_read+0xd4>  // b.pmore
    43006c54:	b9400063 	ldr	w3, [x3]
    43006c58:	510004a5 	sub	w5, w5, #0x1
    43006c5c:	52800044 	mov	w4, #0x2                   	// #2
    43006c60:	1ac52085 	lsl	w5, w4, w5
    43006c64:	510004a5 	sub	w5, w5, #0x1
    43006c68:	1ac72463 	lsr	w3, w3, w7
    43006c6c:	0a0300a5 	and	w5, w5, w3
    43006c70:	b90013a5 	str	w5, [x29, #16]
    43006c74:	1400000a 	b	43006c9c <efuse_read+0xf8>
    43006c78:	2a0603e4 	mov	w4, w6
    43006c7c:	53027c45 	lsr	w5, w2, #2
    43006c80:	cb030026 	sub	x6, x1, x3
    43006c84:	b9400067 	ldr	w7, [x3]
    43006c88:	11000484 	add	w4, w4, #0x1
    43006c8c:	b82368c7 	str	w7, [x6, x3]
    43006c90:	6b05009f 	cmp	w4, w5
    43006c94:	91001063 	add	x3, x3, #0x4
    43006c98:	54ffff63 	b.cc	43006c84 <efuse_read+0xe0>  // b.lo, b.ul, b.last
    43006c9c:	2a0203e2 	mov	w2, w2
    43006ca0:	9400011e 	bl	43007118 <memcpy>
    43006ca4:	52800000 	mov	w0, #0x0                   	// #0
    43006ca8:	a8c97bfd 	ldp	x29, x30, [sp], #144
    43006cac:	d65f03c0 	ret

0000000043006cb0 <efuse_write>:
    43006cb0:	a9ae7bfd 	stp	x29, x30, [sp, #-288]!
    43006cb4:	7100841f 	cmp	w0, #0x21
    43006cb8:	910003fd 	mov	x29, sp
    43006cbc:	a90153f3 	stp	x19, x20, [sp, #16]
    43006cc0:	a9025bf5 	stp	x21, x22, [sp, #32]
    43006cc4:	a90363f7 	stp	x23, x24, [sp, #48]
    43006cc8:	a9046bf9 	stp	x25, x26, [sp, #64]
    43006ccc:	a90573fb 	stp	x27, x28, [sp, #80]
    43006cd0:	2a0003f5 	mov	w21, w0
    43006cd4:	aa0103f7 	mov	x23, x1
    43006cd8:	2a0203f3 	mov	w19, w2
    43006cdc:	54000068 	b.hi	43006ce8 <efuse_write+0x38>  // b.pmore
    43006ce0:	34000042 	cbz	w2, 43006ce8 <efuse_write+0x38>
    43006ce4:	b50000c1 	cbnz	x1, 43006cfc <efuse_write+0x4c>
    43006ce8:	90000020 	adrp	x0, 4300a000 <__func__.7+0x8a>
    43006cec:	91062c00 	add	x0, x0, #0x18b
    43006cf0:	12800034 	mov	w20, #0xfffffffe            	// #-2
    43006cf4:	97fffb98 	bl	43005b54 <tf_log>
    43006cf8:	140000f6 	b	430070d0 <efuse_write+0x420>
    43006cfc:	b0000000 	adrp	x0, 43007000 <efuse_write+0x350>
    43006d00:	2a1503f4 	mov	w20, w21
    43006d04:	91240002 	add	x2, x0, #0x900
    43006d08:	8b141442 	add	x2, x2, x20, lsl #5
    43006d0c:	aa0003f6 	mov	x22, x0
    43006d10:	b940145c 	ldr	w28, [x2, #20]
    43006d14:	39406041 	ldrb	w1, [x2, #24]
    43006d18:	f940045a 	ldr	x26, [x2, #8]
    43006d1c:	12000b82 	and	w2, w28, #0x7
    43006d20:	6b1f005f 	cmp	w2, wzr
    43006d24:	1a9f07e0 	cset	w0, ne  // ne = any
    43006d28:	0b5c0c00 	add	w0, w0, w28, lsr #3
    43006d2c:	6b00027f 	cmp	w19, w0
    43006d30:	54000100 	b.eq	43006d50 <efuse_write+0xa0>  // b.none
    43006d34:	90000020 	adrp	x0, 4300a000 <__func__.7+0x8a>
    43006d38:	9106a000 	add	x0, x0, #0x1a8
    43006d3c:	2a1303e1 	mov	w1, w19
    43006d40:	2a1503e2 	mov	w2, w21
    43006d44:	12800054 	mov	w20, #0xfffffffd            	// #-3
    43006d48:	97fffb83 	bl	43005b54 <tf_log>
    43006d4c:	140000e1 	b	430070d0 <efuse_write+0x420>
    43006d50:	2a1303fb 	mov	w27, w19
    43006d54:	aa1b03e2 	mov	x2, x27
    43006d58:	d2800000 	mov	x0, #0x0                   	// #0
    43006d5c:	38606ae3 	ldrb	w3, [x23, x0]
    43006d60:	91000400 	add	x0, x0, #0x1
    43006d64:	6b1f007f 	cmp	w3, wzr
    43006d68:	9a9f07e3 	cset	x3, ne  // ne = any
    43006d6c:	eb1b001f 	cmp	x0, x27
    43006d70:	cb030042 	sub	x2, x2, x3
    43006d74:	54ffff43 	b.cc	43006d5c <efuse_write+0xac>  // b.lo, b.ul, b.last
    43006d78:	eb1b005f 	cmp	x2, x27
    43006d7c:	540000e1 	b.ne	43006d98 <efuse_write+0xe8>  // b.any
    43006d80:	90000020 	adrp	x0, 4300a000 <__func__.7+0x8a>
    43006d84:	91076000 	add	x0, x0, #0x1d8
    43006d88:	2a1503e1 	mov	w1, w21
    43006d8c:	12800074 	mov	w20, #0xfffffffc            	// #-4
    43006d90:	97fffb71 	bl	43005b54 <tf_log>
    43006d94:	140000cf 	b	430070d0 <efuse_write+0x420>
    43006d98:	7100043f 	cmp	w1, #0x1
    43006d9c:	54000100 	b.eq	43006dbc <efuse_write+0x10c>  // b.none
    43006da0:	7100103f 	cmp	w1, #0x4
    43006da4:	540000c0 	b.eq	43006dbc <efuse_write+0x10c>  // b.none
    43006da8:	90000020 	adrp	x0, 4300a000 <__func__.7+0x8a>
    43006dac:	9107f400 	add	x0, x0, #0x1fd
    43006db0:	12800094 	mov	w20, #0xfffffffb            	// #-5
    43006db4:	97fffb68 	bl	43005b54 <tf_log>
    43006db8:	140000c6 	b	430070d0 <efuse_write+0x420>
    43006dbc:	910283b8 	add	x24, x29, #0xa0
    43006dc0:	52800001 	mov	w1, #0x0                   	// #0
    43006dc4:	d2801002 	mov	x2, #0x80                  	// #128
    43006dc8:	912402d6 	add	x22, x22, #0x900
    43006dcc:	aa1803e0 	mov	x0, x24
    43006dd0:	8b1416d4 	add	x20, x22, x20, lsl #5
    43006dd4:	940000e6 	bl	4300716c <memset>
    43006dd8:	910203b6 	add	x22, x29, #0x80
    43006ddc:	2a1503e0 	mov	w0, w21
    43006de0:	aa1603e1 	mov	x1, x22
    43006de4:	2a1303e2 	mov	w2, w19
    43006de8:	39404294 	ldrb	w20, [x20, #16]
    43006dec:	b9007fb4 	str	w20, [x29, #124]
    43006df0:	97ffff6d 	bl	43006ba4 <efuse_read>
    43006df4:	d2800014 	mov	x20, #0x0                   	// #0
    43006df8:	2a0003f9 	mov	w25, w0
    43006dfc:	340000a0 	cbz	w0, 43006e10 <efuse_write+0x160>
    43006e00:	90000020 	adrp	x0, 4300a000 <__func__.7+0x8a>
    43006e04:	91087800 	add	x0, x0, #0x21e
    43006e08:	97fffb53 	bl	43005b54 <tf_log>
    43006e0c:	14000042 	b	43006f14 <efuse_write+0x264>
    43006e10:	90000027 	adrp	x7, 4300a000 <__func__.7+0x8a>
    43006e14:	9108b0e7 	add	x7, x7, #0x22c
    43006e18:	38746ae2 	ldrb	w2, [x23, x20]
    43006e1c:	38746ac4 	ldrb	w4, [x22, x20]
    43006e20:	2a1403e6 	mov	w6, w20
    43006e24:	aa0703e0 	mov	x0, x7
    43006e28:	2a1403e1 	mov	w1, w20
    43006e2c:	2a1403e3 	mov	w3, w20
    43006e30:	f9003ba6 	str	x6, [x29, #112]
    43006e34:	f90037a7 	str	x7, [x29, #104]
    43006e38:	97fffb47 	bl	43005b54 <tf_log>
    43006e3c:	38746ae1 	ldrb	w1, [x23, x20]
    43006e40:	38746ac0 	ldrb	w0, [x22, x20]
    43006e44:	f9403ba6 	ldr	x6, [x29, #112]
    43006e48:	0a000020 	and	w0, w1, w0
    43006e4c:	6b00003f 	cmp	w1, w0
    43006e50:	f94037a7 	ldr	x7, [x29, #104]
    43006e54:	540000a1 	b.ne	43006e68 <efuse_write+0x1b8>  // b.any
    43006e58:	11000686 	add	w6, w20, #0x1
    43006e5c:	91000694 	add	x20, x20, #0x1
    43006e60:	6b14027f 	cmp	w19, w20
    43006e64:	54fffda8 	b.hi	43006e18 <efuse_write+0x168>  // b.pmore
    43006e68:	6b1300df 	cmp	w6, w19
    43006e6c:	540000c1 	b.ne	43006e84 <efuse_write+0x1d4>  // b.any
    43006e70:	90000020 	adrp	x0, 4300a000 <__func__.7+0x8a>
    43006e74:	91097c00 	add	x0, x0, #0x25f
    43006e78:	128000b9 	mov	w25, #0xfffffffa            	// #-6
    43006e7c:	97fffb36 	bl	43005b54 <tf_log>
    43006e80:	14000025 	b	43006f14 <efuse_write+0x264>
    43006e84:	aa1803e0 	mov	x0, x24
    43006e88:	aa1703e1 	mov	x1, x23
    43006e8c:	aa1b03e2 	mov	x2, x27
    43006e90:	940000a2 	bl	43007118 <memcpy>
    43006e94:	7100127f 	cmp	w19, #0x4
    43006e98:	53027e65 	lsr	w5, w19, #2
    43006e9c:	1a9f24a5 	csinc	w5, w5, wzr, cs  // cs = hs, nlast
    43006ea0:	71007f9f 	cmp	w28, #0x1f
    43006ea4:	52800004 	mov	w4, #0x0                   	// #0
    43006ea8:	54000068 	b.hi	43006eb4 <efuse_write+0x204>  // b.pmore
    43006eac:	12800004 	mov	w4, #0xffffffff            	// #-1
    43006eb0:	1adc2084 	lsl	w4, w4, w28
    43006eb4:	d2800003 	mov	x3, #0x0                   	// #0
    43006eb8:	2a0303e0 	mov	w0, w3
    43006ebc:	3400013c 	cbz	w28, 43006ee0 <efuse_write+0x230>
    43006ec0:	b8636b01 	ldr	w1, [x24, x3]
    43006ec4:	6a04003f 	tst	w1, w4
    43006ec8:	540000c0 	b.eq	43006ee0 <efuse_write+0x230>  // b.none
    43006ecc:	90000020 	adrp	x0, 4300a000 <__func__.7+0x8a>
    43006ed0:	910a5400 	add	x0, x0, #0x295
    43006ed4:	12800139 	mov	w25, #0xfffffff6            	// #-10
    43006ed8:	97fffb1f 	bl	43005b54 <tf_log>
    43006edc:	1400000e 	b	43006f14 <efuse_write+0x264>
    43006ee0:	b8636b02 	ldr	w2, [x24, x3]
    43006ee4:	3941f3a1 	ldrb	w1, [x29, #124]
    43006ee8:	11000400 	add	w0, w0, #0x1
    43006eec:	1ac12042 	lsl	w2, w2, w1
    43006ef0:	92407c61 	and	x1, x3, #0xffffffff
    43006ef4:	b8236b02 	str	w2, [x24, x3]
    43006ef8:	6b05001f 	cmp	w0, w5
    43006efc:	b87a6821 	ldr	w1, [x1, x26]
    43006f00:	2a020022 	orr	w2, w1, w2
    43006f04:	4a010041 	eor	w1, w2, w1
    43006f08:	b8236ac1 	str	w1, [x22, x3]
    43006f0c:	91001063 	add	x3, x3, #0x4
    43006f10:	54fffd63 	b.cc	43006ebc <efuse_write+0x20c>  // b.lo, b.ul, b.last
    43006f14:	2a1903f4 	mov	w20, w25
    43006f18:	340000b9 	cbz	w25, 43006f2c <efuse_write+0x27c>
    43006f1c:	90000020 	adrp	x0, 4300a000 <__func__.7+0x8a>
    43006f20:	910b0800 	add	x0, x0, #0x2c2
    43006f24:	97fffb0c 	bl	43005b54 <tf_log>
    43006f28:	1400006a 	b	430070d0 <efuse_write+0x420>
    43006f2c:	d28c0000 	mov	x0, #0x6000                	// #24576
    43006f30:	f2a20400 	movk	x0, #0x1020, lsl #16
    43006f34:	b9400001 	ldr	w1, [x0]
    43006f38:	d28c0000 	mov	x0, #0x6000                	// #24576
    43006f3c:	f2a20400 	movk	x0, #0x1020, lsl #16
    43006f40:	32110021 	orr	w1, w1, #0x8000
    43006f44:	b9000001 	str	w1, [x0]
    43006f48:	d5033f9f 	dsb	sy
    43006f4c:	d28c0100 	mov	x0, #0x6008                	// #24584
    43006f50:	f2a20400 	movk	x0, #0x1020, lsl #16
    43006f54:	528e1ac1 	mov	w1, #0x70d6                	// #28886
    43006f58:	72b92461 	movk	w1, #0xc923, lsl #16
    43006f5c:	b9000001 	str	w1, [x0]
    43006f60:	d5033f9f 	dsb	sy
    43006f64:	52800040 	mov	w0, #0x2                   	// #2
    43006f68:	2a1903e1 	mov	w1, w25
    43006f6c:	97fffeea 	bl	43006b14 <efuse_wait.constprop.4>
    43006f70:	34000b40 	cbz	w0, 430070d8 <efuse_write+0x428>
    43006f74:	90000020 	adrp	x0, 4300a000 <__func__.7+0x8a>
    43006f78:	910bb000 	add	x0, x0, #0x2ec
    43006f7c:	14000014 	b	43006fcc <efuse_write+0x31c>
    43006f80:	71000739 	subs	w25, w25, #0x1
    43006f84:	540002a0 	b.eq	43006fd8 <efuse_write+0x328>  // b.none
    43006f88:	b87c6ac0 	ldr	w0, [x22, x28]
    43006f8c:	b9000040 	str	w0, [x2]
    43006f90:	d5033f9f 	dsb	sy
    43006f94:	52800001 	mov	w1, #0x0                   	// #0
    43006f98:	52800040 	mov	w0, #0x2                   	// #2
    43006f9c:	f90037a2 	str	x2, [x29, #104]
    43006fa0:	97fffedd 	bl	43006b14 <efuse_wait.constprop.4>
    43006fa4:	2a0003e1 	mov	w1, w0
    43006fa8:	52942400 	mov	w0, #0xa120                	// #41248
    43006fac:	72a000e0 	movk	w0, #0x7, lsl #16
    43006fb0:	f9003ba1 	str	x1, [x29, #112]
    43006fb4:	97ffea95 	bl	43001a08 <udelay>
    43006fb8:	f9403ba1 	ldr	x1, [x29, #112]
    43006fbc:	f94037a2 	ldr	x2, [x29, #104]
    43006fc0:	34fffe01 	cbz	w1, 43006f80 <efuse_write+0x2d0>
    43006fc4:	90000020 	adrp	x0, 4300a000 <__func__.7+0x8a>
    43006fc8:	910c0800 	add	x0, x0, #0x302
    43006fcc:	97fffae2 	bl	43005b54 <tf_log>
    43006fd0:	52800018 	mov	w24, #0x0                   	// #0
    43006fd4:	14000005 	b	43006fe8 <efuse_write+0x338>
    43006fd8:	91000718 	add	x24, x24, #0x1
    43006fdc:	6b18037f 	cmp	w27, w24
    43006fe0:	54000848 	b.hi	430070e8 <efuse_write+0x438>  // b.pmore
    43006fe4:	52800038 	mov	w24, #0x1                   	// #1
    43006fe8:	d28c0100 	mov	x0, #0x6008                	// #24584
    43006fec:	f2a20400 	movk	x0, #0x1020, lsl #16
    43006ff0:	b900001f 	str	wzr, [x0]
    43006ff4:	d5033f9f 	dsb	sy
    43006ff8:	52800040 	mov	w0, #0x2                   	// #2
    43006ffc:	52800001 	mov	w1, #0x0                   	// #0
    43007000:	97fffec5 	bl	43006b14 <efuse_wait.constprop.4>
    43007004:	2a0003f9 	mov	w25, w0
    43007008:	34000080 	cbz	w0, 43007018 <efuse_write+0x368>
    4300700c:	f0000000 	adrp	x0, 4300a000 <__func__.7+0x8a>
    43007010:	910c6800 	add	x0, x0, #0x31a
    43007014:	97fffad0 	bl	43005b54 <tf_log>
    43007018:	d28c0000 	mov	x0, #0x6000                	// #24576
    4300701c:	f2a20400 	movk	x0, #0x1020, lsl #16
    43007020:	b9400001 	ldr	w1, [x0]
    43007024:	d28c0000 	mov	x0, #0x6000                	// #24576
    43007028:	f2a20400 	movk	x0, #0x1020, lsl #16
    4300702c:	321e0021 	orr	w1, w1, #0x4
    43007030:	b9000001 	str	w1, [x0]
    43007034:	d5033f9f 	dsb	sy
    43007038:	52800020 	mov	w0, #0x1                   	// #1
    4300703c:	2a0003e1 	mov	w1, w0
    43007040:	97fffeb5 	bl	43006b14 <efuse_wait.constprop.4>
    43007044:	2a0003fa 	mov	w26, w0
    43007048:	34000080 	cbz	w0, 43007058 <efuse_write+0x3a8>
    4300704c:	f0000000 	adrp	x0, 4300a000 <__func__.7+0x8a>
    43007050:	910cc800 	add	x0, x0, #0x332
    43007054:	97fffac0 	bl	43005b54 <tf_log>
    43007058:	2a190340 	orr	w0, w26, w25
    4300705c:	35000500 	cbnz	w0, 430070fc <efuse_write+0x44c>
    43007060:	34000398 	cbz	w24, 430070d0 <efuse_write+0x420>
    43007064:	2a1503e0 	mov	w0, w21
    43007068:	aa1603e1 	mov	x1, x22
    4300706c:	2a1303e2 	mov	w2, w19
    43007070:	d2800015 	mov	x21, #0x0                   	// #0
    43007074:	97fffecc 	bl	43006ba4 <efuse_read>
    43007078:	38756ae0 	ldrb	w0, [x23, x21]
    4300707c:	38756ac1 	ldrb	w1, [x22, x21]
    43007080:	8b1502d8 	add	x24, x22, x21
    43007084:	0a010001 	and	w1, w0, w1
    43007088:	6b01001f 	cmp	w0, w1
    4300708c:	8b1502f9 	add	x25, x23, x21
    43007090:	540001a0 	b.eq	430070c4 <efuse_write+0x414>  // b.none
    43007094:	f0000000 	adrp	x0, 4300a000 <__func__.7+0x8a>
    43007098:	910d2400 	add	x0, x0, #0x349
    4300709c:	128000d4 	mov	w20, #0xfffffff9            	// #-7
    430070a0:	97fffaad 	bl	43005b54 <tf_log>
    430070a4:	f0000000 	adrp	x0, 4300a000 <__func__.7+0x8a>
    430070a8:	39400322 	ldrb	w2, [x25]
    430070ac:	39400304 	ldrb	w4, [x24]
    430070b0:	910d9000 	add	x0, x0, #0x364
    430070b4:	2a1503e1 	mov	w1, w21
    430070b8:	2a1503e3 	mov	w3, w21
    430070bc:	97fffaa6 	bl	43005b54 <tf_log>
    430070c0:	14000004 	b	430070d0 <efuse_write+0x420>
    430070c4:	910006b5 	add	x21, x21, #0x1
    430070c8:	6b15027f 	cmp	w19, w21
    430070cc:	54fffd68 	b.hi	43007078 <efuse_write+0x3c8>  // b.pmore
    430070d0:	2a1403e0 	mov	w0, w20
    430070d4:	1400000a 	b	430070fc <efuse_write+0x44c>
    430070d8:	53027e7b 	lsr	w27, w19, #2
    430070dc:	71000e7f 	cmp	w19, #0x3
    430070e0:	1a9f877b 	csinc	w27, w27, wzr, hi  // hi = pmore
    430070e4:	d2800018 	mov	x24, #0x0                   	// #0
    430070e8:	d37e7702 	ubfiz	x2, x24, #2, #30
    430070ec:	8b1a0042 	add	x2, x2, x26
    430070f0:	d37ef71c 	lsl	x28, x24, #2
    430070f4:	52800059 	mov	w25, #0x2                   	// #2
    430070f8:	17ffffa4 	b	43006f88 <efuse_write+0x2d8>
    430070fc:	a94153f3 	ldp	x19, x20, [sp, #16]
    43007100:	a9425bf5 	ldp	x21, x22, [sp, #32]
    43007104:	a94363f7 	ldp	x23, x24, [sp, #48]
    43007108:	a9446bf9 	ldp	x25, x26, [sp, #64]
    4300710c:	a94573fb 	ldp	x27, x28, [sp, #80]
    43007110:	a8d27bfd 	ldp	x29, x30, [sp], #288
    43007114:	d65f03c0 	ret

0000000043007118 <memcpy>:
    43007118:	d2800003 	mov	x3, #0x0                   	// #0
    4300711c:	eb03005f 	cmp	x2, x3
    43007120:	54000041 	b.ne	43007128 <memcpy+0x10>  // b.any
    43007124:	d65f03c0 	ret
    43007128:	38636824 	ldrb	w4, [x1, x3]
    4300712c:	38236804 	strb	w4, [x0, x3]
    43007130:	91000463 	add	x3, x3, #0x1
    43007134:	17fffffa 	b	4300711c <memcpy+0x4>

0000000043007138 <memmove>:
    43007138:	cb010006 	sub	x6, x0, x1
    4300713c:	aa0003e5 	mov	x5, x0
    43007140:	eb0200df 	cmp	x6, x2
    43007144:	54000043 	b.cc	4300714c <memmove+0x14>  // b.lo, b.ul, b.last
    43007148:	17fffff4 	b	43007118 <memcpy>
    4300714c:	8b020024 	add	x4, x1, x2
    43007150:	8b020000 	add	x0, x0, x2
    43007154:	eb05001f 	cmp	x0, x5
    43007158:	54000041 	b.ne	43007160 <memmove+0x28>  // b.any
    4300715c:	d65f03c0 	ret
    43007160:	385ffc81 	ldrb	w1, [x4, #-1]!
    43007164:	381ffc01 	strb	w1, [x0, #-1]!
    43007168:	17fffffb 	b	43007154 <memmove+0x1c>

000000004300716c <memset>:
    4300716c:	b4000342 	cbz	x2, 430071d4 <memset+0x68>
    43007170:	12001c24 	and	w4, w1, #0xff
    43007174:	aa0003e5 	mov	x5, x0
    43007178:	f24008a6 	ands	x6, x5, #0x7
    4300717c:	54000261 	b.ne	430071c8 <memset+0x5c>  // b.any
    43007180:	d3781c83 	ubfiz	x3, x4, #8, #8
    43007184:	92401c81 	and	x1, x4, #0xff
    43007188:	aa010061 	orr	x1, x3, x1
    4300718c:	d2800003 	mov	x3, #0x0                   	// #0
    43007190:	aa014021 	orr	x1, x1, x1, lsl #16
    43007194:	aa018021 	orr	x1, x1, x1, lsl #32
    43007198:	cb030047 	sub	x7, x2, x3
    4300719c:	f1001cff 	cmp	x7, #0x7
    430071a0:	540001c8 	b.hi	430071d8 <memset+0x6c>  // b.pmore
    430071a4:	d343fc41 	lsr	x1, x2, #3
    430071a8:	928000e3 	mov	x3, #0xfffffffffffffff8    	// #-8
    430071ac:	9b030822 	madd	x2, x1, x3, x2
    430071b0:	8b010ca1 	add	x1, x5, x1, lsl #3
    430071b4:	eb06005f 	cmp	x2, x6
    430071b8:	540000e0 	b.eq	430071d4 <memset+0x68>  // b.none
    430071bc:	38266824 	strb	w4, [x1, x6]
    430071c0:	910004c6 	add	x6, x6, #0x1
    430071c4:	17fffffc 	b	430071b4 <memset+0x48>
    430071c8:	380014a4 	strb	w4, [x5], #1
    430071cc:	f1000442 	subs	x2, x2, #0x1
    430071d0:	54fffd41 	b.ne	43007178 <memset+0xc>  // b.any
    430071d4:	d65f03c0 	ret
    430071d8:	f82368a1 	str	x1, [x5, x3]
    430071dc:	91002063 	add	x3, x3, #0x8
    430071e0:	17ffffee 	b	43007198 <memset+0x2c>

00000000430071e4 <unsigned_num_print.part.0>:
    430071e4:	a9ba7bfd 	stp	x29, x30, [sp, #-96]!
    430071e8:	2a0103e1 	mov	w1, w1
    430071ec:	910003fd 	mov	x29, sp
    430071f0:	a9025bf5 	stp	x21, x22, [sp, #32]
    430071f4:	910123f5 	add	x21, sp, #0x48
    430071f8:	f9001bf7 	str	x23, [sp, #48]
    430071fc:	12001c57 	and	w23, w2, #0xff
    43007200:	a90153f3 	stp	x19, x20, [sp, #16]
    43007204:	2a0303f3 	mov	w19, w3
    43007208:	d2800003 	mov	x3, #0x0                   	// #0
    4300720c:	9ac10807 	udiv	x7, x0, x1
    43007210:	11000474 	add	w20, w3, #0x1
    43007214:	9b0180e6 	msub	x6, x7, x1, x0
    43007218:	12001cc4 	and	w4, w6, #0xff
    4300721c:	f10024df 	cmp	x6, #0x9
    43007220:	1100c085 	add	w5, w4, #0x30
    43007224:	11015c84 	add	w4, w4, #0x57
    43007228:	12001ca5 	and	w5, w5, #0xff
    4300722c:	12001c84 	and	w4, w4, #0xff
    43007230:	1a858084 	csel	w4, w4, w5, hi  // hi = pmore
    43007234:	38356864 	strb	w4, [x3, x21]
    43007238:	91000463 	add	x3, x3, #0x1
    4300723c:	eb00003f 	cmp	x1, x0
    43007240:	540001c9 	b.ls	43007278 <unsigned_num_print.part.0+0x94>  // b.plast
    43007244:	7100027f 	cmp	w19, #0x0
    43007248:	540002cc 	b.gt	430072a0 <unsigned_num_print.part.0+0xbc>
    4300724c:	52800013 	mov	w19, #0x0                   	// #0
    43007250:	93407e96 	sxtw	x22, w20
    43007254:	d10006d6 	sub	x22, x22, #0x1
    43007258:	310006df 	cmn	w22, #0x1
    4300725c:	54000261 	b.ne	430072a8 <unsigned_num_print.part.0+0xc4>  // b.any
    43007260:	0b140260 	add	w0, w19, w20
    43007264:	a94153f3 	ldp	x19, x20, [sp, #16]
    43007268:	a9425bf5 	ldp	x21, x22, [sp, #32]
    4300726c:	f9401bf7 	ldr	x23, [sp, #48]
    43007270:	a8c67bfd 	ldp	x29, x30, [sp], #96
    43007274:	d65f03c0 	ret
    43007278:	aa0703e0 	mov	x0, x7
    4300727c:	17ffffe4 	b	4300720c <unsigned_num_print.part.0+0x28>
    43007280:	510006d6 	sub	w22, w22, #0x1
    43007284:	2a1703e0 	mov	w0, w23
    43007288:	97fffaa2 	bl	43005d10 <putchar>
    4300728c:	6b1402df 	cmp	w22, w20
    43007290:	54ffff8c 	b.gt	43007280 <unsigned_num_print.part.0+0x9c>
    43007294:	6b140260 	subs	w0, w19, w20
    43007298:	1a9fa013 	csel	w19, w0, wzr, ge  // ge = tcont
    4300729c:	17ffffed 	b	43007250 <unsigned_num_print.part.0+0x6c>
    430072a0:	2a1303f6 	mov	w22, w19
    430072a4:	17fffffa 	b	4300728c <unsigned_num_print.part.0+0xa8>
    430072a8:	38766aa0 	ldrb	w0, [x21, x22]
    430072ac:	97fffa99 	bl	43005d10 <putchar>
    430072b0:	17ffffe9 	b	43007254 <unsigned_num_print.part.0+0x70>

00000000430072b4 <vprintf>:
    430072b4:	a9b97bfd 	stp	x29, x30, [sp, #-112]!
    430072b8:	910003fd 	mov	x29, sp
    430072bc:	a90153f3 	stp	x19, x20, [sp, #16]
    430072c0:	b9401834 	ldr	w20, [x1, #24]
    430072c4:	a90363f7 	stp	x23, x24, [sp, #48]
    430072c8:	a9405c33 	ldp	x19, x23, [x1]
    430072cc:	a9025bf5 	stp	x21, x22, [sp, #32]
    430072d0:	aa0003f6 	mov	x22, x0
    430072d4:	a9046bf9 	stp	x25, x26, [sp, #64]
    430072d8:	d000001a 	adrp	x26, 43009000 <suspend_binary_ca7+0x2e0>
    430072dc:	9129835a 	add	x26, x26, #0xa60
    430072e0:	52800015 	mov	w21, #0x0                   	// #0
    430072e4:	52800019 	mov	w25, #0x0                   	// #0
    430072e8:	a90573fb 	stp	x27, x28, [sp, #80]
    430072ec:	394002c0 	ldrb	w0, [x22]
    430072f0:	35000120 	cbnz	w0, 43007314 <vprintf+0x60>
    430072f4:	2a1503e0 	mov	w0, w21
    430072f8:	a94153f3 	ldp	x19, x20, [sp, #16]
    430072fc:	a9425bf5 	ldp	x21, x22, [sp, #32]
    43007300:	a94363f7 	ldp	x23, x24, [sp, #48]
    43007304:	a9446bf9 	ldp	x25, x26, [sp, #64]
    43007308:	a94573fb 	ldp	x27, x28, [sp, #80]
    4300730c:	a8c77bfd 	ldp	x29, x30, [sp], #112
    43007310:	d65f03c0 	ret
    43007314:	910006d6 	add	x22, x22, #0x1
    43007318:	7100941f 	cmp	w0, #0x25
    4300731c:	54001e81 	b.ne	430076ec <vprintf+0x438>  // b.any
    43007320:	52800018 	mov	w24, #0x0                   	// #0
    43007324:	52800001 	mov	w1, #0x0                   	// #0
    43007328:	14000002 	b	43007330 <vprintf+0x7c>
    4300732c:	52800619 	mov	w25, #0x30                  	// #48
    43007330:	394002c0 	ldrb	w0, [x22]
    43007334:	7101e81f 	cmp	w0, #0x7a
    43007338:	540000e8 	b.hi	43007354 <vprintf+0xa0>  // b.pmore
    4300733c:	7101881f 	cmp	w0, #0x62
    43007340:	540000e8 	b.hi	4300735c <vprintf+0xa8>  // b.pmore
    43007344:	7100941f 	cmp	w0, #0x25
    43007348:	54000180 	b.eq	43007378 <vprintf+0xc4>  // b.none
    4300734c:	7100c01f 	cmp	w0, #0x30
    43007350:	54001b80 	b.eq	430076c0 <vprintf+0x40c>  // b.none
    43007354:	12800015 	mov	w21, #0xffffffff            	// #-1
    43007358:	17ffffe7 	b	430072f4 <vprintf+0x40>
    4300735c:	51018c00 	sub	w0, w0, #0x63
    43007360:	71005c1f 	cmp	w0, #0x17
    43007364:	54ffff88 	b.hi	43007354 <vprintf+0xa0>  // b.pmore
    43007368:	78605b40 	ldrh	w0, [x26, w0, uxtw #1]
    4300736c:	10000062 	adr	x2, 43007378 <vprintf+0xc4>
    43007370:	8b20a840 	add	x0, x2, w0, sxth #2
    43007374:	d61f0000 	br	x0
    43007378:	97fffa66 	bl	43005d10 <putchar>
    4300737c:	910006d6 	add	x22, x22, #0x1
    43007380:	17ffffdb 	b	430072ec <vprintf+0x38>
    43007384:	7100043f 	cmp	w1, #0x1
    43007388:	5400022d 	b.le	430073cc <vprintf+0x118>
    4300738c:	37f802f4 	tbnz	w20, #31, 430073e8 <vprintf+0x134>
    43007390:	91003e60 	add	x0, x19, #0xf
    43007394:	2a1403e1 	mov	w1, w20
    43007398:	927df000 	and	x0, x0, #0xfffffffffffffff8
    4300739c:	f940027c 	ldr	x28, [x19]
    430073a0:	2a0103f4 	mov	w20, w1
    430073a4:	aa0003f3 	mov	x19, x0
    430073a8:	b6f8045c 	tbz	x28, #63, 43007430 <vprintf+0x17c>
    430073ac:	528005a0 	mov	w0, #0x2d                  	// #45
    430073b0:	97fffa58 	bl	43005d10 <putchar>
    430073b4:	cb1c03e0 	neg	x0, x28
    430073b8:	51000718 	sub	w24, w24, #0x1
    430073bc:	2a1803e3 	mov	w3, w24
    430073c0:	2a1903e2 	mov	w2, w25
    430073c4:	52800141 	mov	w1, #0xa                   	// #10
    430073c8:	14000079 	b	430075ac <vprintf+0x2f8>
    430073cc:	54fffe00 	b.eq	4300738c <vprintf+0xd8>  // b.none
    430073d0:	37f801f4 	tbnz	w20, #31, 4300740c <vprintf+0x158>
    430073d4:	91002e60 	add	x0, x19, #0xb
    430073d8:	2a1403e1 	mov	w1, w20
    430073dc:	927df000 	and	x0, x0, #0xfffffffffffffff8
    430073e0:	b980027c 	ldrsw	x28, [x19]
    430073e4:	17ffffef 	b	430073a0 <vprintf+0xec>
    430073e8:	11002281 	add	w1, w20, #0x8
    430073ec:	7100003f 	cmp	w1, #0x0
    430073f0:	5400008d 	b.le	43007400 <vprintf+0x14c>
    430073f4:	91003e60 	add	x0, x19, #0xf
    430073f8:	927df000 	and	x0, x0, #0xfffffffffffffff8
    430073fc:	17ffffe8 	b	4300739c <vprintf+0xe8>
    43007400:	aa1303e0 	mov	x0, x19
    43007404:	8b34c2f3 	add	x19, x23, w20, sxtw
    43007408:	17ffffe5 	b	4300739c <vprintf+0xe8>
    4300740c:	11002281 	add	w1, w20, #0x8
    43007410:	7100003f 	cmp	w1, #0x0
    43007414:	5400008d 	b.le	43007424 <vprintf+0x170>
    43007418:	91002e60 	add	x0, x19, #0xb
    4300741c:	927df000 	and	x0, x0, #0xfffffffffffffff8
    43007420:	17fffff0 	b	430073e0 <vprintf+0x12c>
    43007424:	aa1303e0 	mov	x0, x19
    43007428:	8b34c2f3 	add	x19, x23, w20, sxtw
    4300742c:	17ffffed 	b	430073e0 <vprintf+0x12c>
    43007430:	aa1c03e0 	mov	x0, x28
    43007434:	17ffffe2 	b	430073bc <vprintf+0x108>
    43007438:	37f80154 	tbnz	w20, #31, 43007460 <vprintf+0x1ac>
    4300743c:	91002e78 	add	x24, x19, #0xb
    43007440:	2a1403fc 	mov	w28, w20
    43007444:	927df318 	and	x24, x24, #0xfffffffffffffff8
    43007448:	b9400260 	ldr	w0, [x19]
    4300744c:	110006b5 	add	w21, w21, #0x1
    43007450:	97fffa30 	bl	43005d10 <putchar>
    43007454:	2a1c03f4 	mov	w20, w28
    43007458:	aa1803f3 	mov	x19, x24
    4300745c:	17ffffc8 	b	4300737c <vprintf+0xc8>
    43007460:	1100229c 	add	w28, w20, #0x8
    43007464:	7100039f 	cmp	w28, #0x0
    43007468:	5400008d 	b.le	43007478 <vprintf+0x1c4>
    4300746c:	91002e78 	add	x24, x19, #0xb
    43007470:	927df318 	and	x24, x24, #0xfffffffffffffff8
    43007474:	17fffff5 	b	43007448 <vprintf+0x194>
    43007478:	aa1303f8 	mov	x24, x19
    4300747c:	8b34c2f3 	add	x19, x23, w20, sxtw
    43007480:	17fffff2 	b	43007448 <vprintf+0x194>
    43007484:	37f801b4 	tbnz	w20, #31, 430074b8 <vprintf+0x204>
    43007488:	91003e78 	add	x24, x19, #0xf
    4300748c:	2a1403fc 	mov	w28, w20
    43007490:	927df318 	and	x24, x24, #0xfffffffffffffff8
    43007494:	f9400274 	ldr	x20, [x19]
    43007498:	d2800013 	mov	x19, #0x0                   	// #0
    4300749c:	d1000694 	sub	x20, x20, #0x1
    430074a0:	2a1303e1 	mov	w1, w19
    430074a4:	91000673 	add	x19, x19, #0x1
    430074a8:	38736a80 	ldrb	w0, [x20, x19]
    430074ac:	35000180 	cbnz	w0, 430074dc <vprintf+0x228>
    430074b0:	0b0102b5 	add	w21, w21, w1
    430074b4:	17ffffe8 	b	43007454 <vprintf+0x1a0>
    430074b8:	1100229c 	add	w28, w20, #0x8
    430074bc:	7100039f 	cmp	w28, #0x0
    430074c0:	5400008d 	b.le	430074d0 <vprintf+0x21c>
    430074c4:	91003e78 	add	x24, x19, #0xf
    430074c8:	927df318 	and	x24, x24, #0xfffffffffffffff8
    430074cc:	17fffff2 	b	43007494 <vprintf+0x1e0>
    430074d0:	aa1303f8 	mov	x24, x19
    430074d4:	8b34c2f3 	add	x19, x23, w20, sxtw
    430074d8:	17ffffef 	b	43007494 <vprintf+0x1e0>
    430074dc:	97fffa0d 	bl	43005d10 <putchar>
    430074e0:	17fffff0 	b	430074a0 <vprintf+0x1ec>
    430074e4:	37f801f4 	tbnz	w20, #31, 43007520 <vprintf+0x26c>
    430074e8:	91003e7c 	add	x28, x19, #0xf
    430074ec:	2a1403fb 	mov	w27, w20
    430074f0:	927df39c 	and	x28, x28, #0xfffffffffffffff8
    430074f4:	f9400265 	ldr	x5, [x19]
    430074f8:	b50003a5 	cbnz	x5, 4300756c <vprintf+0x2b8>
    430074fc:	2a1803e3 	mov	w3, w24
    43007500:	2a1903e2 	mov	w2, w25
    43007504:	aa0503e0 	mov	x0, x5
    43007508:	52800201 	mov	w1, #0x10                  	// #16
    4300750c:	2a1b03f4 	mov	w20, w27
    43007510:	97ffff35 	bl	430071e4 <unsigned_num_print.part.0>
    43007514:	aa1c03f3 	mov	x19, x28
    43007518:	0b0002b5 	add	w21, w21, w0
    4300751c:	17ffff98 	b	4300737c <vprintf+0xc8>
    43007520:	1100229b 	add	w27, w20, #0x8
    43007524:	7100037f 	cmp	w27, #0x0
    43007528:	5400008d 	b.le	43007538 <vprintf+0x284>
    4300752c:	91003e7c 	add	x28, x19, #0xf
    43007530:	927df39c 	and	x28, x28, #0xfffffffffffffff8
    43007534:	17fffff0 	b	430074f4 <vprintf+0x240>
    43007538:	aa1303fc 	mov	x28, x19
    4300753c:	8b34c2f3 	add	x19, x23, w20, sxtw
    43007540:	17ffffed 	b	430074f4 <vprintf+0x240>
    43007544:	f90037e5 	str	x5, [sp, #104]
    43007548:	97fff9f2 	bl	43005d10 <putchar>
    4300754c:	f94037e5 	ldr	x5, [sp, #104]
    43007550:	2a1303e1 	mov	w1, w19
    43007554:	91000673 	add	x19, x19, #0x1
    43007558:	38746a60 	ldrb	w0, [x19, x20]
    4300755c:	35ffff40 	cbnz	w0, 43007544 <vprintf+0x290>
    43007560:	0b0102b5 	add	w21, w21, w1
    43007564:	51000b18 	sub	w24, w24, #0x2
    43007568:	17ffffe5 	b	430074fc <vprintf+0x248>
    4300756c:	f0000014 	adrp	x20, 4300a000 <__func__.7+0x8a>
    43007570:	d2800013 	mov	x19, #0x0                   	// #0
    43007574:	910e6e94 	add	x20, x20, #0x39b
    43007578:	17fffff6 	b	43007550 <vprintf+0x29c>
    4300757c:	7100043f 	cmp	w1, #0x1
    43007580:	540001cd 	b.le	430075b8 <vprintf+0x304>
    43007584:	37f80294 	tbnz	w20, #31, 430075d4 <vprintf+0x320>
    43007588:	91003e61 	add	x1, x19, #0xf
    4300758c:	2a1403e2 	mov	w2, w20
    43007590:	927df021 	and	x1, x1, #0xfffffffffffffff8
    43007594:	f9400260 	ldr	x0, [x19]
    43007598:	2a0203f4 	mov	w20, w2
    4300759c:	2a1803e3 	mov	w3, w24
    430075a0:	2a1903e2 	mov	w2, w25
    430075a4:	aa0103f3 	mov	x19, x1
    430075a8:	52800201 	mov	w1, #0x10                  	// #16
    430075ac:	97ffff0e 	bl	430071e4 <unsigned_num_print.part.0>
    430075b0:	0b0002b5 	add	w21, w21, w0
    430075b4:	17ffff72 	b	4300737c <vprintf+0xc8>
    430075b8:	54fffe60 	b.eq	43007584 <vprintf+0x2d0>  // b.none
    430075bc:	37f801f4 	tbnz	w20, #31, 430075f8 <vprintf+0x344>
    430075c0:	91002e61 	add	x1, x19, #0xb
    430075c4:	2a1403e2 	mov	w2, w20
    430075c8:	927df021 	and	x1, x1, #0xfffffffffffffff8
    430075cc:	b9400260 	ldr	w0, [x19]
    430075d0:	17fffff2 	b	43007598 <vprintf+0x2e4>
    430075d4:	11002282 	add	w2, w20, #0x8
    430075d8:	7100005f 	cmp	w2, #0x0
    430075dc:	5400008d 	b.le	430075ec <vprintf+0x338>
    430075e0:	91003e61 	add	x1, x19, #0xf
    430075e4:	927df021 	and	x1, x1, #0xfffffffffffffff8
    430075e8:	17ffffeb 	b	43007594 <vprintf+0x2e0>
    430075ec:	aa1303e1 	mov	x1, x19
    430075f0:	8b34c2f3 	add	x19, x23, w20, sxtw
    430075f4:	17ffffe8 	b	43007594 <vprintf+0x2e0>
    430075f8:	11002282 	add	w2, w20, #0x8
    430075fc:	7100005f 	cmp	w2, #0x0
    43007600:	5400008d 	b.le	43007610 <vprintf+0x35c>
    43007604:	91002e61 	add	x1, x19, #0xb
    43007608:	927df021 	and	x1, x1, #0xfffffffffffffff8
    4300760c:	17fffff0 	b	430075cc <vprintf+0x318>
    43007610:	aa1303e1 	mov	x1, x19
    43007614:	8b34c2f3 	add	x19, x23, w20, sxtw
    43007618:	17ffffed 	b	430075cc <vprintf+0x318>
    4300761c:	910006d6 	add	x22, x22, #0x1
    43007620:	52800041 	mov	w1, #0x2                   	// #2
    43007624:	17ffff43 	b	43007330 <vprintf+0x7c>
    43007628:	11000421 	add	w1, w1, #0x1
    4300762c:	910006d6 	add	x22, x22, #0x1
    43007630:	17ffff40 	b	43007330 <vprintf+0x7c>
    43007634:	7100043f 	cmp	w1, #0x1
    43007638:	5400012d 	b.le	4300765c <vprintf+0x3a8>
    4300763c:	37f801f4 	tbnz	w20, #31, 43007678 <vprintf+0x3c4>
    43007640:	91003e61 	add	x1, x19, #0xf
    43007644:	2a1403e2 	mov	w2, w20
    43007648:	927df021 	and	x1, x1, #0xfffffffffffffff8
    4300764c:	f9400260 	ldr	x0, [x19]
    43007650:	2a0203f4 	mov	w20, w2
    43007654:	aa0103f3 	mov	x19, x1
    43007658:	17ffff59 	b	430073bc <vprintf+0x108>
    4300765c:	54ffff00 	b.eq	4300763c <vprintf+0x388>  // b.none
    43007660:	37f801f4 	tbnz	w20, #31, 4300769c <vprintf+0x3e8>
    43007664:	91002e61 	add	x1, x19, #0xb
    43007668:	2a1403e2 	mov	w2, w20
    4300766c:	927df021 	and	x1, x1, #0xfffffffffffffff8
    43007670:	b9400260 	ldr	w0, [x19]
    43007674:	17fffff7 	b	43007650 <vprintf+0x39c>
    43007678:	11002282 	add	w2, w20, #0x8
    4300767c:	7100005f 	cmp	w2, #0x0
    43007680:	5400008d 	b.le	43007690 <vprintf+0x3dc>
    43007684:	91003e61 	add	x1, x19, #0xf
    43007688:	927df021 	and	x1, x1, #0xfffffffffffffff8
    4300768c:	17fffff0 	b	4300764c <vprintf+0x398>
    43007690:	aa1303e1 	mov	x1, x19
    43007694:	8b34c2f3 	add	x19, x23, w20, sxtw
    43007698:	17ffffed 	b	4300764c <vprintf+0x398>
    4300769c:	11002282 	add	w2, w20, #0x8
    430076a0:	7100005f 	cmp	w2, #0x0
    430076a4:	5400008d 	b.le	430076b4 <vprintf+0x400>
    430076a8:	91002e61 	add	x1, x19, #0xb
    430076ac:	927df021 	and	x1, x1, #0xfffffffffffffff8
    430076b0:	17fffff0 	b	43007670 <vprintf+0x3bc>
    430076b4:	aa1303e1 	mov	x1, x19
    430076b8:	8b34c2f3 	add	x19, x23, w20, sxtw
    430076bc:	17ffffed 	b	43007670 <vprintf+0x3bc>
    430076c0:	910006d6 	add	x22, x22, #0x1
    430076c4:	52800018 	mov	w24, #0x0                   	// #0
    430076c8:	394002c0 	ldrb	w0, [x22]
    430076cc:	5100c000 	sub	w0, w0, #0x30
    430076d0:	12001c02 	and	w2, w0, #0xff
    430076d4:	7100245f 	cmp	w2, #0x9
    430076d8:	54ffe2a8 	b.hi	4300732c <vprintf+0x78>  // b.pmore
    430076dc:	52800142 	mov	w2, #0xa                   	// #10
    430076e0:	910006d6 	add	x22, x22, #0x1
    430076e4:	1b020318 	madd	w24, w24, w2, w0
    430076e8:	17fffff8 	b	430076c8 <vprintf+0x414>
    430076ec:	110006b5 	add	w21, w21, #0x1
    430076f0:	97fff988 	bl	43005d10 <putchar>
    430076f4:	17fffefe 	b	430072ec <vprintf+0x38>

00000000430076f8 <psci_args.0>:
    430076f8:	00100106 00000000 43001114 00000000     ...........C....

0000000043007708 <plat_mmap>:
    43007708:	43000000 00000000 43000000 00000000     ...C.......C....
    43007718:	00020000 00000000 0000000a 00000000     ................
    43007728:	10000000 00000000 10000000 00000000     ................
    43007738:	00400000 00000000 00000008 00000000     ..@.............
    43007748:	11000000 00000000 11000000 00000000     ................
    43007758:	01000000 00000000 00000008 00000000     ................
	...

0000000043007788 <mcdi_pcm>:
    43007788:	43009d74 00000000 43007d7c 00000000     t..C....|}.C....
    43007798:	000003e9 00000002 00000000 00000000     ................
	...

00000000430077c0 <suspend_pcm_ca7>:
    430077c0:	43009d90 00000000 43008d20 00000000     ...C.... ..C....
    430077d0:	0000034f 00000002 0000002b 0036002c     O.......+...,.6.
    430077e0:	008f003e 0115003f 00000000 00000000     >...?...........
	...

00000000430077f8 <mt_gic_data>:
    430077f8:	10310000 00000000 10320000 00000000     ..1.......2.....
	...

0000000043007828 <plat_plat_pm_ops>:
    43007828:	43005274 00000000 43005574 00000000     tR.C....tU.C....
    43007838:	43005520 00000000 00000000 00000000      U.C............
	...
    43007850:	43005428 00000000 430055f0 00000000     (T.C.....U.C....
	...
    43007868:	4300534c 00000000 00000000 00000000     LS.C............
    43007878:	43005328 00000000 43005304 00000000     (S.C.....S.C....
    43007888:	430052ac 00000000 00000000 00000000     .R.C............
    43007898:	43005298 00000000 00000000 00000000     .R.C............
	...

00000000430078d8 <plat_prefix_str>:
    430078d8:	4300a042 00000000 4300a04c 00000000     B..C....L..C....
    430078e8:	4300a056 00000000 4300a060 00000000     V..C....`..C....
    430078f8:	4300a06a 00000000                       j..C....

0000000043007900 <efuse_info_set>:
	...
    43007908:	10206020 00000000 00000000 00000020      ` ......... ...
	...
    43007920:	00000001 00000000 10206030 00000000     ........0` .....
    43007930:	00000000 00000010 00000004 00000000     ................
    43007940:	00000002 00000000 10206038 00000000     ........8` .....
    43007950:	00000000 00000010 00000004 00000000     ................
    43007960:	00000003 00000000 10206040 00000000     ........@` .....
    43007970:	00000000 00000020 00000000 00000000     .... ...........
    43007980:	00000004 00000000 10206044 00000000     ........D` .....
    43007990:	00000000 00000020 00000000 00000000     .... ...........
    430079a0:	00000005 00000000 10206048 00000000     ........H` .....
    430079b0:	00000000 00000020 00000000 00000000     .... ...........
    430079c0:	ffffffff 00000000 1020604c 00000000     ........L` .....
    430079d0:	00000000 00000020 00000000 00000000     .... ...........
    430079e0:	ffffffff 00000000 1020604c 00000000     ........L` .....
    430079f0:	00000000 00000020 00000000 00000000     .... ...........
    43007a00:	00000008 00000000 10206090 00000000     .........` .....
    43007a10:	00000000 00000100 00000004 00000000     ................
    43007a20:	00000009 00000000 102060b0 00000000     .........` .....
    43007a30:	00000000 00000100 00000004 00000000     ................
    43007a40:	0000000a 00000000 102060d0 00000000     .........` .....
    43007a50:	00000000 00000100 00000004 00000000     ................
    43007a60:	0000000b 00000000 102060f0 00000000     .........` .....
    43007a70:	00000000 00000100 00000004 00000000     ................
    43007a80:	0000000c 00000000 10206140 00000000     ........@a .....
    43007a90:	00000000 00000020 00000000 00000000     .... ...........
    43007aa0:	0000000d 00000000 10206144 00000000     ........Da .....
    43007ab0:	00000000 00000020 00000000 00000000     .... ...........
    43007ac0:	ffffffff 00000000 10206148 00000000     ........Ha .....
    43007ad0:	00000000 00000020 00000000 00000000     .... ...........
    43007ae0:	ffffffff 00000000 1020614c 00000000     ........La .....
    43007af0:	00000000 00000020 00000000 00000000     .... ...........
    43007b00:	00000010 00000000 10206068 00000000     ........h` .....
    43007b10:	00000000 00000001 00000004 00000000     ................
    43007b20:	00000011 00000000 1020606c 00000000     ........l` .....
    43007b30:	00000001 00000001 00000004 00000000     ................
    43007b40:	00000012 00000000 1020606c 00000000     ........l` .....
    43007b50:	00000002 00000001 00000004 00000000     ................
    43007b60:	00000013 00000000 1020606c 00000000     ........l` .....
    43007b70:	00000003 00000001 00000004 00000000     ................
    43007b80:	00000014 00000000 08000000 00000000     ................
    43007b90:	00000000 00000020 00000000 00000000     .... ...........
    43007ba0:	00000015 00000000 1020606c 00000000     ........l` .....
    43007bb0:	00000004 00000001 00000004 00000000     ................
    43007bc0:	00000016 00000000 1020606c 00000000     ........l` .....
    43007bd0:	00000005 00000001 00000004 00000000     ................
    43007be0:	00000017 00000000 1020606c 00000000     ........l` .....
    43007bf0:	00000006 00000001 00000004 00000000     ................
    43007c00:	00000018 00000000 1020606c 00000000     ........l` .....
    43007c10:	00000007 00000001 00000004 00000000     ................
    43007c20:	00000019 00000000 10206060 00000000     ........`` .....
    43007c30:	00000000 00000001 00000004 00000000     ................
    43007c40:	0000001a 00000000 10206060 00000000     ........`` .....
    43007c50:	00000001 00000001 00000004 00000000     ................
    43007c60:	0000001b 00000000 1020606c 00000000     ........l` .....
    43007c70:	00000008 00000001 00000004 00000000     ................
    43007c80:	0000001c 00000000 10206110 00000000     .........a .....
    43007c90:	00000000 00000020 00000004 00000000     .... ...........
    43007ca0:	0000001d 00000000 10206114 00000000     .........a .....
    43007cb0:	00000000 00000020 00000004 00000000     .... ...........
    43007cc0:	0000001e 00000000 10206118 00000000     .........a .....
    43007cd0:	00000000 00000020 00000004 00000000     .... ...........
    43007ce0:	0000001f 00000000 1020611c 00000000     .........a .....
    43007cf0:	00000000 00000020 00000004 00000000     .... ...........
    43007d00:	00000020 00000000 10206060 00000000      .......`` .....
    43007d10:	00000002 00000001 00000004 00000000     ................
    43007d20:	00000021 00000000 10206060 00000000     !.......`` .....
    43007d30:	00000008 00000001 00000004 00000000     ................
    43007d40:	0a030600 1715120f 39222120 391c1939     ........ !"99..9
    43007d50:	242a3939 00000026 d9d602d1 02e002dc     99*$&...........
    43007d60:	02020202 0202e7e3 f102f402              ............

0000000043007d6c <cci_map>:
    43007d6c:	00000004 00000003 1f1d1b00 110f0d00     ................

0000000043007d7c <mcdi_binary>:
    43007d7c:	1a10001f 10006b04 1890001f 10006b6c     .....k......lk..
    43007d8c:	1a40001f 10006210 18d0001f 10006210     ..@..b.......b..
    43007d9c:	81002001 d82001c4 17c07c1f a0900402     . .... ..|......
    43007dac:	c2401540 17c07c1f 81052001 d8200284     @.@..|... .... .
    43007dbc:	17c07c1f a0950402 c2401b80 17c07c1f     .|........@..|..
    43007dcc:	1a40001f 10006230 18d0001f 10006230     ..@.0b......0b..
    43007ddc:	8100a001 d82003c4 17c07c1f a0908402     ...... ..|......
    43007dec:	c2401540 17c07c1f 8105a001 d8200484     @.@..|........ .
    43007dfc:	17c07c1f a0958402 c2401b80 17c07c1f     .|........@..|..
    43007e0c:	1a40001f 10006238 18d0001f 10006238     ..@.8b......8b..
    43007e1c:	81012001 d82005c4 17c07c1f a0910402     . .... ..|......
    43007e2c:	c2401540 17c07c1f 81062001 d8200684     @.@..|... .... .
    43007e3c:	17c07c1f a0960402 c2401b80 17c07c1f     .|........@..|..
    43007e4c:	1a40001f 1000623c 18d0001f 1000623c     ..@.<b......<b..
    43007e5c:	8101a001 d82007c4 17c07c1f a0918402     ...... ..|......
    43007e6c:	c2401540 17c07c1f 8106a001 d8200884     @.@..|........ .
    43007e7c:	17c07c1f a0968402 c2401b80 17c07c1f     .|........@..|..
    43007e8c:	1a40001f 10006298 18d0001f 10006298     ..@..b.......b..
    43007e9c:	81022001 d82009c4 17c07c1f a0920402     . .... ..|......
    43007eac:	c2401540 17c07c1f 81072001 d8200a84     @.@..|... .... .
    43007ebc:	17c07c1f a0970402 c2401b80 17c07c1f     .|........@..|..
    43007ecc:	1a40001f 1000629c 18d0001f 1000629c     ..@..b.......b..
    43007edc:	8102a001 d8200bc4 17c07c1f a0928402     ...... ..|......
    43007eec:	c2401540 17c07c1f 8107a001 d8200c84     @.@..|........ .
    43007efc:	17c07c1f a0978402 c2401b80 17c07c1f     .|........@..|..
    43007f0c:	1a40001f 100062c4 18d0001f 100062c4     ..@..b.......b..
    43007f1c:	81032001 d8200dc4 17c07c1f a0930402     . .... ..|......
    43007f2c:	c2401540 17c07c1f 81082001 d8200e84     @.@..|... .... .
    43007f3c:	17c07c1f a0980402 c2401b80 17c07c1f     .|........@..|..
    43007f4c:	1a40001f 100062c0 18d0001f 100062c0     ..@..b.......b..
    43007f5c:	8103a001 d8200fc4 17c07c1f a0938402     ...... ..|......
    43007f6c:	c2401540 17c07c1f 8108a001 d8201084     @.@..|........ .
    43007f7c:	17c07c1f a0988402 c2401b80 17c07c1f     .|........@..|..
    43007f8c:	1a40001f 10006214 18d0001f 10006214     ..@..b.......b..
    43007f9c:	81042001 d82011c4 17c07c1f a0940402     . .... ..|......
    43007fac:	c2401540 17c07c1f 81092001 d8201284     @.@..|... .... .
    43007fbc:	17c07c1f a0990402 c2401b80 17c07c1f     .|........@..|..
    43007fcc:	1a40001f 100062cc 18d0001f 100062cc     ..@..b.......b..
    43007fdc:	8104a001 d82013c4 17c07c1f a0948402     ...... ..|......
    43007fec:	c2401540 17c07c1f 8109a001 d8201484     @.@..|........ .
    43007ffc:	17c07c1f a0998402 c2401b80 17c07c1f     .|........@..|..
    4300800c:	1900001f 10006b6c 80802002 e1000002     ....lk... ......
    4300801c:	f0000000 17c07c1f a8c00003 00000004     .....|..........
    4300802c:	e2400003 a8c00003 00000008 e2400003     ..@...........@.
    4300803c:	1b80001f 00000020 88c00003 ffffffef     .... ...........
    4300804c:	e2400003 88c00003 fffffffd e2400003     ..@...........@.
    4300805c:	a8c00003 00000001 e2400003 88c00003     ..........@.....
    4300806c:	fffff0ff e2400003 1b80001f 20000080     ......@........ 
    4300807c:	1a90001f 10001220 69200009 1000623c     .... ..... i<b..
    4300808c:	d8001984 17c07c1f 69200009 10006214     .....|.... i.b..
    4300809c:	d8001a64 17c07c1f d0001b00 17c07c1f     d....|.......|..
    430080ac:	1900001f 10001220 8a80000a fffffff9     .... ...........
    430080bc:	e100000a d0001b00 17c07c1f 1900001f     .........|......
    430080cc:	10001220 8a80000a ff1fbfff e100000a      ...............
    430080dc:	1b80001f 20000080 f0000000 17c07c1f     ....... .....|..
    430080ec:	1a90001f 10001220 69200009 1000623c     .... ..... i<b..
    430080fc:	d8001d04 17c07c1f 69200009 10006214     .....|.... i.b..
    4300810c:	d8001de4 17c07c1f d0001e80 17c07c1f     .....|.......|..
    4300811c:	1900001f 10001220 aa80000a 00000006     .... ...........
    4300812c:	e100000a d0001e80 17c07c1f 1900001f     .........|......
    4300813c:	10001220 aa80000a 00e04000 e100000a      ........@......
    4300814c:	1b80001f 20000080 69200009 10006214     ....... .. i.b..
    4300815c:	d8001fe4 17c07c1f a8c00003 00000f00     .....|..........
    4300816c:	e2400003 d0002040 17c07c1f a8c00003     ..@.@ ...|......
    4300817c:	00003f00 e2400003 1b80001f 20000080     .?....@........ 
    4300818c:	a8c00003 00000002 e2400003 88c00003     ..........@.....
    4300819c:	fffffffe e2400003 a8c00003 00000010     ......@.........
    430081ac:	e2400003 88c00003 fffffffb e2400003     ..@...........@.
    430081bc:	88c00003 fffffff7 e2400003 f0000000     ..........@.....
    430081cc:	17c07c1f e2e00036 e2e0003e 1b80001f     .|..6...>.......
    430081dc:	00000020 e2e0003c e8208000 10006244      ...<..... .Db..
    430081ec:	00000000 1b80001f 20000080 e2e0007c     ........... |...
    430081fc:	1b80001f 20000003 e2e0005c e2e0004c     ....... \...L...
    4300820c:	e2e0004d f0000000 17c07c1f e2e0004f     M........|..O...
    4300821c:	e2e0006f e2e0002f e8208000 10006244     o.../..... .Db..
    4300822c:	00000001 1b80001f 20000080 e2e0002e     ........... ....
    4300823c:	e2e0003e e2e0003a e2e00032 1b80001f     >...:...2.......
    4300824c:	00000020 f0000000 17c07c1f e2e00036      ........|..6...
    4300825c:	e2e0003e 1b80001f 00000020 e2e0003c     >....... ...<...
    4300826c:	e2a00000 1b80001f 20000080 e2e0007c     ........... |...
    4300827c:	1b80001f 20000003 e2e0005c e2e0004c     ....... \...L...
    4300828c:	e2e0004d f0000000 17c07c1f e2e0004f     M........|..O...
    4300829c:	e2e0006f e2e0002f e2a00001 1b80001f     o.../...........
    430082ac:	20000080 e2e0002e e2e0003e e2e0003a     ... ....>...:...
    430082bc:	e2e00032 f0000000 17c07c1f e2e00026     2........|..&...
    430082cc:	e2e0002e 1b80001f 00000020 1a00001f     ........ .......
    430082dc:	100062b4 1910001f 100062b4 81322804     .b.......b...(2.
    430082ec:	e2000004 81202804 e2000004 1b80001f     .....( .........
    430082fc:	20000080 e2e0000e e2e0000c e2e0000d     ... ............
    4300830c:	f0000000 17c07c1f e2e0002d 1a00001f     .....|..-.......
    4300831c:	100062b4 1910001f 100062b4 a1002804     .b.......b...(..
    4300832c:	e2000004 a1122804 e2000004 1b80001f     .....(..........
    4300833c:	20000080 e2e0002f e2e0002b e2e00023     ... /...+...#...
    4300834c:	1b80001f 00000020 e2e00022 f0000000     .... ...".......
    4300835c:	17c07c1f 1910001f 1000660c 1a10001f     .|.......f......
    4300836c:	10006610 a2002004 89000008 00030000     .f... ..........
    4300837c:	d80036c4 17c07c1f 8207a001 d82036c8     .6...|.......6 .
    4300838c:	17c07c1f 1900001f 1020020c 1a10001f     .|........ .....
    4300839c:	1020020c aa000008 00000001 e1000008     .. .............
    430083ac:	1910001f 1020020c 81001001 d8203184     ...... ......1 .
    430083bc:	17c07c1f 1910001f 10006720 820c9001     .|...... g......
    430083cc:	d8203228 17c07c1f 1900001f 10001220     (2 ..|...... ...
    430083dc:	1a10001f 10001220 a21f0408 e1000008     .... ...........
    430083ec:	1b80001f 20000080 e2e0006d e2e0002d     ....... m...-...
    430083fc:	1a00001f 100062b8 1910001f 100062b8     .....b.......b..
    4300840c:	a9000004 00000001 e2000004 1b80001f     ................
    4300841c:	20000080 e2e0002c e2e0003c e2e0003e     ... ,...<...>...
    4300842c:	e2e0003a e2e00032 1b80001f 00000020     :...2....... ...
    4300843c:	1900001f 10006404 1a10001f 10006404     .....d.......d..
    4300844c:	a2168408 e1000008 f0000000 17c07c1f     .............|..
    4300845c:	1a10001f 10006610 8207a001 d8003e68     .....f......h>..
    4300846c:	17c07c1f 1a10001f 10006918 8a000008     .|.......i......
    4300847c:	00003030 b900010c 01000001 d8203e64     00..........d> .
    4300848c:	17c07c1f 1900001f 10006404 1a10001f     .|.......d......
    4300849c:	10006404 8a000008 0000dfff e1000008     .d..............
    430084ac:	e2e00036 e2e0003e 1b80001f 00000020     6...>....... ...
    430084bc:	e2e0002e 1a00001f 100062b8 1910001f     .........b......
    430084cc:	100062b8 89000004 0000fffe e2000004     .b..............
    430084dc:	1b80001f 20000080 e2e0006e e2e0004e     ....... n...N...
    430084ec:	e2e0004c e2e0004d 1900001f 10001220     L...M....... ...
    430084fc:	1a10001f 10001220 8a000008 bfffffff     .... ...........
    4300850c:	e1000008 1b80001f 20000080 1900001f     ........... ....
    4300851c:	1020020c 1a10001f 1020020c 8a000008     .. ....... .....
    4300852c:	fffffffe e1000008 1910001f 1020020c     .............. .
    4300853c:	81001001 d8003dc4 17c07c1f f0000000     .....=...|......
    4300854c:	17c07c1f 17c07c1f 17c07c1f 17c07c1f     .|...|...|...|..
    4300855c:	17c07c1f 17c07c1f 17c07c1f 17c07c1f     .|...|...|...|..
    4300856c:	17c07c1f 17c07c1f 17c07c1f 17c07c1f     .|...|...|...|..
    4300857c:	1840001f 00000001 11407c1f e8208000     ..@......|@... .
    4300858c:	10006310 0b160008 1900001f 000f7bde     .c...........{..
    4300859c:	1a00001f 10200268 e2000004 e8208000     ....h. ....... .
    430085ac:	10006600 00000000 69200006 beefbeef     .f........ i....
    430085bc:	d8204584 17c07c1f 1910001f 10006358     .E ..|......Xc..
    430085cc:	810b1001 d8004244 17c07c1f 1980001f     ....DB...|......
    430085dc:	deaddead 69200006 abcdabcd d8204324     ...... i....$C .
    430085ec:	17c07c1f 88900001 10006814 1910001f     .|.......h......
    430085fc:	10006400 81271002 1880001f 10006600     .d....'......f..
    4300860c:	e0800004 1910001f 10006358 810b1001     ........Xc......
    4300861c:	d80044a4 17c07c1f 1980001f 12345678     .D...|......xV4.
    4300862c:	60a07c05 89100002 10006600 80801001     .|.`.....f......
    4300863c:	d8007bc2 17c07c1f 1890001f 10006b00     .{...|.......k..
    4300864c:	82090801 c8800008 17c07c1f 1b00001f     .........|......
    4300865c:	3fffe7ff 8a00000c 3fffe7ff d82041c8     ...?.......?.A .
    4300866c:	17c07c1f 1b80001f d0010000 1a10001f     .|..............
    4300867c:	10006720 82002001 82201408 d8204988      g... .... ..I .
    4300868c:	17c07c1f 1a40001f 10006200 1a80001f     .|....@..b......
    4300869c:	1000625c c24028e0 17c07c1f a1400405     \b...(@..|....@.
    430086ac:	1a10001f 10006720 8200a001 82209408     .... g........ .
    430086bc:	d8204b28 17c07c1f 1a40001f 10006218     (K ..|....@..b..
    430086cc:	1a80001f 10006264 c24028e0 17c07c1f     ....db...(@..|..
    430086dc:	a1508405 1a10001f 10006720 82012001     ..P..... g... ..
    430086ec:	82211408 d8204cc8 17c07c1f 1a40001f     ..!..L ..|....@.
    430086fc:	1000621c 1a80001f 1000626c c24028e0     .b......lb...(@.
    4300870c:	17c07c1f a1510405 1a10001f 10006720     .|....Q..... g..
    4300871c:	8201a001 82219408 d8204e68 17c07c1f     ......!.hN ..|..
    4300872c:	1a40001f 10006220 1a80001f 10006274     ..@. b......tb..
    4300873c:	c24028e0 17c07c1f a1518405 1a10001f     .(@..|....Q.....
    4300874c:	10006720 82022001 82221408 d8204fe8      g... ...."..O .
    4300875c:	17c07c1f 1a40001f 100062a0 1280041f     .|....@..b......
    4300876c:	c2402cc0 17c07c1f a1520405 1a10001f     .,@..|....R.....
    4300877c:	10006720 8202a001 82229408 d8205168      g........".hQ .
    4300878c:	17c07c1f 1a40001f 100062a4 1290841f     .|....@..b......
    4300879c:	c2402cc0 17c07c1f a1528405 1a10001f     .,@..|....R.....
    430087ac:	10006720 82032001 82231408 d8205248      g... ....#.HR .
    430087bc:	17c07c1f a1530405 1a10001f 10006720     .|....S..... g..
    430087cc:	8203a001 82239408 d8205328 17c07c1f     ......#.(S ..|..
    430087dc:	a1538405 1a10001f 10006b00 8108a001     ..S......k......
    430087ec:	d8205e84 17c07c1f 1910001f 1000660c     .^ ..|.......f..
    430087fc:	1a10001f 10006610 a2002004 89000008     .....f... ......
    4300880c:	00001e00 d8005944 17c07c1f 82042001     ....DY...|... ..
    4300881c:	d8205948 17c07c1f 1900001f 1020002c     HY ..|......,. .
    4300882c:	1a10001f 1020002c aa000008 00000010     ....,. .........
    4300883c:	e1000008 1910001f 10006720 820c1001     ........ g......
    4300884c:	d8205628 17c07c1f 1900001f 10001250     (V ..|......P...
    4300885c:	1a10001f 10001250 a2110408 e1000008     ....P...........
    4300886c:	1b80001f 20000080 1900001f 10001220     ....... .... ...
    4300887c:	1a10001f 10001220 a21e8408 e1000008     .... ...........
    4300888c:	1b80001f 20000080 1a40001f 10006208     ....... ..@..b..
    4300889c:	c24024e0 17c07c1f 1a10001f 10006610     .$@..|.......f..
    430088ac:	82042001 d8005e88 17c07c1f 1a10001f     . ...^...|......
    430088bc:	10006918 8a000008 00000f0f ba00010c     .i..............
    430088cc:	1fffe7ff d8205e88 17c07c1f 1a40001f     .....^ ..|....@.
    430088dc:	10006208 c24022a0 17c07c1f 1900001f     .b..."@..|......
    430088ec:	10001250 1a10001f 10001250 8a000008     P.......P.......
    430088fc:	fffffffb e1000008 1b80001f 20000080     ............... 
    4300890c:	1900001f 10001220 1a10001f 10001220     .... ....... ...
    4300891c:	8a000008 dfffffff e1000008 1b80001f     ................
    4300892c:	20000080 1900001f 1020002c 1a10001f     ... ....,. .....
    4300893c:	1020002c 8a000008 ffffffef e1000008     ,. .............
    4300894c:	1a10001f 10006b00 81082001 d8205fa4     .....k... ..._ .
    4300895c:	17c07c1f 1a40001f 100062b0 c2402f20     .|....@..b.. /@.
    4300896c:	17c07c1f 1b80001f 20000208 d8207b8c     .|......... .{ .
    4300897c:	17c07c1f 1a40001f 100062b0 c2403700     .|....@..b...7@.
    4300898c:	17c07c1f 81001401 d8206424 17c07c1f     .|......$d ..|..
    4300899c:	1a10001f 10006918 81002001 b1042081     .....i... ... ..
    430089ac:	b900008c 1fffe7ff d8206424 17c07c1f     ........$d ..|..
    430089bc:	1a40001f 10006200 1a80001f 1000625c     ..@..b......\b..
    430089cc:	c24026e0 17c07c1f 89400005 fffffffe     .&@..|....@.....
    430089dc:	e8208000 10006f00 00000000 e8208000     .. ..o........ .
    430089ec:	10006b30 00000000 e8208000 100063e0     0k........ ..c..
    430089fc:	00000001 81009401 d82067a4 17c07c1f     .........g ..|..
    43008a0c:	1a10001f 10006918 8100a001 b104a081     .....i..........
    43008a1c:	b900008c 01000001 d82067a4 17c07c1f     .........g ..|..
    43008a2c:	1a40001f 10006218 1a80001f 10006264     ..@..b......db..
    43008a3c:	c24026e0 17c07c1f 89400005 fffffffd     .&@..|....@.....
    43008a4c:	e8208000 10006f04 00000000 e8208000     .. ..o........ .
    43008a5c:	10006b34 00000000 e8208000 100063e0     4k........ ..c..
    43008a6c:	00000002 81011401 d8206b24 17c07c1f     ........$k ..|..
    43008a7c:	1a10001f 10006918 81012001 b1052081     .....i... ... ..
    43008a8c:	b900008c 01000001 d8206b24 17c07c1f     ........$k ..|..
    43008a9c:	1a40001f 1000621c 1a80001f 1000626c     ..@..b......lb..
    43008aac:	c24026e0 17c07c1f 89400005 fffffffb     .&@..|....@.....
    43008abc:	e8208000 10006f08 00000000 e8208000     .. ..o........ .
    43008acc:	10006b38 00000000 e8208000 100063e0     8k........ ..c..
    43008adc:	00000004 81019401 d8206ea4 17c07c1f     .........n ..|..
    43008aec:	1a10001f 10006918 8101a001 b105a081     .....i..........
    43008afc:	b900008c 01000001 d8206ea4 17c07c1f     .........n ..|..
    43008b0c:	1a40001f 10006220 1a80001f 10006274     ..@. b......tb..
    43008b1c:	c24026e0 17c07c1f 89400005 fffffff7     .&@..|....@.....
    43008b2c:	e8208000 10006f0c 00000000 e8208000     .. ..o........ .
    43008b3c:	10006b3c 00000000 e8208000 100063e0     <k........ ..c..
    43008b4c:	00000008 1a10001f 10006610 8207a001     .........f......
    43008b5c:	d8207608 17c07c1f 81021401 d82072a4     .v ..|.......r .
    43008b6c:	17c07c1f 1a10001f 10006918 81022001     .|.......i... ..
    43008b7c:	b1062081 b900008c 01000001 d82072a4     . ...........r .
    43008b8c:	17c07c1f 1a40001f 100062a0 1280041f     .|....@..b......
    43008b9c:	c2402a60 17c07c1f 89400005 ffffffef     `*@..|....@.....
    43008bac:	e8208000 10006f10 00000000 e8208000     .. ..o........ .
    43008bbc:	10006b40 00000000 e8208000 100063e0     @k........ ..c..
    43008bcc:	00000010 81029401 d8207604 17c07c1f     .........v ..|..
    43008bdc:	1a10001f 10006918 8102a001 b106a081     .....i..........
    43008bec:	b900008c 01000001 d8207604 17c07c1f     .........v ..|..
    43008bfc:	1a40001f 100062a4 1290841f c2402a60     ..@..b......`*@.
    43008c0c:	17c07c1f 89400005 ffffffdf e8208000     .|....@....... .
    43008c1c:	10006f14 00000000 e8208000 10006b44     .o........ .Dk..
    43008c2c:	00000000 e8208000 100063e0 00000020     ...... ..c.. ...
    43008c3c:	81031401 d82078c4 17c07c1f 1a10001f     .....x ..|......
    43008c4c:	10006918 81032001 b1072081 b900008c     .i... ... ......
    43008c5c:	01000001 d82078c4 17c07c1f 89400005     .....x ..|....@.
    43008c6c:	ffffffbf e8208000 10006f18 00000000     ...... ..o......
    43008c7c:	e8208000 10006b48 00000000 e8208000     .. .Hk........ .
    43008c8c:	100063e0 00000040 81039401 d8207b84     .c..@........{ .
    43008c9c:	17c07c1f 1a10001f 10006918 8103a001     .|.......i......
    43008cac:	b107a081 b900008c 01000001 d8207b84     .............{ .
    43008cbc:	17c07c1f 89400005 ffffff7f e8208000     .|....@....... .
    43008ccc:	10006f1c 00000000 e8208000 10006b4c     .o........ .Lk..
    43008cdc:	00000000 e8208000 100063e0 00000080     ...... ..c......
    43008cec:	d00041c0 17c07c1f e8208000 10006600     .A...|.... ..f..
    43008cfc:	00000000 1ac0001f 55aa55aa 1940001f     .........U.U..@.
    43008d0c:	aa55aa55 1b80001f 00001000 f0000000     U.U.............
    43008d1c:	17c07c1f                                .|..

0000000043008d20 <suspend_binary_ca7>:
    43008d20:	81f58407 81f68407 803a0400 803a8400     ..........:...:.
    43008d30:	1b80001f 20000000 80300400 80318400     ....... ..0...1.
    43008d40:	80328400 a1d28407 81f20407 81409801     ..2...........@.
    43008d50:	d8000245 17c07c1f 18c0001f 10006234     E....|......4b..
    43008d60:	c0c031a0 1200041f 80310400 1b80001f     .1........1.....
    43008d70:	2000000a a0110400 18c0001f 100062c8     ... .........b..
    43008d80:	e0e00010 e0e00030 e0e00070 e0e000f0     ....0...p.......
    43008d90:	1b80001f 2000001a e0e00ff0 e8208000     ....... ...... .
    43008da0:	10006354 fffe7fff e8208000 10006834     Tc........ .4h..
    43008db0:	00000010 81f00407 a1dd0407 81fd0407     ................
    43008dc0:	c2803780 1290041f 8880000c 2f7be75f     .7.........._.{/
    43008dd0:	d8200642 17c07c1f 1b00001f 7fffe7ff     B. ..|..........
    43008de0:	d0000680 17c07c1f 1b00001f 7ffff7ff     .....|..........
    43008df0:	f0000000 17c07c1f 80880001 d8000762     .....|......b...
    43008e00:	17c07c1f d00027a0 1200041f e8208000     .|...'........ .
    43008e10:	10006834 00000000 1b00001f 3fffe7ff     4h.............?
    43008e20:	1b80001f 20000004 d820092c 17c07c1f     ....... ,. ..|..
    43008e30:	e8208000 10006834 00000010 d00011a0     .. .4h..........
    43008e40:	17c07c1f 18c0001f 10006608 1910001f     .|.......f......
    43008e50:	10006608 813b0404 e0c00004 1880001f     .f....;.........
    43008e60:	10006320 c0c03680 e080000f d8200b23      c...6......#. .
    43008e70:	17c07c1f 1b00001f 7ffff7ff d00011a0     .|..............
    43008e80:	17c07c1f e080001f e8208000 10006354     .|........ .Tc..
    43008e90:	ffffffff 18c0001f 100062c8 e0e000f0     .........b......
    43008ea0:	e0e00030 e0e00000 81409801 d8000fe5     0.........@.....
    43008eb0:	17c07c1f 18c0001f 10004094 1910001f     .|.......@......
    43008ec0:	1020e374 e0c00004 18c0001f 10004098     t. ..........@..
    43008ed0:	1910001f 1020e378 e0c00004 18c0001f     ....x. .........
    43008ee0:	10011094 1910001f 10213374 e0c00004     ........t3!.....
    43008ef0:	18c0001f 10011098 1910001f 10213378     ............x3!.
    43008f00:	e0c00004 1910001f 10213378 18c0001f     ........x3!.....
    43008f10:	10006234 c0c03360 17c07c1f c2803780     4b..`3...|...7..
    43008f20:	1290841f a1d20407 81f28407 a1d68407     ................
    43008f30:	a0128400 a0118400 a0100400 a01a8400     ................
    43008f40:	a01a0400 19c0001f 001c239f 1b00001f     .........#......
    43008f50:	3fffefff f0000000 17c07c1f 808d8001     ...?.....|......
    43008f60:	d8201422 17c07c1f 803d8400 1b80001f     ". ..|....=.....
    43008f70:	2000001a 80340400 17c07c1f 17c07c1f     ... ..4..|...|..
    43008f80:	80310400 81fa0407 81f18407 81f08407     ..1.............
    43008f90:	a1dc0407 1b80001f 200000b6 d00020e0     ........... . ..
    43008fa0:	17c07c1f 1880001f 20000208 81411801     .|......... ..A.
    43008fb0:	d8001605 17c07c1f e8208000 1000f600     .....|.... .....
    43008fc0:	d2000000 1380081f 18c0001f 10006240     ............@b..
    43008fd0:	e0e00016 e0e0001e e0e0000e e0e0000f     ................
    43008fe0:	80368400 1380081f 80370400 1380081f     ..6.......7.....
    43008ff0:	80360400 803e0400 1380081f 80380400     ..6...>.......8.
    43009000:	803b0400 a01d8400 1b80001f 20000034     ..;.........4.. 
    43009010:	803d8400 1b80001f 20000152 803d0400     ..=.....R.. ..=.
    43009020:	1380081f 18c0001f 1000f5c8 1910001f     ................
    43009030:	1000f5c8 a1000404 e0c00004 18c0001f     ................
    43009040:	100125c8 1910001f 100125c8 a1000404     .%.......%......
    43009050:	e0c00004 1910001f 100125c8 80340400     .........%....4.
    43009060:	17c07c1f 17c07c1f 80310400 e8208000     .|...|....1... .
    43009070:	10000044 00000100 1b80001f 20000068     D...........h.. 
    43009080:	1b80001f 2000000a 18c0001f 10006240     ....... ....@b..
    43009090:	e0e0000d d8001e65 17c07c1f 18c0001f     ....e....|......
    430090a0:	100040f4 1910001f 100040f4 a11c8404     .@.......@......
    430090b0:	e0c00004 1b80001f 2000000a 813c8404     ........... ..<.
    430090c0:	e0c00004 18c0001f 100110f4 1910001f     ................
    430090d0:	100110f4 a11c8404 e0c00004 1b80001f     ................
    430090e0:	2000000a 813c8404 e0c00004 1b80001f     ... ..<.........
    430090f0:	20000100 81fa0407 81f18407 81f08407     ... ............
    43009100:	e8208000 10006354 fffe7b47 18c0001f     .. .Tc..G{......
    43009110:	65930003 c0c03080 17c07c1f a1d80407     ...e.0...|......
    43009120:	a1dc0407 18c0001f 10006608 1910001f     .........f......
    43009130:	10006608 a11b0404 e0c00004 c2803780     .f...........7..
    43009140:	1291041f 8880000c 2f7be75f d8202222     ........_.{/"" .
    43009150:	17c07c1f 1b00001f 3fffe7ff d0002260     .|.........?`"..
    43009160:	17c07c1f 1b00001f bfffe7ff f0000000     .|..............
    43009170:	17c07c1f 1890001f 10006608 808b0801     .|.......f......
    43009180:	d8202502 17c07c1f 1880001f 10006320     .% ..|...... c..
    43009190:	c0c03400 e080000f d8002663 17c07c1f     .4......c&...|..
    430091a0:	e080001f a1da0407 81fc0407 a0110400     ................
    430091b0:	a0140400 a01d8400 d0002fc0 17c07c1f     ........./...|..
    430091c0:	1b80001f 20000fdf 1890001f 10006608     ....... .....f..
    430091d0:	80c98801 810a8801 10918c1f a0939002     ................
    430091e0:	8080080d d82027a2 12007c1f 1b00001f     .....' ..|......
    430091f0:	3fffe7ff 1b80001f 20000004 d800304c     ...?....... L0..
    43009200:	17c07c1f 1b00001f bfffe7ff d0003040     .|..........@0..
    43009210:	17c07c1f 81f80407 81fc0407 18c0001f     .|..............
    43009220:	65930006 c0c03080 17c07c1f 18c0001f     ...e.0...|......
    43009230:	65930007 c0c03080 17c07c1f 1880001f     ...e.0...|......
    43009240:	10006320 c0c03400 e080000f d8002663      c...4......c&..
    43009250:	17c07c1f e080001f 18c0001f 65930005     .|.............e
    43009260:	c0c03080 17c07c1f a1da0407 e8208000     .0...|........ .
    43009270:	10000048 00000100 1b80001f 20000068     H...........h.. 
    43009280:	a0110400 a0140400 18c0001f 1000f5c8     ................
    43009290:	1910001f 1000f5c8 81200404 e0c00004     .......... .....
    430092a0:	18c0001f 100125c8 1910001f 100125c8     .....%.......%..
    430092b0:	81200404 e0c00004 1910001f 100125c8     .. ..........%..
    430092c0:	a01d0400 a01b0400 a0180400 803d8400     ..............=.
    430092d0:	a01e0400 a0160400 a0170400 a0168400     ................
    430092e0:	1b80001f 20000104 81411801 d8002f85     ....... ..A../..
    430092f0:	17c07c1f 18c0001f 10006240 c0c03360     .|......@b..`3..
    43009300:	17c07c1f e8208000 1000f600 d2000001     .|.... .........
    43009310:	d8000768 17c07c1f c2803780 1291841f     h....|...7......
    43009320:	1b00001f 7ffff7ff f0000000 17c07c1f     .............|..
    43009330:	1900001f 10006830 e1000003 18c0001f     ....0h..........
    43009340:	10006834 e0e00000 e0e00001 f0000000     4h..............
    43009350:	17c07c1f e0f07f16 1380201f e0f07f1e     .|....... ......
    43009360:	1380201f e0f07f0e 1b80001f 20000104     . ............. 
    43009370:	e0f07f0c e0f07f0d e0f07e0d e0f07c0d     .........~...|..
    43009380:	e0f0780d f0000000 e0f0700d e0f07f0d     .x.......p......
    43009390:	e0f07f0f e0f07f1e f0000000 e0f07f12     ................
    430093a0:	11407c1f 81f08407 81f18407 1b80001f     .|@.............
    430093b0:	20000001 a1d08407 a1d18407 1392841f     ... ............
    430093c0:	812ab401 80ebb401 a0c00c04 d8203603     ..*..........6 .
    430093d0:	17c07c1f 80c01403 d8203423 01400405     .|......#4 ...@.
    430093e0:	1900001f 10006814 f0000000 e1000003     .....h..........
    430093f0:	a1d00407 1b80001f 20000208 80ea3401     ........... .4..
    43009400:	1a00001f 10006814 f0000000 e2000003     .....h..........
    43009410:	18c0001f 10006b6c 1910001f 10006b6c     ....lk......lk..
    43009420:	a1002804 f0000000 e0c00004 17c07c1f     .(...........|..
    43009430:	17c07c1f 17c07c1f 17c07c1f 17c07c1f     .|...|...|...|..
    43009440:	17c07c1f 17c07c1f 17c07c1f 17c07c1f     .|...|...|...|..
    43009450:	17c07c1f 17c07c1f 17c07c1f 17c07c1f     .|...|...|...|..
    43009460:	17c07c1f 17c07c1f 17c07c1f 17c07c1f     .|...|...|...|..
    43009470:	17c07c1f 17c07c1f 17c07c1f 17c07c1f     .|...|...|...|..
    43009480:	17c07c1f 17c07c1f 17c07c1f 17c07c1f     .|...|...|...|..
    43009490:	17c07c1f 17c07c1f 17c07c1f 17c07c1f     .|...|...|...|..
    430094a0:	17c07c1f 17c07c1f 17c07c1f 17c07c1f     .|...|...|...|..
    430094b0:	17c07c1f 17c07c1f 17c07c1f 17c07c1f     .|...|...|...|..
    430094c0:	17c07c1f 17c07c1f 17c07c1f 17c07c1f     .|...|...|...|..
    430094d0:	17c07c1f 17c07c1f 17c07c1f 17c07c1f     .|...|...|...|..
    430094e0:	17c07c1f 17c07c1f 17c07c1f 17c07c1f     .|...|...|...|..
    430094f0:	17c07c1f 17c07c1f 17c07c1f 17c07c1f     .|...|...|...|..
    43009500:	17c07c1f 17c07c1f 17c07c1f 17c07c1f     .|...|...|...|..
    43009510:	17c07c1f 17c07c1f 17c07c1f 17c07c1f     .|...|...|...|..
    43009520:	1840001f 00000001 a1d48407 1990001f     ..@.............
    43009530:	10006b08 1a50001f 10006610 8246a401     .k....P..f....F.
    43009540:	e8208000 10006b6c 00000000 1b00001f     .. .lk..........
    43009550:	2f7be75f 81469801 d8004305 17c07c1f     _.{/..F..C...|..
    43009560:	1b80001f d00f0000 8880000c 2f7be75f     ............_.{/
    43009570:	d8005da2 17c07c1f d0004340 17c07c1f     .]...|..@C...|..
    43009580:	1b80001f 500f0000 e8208000 10006354     .......P.. .Tc..
    43009590:	fffe7b47 c0c06940 81401801 d80048e5     G{..@i....@..H..
    430095a0:	17c07c1f 81f60407 18c0001f 10006200     .|...........b..
    430095b0:	c0c05e60 12807c1f e8208000 1000625c     `^...|.... .\b..
    430095c0:	00000001 1b80001f 20000080 c0c05e60     ........... `^..
    430095d0:	1280041f 18c0001f 10006204 c0c06200     .........b...b..
    430095e0:	1280041f 18c0001f 10006208 c0c05e60     .........b..`^..
    430095f0:	12807c1f e8208000 10006244 00000001     .|.... .Db......
    43009600:	1b80001f 20000080 c0c05e60 1280041f     ....... `^......
    43009610:	18d0001f 10200200 18c0001f 10006290     ...... ......b..
    43009620:	c0c05e60 1280041f e8208000 10006404     `^........ ..d..
    43009630:	00003101 c2803780 1292041f 81469801     .1...7........F.
    43009640:	d8204a45 17c07c1f 1b00001f 2f7be75f     EJ ..|......_.{/
    43009650:	1b80001f 30000004 8880000c 2f7be75f     .......0...._.{/
    43009660:	d8005802 17c07c1f c0c064c0 17c07c1f     .X...|...d...|..
    43009670:	18c0001f 10006294 e0f07fff e0e00fff     .....b..........
    43009680:	e0e000ff 81449801 d8004c85 17c07c1f     ......D..L...|..
    43009690:	1a00001f 10006604 e2200003 c0c06580     .....f.... ..e..
    430096a0:	17c07c1f e2200005 c0c06580 17c07c1f     .|.... ..e...|..
    430096b0:	a1d38407 a1d98407 1800001f 00000012     ................
    430096c0:	1800001f 00000e12 1800001f 03800e12     ................
    430096d0:	1800001f 038e0e12 e8208000 10006310     .......... ..c..
    430096e0:	0b1600f8 1b00001f bfffe7ff 1b80001f     ................
    430096f0:	90100000 80c00400 d8204fa3 a1d58407     .........O .....
    43009700:	a1dd8407 1b00001f 3fffefff d0004e60     ...........?`N..
    43009710:	17c07c1f 1890001f 100063e8 88c0000c     .|.......c......
    43009720:	2f7be75f d80051c3 17c07c1f 80c40001     _.{/.Q...|......
    43009730:	d8005143 17c07c1f 1b00001f bfffe7ff     CQ...|..........
    43009740:	d0005180 17c07c1f 1b00001f 7ffff7ff     .Q...|..........
    43009750:	d0004e60 17c07c1f 80c40001 d82052c3     `N...|.......R .
    43009760:	17c07c1f a1de0407 1b00001f 7fffe7ff     .|..............
    43009770:	d0004e60 17c07c1f 18c0001f 10006294     `N...|.......b..
    43009780:	e0e001fe e0e003fc e0e007f8 e0e00ff0     ................
    43009790:	1b80001f 20000020 e0f07ff0 e0f07f00     .... .. ........
    430097a0:	81449801 d80055a5 17c07c1f 1a00001f     ..D..U...|......
    430097b0:	10006604 e2200002 c0c06580 17c07c1f     .f.... ..e...|..
    430097c0:	e2200004 c0c06580 17c07c1f 1b80001f     .. ..e...|......
    430097d0:	200016a8 1800001f 03800e12 1b80001f     ... ............
    430097e0:	20000300 1800001f 00000e12 1b80001f     ... ............
    430097f0:	20000300 1800001f 00000012 1b80001f     ... ............
    43009800:	20000104 10007c1f 81f38407 81f98407     ... .|..........
    43009810:	81f90407 81f40407 1b80001f 200016a8     ............... 
    43009820:	81401801 d8005da5 17c07c1f e8208000     ..@..]...|.... .
    43009830:	10006404 00002101 18c0001f 10006290     .d...!.......b..
    43009840:	1212841f c0c05fe0 12807c1f c0c05fe0     ....._...|..._..
    43009850:	1280041f 18c0001f 10006208 1212841f     .........b......
    43009860:	c0c05fe0 12807c1f e8208000 10006244     ._...|.... .Db..
    43009870:	00000000 1b80001f 20000080 c0c05fe0     ........... ._..
    43009880:	1280041f e8208000 10200268 000ffffe     ...... .h. .....
    43009890:	18c0001f 10006204 1212841f c0c06340     .....b......@c..
    430098a0:	1280041f 18c0001f 10006200 1212841f     .........b......
    430098b0:	c0c05fe0 12807c1f e8208000 1000625c     ._...|.... .\b..
    430098c0:	00000000 1b80001f 20000080 c0c05fe0     ........... ._..
    430098d0:	1280041f 19c0001f 01411820 1ac0001f     ........ .A.....
    430098e0:	55aa55aa 10007c1f f0000000 d8005f0a     .U.U.|......._..
    430098f0:	17c07c1f e2e0004f e2e0006f e2e0002f     .|..O...o.../...
    43009900:	d8205faa 17c07c1f e2e0002e e2e0003e     ._ ..|......>...
    43009910:	e2e00032 f0000000 17c07c1f d80060aa     2........|...`..
    43009920:	17c07c1f e2e00036 e2e0003e 1380201f     .|..6...>.... ..
    43009930:	e2e0003c d82061ca 17c07c1f 1380201f     <....a ..|... ..
    43009940:	e2e0007c 1b80001f 20000003 e2e0005c     |.......... \...
    43009950:	e2e0004c e2e0004d f0000000 17c07c1f     L...M........|..
    43009960:	d8206309 17c07c1f e2e0000d e2e0000c     .c ..|..........
    43009970:	e2e0001c e2e0001e e2e00016 e2e00012     ................
    43009980:	f0000000 17c07c1f d8206489 17c07c1f     .....|...d ..|..
    43009990:	e2e00016 1380201f e2e0001e 1380201f     ..... ....... ..
    430099a0:	e2e0001c 1380201f e2e0000c e2e0000d     ..... ..........
    430099b0:	f0000000 17c07c1f a1d40407 1391841f     .....|..........
    430099c0:	a1d90407 1393041f f0000000 17c07c1f     .............|..
    430099d0:	18d0001f 10006604 10cf8c1f d8206583     .....f.......e .
    430099e0:	17c07c1f f0000000 17c07c1f e8208000     .|.......|.... .
    430099f0:	11008014 00000002 e8208000 11008020     .......... . ...
    43009a00:	00000101 e8208000 11008004 000000d0     ...... .........
    43009a10:	1a00001f 11008000 d800684a e220005d     ........Jh..]. .
    43009a20:	d820686a e2200000 e2200001 e8208000     jh ... ... ... .
    43009a30:	11008024 00000001 1b80001f 20000424     $...........$.. 
    43009a40:	f0000000 17c07c1f a1d10407 1b80001f     .....|..........
    43009a50:	20000020 f0000000 17c07c1f 333a2922      .. .....|.."):3
    43009a60:	00030030 fff7fff7 fff7fff7 fff70003     0...............
    43009a70:	00acfff7 fff7fff7 005bfff7 fff7fff7     ..........[.....
    43009a80:	fff70043 fff700af 0081fff7 00a9fff7     C...............

0000000043009a90 <build_message>:
    43009a90:	6c697542 203a2074 353a3032 38313a35     Built : 20:55:18
    43009aa0:	754a202c 3820206c 32303220               , Jul  8 2023.

0000000043009aae <version_string>:
    43009aae:	392e3276 6c657228 65736165 32763a29     v2.9(release):v2
    43009abe:	302e382e 3333312d 63672d35 66326631     .8.0-1335-gc1f2f
    43009ace:	66636361 20323263 6d6d6473 450a0063     accfc22 sdmmc..E
    43009ade:	7320314c 6f707075 20737472 63724141     L1 supports AArc
    43009aee:	2d343668 796c6e6f 6c50202e 65736165     h64-only. Please
    43009afe:	74657320 69756220 6620646c 2067616c      set build flag 
    43009b0e:	5f585443 4c434e49 5f454455 43524141     CTX_INCLUDE_AARC
    43009b1e:	5f323348 53474552 30203d20 4214000a     H32_REGS = 0...B
    43009b2e:	3a31334c 0a732520 6e490a00 696c6176     L31: %s...Invali
    43009b3e:	75722064 6d69746e 65732065 63697672     d runtime servic
    43009b4e:	65642065 69726373 726f7470 0a702520     e descriptor %p.
    43009b5e:	72450a00 20726f72 74696e69 696c6169     ..Error initiali
    43009b6e:	676e697a 6e757220 656d6974 72657320     zing runtime ser
    43009b7e:	65636976 0a732520 6e490a00 696c6176     vice %s...Invali
    43009b8e:	65732064 69727563 73207974 65746174     d security state
    43009b9e:	550a000a 7078656e 65746365 66612064     ...Unexpected af
    43009bae:	696e6966 69207974 206f666e 74617473     finity info stat
    43009bbe:	000a2e65 766e490a 64696c61 72617420     e....Invalid tar
    43009bce:	20746567 65776f70 656c2072 206c6576     get power level 
    43009bde:	20726f66 70737573 20646e65 7265706f     for suspend oper
    43009bee:	6f697461 0a000a6e 3a207325 75666520     ation...%s : efu
    43009bfe:	66206573 646c6569 64252820 61772029     se field (%d) wa
    43009c0e:	69642073 6c626173 000a6465 2073250a     s disabled...%s 
    43009c1e:	6572203a 65206461 65737566 65696620     : read efuse fie
    43009c2e:	2820646c 20296425 6c696166 64252820     ld (%d) fail (%d
    43009c3e:	0a000a29 3a207325 69727720 65206574     )...%s : write e
    43009c4e:	65737566 65696620 2820646c 20296425     fuse field (%d) 
    43009c5e:	6c696166 64252820                        fail (%d)..

0000000043009c69 <__func__.0>:
    43009c69:	5f6b746d 73756665 72775f65 00657469     mtk_efuse_write.

0000000043009c79 <__func__.1>:
    43009c79:	5f6b746d 73756665 65725f65               mtk_efuse_read.

0000000043009c88 <__func__.2>:
    43009c88:	5f6b746d 73756665 65675f65 656c5f74     mtk_efuse_get_le
    43009c98:	656d006e 74616964 735f6b65 735f7069     n.mediatek_sip_s
    43009ca8:	0a006376 53434157 4d53465f 50203d20     vc..WACS_FSM = P
    43009cb8:	5f43494d 50415257 4341575f 4c565f53     MIC_WRAP_WACS_VL
    43009cc8:	524c4344 570a000a 5f534341 204d5346     DCLR...WACS_FSM 
    43009cd8:	4157203d 465f5343 575f4d53 454c4446     = WACS_FSM_WFDLE
    43009ce8:	570a000a 5f534341 204d5346 4157203d     ...WACS_FSM = WA
    43009cf8:	465f5343 525f4d53 000a5145 6961770a     CS_FSM_REQ...wai
    43009d08:	6f665f74 73665f72 64695f6d 6620656c     t_for_fsm_idle f
    43009d18:	206c6961 000a6425 54525b0a 72205d43     ail %d...[RTC] r
    43009d28:	63206374 79737562 6d697420 756f2065     tc cbusy time ou
    43009d38:	000a2174 4d43500a 53534120 20545245     t!...PCM ASSERT 
    43009d48:	25205441 72202c75 303d3231 2c782578     AT %u, r12=0x%x,
    43009d58:	33317220 2578303d 64202c78 67756265      r13=0x%x, debug
    43009d68:	616c665f 78303d67 000a7825 5f6d6370     _flag=0x%x..pcm_
    43009d78:	6964636d 38746d5f 5f333731 36313032     mcdi_mt8173_2016
    43009d88:	31303430 0031765f 5f6d6370 70737573     0401_v1.pcm_susp
    43009d98:	5f646e65 35313032 35303830 0031565f     end_20150805_V1.
    43009da8:	73255b0a 6863205d 206b6365 5f4b544d     .[%s] check MTK_
    43009db8:	545f5241 454c4241 69616620 6d202c6c     AR_TABLE fail, m
    43009dc8:	615f6b74 61745f72 20656c62 6e207369     tk_ar_table is n
    43009dd8:	0a6c6c75 255b0a00 63205d73 6b636568     ull...[%s] check
    43009de8:	4b544d20 5f52415f 4c424154 554e5f45      MTK_AR_TABLE_NU
    43009df8:	4e455f4d 20595254 6c696166 6e69202c     M_ENTRY fail, in
    43009e08:	696c6176 756e2064 7265626d 20666f20     valid number of 
    43009e18:	5f6b746d 745f7261 656c6261 746e6520     mtk_ar_table ent
    43009e28:	000a7972 73255b0a 6572205d 45206461     ry...[%s] read E
    43009e38:	45535546 5f52415f 53524556 69616620     FUSE_AR_VERS fai
    43009e48:	0a000a6c 5d73255b 74656720 55464520     l...[%s] get EFU
    43009e58:	415f4553 45565f52 61662052 000a6c69     SE_AR_VER fail..
    43009e68:	73255b0a 4665205d 20657375 74697277     .[%s] eFuse writ
    43009e78:	61662065 28206c69 20746572 6425203d     e fail (ret = %d
    43009e88:	0a000a29 5d73255b 69727720 45206574     )...[%s] write E
    43009e98:	45535546 5f52415f 53524556 69616620     FUSE_AR_VERS fai
    43009ea8:	0a000a6c 5d73255b 74657320 55464520     l...[%s] set EFU
    43009eb8:	415f4553 45565f52 61662052 000a6c69     SE_AR_VER fail..

0000000043009ec8 <__func__.0>:
    43009ec8:	5f6b746d 69746e61 6c6c6f72 6b636162     mtk_antirollback
    43009ed8:	6972775f 655f6574 65737566 5f72615f     _write_efuse_ar_
    43009ee8:	73726576                                 vers.

0000000043009eed <__func__.1>:
    43009eed:	5f6b746d 69746e61 6c6c6f72 6b636162     mtk_antirollback
    43009efd:	7465735f 7566655f 615f6573 65765f72     _set_efuse_ar_ve
    43009f0d:	                                         r.

0000000043009f0f <__func__.2>:
    43009f0f:	5f6b746d 69746e61 6c6c6f72 6b636162     mtk_antirollback
    43009f1f:	6470755f 5f657461 73756665 72615f65     _update_efuse_ar
    43009f2f:	7265765f                                 _ver.

0000000043009f34 <__func__.3>:
    43009f34:	5f6b746d 69746e61 6c6c6f72 6b636162     mtk_antirollback
    43009f44:	7465675f 7469665f 5f72615f 00726576     _get_fit_ar_ver.

0000000043009f54 <__func__.6>:
    43009f54:	5f6b746d 69746e61 6c6c6f72 6b636162     mtk_antirollback
    43009f64:	7465675f 7566655f 615f6573 65765f72     _get_efuse_ar_ve
    43009f74:	                                         r.

0000000043009f76 <__func__.7>:
    43009f76:	5f6b746d 69746e61 6c6c6f72 6b636162     mtk_antirollback
    43009f86:	6568635f 6d5f6b63 615f6b74 61745f72     _check_mtk_ar_ta
    43009f96:	5f656c62 6d726170 4d0a0073 53204b54     ble_parms..MTK S
    43009fa6:	65747379 6552206d 3a746573 65706f20     ystem Reset: ope
    43009fb6:	69746172 6e206e6f 6820746f 6c646e61     ration not handl
    43009fc6:	0a2e6465 544d0a00 7953204b 6d657473     ed....MTK System
    43009fd6:	66664f20 706f203a 74617265 206e6f69      Off: operation 
    43009fe6:	20746f6e 646e6168 2e64656c 250a000a     not handled....%
    43009ff6:	75203a73 6e61686e 64656c64 434d5320     s: unhandled SMC
    4300a006:	78302820 0a297825                         (0x%x)..

000000004300a00f <__func__.0>:
    4300a00f:	6964656d 6b657461 616c705f 69735f74     mediatek_plat_si
    4300a01f:	61685f70 656c646e                        p_handler.

000000004300a029 <mtk_power_domain_tree_desc>:
    4300a029:	00020101 5f6d7261 68637261 6376735f     ....arm_arch_svc
    4300a039:	64747300 6376735f 52524500 203a524f     .std_svc.ERROR: 
    4300a049:	4e002020 4349544f 20203a45 52415700       .NOTICE:  .WAR
    4300a059:	474e494e 4900203a 3a4f464e 20202020     NING: .INFO:    
    4300a069:	52455600 45534f42 4500203a 4500314c     .VERBOSE: .EL1.E
    4300a079:	4500334c 0a00324c 61686e55 656c646e     L3.EL2..Unhandle
    4300a089:	78452064 6e726574 41206c61 74726f62     d External Abort
    4300a099:	63657220 65766965 6e6f2064 25783020      received on 0x%
    4300a0a9:	6620786c 206d6f72 000a7325 6378650a     lx from %s...exc
    4300a0b9:	69747065 72206e6f 6f736165 75253d6e     eption reason=%u
    4300a0c9:	6e797320 6d6f7264 78303d65 0a786c25      syndrome=0x%lx.
	...

000000004300a0da <aem_generic_errata_list_end>:
    4300a0da:	4150      	.short	0x4150
    4300a0dc:	2043494e 	.word	0x2043494e
    4300a0e0:	50207461 	.word	0x50207461
    4300a0e4:	203a2043 	.word	0x203a2043
    4300a0e8:	0a007830 	.word	0x0a007830
    4300a0ec:	6c696166 	.word	0x6c696166
    4300a0f0:	74206465 	.word	0x74206465
    4300a0f4:	6f64206f 	.word	0x6f64206f
    4300a0f8:	2c752520 	.word	0x2c752520
    4300a0fc:	74616420 	.word	0x74616420
    4300a100:	203d2061 	.word	0x203d2061
    4300a104:	202c7525 	.word	0x202c7525
    4300a108:	6b73616d 	.word	0x6b73616d
    4300a10c:	25203d20 	.word	0x25203d20
    4300a110:	65202c75 	.word	0x65202c75
    4300a114:	65737566 	.word	0x65737566
    4300a118:	6e6f635f 	.word	0x6e6f635f
    4300a11c:	25203d20 	.word	0x25203d20
    4300a120:	0a000a78 	.word	0x0a000a78
    4300a124:	6165725b 	.word	0x6165725b
    4300a128:	69205d64 	.word	0x69205d64
    4300a12c:	6c61766e 	.word	0x6c61766e
    4300a130:	70206469 	.word	0x70206469
    4300a134:	6d617261 	.word	0x6d617261
    4300a138:	72657465 	.word	0x72657465
    4300a13c:	0a000a73 	.word	0x0a000a73
    4300a140:	6165725b 	.word	0x6165725b
    4300a144:	69205d64 	.word	0x69205d64
    4300a148:	7865646e 	.word	0x7865646e
    4300a14c:	20736920 	.word	0x20736920
    4300a150:	6d73696d 	.word	0x6d73696d
    4300a154:	68637461 	.word	0x68637461
    4300a158:	000a7365 	.word	0x000a7365
    4300a15c:	65725b0a 	.word	0x65725b0a
    4300a160:	205d6461 	.word	0x205d6461
    4300a164:	6f636e69 	.word	0x6f636e69
    4300a168:	6e657272 	.word	0x6e657272
    4300a16c:	6e692074 	.word	0x6e692074
    4300a170:	20747570 	.word	0x20747570
    4300a174:	676e656c 	.word	0x676e656c
    4300a178:	25206874 	.word	0x25206874
    4300a17c:	69202c64 	.word	0x69202c64
    4300a180:	7865646e 	.word	0x7865646e
    4300a184:	25203d20 	.word	0x25203d20
    4300a188:	0a000a75 	.word	0x0a000a75
    4300a18c:	6972775b 	.word	0x6972775b
    4300a190:	205d6574 	.word	0x205d6574
    4300a194:	61766e69 	.word	0x61766e69
    4300a198:	2064696c 	.word	0x2064696c
    4300a19c:	61726170 	.word	0x61726170
    4300a1a0:	6574656d 	.word	0x6574656d
    4300a1a4:	000a7372 	.word	0x000a7372
    4300a1a8:	72775b0a 	.word	0x72775b0a
    4300a1ac:	5d657469 	.word	0x5d657469
    4300a1b0:	636e6920 	.word	0x636e6920
    4300a1b4:	6572726f 	.word	0x6572726f
    4300a1b8:	6920746e 	.word	0x6920746e
    4300a1bc:	7475706e 	.word	0x7475706e
    4300a1c0:	6e656c20 	.word	0x6e656c20
    4300a1c4:	20687467 	.word	0x20687467
    4300a1c8:	202c7525 	.word	0x202c7525
    4300a1cc:	65646e69 	.word	0x65646e69
    4300a1d0:	203d2078 	.word	0x203d2078
    4300a1d4:	000a7525 	.word	0x000a7525
    4300a1d8:	72775b0a 	.word	0x72775b0a
    4300a1dc:	5d657469 	.word	0x5d657469
    4300a1e0:	72657a20 	.word	0x72657a20
    4300a1e4:	6e69206f 	.word	0x6e69206f
    4300a1e8:	20747570 	.word	0x20747570
    4300a1ec:	61746164 	.word	0x61746164
    4300a1f0:	7566202c 	.word	0x7566202c
    4300a1f4:	3d206573 	.word	0x3d206573
    4300a1f8:	0a752520 	.word	0x0a752520
    4300a1fc:	775b0a00 	.word	0x775b0a00
    4300a200:	65746972 	.word	0x65746972
    4300a204:	6e75205d 	.word	0x6e75205d
    4300a208:	776e6f6b 	.word	0x776e6f6b
    4300a20c:	6361206e 	.word	0x6361206e
    4300a210:	73736563 	.word	0x73736563
    4300a214:	70797420 	.word	0x70797420
    4300a218:	64252065 	.word	0x64252065
    4300a21c:	720a000a 	.word	0x720a000a
    4300a220:	20646165 	.word	0x20646165
    4300a224:	6c696166 	.word	0x6c696166
    4300a228:	000a6465 	.word	0x000a6465
    4300a22c:	69282a0a 	.word	0x69282a0a
    4300a230:	61645f6e 	.word	0x61645f6e
    4300a234:	2b206174 	.word	0x2b206174
    4300a238:	29642520 	.word	0x29642520
    4300a23c:	25203d20 	.word	0x25203d20
    4300a240:	2c783230 	.word	0x2c783230
    4300a244:	66282a20 	.word	0x66282a20
    4300a248:	5f657375 	.word	0x5f657375
    4300a24c:	61746164 	.word	0x61746164
    4300a250:	25202b20 	.word	0x25202b20
    4300a254:	3d202964 	.word	0x3d202964
    4300a258:	32302520 	.word	0x32302520
    4300a25c:	0a000a78 	.word	0x0a000a78
    4300a260:	20656874 	.word	0x20656874
    4300a264:	75706e69 	.word	0x75706e69
    4300a268:	61642074 	.word	0x61642074
    4300a26c:	69206174 	.word	0x69206174
    4300a270:	61732073 	.word	0x61732073
    4300a274:	7720656d 	.word	0x7720656d
    4300a278:	20687469 	.word	0x20687469
    4300a27c:	20656874 	.word	0x20656874
    4300a280:	61746164 	.word	0x61746164
    4300a284:	6f6c6220 	.word	0x6f6c6220
    4300a288:	69206e77 	.word	0x69206e77
    4300a28c:	6665206e 	.word	0x6665206e
    4300a290:	0a657375 	.word	0x0a657375
    4300a294:	68740a00 	.word	0x68740a00
    4300a298:	66652065 	.word	0x66652065
    4300a29c:	20657375 	.word	0x20657375
    4300a2a0:	756c6176 	.word	0x756c6176
    4300a2a4:	78252065 	.word	0x78252065
    4300a2a8:	20736920 	.word	0x20736920
    4300a2ac:	2074756f 	.word	0x2074756f
    4300a2b0:	7320666f 	.word	0x7320666f
    4300a2b4:	69636570 	.word	0x69636570
    4300a2b8:	61636966 	.word	0x61636966
    4300a2bc:	6e6f6974 	.word	0x6e6f6974
    4300a2c0:	5b0a000a 	.word	0x5b0a000a
    4300a2c4:	74697277 	.word	0x74697277
    4300a2c8:	46205d65 	.word	0x46205d65
    4300a2cc:	656c6961 	.word	0x656c6961
    4300a2d0:	6f742064 	.word	0x6f742064
    4300a2d4:	74656720 	.word	0x74656720
    4300a2d8:	69727720 	.word	0x69727720
    4300a2dc:	676e6974 	.word	0x676e6974
    4300a2e0:	73756620 	.word	0x73756620
    4300a2e4:	61642065 	.word	0x61642065
    4300a2e8:	000a6174 	.word	0x000a6174
    4300a2ec:	6961660a 	.word	0x6961660a
    4300a2f0:	2064656c 	.word	0x2064656c
    4300a2f4:	73206f74 	.word	0x73206f74
    4300a2f8:	62207465 	.word	0x62207465
    4300a2fc:	79656b70 	.word	0x79656b70
    4300a300:	5b0a000a 	.word	0x5b0a000a
    4300a304:	74697277 	.word	0x74697277
    4300a308:	65205d65 	.word	0x65205d65
    4300a30c:	65737566 	.word	0x65737566
    4300a310:	20736920 	.word	0x20736920
    4300a314:	79737562 	.word	0x79737562
    4300a318:	660a000a 	.word	0x660a000a
    4300a31c:	656c6961 	.word	0x656c6961
    4300a320:	6f742064 	.word	0x6f742064
    4300a324:	656c6320 	.word	0x656c6320
    4300a328:	62207261 	.word	0x62207261
    4300a32c:	79656b70 	.word	0x79656b70
    4300a330:	660a000a 	.word	0x660a000a
    4300a334:	656c6961 	.word	0x656c6961
    4300a338:	6f742064 	.word	0x6f742064
    4300a33c:	2d657220 	.word	0x2d657220
    4300a340:	74696e69 	.word	0x74696e69
    4300a344:	0a445220 	.word	0x0a445220
    4300a348:	775b0a00 	.word	0x775b0a00
    4300a34c:	65746972 	.word	0x65746972
    4300a350:	6572205d 	.word	0x6572205d
    4300a354:	62206461 	.word	0x62206461
    4300a358:	206b6361 	.word	0x206b6361
    4300a35c:	6c696166 	.word	0x6c696166
    4300a360:	000a6465 	.word	0x000a6465
    4300a364:	72775b0a 	.word	0x72775b0a
    4300a368:	5d657469 	.word	0x5d657469
    4300a36c:	64282a20 	.word	0x64282a20
    4300a370:	20617461 	.word	0x20617461
    4300a374:	6425202b 	.word	0x6425202b
    4300a378:	203d2029 	.word	0x203d2029
    4300a37c:	78323025 	.word	0x78323025
    4300a380:	282a202c 	.word	0x282a202c
    4300a384:	65737566 	.word	0x65737566
    4300a388:	7461645f 	.word	0x7461645f
    4300a38c:	202b2061 	.word	0x202b2061
    4300a390:	20296425 	.word	0x20296425
    4300a394:	3025203d 	.word	0x3025203d
    4300a398:	000a7832 	.word	0x000a7832
    4300a39c:	00007830 	.word	0x00007830

000000004300a3a0 <__svc_desc_mediatek_sip_svc>:
    4300a3a0:	00010202 00000000 43009c9a 00000000     ...........C....
	...
    4300a3b8:	43003ed8 00000000                       .>.C....

000000004300a3c0 <__svc_desc_arm_arch_svc>:
    4300a3c0:	00010000 00000000 4300a02d 00000000     ........-..C....
	...
    4300a3d8:	4300593c 00000000                       <Y.C....

000000004300a3e0 <__svc_desc_std_svc>:
    4300a3e0:	00010404 00000000 4300a03a 00000000     ........:..C....
    4300a3f0:	43005b2c 00000000 43005a78 00000000     ,[.C....xZ.C....

000000004300a400 <__CPU_OPS_START__>:
    4300a400:	410fd0f0 	.word	0x410fd0f0
	...
    4300a430:	430060a4 	.word	0x430060a4
    4300a434:	00000000 	.word	0x00000000
    4300a438:	430060d8 	.word	0x430060d8
    4300a43c:	00000000 	.word	0x00000000
    4300a440:	4300a0da 	.word	0x4300a0da
    4300a444:	00000000 	.word	0x00000000
    4300a448:	4300a0da 	.word	0x4300a0da
    4300a44c:	00000000 	.word	0x00000000
    4300a450:	410fd000 	.word	0x410fd000
	...
    4300a480:	430060a4 	.word	0x430060a4
    4300a484:	00000000 	.word	0x00000000
    4300a488:	430060d8 	.word	0x430060d8
    4300a48c:	00000000 	.word	0x00000000
    4300a490:	4300a0da 	.word	0x4300a0da
    4300a494:	00000000 	.word	0x00000000
    4300a498:	4300a0da 	.word	0x4300a0da
    4300a49c:	00000000 	.word	0x00000000
    4300a4a0:	410fd030 	.word	0x410fd030
    4300a4a4:	00000000 	.word	0x00000000
    4300a4a8:	4300618c 	.word	0x4300618c
	...
    4300a4d0:	430061c4 	.word	0x430061c4
    4300a4d4:	00000000 	.word	0x00000000
    4300a4d8:	430061dc 	.word	0x430061dc
    4300a4dc:	00000000 	.word	0x00000000
    4300a4e0:	4300a0da 	.word	0x4300a0da
    4300a4e4:	00000000 	.word	0x00000000
    4300a4e8:	4300a0da 	.word	0x4300a0da
    4300a4ec:	00000000 	.word	0x00000000

000000004300a4f0 <__cb_func_spe_drain_buffers_hookcm_entering_secure_world>:
    4300a4f0:	43001e38 00000000                       8..C....

000000004300a4f8 <__pubsub_cm_entering_normal_world_end>:
	...

000000004300a800 <sync_exception_sp_el0>:
    4300a800:	17ffedb3 	b	43005ecc <report_unhandled_exception>
	...

000000004300a880 <irq_sp_el0>:
    4300a880:	17ffed93 	b	43005ecc <report_unhandled_exception>
	...

000000004300a900 <fiq_sp_el0>:
    4300a900:	17ffed73 	b	43005ecc <report_unhandled_exception>
	...

000000004300a980 <serror_sp_el0>:
    4300a980:	97fff064 	bl	43006b10 <plat_handle_el3_ea>
	...

000000004300aa00 <sync_exception_sp_elx>:
    4300aa00:	17ffed33 	b	43005ecc <report_unhandled_exception>
	...

000000004300aa80 <irq_sp_elx>:
    4300aa80:	17ffed13 	b	43005ecc <report_unhandled_exception>
	...

000000004300ab00 <fiq_sp_elx>:
    4300ab00:	17ffecf3 	b	43005ecc <report_unhandled_exception>
	...

000000004300ab80 <serror_sp_elx>:
    4300ab80:	f9007bfe 	str	x30, [sp, #240]
    4300ab84:	f9409bfe 	ldr	x30, [sp, #304]
    4300ab88:	b500005e 	cbnz	x30, 4300ab90 <serror_sp_elx+0x10>
    4300ab8c:	17ffecec 	b	43005f3c <handle_lower_el_async_ea>
    4300ab90:	97ffefe0 	bl	43006b10 <plat_handle_el3_ea>
	...

000000004300ac00 <sync_exception_aarch64>:
    4300ac00:	f9007bfe 	str	x30, [sp, #240]
    4300ac04:	d5033f9f 	dsb	sy
    4300ac08:	d50344ff 	msr	daifclr, #0x4
    4300ac0c:	d5033fdf 	isb
    4300ac10:	d280003e 	mov	x30, #0x1                   	// #1
    4300ac14:	f9009bfe 	str	x30, [sp, #304]
    4300ac18:	d5033fbf 	dmb	sy
    4300ac1c:	d53e521e 	mrs	x30, esr_el3
    4300ac20:	d35a7fde 	ubfx	x30, x30, #26, #6
    4300ac24:	f1004fdf 	cmp	x30, #0x13
    4300ac28:	54fd9ce0 	b.eq	43005fc4 <sync_exception_handler>  // b.none
    4300ac2c:	f1005fdf 	cmp	x30, #0x17
    4300ac30:	54fd9cc0 	b.eq	43005fc8 <sync_handler64>  // b.none
    4300ac34:	f10063df 	cmp	x30, #0x18
    4300ac38:	54fd9c80 	b.eq	43005fc8 <sync_handler64>  // b.none
    4300ac3c:	f9407bfe 	ldr	x30, [sp, #240]
    4300ac40:	17ffeca4 	b	43005ed0 <handle_lower_el_sync_ea>
	...

000000004300ac80 <irq_aarch64>:
    4300ac80:	f9007bfe 	str	x30, [sp, #240]
    4300ac84:	d5033f9f 	dsb	sy
    4300ac88:	d50344ff 	msr	daifclr, #0x4
    4300ac8c:	d5033fdf 	isb
    4300ac90:	d280003e 	mov	x30, #0x1                   	// #1
    4300ac94:	f9009bfe 	str	x30, [sp, #304]
    4300ac98:	d5033fbf 	dmb	sy
    4300ac9c:	97ffedcb 	bl	430063c8 <prepare_el3_entry>
    4300aca0:	d53e4000 	mrs	x0, spsr_el3
    4300aca4:	d53e4021 	mrs	x1, elr_el3
    4300aca8:	a91187e0 	stp	x0, x1, [sp, #280]
    4300acac:	f9408be2 	ldr	x2, [sp, #272]
    4300acb0:	910003f4 	mov	x20, sp
    4300acb4:	d50040bf 	msr	spsel, #0x0
    4300acb8:	9100005f 	mov	sp, x2
    4300acbc:	97ffe3ac 	bl	43003b6c <plat_ic_get_pending_interrupt_type>
    4300acc0:	f1000c1f 	cmp	x0, #0x3
    4300acc4:	54000140 	b.eq	4300acec <interrupt_exit_irq_aarch64>  // b.none
    4300acc8:	97ffd9a0 	bl	43001348 <get_interrupt_type_handler>
    4300accc:	b4000100 	cbz	x0, 4300acec <interrupt_exit_irq_aarch64>
    4300acd0:	aa0003f5 	mov	x21, x0
    4300acd4:	b2407fe0 	mov	x0, #0xffffffff            	// #4294967295
    4300acd8:	d53e1102 	mrs	x2, scr_el3
    4300acdc:	d3400041 	ubfx	x1, x2, #0, #1
    4300ace0:	aa1403e2 	mov	x2, x20
    4300ace4:	aa1f03e3 	mov	x3, xzr
    4300ace8:	d63f02a0 	blr	x21

000000004300acec <interrupt_exit_irq_aarch64>:
    4300acec:	17ffede5 	b	43006480 <el3_exit>
	...

000000004300ad00 <fiq_aarch64>:
    4300ad00:	f9007bfe 	str	x30, [sp, #240]
    4300ad04:	d5033f9f 	dsb	sy
    4300ad08:	d50344ff 	msr	daifclr, #0x4
    4300ad0c:	d5033fdf 	isb
    4300ad10:	d280003e 	mov	x30, #0x1                   	// #1
    4300ad14:	f9009bfe 	str	x30, [sp, #304]
    4300ad18:	d5033fbf 	dmb	sy
    4300ad1c:	97ffedab 	bl	430063c8 <prepare_el3_entry>
    4300ad20:	d53e4000 	mrs	x0, spsr_el3
    4300ad24:	d53e4021 	mrs	x1, elr_el3
    4300ad28:	a91187e0 	stp	x0, x1, [sp, #280]
    4300ad2c:	f9408be2 	ldr	x2, [sp, #272]
    4300ad30:	910003f4 	mov	x20, sp
    4300ad34:	d50040bf 	msr	spsel, #0x0
    4300ad38:	9100005f 	mov	sp, x2
    4300ad3c:	97ffe38c 	bl	43003b6c <plat_ic_get_pending_interrupt_type>
    4300ad40:	f1000c1f 	cmp	x0, #0x3
    4300ad44:	54000140 	b.eq	4300ad6c <interrupt_exit_fiq_aarch64>  // b.none
    4300ad48:	97ffd980 	bl	43001348 <get_interrupt_type_handler>
    4300ad4c:	b4000100 	cbz	x0, 4300ad6c <interrupt_exit_fiq_aarch64>
    4300ad50:	aa0003f5 	mov	x21, x0
    4300ad54:	b2407fe0 	mov	x0, #0xffffffff            	// #4294967295
    4300ad58:	d53e1102 	mrs	x2, scr_el3
    4300ad5c:	d3400041 	ubfx	x1, x2, #0, #1
    4300ad60:	aa1403e2 	mov	x2, x20
    4300ad64:	aa1f03e3 	mov	x3, xzr
    4300ad68:	d63f02a0 	blr	x21

000000004300ad6c <interrupt_exit_fiq_aarch64>:
    4300ad6c:	17ffedc5 	b	43006480 <el3_exit>
	...

000000004300ad80 <serror_aarch64>:
    4300ad80:	f9007bfe 	str	x30, [sp, #240]
    4300ad84:	d5033f9f 	dsb	sy
    4300ad88:	d50344ff 	msr	daifclr, #0x4
    4300ad8c:	d5033fdf 	isb
    4300ad90:	d280003e 	mov	x30, #0x1                   	// #1
    4300ad94:	f9009bfe 	str	x30, [sp, #304]
    4300ad98:	d5033fbf 	dmb	sy
    4300ad9c:	17ffec68 	b	43005f3c <handle_lower_el_async_ea>
	...

000000004300ae00 <sync_exception_aarch32>:
    4300ae00:	f9007bfe 	str	x30, [sp, #240]
    4300ae04:	d5033f9f 	dsb	sy
    4300ae08:	d50344ff 	msr	daifclr, #0x4
    4300ae0c:	d5033fdf 	isb
    4300ae10:	d280003e 	mov	x30, #0x1                   	// #1
    4300ae14:	f9009bfe 	str	x30, [sp, #304]
    4300ae18:	d5033fbf 	dmb	sy
    4300ae1c:	d53e521e 	mrs	x30, esr_el3
    4300ae20:	d35a7fde 	ubfx	x30, x30, #26, #6
    4300ae24:	f1004fdf 	cmp	x30, #0x13
    4300ae28:	54fd8ce0 	b.eq	43005fc4 <sync_exception_handler>  // b.none
    4300ae2c:	f1005fdf 	cmp	x30, #0x17
    4300ae30:	54fd8cc0 	b.eq	43005fc8 <sync_handler64>  // b.none
    4300ae34:	f10063df 	cmp	x30, #0x18
    4300ae38:	54fd8c80 	b.eq	43005fc8 <sync_handler64>  // b.none
    4300ae3c:	f9407bfe 	ldr	x30, [sp, #240]
    4300ae40:	17ffec24 	b	43005ed0 <handle_lower_el_sync_ea>
	...

000000004300ae80 <irq_aarch32>:
    4300ae80:	f9007bfe 	str	x30, [sp, #240]
    4300ae84:	d5033f9f 	dsb	sy
    4300ae88:	d50344ff 	msr	daifclr, #0x4
    4300ae8c:	d5033fdf 	isb
    4300ae90:	d280003e 	mov	x30, #0x1                   	// #1
    4300ae94:	f9009bfe 	str	x30, [sp, #304]
    4300ae98:	d5033fbf 	dmb	sy
    4300ae9c:	97ffed4b 	bl	430063c8 <prepare_el3_entry>
    4300aea0:	d53e4000 	mrs	x0, spsr_el3
    4300aea4:	d53e4021 	mrs	x1, elr_el3
    4300aea8:	a91187e0 	stp	x0, x1, [sp, #280]
    4300aeac:	f9408be2 	ldr	x2, [sp, #272]
    4300aeb0:	910003f4 	mov	x20, sp
    4300aeb4:	d50040bf 	msr	spsel, #0x0
    4300aeb8:	9100005f 	mov	sp, x2
    4300aebc:	97ffe32c 	bl	43003b6c <plat_ic_get_pending_interrupt_type>
    4300aec0:	f1000c1f 	cmp	x0, #0x3
    4300aec4:	54000140 	b.eq	4300aeec <interrupt_exit_irq_aarch32>  // b.none
    4300aec8:	97ffd920 	bl	43001348 <get_interrupt_type_handler>
    4300aecc:	b4000100 	cbz	x0, 4300aeec <interrupt_exit_irq_aarch32>
    4300aed0:	aa0003f5 	mov	x21, x0
    4300aed4:	b2407fe0 	mov	x0, #0xffffffff            	// #4294967295
    4300aed8:	d53e1102 	mrs	x2, scr_el3
    4300aedc:	d3400041 	ubfx	x1, x2, #0, #1
    4300aee0:	aa1403e2 	mov	x2, x20
    4300aee4:	aa1f03e3 	mov	x3, xzr
    4300aee8:	d63f02a0 	blr	x21

000000004300aeec <interrupt_exit_irq_aarch32>:
    4300aeec:	17ffed65 	b	43006480 <el3_exit>
	...

000000004300af00 <fiq_aarch32>:
    4300af00:	f9007bfe 	str	x30, [sp, #240]
    4300af04:	d5033f9f 	dsb	sy
    4300af08:	d50344ff 	msr	daifclr, #0x4
    4300af0c:	d5033fdf 	isb
    4300af10:	d280003e 	mov	x30, #0x1                   	// #1
    4300af14:	f9009bfe 	str	x30, [sp, #304]
    4300af18:	d5033fbf 	dmb	sy
    4300af1c:	97ffed2b 	bl	430063c8 <prepare_el3_entry>
    4300af20:	d53e4000 	mrs	x0, spsr_el3
    4300af24:	d53e4021 	mrs	x1, elr_el3
    4300af28:	a91187e0 	stp	x0, x1, [sp, #280]
    4300af2c:	f9408be2 	ldr	x2, [sp, #272]
    4300af30:	910003f4 	mov	x20, sp
    4300af34:	d50040bf 	msr	spsel, #0x0
    4300af38:	9100005f 	mov	sp, x2
    4300af3c:	97ffe30c 	bl	43003b6c <plat_ic_get_pending_interrupt_type>
    4300af40:	f1000c1f 	cmp	x0, #0x3
    4300af44:	54000140 	b.eq	4300af6c <interrupt_exit_fiq_aarch32>  // b.none
    4300af48:	97ffd900 	bl	43001348 <get_interrupt_type_handler>
    4300af4c:	b4000100 	cbz	x0, 4300af6c <interrupt_exit_fiq_aarch32>
    4300af50:	aa0003f5 	mov	x21, x0
    4300af54:	b2407fe0 	mov	x0, #0xffffffff            	// #4294967295
    4300af58:	d53e1102 	mrs	x2, scr_el3
    4300af5c:	d3400041 	ubfx	x1, x2, #0, #1
    4300af60:	aa1403e2 	mov	x2, x20
    4300af64:	aa1f03e3 	mov	x3, xzr
    4300af68:	d63f02a0 	blr	x21

000000004300af6c <interrupt_exit_fiq_aarch32>:
    4300af6c:	17ffed45 	b	43006480 <el3_exit>
	...

000000004300af80 <serror_aarch32>:
    4300af80:	f9007bfe 	str	x30, [sp, #240]
    4300af84:	d5033f9f 	dsb	sy
    4300af88:	d50344ff 	msr	daifclr, #0x4
    4300af8c:	d5033fdf 	isb
    4300af90:	d280003e 	mov	x30, #0x1                   	// #1
    4300af94:	f9009bfe 	str	x30, [sp, #304]
    4300af98:	d5033fbf 	dmb	sy
    4300af9c:	17ffebe8 	b	43005f3c <handle_lower_el_async_ea>
	...
