
/media/data_nvme/git/uboot/u-boot/build/mt7622/release/bl31/bl31.elf:     file format elf64-littleaarch64
/media/data_nvme/git/uboot/u-boot/build/mt7622/release/bl31/bl31.elf
architecture: aarch64, flags 0x00000112:
EXEC_P, HAS_SYMS, D_PAGED
start address 0x0000000043001000

Program Header:
    LOAD off    0x0000000000001000 vaddr 0x0000000043001000 paddr 0x0000000043001000 align 2**12
         filesz 0x000000000000a0ec memsz 0x0000000000011000 flags rwx
   STACK off    0x0000000000000000 vaddr 0x0000000000000000 paddr 0x0000000000000000 align 2**4
         filesz 0x0000000000000000 memsz 0x0000000000000000 flags rw-
private flags = 0x0:

Sections:
Idx Name          Size      VMA               LMA               File off  Algn
  0 .ro           0000a000  0000000043001000  0000000043001000  00001000  2**11
                  CONTENTS, ALLOC, LOAD, CODE
  1 .data         000000dd  000000004300b000  000000004300b000  0000b000  2**2
                  CONTENTS, ALLOC, LOAD, DATA
  2 tzfw_coherent_mem 0000000c  000000004300b0e0  000000004300b0e0  0000b0e0  2**2
                  CONTENTS, ALLOC, LOAD, DATA
  3 .stacks       00001000  000000004300b100  000000004300b100  0000b0ec  2**6
                  ALLOC
  4 .bss          00000c00  000000004300c100  000000004300c100  0000b0ec  2**6
                  ALLOC
  5 .xlat_table   00004000  000000004300d000  000000004300d000  0000b0ec  2**12
                  ALLOC
  6 .coherent_ram 00001000  0000000043011000  0000000043011000  0000b0ec  2**12
                  ALLOC
  7 .debug_info   000241c4  0000000000000000  0000000000000000  0000b0ec  2**0
                  CONTENTS, READONLY, DEBUGGING, OCTETS
  8 .debug_abbrev 00008c19  0000000000000000  0000000000000000  0002f2b0  2**0
                  CONTENTS, READONLY, DEBUGGING, OCTETS
  9 .debug_aranges 000027c0  0000000000000000  0000000000000000  00037ed0  2**4
                  CONTENTS, READONLY, DEBUGGING, OCTETS
 10 .debug_line   0000fb69  0000000000000000  0000000000000000  0003a690  2**0
                  CONTENTS, READONLY, DEBUGGING, OCTETS
 11 .debug_str    0000688c  0000000000000000  0000000000000000  0004a1f9  2**0
                  CONTENTS, READONLY, DEBUGGING, OCTETS
 12 .comment      0000005d  0000000000000000  0000000000000000  00050a85  2**0
                  CONTENTS, READONLY
 13 .debug_loc    0001f867  0000000000000000  0000000000000000  00050ae2  2**0
                  CONTENTS, READONLY, DEBUGGING, OCTETS
 14 .debug_ranges 00006a80  0000000000000000  0000000000000000  00070350  2**4
                  CONTENTS, READONLY, DEBUGGING, OCTETS
 15 .debug_frame  00000d08  0000000000000000  0000000000000000  00076dd0  2**3
                  CONTENTS, READONLY, DEBUGGING, OCTETS
SYMBOL TABLE:
0000000043001000 l    d  .ro	0000000000000000 .ro
000000004300b000 l    d  .data	0000000000000000 .data
000000004300b0e0 l    d  tzfw_coherent_mem	0000000000000000 tzfw_coherent_mem
000000004300b100 l    d  .stacks	0000000000000000 .stacks
000000004300c100 l    d  .bss	0000000000000000 .bss
000000004300d000 l    d  .xlat_table	0000000000000000 .xlat_table
0000000043011000 l    d  .coherent_ram	0000000000000000 .coherent_ram
0000000000000000 l    d  .debug_info	0000000000000000 .debug_info
0000000000000000 l    d  .debug_abbrev	0000000000000000 .debug_abbrev
0000000000000000 l    d  .debug_aranges	0000000000000000 .debug_aranges
0000000000000000 l    d  .debug_line	0000000000000000 .debug_line
0000000000000000 l    d  .debug_str	0000000000000000 .debug_str
0000000000000000 l    d  .comment	0000000000000000 .comment
0000000000000000 l    d  .debug_loc	0000000000000000 .debug_loc
0000000000000000 l    d  .debug_ranges	0000000000000000 .debug_ranges
0000000000000000 l    d  .debug_frame	0000000000000000 .debug_frame
0000000000000000 l    df *ABS*	0000000000000000 bl31_entrypoint.o
0000000000000000 l    df *ABS*	0000000000000000 bl31_context_mgmt.c
0000000000000000 l    df *ABS*	0000000000000000 bl31_main.c
000000004300c620 l     O .bss	0000000000000008 bl32_init
000000004300b000 l     O .data	0000000000000004 next_image_type
00000000430076f8 l     O .ro	0000000000000010 psci_args.0
0000000000000000 l    df *ABS*	0000000000000000 bl31_traps.c
0000000000000000 l    df *ABS*	0000000000000000 interrupt_mgmt.c
000000004300c628 l     O .bss	0000000000000060 intr_type_descs
0000000000000000 l    df *ABS*	0000000000000000 runtime_svc.c
0000000000000000 l    df *ABS*	0000000000000000 cci.c
000000004300c688 l     O .bss	0000000000000008 cci_base
000000004300c690 l     O .bss	0000000000000008 cci_slave_if_map
0000000000000000 l    df *ABS*	0000000000000000 gic_common.c
0000000000000000 l    df *ABS*	0000000000000000 gicv2_helpers.c
0000000000000000 l    df *ABS*	0000000000000000 gicv2_main.c
000000004300c698 l     O .bss	0000000000000008 driver_data
0000000000000000 l    df *ABS*	0000000000000000 delay_timer.c
000000004300c6a0 l     O .bss	0000000000000008 timer_ops
0000000000000000 l    df *ABS*	0000000000000000 generic_delay_timer.c
0000000043001a88 l     F .ro	000000000000000c get_timer_value
000000004300c6a8 l     O .bss	0000000000000010 ops
0000000000000000 l    df *ABS*	0000000000000000 errata_report.c
0000000000000000 l    df *ABS*	0000000000000000 context_mgmt.c
0000000000000000 l    df *ABS*	0000000000000000 spe.c
0000000043001e38 l     F .ro	0000000000000024 spe_drain_buffers_hook
0000000000000000 l    df *ABS*	0000000000000000 bakery_lock_coherent.c
0000000000000000 l    df *ABS*	0000000000000000 psci_common.c
0000000043001f70 l     F .ro	0000000000000034 psci_set_req_local_pwr_state
000000004300ccd4 l     O .bss	0000000000000004 psci_req_local_pwr_states
0000000000000000 l    df *ABS*	0000000000000000 psci_main.c
0000000000000000 l    df *ABS*	0000000000000000 psci_mem_protect.c
0000000000000000 l    df *ABS*	0000000000000000 psci_off.c
0000000000000000 l    df *ABS*	0000000000000000 psci_on.c
0000000000000000 l    df *ABS*	0000000000000000 psci_setup.c
000000004300c1a0 l     O .bss	0000000000000480 psci_ns_context
0000000000000000 l    df *ABS*	0000000000000000 psci_suspend.c
0000000000000000 l    df *ABS*	0000000000000000 psci_system_off.c
0000000000000000 l    df *ABS*	0000000000000000 xlat_tables.c
000000004300c180 l     O .bss	0000000000000020 base_xlation_table
000000004300c6e8 l     O .bss	0000000000000008 tcr_ps_bits
0000000000000000 l    df *ABS*	0000000000000000 xlat_tables_common.c
00000000430037ac l     F .ro	00000000000001e4 init_xlation_table_inner
000000004300d000 l     O .xlat_table	0000000000004000 xlat_tables
000000004300c6f0 l     O .bss	0000000000000008 ap1_mask
000000004300c6f8 l     O .bss	0000000000000008 execute_never_mask
000000004300c700 l     O .bss	0000000000000220 mmap
000000004300cb00 l     O .bss	0000000000000004 next_xlat
000000004300c920 l     O .bss	0000000000000008 xlat_max_pa
000000004300c928 l     O .bss	0000000000000008 xlat_max_va
0000000000000000 l    df *ABS*	0000000000000000 arm_gicv2.c
0000000000000000 l    df *ABS*	0000000000000000 plat_gicv2.c
0000000000000000 l    df *ABS*	0000000000000000 mtk_efuse.c
000000004300cb04 l     O .bss	000000000000012c mtk_efuse_field
0000000043009c69 l     O .ro	0000000000000010 __func__.0
0000000043009c79 l     O .ro	000000000000000f __func__.1
0000000043009c88 l     O .ro	0000000000000012 __func__.2
0000000000000000 l    df *ABS*	0000000000000000 mtk_bl31_boot_next_legacy.c
0000000000000000 l    df *ABS*	0000000000000000 mtk_plat_common.c
0000000000000000 l    df *ABS*	0000000000000000 mtk_sip_svc_legacy.c
000000004300a3a0 l     O .ro	0000000000000020 __svc_desc_mediatek_sip_svc
0000000000000000 l    df *ABS*	0000000000000000 platform_common.c
0000000043007d6c l     O .ro	0000000000000008 cci_map
0000000000000000 l    df *ABS*	0000000000000000 bl31_plat_setup.c
000000004300c930 l     O .bss	0000000000000058 bl32_ep_info
000000004300c988 l     O .bss	0000000000000058 bl33_ep_info
000000004300c9e0 l     O .bss	0000000000000030 console.0
0000000000000000 l    df *ABS*	0000000000000000 pmic_wrap.c
0000000043004174 l     F .ro	000000000000008c wait_for_state_idle.constprop.0
0000000000000000 l    df *ABS*	0000000000000000 rtc.c
0000000043004378 l     F .ro	0000000000000068 Write_trigger
0000000000000000 l    df *ABS*	0000000000000000 mtcmos.c
000000004300442c l     F .ro	00000000000000e4 mtcmos_power_on.constprop.0
000000004300b004 l     O .data	000000000000003c scp_domain_mt7622
0000000000000000 l    df *ABS*	0000000000000000 spm.c
000000004300b0e0 l     O tzfw_coherent_mem	0000000000000004 spm_mcdi_ready
000000004300b0e4 l     O tzfw_coherent_mem	0000000000000004 spm_hotplug_ready
000000004300b0e8 l     O tzfw_coherent_mem	0000000000000004 spm_suspend_ready
0000000000000000 l    df *ABS*	0000000000000000 spm_hotplug.c
0000000000000000 l    df *ABS*	0000000000000000 spm_mcdi.c
000000004300b040 l     O .data	000000000000004c mcdi_ctrl
0000000043007d7c l     O .ro	0000000000000fa4 mcdi_binary
0000000043007788 l     O .ro	0000000000000038 mcdi_pcm
0000000000000000 l    df *ABS*	0000000000000000 spm_suspend.c
000000004300b08c l     O .data	000000000000004c spm_ctrl
0000000043008d20 l     O .ro	0000000000000d3c suspend_binary_ca7
00000000430077c0 l     O .ro	0000000000000038 suspend_pcm_ca7
0000000000000000 l    df *ABS*	0000000000000000 cpuxgpt.c
0000000000000000 l    df *ABS*	0000000000000000 mtk_wdt.c
0000000000000000 l    df *ABS*	0000000000000000 mtk_ar_table.c
0000000043004fc8 l     F .ro	0000000000000040 mtk_antirollback_check_mtk_ar_table_parms
0000000043005008 l     F .ro	00000000000000a4 mtk_antirollback_get_efuse_ar_ver
0000000043009ec8 l     O .ro	0000000000000025 __func__.0
0000000043009eed l     O .ro	0000000000000022 __func__.1
0000000043009f0f l     O .ro	0000000000000025 __func__.2
0000000043009f34 l     O .ro	0000000000000020 __func__.3
0000000043009f54 l     O .ro	0000000000000022 __func__.6
0000000043009f76 l     O .ro	000000000000002a __func__.7
0000000000000000 l    df *ABS*	0000000000000000 plat_mt_gic.c
0000000000000000 l    df *ABS*	0000000000000000 plat_pm.c
0000000043005274 l     F .ro	0000000000000024 plat_cpu_standby
0000000043005298 l     F .ro	0000000000000014 plat_get_sys_suspend_power_state
00000000430052ac l     F .ro	0000000000000058 plat_validate_power_state
0000000043005304 l     F .ro	0000000000000024 plat_mtk_system_reset
0000000043005328 l     F .ro	0000000000000024 plat_system_off
000000004300534c l     F .ro	00000000000000dc plat_power_domain_suspend_finish
0000000043005428 l     F .ro	00000000000000f8 plat_power_domain_suspend
0000000043005520 l     F .ro	0000000000000054 plat_power_domain_off
0000000043005574 l     F .ro	0000000000000044 plat_power_domain_on
00000000430055f0 l     F .ro	0000000000000074 plat_power_domain_on_finish
000000004300ca18 l     O .bss	0000000000000030 console.0
000000004300ca48 l     O .bss	00000000000000a0 dormant_data
000000004300cae8 l     O .bss	0000000000000008 secure_entrypoint
0000000043007828 l     O .ro	00000000000000b0 plat_plat_pm_ops
0000000000000000 l    df *ABS*	0000000000000000 plat_sip_calls.c
000000004300cc34 l     O .bss	0000000000000020 efuse_buffer.1
000000004300a00f l     O .ro	000000000000001a __func__.0
0000000000000000 l    df *ABS*	0000000000000000 plat_topology.c
0000000000000000 l    df *ABS*	0000000000000000 power_tracer.c
0000000000000000 l    df *ABS*	0000000000000000 scu.c
0000000000000000 l    df *ABS*	0000000000000000 arm_arch_svc_setup.c
000000004300593c l     F .ro	000000000000013c arm_arch_svc_smc_handler
000000004300a3c0 l     O .ro	0000000000000020 __svc_desc_arm_arch_svc
0000000000000000 l    df *ABS*	0000000000000000 std_svc_setup.c
0000000043005a78 l     F .ro	00000000000000b4 std_svc_smc_handler
0000000043005b2c l     F .ro	0000000000000024 std_svc_setup
000000004300a3e0 l     O .ro	0000000000000020 __svc_desc_std_svc
0000000000000000 l    df *ABS*	0000000000000000 bl_common.c
0000000000000000 l    df *ABS*	0000000000000000 tf_log.c
000000004300b0d8 l     O .data	0000000000000004 max_log_level
0000000000000000 l    df *ABS*	0000000000000000 multi_console.c
000000004300b0dc l     O .data	0000000000000001 console_state
0000000000000000 l    df *ABS*	0000000000000000 pmuv3.c
0000000000000000 l    df *ABS*	0000000000000000 plat_log_common.c
00000000430078d8 l     O .ro	0000000000000028 plat_prefix_str
0000000000000000 l    df *ABS*	0000000000000000 plat_common.c
0000000000000000 l    df *ABS*	0000000000000000 crash_reporting.o
0000000000000000 l    df *ABS*	0000000000000000 ea_delegate.o
0000000043005f5c l     F .ro	0000000000000068 ea_proceed
0000000043005f54 l     F .ro	0000000000000004 delegate_sync_ea
0000000043005f58 l     F .ro	0000000000000004 delegate_async_ea
0000000000000000 l    df *ABS*	0000000000000000 runtime_exceptions.o
0000000043005fc4 l       .ro	0000000000000000 smc_handler32
0000000043005fc8 l       .ro	0000000000000000 sync_handler64
000000004300acec l       .ro	0000000000000000 interrupt_exit_irq_aarch64
000000004300ad6c l       .ro	0000000000000000 interrupt_exit_fiq_aarch64
000000004300aeec l       .ro	0000000000000000 interrupt_exit_irq_aarch32
000000004300af6c l       .ro	0000000000000000 interrupt_exit_fiq_aarch32
0000000043005fc4 l     F .ro	00000000000000e0 sync_exception_handler
000000004300608c l       .ro	0000000000000000 smc_prohibited
0000000043006050 l       .ro	0000000000000000 sysreg_handler64
0000000043006080 l       .ro	0000000000000000 smc_unknown
0000000000000000 l    df *ABS*	0000000000000000 aem_generic.o
00000000430060a4 l     F .ro	0000000000000034 aem_generic_core_pwr_dwn
00000000430060d8 l     F .ro	0000000000000018 aem_generic_cluster_pwr_dwn
000000004300a0da l       .ro	0000000000000000 aem_generic_errata_list_start
000000004300a0da l       .ro	0000000000000000 aem_generic_errata_list_end
0000000000000000 l    df *ABS*	0000000000000000 cortex_a53.o
00000000430060f0 l     F .ro	0000000000000014 cortex_a53_disable_dcache
0000000043006104 l     F .ro	0000000000000018 cortex_a53_disable_smp
000000004300611c l     F .ro	0000000000000020 errata_a53_826319_wa
000000004300613c l     F .ro	0000000000000008 check_errata_826319
0000000043006144 l     F .ro	000000000000001c a53_disable_non_temporal_hint
0000000043006160 l     F .ro	0000000000000008 check_errata_disable_non_temporal_hint
0000000043006168 l     F .ro	000000000000001c errata_a53_855873_wa
0000000043006184 l     F .ro	0000000000000008 check_errata_855873
000000004300618c l     F .ro	0000000000000038 cortex_a53_reset_func
00000000430061c4 l     F .ro	0000000000000018 cortex_a53_core_pwr_dwn
00000000430061dc l     F .ro	0000000000000024 cortex_a53_cluster_pwr_dwn
000000004300a0da l       .ro	0000000000000000 cortex_a53_errata_list_start
000000004300a0da l       .ro	0000000000000000 cortex_a53_errata_list_end
0000000000000000 l    df *ABS*	0000000000000000 cpu_helpers.o
00000000430062a0 l       .ro	0000000000000000 search_def_ptr
0000000000000000 l    df *ABS*	0000000000000000 context.o
00000000430064a4 l       .ro	0000000000000000 sve_not_enabled
0000000000000000 l    df *ABS*	0000000000000000 cpu_data.o
0000000000000000 l    df *ABS*	0000000000000000 spinlock.o
0000000043006508 l       .ro	0000000000000000 l1
000000004300650c l       .ro	0000000000000000 l2
0000000000000000 l    df *ABS*	0000000000000000 psci_helpers.o
0000000000000000 l    df *ABS*	0000000000000000 platform_mp_stack.o
000000004300b100 l       .stacks	0000000000000000 platform_normal_stacks
0000000000000006 l       *ABS*	0000000000000000 TZ_COUNT
0000000000000000 l    df *ABS*	0000000000000000 hsuart.o
0000000043006680 l       .ro	0000000000000000 init_fail
0000000043006608 l       .ro	0000000000000000 set_baud_force_high_speed
0000000043006630 l       .ro	0000000000000000 set_baud_low_speed
0000000043006644 l       .ro	0000000000000000 set_divisor
0000000043006698 l       .ro	0000000000000000 no_char
00000000430066f0 l     F .ro	0000000000000008 console_hsuart_getc
00000000430066f8 l     F .ro	0000000000000008 console_hsuart_putc
0000000043006700 l     F .ro	0000000000000008 console_hsuart_flush
000000004300675c l       .ro	0000000000000000 register_fail
0000000043006724 l       .ro	0000000000000000 register_hsuart
0000000000000000 l    df *ABS*	0000000000000000 plat_helpers.o
0000000000000000 l    df *ABS*	0000000000000000 debug.o
000000004300a0da l       .ro	0000000000000000 panic_msg
0000000043006800 l       .ro	0000000000000000 panic_common
0000000043006828 l       .ro	0000000000000000 _panic_handler
0000000000000000 l    df *ABS*	0000000000000000 cache_helpers.o
0000000043006864 l       .ro	0000000000000000 exit_loop_civac
0000000043006850 l       .ro	0000000000000000 loop_civac
000000004300689c l       .ro	0000000000000000 exit_loop_cvac
0000000043006888 l       .ro	0000000000000000 loop_cvac
00000000430068d4 l       .ro	0000000000000000 exit_loop_ivac
00000000430068c0 l       .ro	0000000000000000 loop_ivac
00000000430068d8 l     F .ro	000000000000009c do_dcsw_op
0000000043006970 l       .ro	0000000000000000 exit
0000000043006974 l       .ro	0000000000000000 dcsw_loop_table
00000000430068f4 l       .ro	0000000000000000 loop1
0000000043006958 l       .ro	0000000000000000 level_done
0000000043006974 l       .ro	0000000000000000 loop2_isw
0000000043006978 l       .ro	0000000000000000 loop3_isw
0000000043006994 l       .ro	0000000000000000 loop2_cisw
0000000043006998 l       .ro	0000000000000000 loop3_cisw
00000000430069b4 l       .ro	0000000000000000 loop2_csw
00000000430069b8 l       .ro	0000000000000000 loop3_csw
0000000000000000 l    df *ABS*	0000000000000000 misc_helpers.o
0000000043006a10 l     F .ro	00000000000000e8 zeromem_dczva
0000000000000000 l    df *ABS*	0000000000000000 platform_helpers.o
0000000000000000 l    df *ABS*	0000000000000000 efuse_cmd.c
0000000043006b14 l     F .ro	0000000000000090 efuse_wait.constprop.4
0000000043007900 l     O .ro	0000000000000440 efuse_info_set
0000000000000000 l    df *ABS*	0000000000000000 memcpy.c
0000000000000000 l    df *ABS*	0000000000000000 memmove.c
0000000000000000 l    df *ABS*	0000000000000000 memset.c
0000000000000000 l    df *ABS*	0000000000000000 printf.c
00000000430071e4 l     F .ro	00000000000000d0 unsigned_num_print.part.0
0000000000000000 l    df *ABS*	0000000000000000 
0000000000000000 l    df *ABS*	0000000000000000 cpu_data_array.c
000000004300468c g     F .ro	0000000000000014 clear_all_ready
0000000043004ce0 g     F .ro	000000000000012c spm_mcdi_prepare_for_off_state
0000000043003e68 g     F .ro	0000000000000070 mediatek_sip_handler
0000000043005d10 g     F .ro	0000000000000028 putchar
00000000430066d8 g     F .ro	0000000000000018 console_hsuart_core_flush
0000000043001d64 g     F .ro	00000000000000cc cm_prepare_el3_exit
0000000043001a70 g     F .ro	000000000000000c mdelay
0000000043003e40 g     F .ro	0000000000000014 plat_is_smccc_feature_available
000000004300cd00 g       .bss	0000000000000000 __PMF_TIMESTAMP_START__
0000000043003b6c  w    F .ro	0000000000000030 plat_ic_get_pending_interrupt_type
0000000043001cc8 g     F .ro	000000000000007c cm_el1_sysregs_context_restore
000000004300297c g     F .ro	0000000000000028 psci_migrate_info_up_cpu
0000000043012000 g       .coherent_ram	0000000000000000 __BL31_END__
0000000043005c34 g     F .ro	0000000000000034 console_register
0000000043002724 g     F .ro	00000000000000f0 psci_cpu_suspend
0000000043012000 g       .coherent_ram	0000000000000000 __COHERENT_RAM_END__
0000000043006200 g     F .ro	0000000000000020 reset_handler
000000004300ae00 g     F .ro	0000000000000000 sync_exception_aarch32
0000000043006a08 g     F .ro	0000000000000008 zeromem
0000000043009aae g     O .ro	000000000000002e version_string
00000000430067f4 g     F .ro	0000000000000008 asm_print_newline
000000004300a4f0 g       .ro	0000000000000000 __pubsub_psci_suspend_pwrdown_finish_end
00000000430050ac g     F .ro	0000000000000068 mtk_antirollback_get_fit_ar_ver
00000000430024e0 g     F .ro	00000000000000f4 psci_validate_entry_point
0000000043005b50 g     F .ro	0000000000000004 print_entry_point_info
00000000430011a4 g     F .ro	0000000000000014 cm_get_context
0000000043002468 g     F .ro	0000000000000058 psci_release_pwr_domain_locks
00000000430058d0 g     F .ro	0000000000000038 plat_core_pos_by_mpidr
0000000043001fa4 g     F .ro	0000000000000028 psci_validate_power_state
000000004300b000 g       .ro	0000000000000000 __RW_START__
0000000043004018 g     F .ro	000000000000000c plat_cci_disable
0000000043001870 g     F .ro	0000000000000020 gicv2_cpuif_enable
0000000043004644 g     F .ro	000000000000000c is_mcdi_ready
00000000430034d4 g     F .ro	00000000000000a0 psci_cpu_suspend_finish
0000000043005e30 g     F .ro	0000000000000034 get_el_str
000000004300d000 g       .xlat_table	0000000000000000 __XLAT_TABLE_START__
0000000043004024 g     F .ro	0000000000000028 bl31_plat_get_next_image_ep_info
00000000430069e8 g     F .ro	0000000000000010 dcsw_op_level1
00000000430018f8 g     F .ro	0000000000000058 gicv2_distif_init
0000000043007138 g     F .ro	0000000000000034 memmove
000000004300cc54 g     O .bss	0000000000000080 rt_svc_descs_indices
0000000043001564 g     F .ro	0000000000000014 gicd_write_isenabler
0000000043005664 g     F .ro	000000000000001c plat_setup_psci_ops
000000004300aa00 g     F .ro	0000000000000000 sync_exception_sp_elx
0000000043001e30 g     F .ro	0000000000000008 cm_prepare_el3_exit_ns
000000004300a800 g     F .ro	0000000000000000 sync_exception_sp_el0
0000000043006598 g     F .ro	000000000000000c psci_power_down_wfi
0000000043003fd8 g     F .ro	0000000000000034 plat_cci_init
0000000043006564 g     F .ro	0000000000000034 psci_do_pwrup_cache_maintenance
0000000043002890 g     F .ro	0000000000000058 psci_affinity_info
0000000043005df8  w    F .ro	0000000000000030 plat_log_get_prefix
00000000430028e8 g     F .ro	000000000000007c psci_migrate
0000000043004674 g     F .ro	0000000000000018 set_suspend_ready
0000000043004f90 g     F .ro	0000000000000038 mtk_wdt_soft_reset
0000000043003b9c g     F .ro	0000000000000078 mtk_efuse_get_len
0000000043004ca0 g     F .ro	0000000000000040 spm_clear_hotplug
0000000043009a90 g     O .ro	000000000000001e build_message
0000000043003d6c g     F .ro	00000000000000cc mtk_efuse_write
0000000043006480 g     F .ro	0000000000000054 el3_exit
0000000043002fe0 g     F .ro	0000000000000334 psci_setup
00000000430036a8 g     F .ro	0000000000000084 init_xlat_tables
0000000043005e28  w    F .ro	0000000000000008 bl31_plat_runtime_setup
000000004300b000 g       .data	0000000000000000 __DATA_START__
0000000043011000 g     O .coherent_ram	0000000000000008 psci_locks
00000000430049f0 g     F .ro	00000000000000b8 spm_kick_im_to_fetch
0000000043006afc  w    F .ro	0000000000000004 plat_disable_acp
00000000430023c8 g     F .ro	0000000000000034 psci_find_target_suspend_lvl
0000000043004e0c g     F .ro	00000000000000a4 spm_mcdi_finish_for_on_state
0000000043004f28 g     F .ro	0000000000000034 spm_system_suspend_finish
00000000430015e0 g     F .ro	000000000000000c gicd_set_isenabler
0000000043002fc0 g     F .ro	0000000000000020 psci_arch_setup
00000000430062dc g     F .ro	0000000000000020 check_wa_cve_2017_5715
00000000430035ac g     F .ro	0000000000000038 psci_system_reset
000000004300164c g     F .ro	000000000000009c gicv2_spis_configure_defaults
0000000043005d90 g     F .ro	000000000000003c pmuv3_disable_el3
00000000430015ec g     F .ro	0000000000000014 gicd_set_ipriorityr
0000000043007118 g     F .ro	0000000000000020 memcpy
00000000430055b8 g     F .ro	0000000000000038 mtk_system_pwr_domain_resume
00000000430024c0 g     F .ro	0000000000000020 psci_validate_mpidr
0000000043002814 g     F .ro	0000000000000074 psci_system_suspend
000000004300ab80 g     F .ro	0000000000000000 serror_sp_elx
0000000043001c68 g     F .ro	0000000000000030 cm_init_context_by_index
00000000430048f8 g     F .ro	00000000000000a4 spm_get_wakeup_status
000000004300a880 g     F .ro	0000000000000000 irq_sp_el0
0000000043006a10 g     F .ro	00000000000000e8 zero_normalmem
00000000430021a0 g     F .ro	0000000000000048 psci_get_parent_pwr_domain_nodes
000000004300a4f0 g     O .ro	0000000000000008 __cb_func_spe_drain_buffers_hookcm_entering_secure_world
0000000043005e64  w    F .ro	0000000000000068 plat_ea_handler
000000004300198c g     F .ro	0000000000000018 gicv2_get_pending_interrupt_type
0000000043004510 g     F .ro	00000000000000d4 mtcmos_little_cpu_on
0000000043003574 g     F .ro	0000000000000038 psci_system_off
0000000043001578 g     F .ro	0000000000000014 gicd_write_icenabler
000000004300a4f8 g       .ro	0000000000000000 __pubsub_cm_exited_secure_world_end
0000000043003a7c g     F .ro	000000000000003c mmap_add
0000000043001114 g     F .ro	0000000000000090 bl31_warm_entrypoint
0000000043003fd0 g     F .ro	0000000000000008 plat_get_syscnt_freq2
0000000043006b00  w    F .ro	0000000000000008 plat_panic_handler
000000004300a3a0 g       .ro	0000000000000000 __RT_SVC_DESCS_START__
000000004300149c g     F .ro	0000000000000014 cci_init
000000004300c100 g       .stacks	0000000000000000 __STACKS_END__
000000004300a4f0 g       .ro	0000000000000000 __pubsub_psci_suspend_pwrdown_start_end
00000000430062fc g     F .ro	0000000000000020 check_smccc_arch_wa3_applies
0000000043006868 g     F .ro	0000000000000038 clean_dcache_range
0000000043006220 g     F .ro	0000000000000024 prepare_cpu_pwr_dwn
0000000043006430 g     F .ro	0000000000000050 restore_gp_pmcr_pauth_regs
00000000430025d4 g     F .ro	00000000000000c8 psci_warmboot_entrypoint
000000004300a4f8 g       .ro	0000000000000000 __pubsub_cm_exited_normal_world_start
00000000430065c0  w    F .ro	0000000000000010 plat_set_my_stack
00000000430011e4 g     F .ro	0000000000000030 cm_set_context_by_index
000000004300a400 g       .ro	0000000000000000 __RT_SVC_DESCS_END__
00000000430067c4 g     F .ro	0000000000000030 asm_print_hex
0000000043004134 g     F .ro	0000000000000040 bl31_plat_arch_setup
00000000430012a8 g     F .ro	0000000000000068 bl31_main
0000000043003990 g     F .ro	0000000000000004 print_mmap
000000004300c6b8 g     O .bss	0000000000000020 psci_cpu_pd_nodes
00000000430026c4 g     F .ro	0000000000000004 psci_pwrdown_cpu
00000000430067ac g     F .ro	0000000000000018 asm_print_str
0000000043006b08  w    F .ro	0000000000000004 bl31_plat_enable_mmu
0000000043004890 g     F .ro	0000000000000068 spm_set_wakeup_event
0000000043001afc g     F .ro	0000000000000004 cm_init
00000000430067a0 g     F .ro	000000000000000c plat_crash_console_flush
000000004300a800 g       .ro	0000000000000000 runtime_exceptions
00000000430014ec g     F .ro	000000000000003c cci_disable_snoop_dvm_reqs
000000004300a4f8 g       .ro	0000000000000000 __pubsub_cm_exited_secure_world_start
000000004300269c g     F .ro	0000000000000024 psci_spd_migrate_info
00000000430064e8 g     F .ro	0000000000000018 _cpu_data_by_index
00000000430026c0 g     F .ro	0000000000000004 psci_print_power_domain_map
000000004300b000 g       .ro	0000000000000000 __RO_END_UNALIGNED__
0000000043001000 g       .ro	0000000000000000 RAM_REGION_START
0000000043005680 g     F .ro	0000000000000028 plat_get_target_pwr_state
000000004300465c g     F .ro	0000000000000018 set_mcdi_ready
0000000043005c74 g     F .ro	000000000000009c console_putc
000000004300159c g     F .ro	0000000000000014 gicd_write_icfgr
0000000043006b10  w    F .ro	0000000000000004 plat_handle_el3_ea
0000000043001fe0 g     F .ro	0000000000000070 psci_is_last_on_cpu
0000000043006774 g     F .ro	0000000000000020 plat_crash_console_init
0000000043004650 g     F .ro	000000000000000c is_hotplug_ready
000000004300ae80 g     F .ro	0000000000000000 irq_aarch32
0000000043006830 g     F .ro	0000000000000038 flush_dcache_range
00000000430014b0 g     F .ro	000000000000003c cci_enable_snoop_dvm_reqs
00000000430045e4 g     F .ro	0000000000000048 mtcmos_non_cpu_ctrl
0000000043001a7c g     F .ro	000000000000000c timer_init
000000004300404c g     F .ro	0000000000000090 bl31_early_platform_setup2
0000000043005924 g     F .ro	0000000000000018 enable_scu
000000004300178c g     F .ro	00000000000000e4 gicv2_secure_ppi_sgi_setup_props
000000004300a400 g       .ro	0000000000000000 __PMF_SVC_DESCS_END__
00000000430065d0 g     F .ro	00000000000000b8 console_hsuart_init
0000000043004768 g     F .ro	0000000000000128 spm_set_power_control
000000004300b0f0 g       tzfw_coherent_mem	0000000000000000 __RELA_END__
000000004300b0f0 g       tzfw_coherent_mem	0000000000000000 __RELA_START__
0000000043012000 g       .coherent_ram	0000000000000000 RAM_REGION_END
0000000043003ca4 g     F .ro	00000000000000c8 mtk_efuse_read
000000004300a980 g     F .ro	0000000000000000 serror_sp_el0
00000000430019a4 g     F .ro	0000000000000064 gicv2_set_pe_target_mask
00000000430072b4 g     F .ro	0000000000000444 vprintf
0000000043001640 g     F .ro	000000000000000c gicv2_get_cpuif_id
0000000043005ecc g     F .ro	0000000000000004 report_unhandled_exception
0000000043002eec g     F .ro	00000000000000d4 psci_cpu_on_finish
00000000430069d4 g     F .ro	0000000000000014 dcsw_op_all
0000000043003c14 g     F .ro	0000000000000048 mtk_efuse_send_data
0000000043002888 g     F .ro	0000000000000008 psci_cpu_off
0000000043006708 g     F .ro	0000000000000058 console_hsuart_register
0000000043006af8  w    F .ro	0000000000000004 plat_reset_handler
00000000430037a8 g     F .ro	0000000000000004 enable_mmu_direct_el3
000000004300a4f8 g       .ro	0000000000000000 __pubsub_cm_entering_normal_world_end
0000000043006264 g     F .ro	0000000000000040 get_cpu_ops_ptr
0000000043001000 g     F .ro	0000000000000114 bl31_entrypoint
00000000430011b8 g     F .ro	000000000000002c cm_get_context_by_index
0000000043001c98 g     F .ro	0000000000000030 cm_init_my_context
000000004300ad80 g     F .ro	0000000000000000 serror_aarch64
00000000430064d4 g     F .ro	0000000000000014 init_cpu_data_ptr
0000000043003688 g     F .ro	000000000000000c xlat_arch_current_el
0000000043001890 g     F .ro	0000000000000020 gicv2_cpuif_disable
0000000043004ba0 g     F .ro	000000000000006c spm_clean_after_wakeup
000000004300153c g     F .ro	0000000000000014 gicd_read_icfgr
0000000043002c54 g     F .ro	0000000000000138 psci_do_cpu_off
000000004300cafc g     O .bss	0000000000000004 psci_caps
0000000043006ba4 g     F .ro	000000000000010c efuse_read
0000000043001310 g     F .ro	0000000000000008 handle_sysreg_trap
0000000043001b00 g     F .ro	0000000000000164 cm_setup_context
0000000043004abc g     F .ro	00000000000000e4 spm_kick_pcm_to_run
0000000043001000 g       .ro	0000000000000000 __BL31_START__
000000004300aa80 g     F .ro	0000000000000000 irq_sp_elx
000000004300cd00 g       .bss	0000000000000000 __PMF_PERCPU_TIMESTAMP_END__
000000004300a900 g     F .ro	0000000000000000 fiq_sp_el0
000000004300b0dd g       .data	0000000000000000 __DATA_END__
00000000430067c8 g       .ro	0000000000000000 asm_print_hex_bits
000000004300cd00 g       .bss	0000000000000000 __BASE_XLAT_TABLE_START__
0000000043003b4c  w    F .ro	0000000000000020 plat_arm_gic_init
000000004300a400 g       .ro	0000000000000000 __CPU_OPS_START__
0000000043001a08 g     F .ro	0000000000000068 udelay
0000000043004200 g     F .ro	00000000000000e4 pwrap_read
00000000430068a0 g     F .ro	0000000000000038 inv_dcache_range
0000000043005ed0 g     F .ro	000000000000006c handle_lower_el_sync_ea
0000000043002a64 g     F .ro	000000000000014c psci_smc_handler
000000004300590c g     F .ro	0000000000000018 disable_scu
0000000043001ab4 g     F .ro	0000000000000044 generic_delay_timer_init
0000000043003314 g     F .ro	00000000000001c0 psci_cpu_suspend_start
0000000043002050 g     F .ro	000000000000003c psci_init_req_local_pwr_states
000000004300a4f8 g       .ro	0000000000000000 __pubsub_cm_entering_secure_world_end
00000000430043e0 g     F .ro	000000000000004c rtc_bbpu_power_down
0000000043001a94 g     F .ro	0000000000000020 generic_delay_timer_init_args
000000004300211c g     F .ro	0000000000000084 psci_set_target_local_pwr_states
00000000430062a4 g     F .ro	0000000000000010 cpu_get_rev_var
0000000043002d8c g     F .ro	0000000000000160 psci_cpu_on_start
000000004300238c g     F .ro	000000000000003c psci_find_max_off_lvl
0000000043001600 g     F .ro	0000000000000040 gicd_set_icfgr
000000004301100c g     O .coherent_ram	0000000000000020 psci_non_cpu_pd_nodes
00000000430067fc g     F .ro	0000000000000004 elx_panic
000000004300cd00 g       .bss	0000000000000000 __BSS_END__
000000004300a4f0 g       .ro	0000000000000000 __CPU_OPS_END__
0000000043003ed8 g     F .ro	000000000000007c sip_smc_handler
0000000043006528 g     F .ro	000000000000003c psci_do_pwrdown_cache_maintenance
0000000043001d44 g     F .ro	0000000000000020 cm_set_next_eret_context
000000004300a4f0 g       .ro	0000000000000000 __pubsub_cm_entering_secure_world_start
00000000430026c8 g     F .ro	000000000000005c psci_cpu_on
0000000043003ab8 g     F .ro	0000000000000094 init_xlation_table
0000000043001234 g     F .ro	0000000000000074 bl31_prepare_next_image_entry
0000000043011000 g       .coherent_ram	0000000000000000 __COHERENT_RAM_START__
000000004300caf8 g     O .bss	0000000000000004 psci_plat_core_count
00000000430029fc g     F .ro	0000000000000068 psci_features
000000004300a4f0 g       .ro	0000000000000000 __GOT_END__
000000004300716c g     F .ro	0000000000000078 memset
000000004300a400 g       .ro	0000000000000000 __PARSER_LIB_DESCS_END__
000000004300208c g     F .ro	0000000000000090 psci_get_target_local_pwr_states
000000004300a4f8 g       .ro	0000000000000000 __pubsub_cm_exited_normal_world_end
0000000043011008 g     O .coherent_ram	0000000000000004 spm_lock
0000000043005dcc g     F .ro	000000000000002c pmuv3_init_el2_unused
000000004300c6d8 g     O .bss	0000000000000008 psci_plat_pm_ops
0000000043003e60 g     F .ro	0000000000000008 plat_get_soc_revision
00000000430042e4 g     F .ro	0000000000000094 pwrap_write
0000000043001220 g     F .ro	0000000000000014 bl31_setup
000000004300a4f0 g       .ro	0000000000000000 __pubsub_psci_suspend_pwrdown_start_start
00000000430056a8 g     F .ro	000000000000002c mt_sip_set_authorized_sreg
000000004300a4f0 g       .ro	0000000000000000 __GOT_START__
0000000043005114 g     F .ro	0000000000000100 mtk_antirollback_update_efuse_ar_ver
00000000430077f8 g     O .ro	0000000000000030 mt_gic_data
0000000043005be8 g     F .ro	0000000000000020 tf_log_newline
0000000043005f3c g     F .ro	0000000000000018 handle_lower_el_async_ea
0000000043001214 g     F .ro	000000000000000c get_arm_std_svc_args
000000004300a4f8 g       .ro	0000000000000000 __pubsub_cm_entering_normal_world_start
0000000000000000 g       *ABS*	0000000000000000 __PERCPU_TIMESTAMP_SIZE__
0000000043001e90 g     F .ro	00000000000000ac bakery_lock_get
0000000043005e64 g     F .ro	0000000000000068 plat_default_ea_handler
0000000043002bb0 g     F .ro	000000000000005c psci_mem_protect
000000004300471c g     F .ro	000000000000004c spm_init_pcm_register
000000004300a400 g       .ro	0000000000000000 __FCONF_POPULATOR_END__
0000000043001f3c g     F .ro	0000000000000034 bakery_lock_release
0000000043001348 g     F .ro	0000000000000024 get_interrupt_type_handler
0000000043003f54 g     F .ro	000000000000007c plat_configure_mmu_el3
00000000430058c4 g     F .ro	000000000000000c plat_get_power_domain_tree_desc
00000000430016e8 g     F .ro	00000000000000a4 gicv2_secure_spis_configure_props
0000000043005214 g     F .ro	000000000000000c plat_mt_gic_driver_init
000000004300158c g     F .ro	0000000000000010 gicd_write_ipriorityr
0000000043003e38 g     F .ro	0000000000000008 plat_get_spsr_for_bl33_entry
0000000043001c64 g     F .ro	0000000000000004 cm_manage_extensions_el3
00000000430029a4 g     F .ro	0000000000000058 psci_node_hw_state
000000004300cd00 g       .bss	0000000000000000 __BASE_XLAT_TABLE_END__
00000000430069f8 g     F .ro	0000000000000010 dcsw_op_level2
0000000043006244 g     F .ro	0000000000000020 init_cpu_ops
0000000043004f5c g     F .ro	0000000000000034 generic_timer_backup
0000000043005d38 g     F .ro	0000000000000054 console_flush
000000004300ab00 g     F .ro	0000000000000000 fiq_sp_elx
000000004300b000 g       .ro	0000000000000000 __RO_END__
000000004300ac00 g     F .ro	0000000000000000 sync_exception_aarch64
000000004300ad00 g     F .ro	0000000000000000 fiq_aarch64
000000004300a029 g     O .ro	0000000000000004 mtk_power_domain_tree_desc
0000000043001528 g     F .ro	0000000000000014 gicd_read_igroupr
0000000043005c68 g     F .ro	000000000000000c console_switch_state
0000000043001af8 g     F .ro	0000000000000004 print_errata_status
0000000043006520 g     F .ro	0000000000000008 spin_unlock
00000000430063c8 g     F .ro	0000000000000068 prepare_el3_entry
000000004300c100 g       .bss	0000000000000000 __BSS_START__
0000000043001000 g       .ro	0000000000000000 __RO_START__
0000000043004c0c g     F .ro	0000000000000094 spm_output_wake_reason
0000000043001e5c g     F .ro	0000000000000034 spe_enable
000000004300a400 g       .ro	0000000000000000 __PMF_SVC_DESCS_START__
0000000043006794 g     F .ro	000000000000000c plat_crash_console_putc
000000004300c100 g     O .bss	0000000000000080 percpu_data
00000000430062c8 g     F .ro	0000000000000014 cpu_rev_var_hs
0000000043006500 g     F .ro	0000000000000020 spin_lock
0000000043005c08 g     F .ro	000000000000002c console_is_registered
00000000430046a0 g     F .ro	000000000000007c spm_reset_and_init_pcm
0000000043001fcc g     F .ro	0000000000000014 psci_query_sys_suspend_pwrstate
0000000043005b54 g     F .ro	0000000000000094 tf_log
000000004300a4f0 g       .ro	0000000000000000 __pubsub_psci_cpu_on_finish_start
000000004300a400 g       .ro	0000000000000000 __FCONF_POPULATOR_START__
000000000001f000 g       *ABS*	0000000000000000 RAM_REGION_LENGTH
0000000043005908 g     F .ro	0000000000000004 trace_power_flow
00000000430062b4 g     F .ro	0000000000000014 cpu_rev_var_ls
0000000043001318 g     F .ro	0000000000000030 get_scr_el3_from_routing_model
0000000043004aa8 g     F .ro	0000000000000014 spm_set_sysclk_settle
0000000043006688 g     F .ro	0000000000000018 console_hsuart_core_getc
0000000043012000 g       .coherent_ram	0000000000000000 __RW_END__
00000000430056d4 g     F .ro	00000000000001f0 mediatek_plat_sip_handler
0000000043003694 g     F .ro	0000000000000014 xlat_arch_get_xn_desc
000000004301102c g       .coherent_ram	0000000000000000 __COHERENT_RAM_END_UNALIGNED__
00000000430040dc g     F .ro	0000000000000058 bl31_platform_setup
00000000430066a0 g     F .ro	0000000000000038 console_hsuart_core_putc
000000004300b100 g       .stacks	0000000000000000 __STACKS_START__
0000000043004638 g     F .ro	000000000000000c spm_lock_release
0000000043002274 g     F .ro	0000000000000118 psci_do_state_coordination
00000000430035e4 g     F .ro	00000000000000a4 psci_system_reset2
000000004300372c g     F .ro	000000000000007c enable_mmu_el3
0000000043003c5c g     F .ro	0000000000000048 mtk_efuse_get_data
000000004300af80 g     F .ro	0000000000000000 serror_aarch32
0000000043006b0c  w    F .ro	0000000000000004 plat_handle_double_fault
0000000043005d8c g     F .ro	0000000000000004 pmuv3_enable
000000004300cd00 g       .bss	0000000000000000 __PMF_TIMESTAMP_END__
000000004300a4f0 g       .ro	0000000000000000 __pubsub_psci_suspend_pwrdown_finish_start
0000000043011000 g       .xlat_table	0000000000000000 __XLAT_TABLE_END__
0000000043006760 g     F .ro	0000000000000014 plat_my_core_pos
0000000043001950 g     F .ro	000000000000003c gicv2_driver_init
0000000043005220 g     F .ro	0000000000000054 plat_mt_gic_init
000000004300136c g     F .ro	0000000000000130 runtime_svc_init
000000004300ca10 g     O .bss	0000000000000008 mtk_ar_table
000000004300cc30 g     O .bss	0000000000000004 spm_wake_reason
00000000430018b0 g     F .ro	0000000000000048 gicv2_pcpu_distif_init
000000004300ac80 g     F .ro	0000000000000000 irq_aarch64
0000000043002964 g     F .ro	0000000000000018 psci_migrate_info_type
000000004300499c g     F .ro	0000000000000054 spm_init_event_vector
0000000043003e54 g     F .ro	000000000000000c plat_get_soc_version
0000000043007708 g     O .ro	0000000000000080 plat_mmap
0000000043002c0c g     F .ro	0000000000000048 psci_mem_chk_range
0000000043006800 g     F .ro	0000000000000030 el3_panic
00000000430015b0 g     F .ro	0000000000000030 gicd_clr_igroupr
000000004300400c g     F .ro	000000000000000c plat_cci_enable
00000000430023fc g     F .ro	000000000000006c psci_acquire_pwr_domain_locks
000000004300a4f0 g       .ro	0000000000000000 __pubsub_psci_cpu_on_finish_end
000000004300631c g     F .ro	00000000000000ac el1_sysregs_context_restore
000000004300caf0 g     O .bss	0000000000000008 console_list
00000000430021e8 g     F .ro	000000000000008c psci_set_pwr_domains_to_run
0000000043001550 g     F .ro	0000000000000014 gicd_write_igroupr
0000000043005ecc g       .ro	0000000000000000 report_unhandled_interrupt
0000000043006cb0 g     F .ro	0000000000000468 efuse_write
000000004300462c g     F .ro	000000000000000c spm_lock_get
000000004300af00 g     F .ro	0000000000000000 fiq_aarch32
00000000430065a4  w    F .ro	000000000000001c plat_get_my_stack
0000000043003994 g     F .ro	00000000000000e8 mmap_add_region
000000004300a400 g       .ro	0000000000000000 __PARSER_LIB_DESCS_START__
000000004300c6e0 g     O .bss	0000000000000008 psci_spd_pm
0000000043004eb0 g     F .ro	0000000000000078 spm_system_suspend



Disassembly of section .ro:

0000000043001000 <bl31_entrypoint>:
    43001000:	aa0003f4 	mov	x20, x0
    43001004:	aa0103f5 	mov	x21, x1
    43001008:	aa0203f6 	mov	x22, x2
    4300100c:	aa0303f7 	mov	x23, x3
    43001010:	1004bf80 	adr	x0, 4300a800 <sync_exception_sp_el0>
    43001014:	d51ec000 	msr	vbar_el3, x0
    43001018:	d5033fdf 	isb
    4300101c:	94001479 	bl	43006200 <reset_handler>
    43001020:	d2820141 	mov	x1, #0x100a                	// #4106
    43001024:	d53e1000 	mrs	x0, sctlr_el3
    43001028:	aa010000 	orr	x0, x0, x1
    4300102c:	d51e1000 	msr	sctlr_el3, x0
    43001030:	d5033fdf 	isb
    43001034:	94001528 	bl	430064d4 <init_cpu_data_ptr>
    43001038:	d2804700 	mov	x0, #0x238                 	// #568
    4300103c:	d51e1100 	msr	scr_el3, x0
    43001040:	d2900000 	mov	x0, #0x8000                	// #32768
    43001044:	f2a20020 	movk	x0, #0x1001, lsl #16
    43001048:	d5380501 	mrs	x1, id_aa64dfr0_el1
    4300104c:	d368ac21 	ubfx	x1, x1, #40, #4
    43001050:	b4000041 	cbz	x1, 43001058 <bl31_entrypoint+0x58>
    43001054:	b26d0000 	orr	x0, x0, #0x80000
    43001058:	d51e1320 	msr	mdcr_el3, x0
    4300105c:	d50344ff 	msr	daifclr, #0x4
    43001060:	d2a80000 	mov	x0, #0x40000000            	// #1073741824
    43001064:	d5380501 	mrs	x1, id_aa64dfr0_el1
    43001068:	d3441c21 	ubfx	x1, x1, #4, #4
    4300106c:	b4000041 	cbz	x1, 43001074 <bl31_entrypoint+0x74>
    43001070:	b26c0000 	orr	x0, x0, #0x100000
    43001074:	d51e1140 	msr	cptr_el3, x0
    43001078:	d0000040 	adrp	x0, 4300b000 <__RO_END_UNALIGNED__>
    4300107c:	91000000 	add	x0, x0, #0x0
    43001080:	b0000081 	adrp	x1, 43012000 <RAM_REGION_END>
    43001084:	91000021 	add	x1, x1, #0x0
    43001088:	cb000021 	sub	x1, x1, x0
    4300108c:	94001605 	bl	430068a0 <inv_dcache_range>
    43001090:	f0000040 	adrp	x0, 4300c000 <__STACKS_START__+0xf00>
    43001094:	91040000 	add	x0, x0, #0x100
    43001098:	f0000041 	adrp	x1, 4300c000 <__STACKS_START__+0xf00>
    4300109c:	91340021 	add	x1, x1, #0xd00
    430010a0:	cb000021 	sub	x1, x1, x0
    430010a4:	94001659 	bl	43006a08 <zeromem>
    430010a8:	90000080 	adrp	x0, 43011000 <psci_locks>
    430010ac:	91000000 	add	x0, x0, #0x0
    430010b0:	90000081 	adrp	x1, 43011000 <psci_locks>
    430010b4:	9100b021 	add	x1, x1, #0x2c
    430010b8:	cb000021 	sub	x1, x1, x0
    430010bc:	94001653 	bl	43006a08 <zeromem>
    430010c0:	d50040bf 	msr	spsel, #0x0
    430010c4:	9400153f 	bl	430065c0 <plat_set_my_stack>
    430010c8:	aa1403e0 	mov	x0, x20
    430010cc:	aa1503e1 	mov	x1, x21
    430010d0:	aa1603e2 	mov	x2, x22
    430010d4:	aa1703e3 	mov	x3, x23
    430010d8:	94000052 	bl	43001220 <bl31_setup>
    430010dc:	94000073 	bl	430012a8 <bl31_main>
    430010e0:	d0000040 	adrp	x0, 4300b000 <__RO_END_UNALIGNED__>
    430010e4:	91000000 	add	x0, x0, #0x0
    430010e8:	d0000041 	adrp	x1, 4300b000 <__RO_END_UNALIGNED__>
    430010ec:	91037421 	add	x1, x1, #0xdd
    430010f0:	cb000021 	sub	x1, x1, x0
    430010f4:	940015dd 	bl	43006868 <clean_dcache_range>
    430010f8:	f0000040 	adrp	x0, 4300c000 <__STACKS_START__+0xf00>
    430010fc:	91040000 	add	x0, x0, #0x100
    43001100:	f0000041 	adrp	x1, 4300c000 <__STACKS_START__+0xf00>
    43001104:	91340021 	add	x1, x1, #0xd00
    43001108:	cb000021 	sub	x1, x1, x0
    4300110c:	940015d7 	bl	43006868 <clean_dcache_range>
    43001110:	140014dc 	b	43006480 <el3_exit>

0000000043001114 <bl31_warm_entrypoint>:
    43001114:	d2810600 	mov	x0, #0x830                 	// #2096
    43001118:	f2a618a0 	movk	x0, #0x30c5, lsl #16
    4300111c:	d51e1000 	msr	sctlr_el3, x0
    43001120:	d5033fdf 	isb
    43001124:	1004b6e0 	adr	x0, 4300a800 <sync_exception_sp_el0>
    43001128:	d51ec000 	msr	vbar_el3, x0
    4300112c:	d5033fdf 	isb
    43001130:	94001434 	bl	43006200 <reset_handler>
    43001134:	d2820141 	mov	x1, #0x100a                	// #4106
    43001138:	d53e1000 	mrs	x0, sctlr_el3
    4300113c:	aa010000 	orr	x0, x0, x1
    43001140:	d51e1000 	msr	sctlr_el3, x0
    43001144:	d5033fdf 	isb
    43001148:	940014e3 	bl	430064d4 <init_cpu_data_ptr>
    4300114c:	d2804700 	mov	x0, #0x238                 	// #568
    43001150:	d51e1100 	msr	scr_el3, x0
    43001154:	d2900000 	mov	x0, #0x8000                	// #32768
    43001158:	f2a20020 	movk	x0, #0x1001, lsl #16
    4300115c:	d5380501 	mrs	x1, id_aa64dfr0_el1
    43001160:	d368ac21 	ubfx	x1, x1, #40, #4
    43001164:	b4000041 	cbz	x1, 4300116c <bl31_warm_entrypoint+0x58>
    43001168:	b26d0000 	orr	x0, x0, #0x80000
    4300116c:	d51e1320 	msr	mdcr_el3, x0
    43001170:	d50344ff 	msr	daifclr, #0x4
    43001174:	d2a80000 	mov	x0, #0x40000000            	// #1073741824
    43001178:	d5380501 	mrs	x1, id_aa64dfr0_el1
    4300117c:	d3441c21 	ubfx	x1, x1, #4, #4
    43001180:	b4000041 	cbz	x1, 43001188 <bl31_warm_entrypoint+0x74>
    43001184:	b26c0000 	orr	x0, x0, #0x100000
    43001188:	d51e1140 	msr	cptr_el3, x0
    4300118c:	d50040bf 	msr	spsel, #0x0
    43001190:	9400150c 	bl	430065c0 <plat_set_my_stack>
    43001194:	d2800020 	mov	x0, #0x1                   	// #1
    43001198:	9400165c 	bl	43006b08 <bl31_plat_enable_mmu>
    4300119c:	9400050e 	bl	430025d4 <psci_warmboot_entrypoint>
    430011a0:	140014b8 	b	43006480 <el3_exit>

00000000430011a4 <cm_get_context>:
    430011a4:	d53ed041 	mrs	x1, tpidr_el3
    430011a8:	7100001f 	cmp	w0, #0x0
    430011ac:	9a9f07e0 	cset	x0, ne  // ne = any
    430011b0:	f8607820 	ldr	x0, [x1, x0, lsl #3]
    430011b4:	d65f03c0 	ret

00000000430011b8 <cm_get_context_by_index>:
    430011b8:	a9be7bfd 	stp	x29, x30, [sp, #-32]!
    430011bc:	910003fd 	mov	x29, sp
    430011c0:	f9000bf3 	str	x19, [sp, #16]
    430011c4:	2a0103f3 	mov	w19, w1
    430011c8:	940014c8 	bl	430064e8 <_cpu_data_by_index>
    430011cc:	7100027f 	cmp	w19, #0x0
    430011d0:	9a9f07e1 	cset	x1, ne  // ne = any
    430011d4:	f9400bf3 	ldr	x19, [sp, #16]
    430011d8:	a8c27bfd 	ldp	x29, x30, [sp], #32
    430011dc:	f8617800 	ldr	x0, [x0, x1, lsl #3]
    430011e0:	d65f03c0 	ret

00000000430011e4 <cm_set_context_by_index>:
    430011e4:	a9be7bfd 	stp	x29, x30, [sp, #-32]!
    430011e8:	910003fd 	mov	x29, sp
    430011ec:	a90153f3 	stp	x19, x20, [sp, #16]
    430011f0:	aa0103f3 	mov	x19, x1
    430011f4:	2a0203f4 	mov	w20, w2
    430011f8:	940014bc 	bl	430064e8 <_cpu_data_by_index>
    430011fc:	7100029f 	cmp	w20, #0x0
    43001200:	9a9f07e1 	cset	x1, ne  // ne = any
    43001204:	f8217813 	str	x19, [x0, x1, lsl #3]
    43001208:	a94153f3 	ldp	x19, x20, [sp, #16]
    4300120c:	a8c27bfd 	ldp	x29, x30, [sp], #32
    43001210:	d65f03c0 	ret

0000000043001214 <get_arm_std_svc_args>:
    43001214:	d0000020 	adrp	x0, 43007000 <efuse_write+0x350>
    43001218:	911be000 	add	x0, x0, #0x6f8
    4300121c:	d65f03c0 	ret

0000000043001220 <bl31_setup>:
    43001220:	a9bf7bfd 	stp	x29, x30, [sp, #-16]!
    43001224:	910003fd 	mov	x29, sp
    43001228:	94000b89 	bl	4300404c <bl31_early_platform_setup2>
    4300122c:	a8c17bfd 	ldp	x29, x30, [sp], #16
    43001230:	14000bc1 	b	43004134 <bl31_plat_arch_setup>

0000000043001234 <bl31_prepare_next_image_entry>:
    43001234:	a9be7bfd 	stp	x29, x30, [sp, #-32]!
    43001238:	d5380400 	mrs	x0, id_aa64pfr0_el1
    4300123c:	910003fd 	mov	x29, sp
    43001240:	d3441c00 	ubfx	x0, x0, #4, #4
    43001244:	a90153f3 	stp	x19, x20, [sp, #16]
    43001248:	f100041f 	cmp	x0, #0x1
    4300124c:	540000c1 	b.ne	43001264 <bl31_prepare_next_image_entry+0x30>  // b.any
    43001250:	90000040 	adrp	x0, 43009000 <suspend_binary_ca7+0x2e0>
    43001254:	912b7000 	add	x0, x0, #0xadc
    43001258:	9400123f 	bl	43005b54 <tf_log>
    4300125c:	940012b7 	bl	43005d38 <console_flush>
    43001260:	94001568 	bl	43006800 <el3_panic>
    43001264:	d0000040 	adrp	x0, 4300b000 <__RO_END_UNALIGNED__>
    43001268:	b9400013 	ldr	w19, [x0]
    4300126c:	2a1303e0 	mov	w0, w19
    43001270:	94000b6d 	bl	43004024 <bl31_plat_get_next_image_ep_info>
    43001274:	aa0003f4 	mov	x20, x0
    43001278:	94001236 	bl	43005b50 <print_entry_point_info>
    4300127c:	aa1403e0 	mov	x0, x20
    43001280:	94000286 	bl	43001c98 <cm_init_my_context>
    43001284:	7100067f 	cmp	w19, #0x1
    43001288:	54000081 	b.ne	43001298 <bl31_prepare_next_image_entry+0x64>  // b.any
    4300128c:	a94153f3 	ldp	x19, x20, [sp, #16]
    43001290:	a8c27bfd 	ldp	x29, x30, [sp], #32
    43001294:	140002e7 	b	43001e30 <cm_prepare_el3_exit_ns>
    43001298:	2a1303e0 	mov	w0, w19
    4300129c:	a94153f3 	ldp	x19, x20, [sp, #16]
    430012a0:	a8c27bfd 	ldp	x29, x30, [sp], #32
    430012a4:	140002b0 	b	43001d64 <cm_prepare_el3_exit>

00000000430012a8 <bl31_main>:
    430012a8:	a9be7bfd 	stp	x29, x30, [sp, #-32]!
    430012ac:	910003fd 	mov	x29, sp
    430012b0:	f9000bf3 	str	x19, [sp, #16]
    430012b4:	9400026c 	bl	43001c64 <cm_manage_extensions_el3>
    430012b8:	90000053 	adrp	x19, 43009000 <suspend_binary_ca7+0x2e0>
    430012bc:	912cb273 	add	x19, x19, #0xb2c
    430012c0:	aa1303e0 	mov	x0, x19
    430012c4:	90000041 	adrp	x1, 43009000 <suspend_binary_ca7+0x2e0>
    430012c8:	912ab821 	add	x1, x1, #0xaae
    430012cc:	94001222 	bl	43005b54 <tf_log>
    430012d0:	aa1303e0 	mov	x0, x19
    430012d4:	90000041 	adrp	x1, 43009000 <suspend_binary_ca7+0x2e0>
    430012d8:	912a4021 	add	x1, x1, #0xa90
    430012dc:	9400121e 	bl	43005b54 <tf_log>
    430012e0:	94000b7f 	bl	430040dc <bl31_platform_setup>
    430012e4:	94000206 	bl	43001afc <cm_init>
    430012e8:	94000021 	bl	4300136c <runtime_svc_init>
    430012ec:	f0000040 	adrp	x0, 4300c000 <__STACKS_START__+0xf00>
    430012f0:	f9431000 	ldr	x0, [x0, #1568]
    430012f4:	b4000040 	cbz	x0, 430012fc <bl31_main+0x54>
    430012f8:	d63f0000 	blr	x0
    430012fc:	97ffffce 	bl	43001234 <bl31_prepare_next_image_entry>
    43001300:	9400128e 	bl	43005d38 <console_flush>
    43001304:	f9400bf3 	ldr	x19, [sp, #16]
    43001308:	a8c27bfd 	ldp	x29, x30, [sp], #32
    4300130c:	140012c7 	b	43005e28 <bl31_plat_runtime_setup>

0000000043001310 <handle_sysreg_trap>:
    43001310:	12800000 	mov	w0, #0xffffffff            	// #-1
    43001314:	d65f03c0 	ret

0000000043001318 <get_scr_el3_from_routing_model>:
    43001318:	f0000041 	adrp	x1, 4300c000 <__STACKS_START__+0xf00>
    4300131c:	9118a022 	add	x2, x1, #0x628
    43001320:	2a0003e1 	mov	w1, w0
    43001324:	8b010c40 	add	x0, x2, x1, lsl #3
    43001328:	8b010c43 	add	x3, x2, x1, lsl #3
    4300132c:	8b010c41 	add	x1, x2, x1, lsl #3
    43001330:	f9400463 	ldr	x3, [x3, #8]
    43001334:	f9402400 	ldr	x0, [x0, #72]
    43001338:	f9401421 	ldr	x1, [x1, #40]
    4300133c:	aa030000 	orr	x0, x0, x3
    43001340:	aa010000 	orr	x0, x0, x1
    43001344:	d65f03c0 	ret

0000000043001348 <get_interrupt_type_handler>:
    43001348:	7100081f 	cmp	w0, #0x2
    4300134c:	540000c8 	b.hi	43001364 <get_interrupt_type_handler+0x1c>  // b.pmore
    43001350:	d37b7c00 	ubfiz	x0, x0, #5, #32
    43001354:	f0000041 	adrp	x1, 4300c000 <__STACKS_START__+0xf00>
    43001358:	9118a021 	add	x1, x1, #0x628
    4300135c:	f8606820 	ldr	x0, [x1, x0]
    43001360:	d65f03c0 	ret
    43001364:	d2800000 	mov	x0, #0x0                   	// #0
    43001368:	17fffffe 	b	43001360 <get_interrupt_type_handler+0x18>

000000004300136c <runtime_svc_init>:
    4300136c:	a9bb7bfd 	stp	x29, x30, [sp, #-80]!
    43001370:	910003fd 	mov	x29, sp
    43001374:	a90153f3 	stp	x19, x20, [sp, #16]
    43001378:	b0000053 	adrp	x19, 4300a000 <__func__.7+0x8a>
    4300137c:	91100273 	add	x19, x19, #0x400
    43001380:	a9025bf5 	stp	x21, x22, [sp, #32]
    43001384:	b0000056 	adrp	x22, 4300a000 <__func__.7+0x8a>
    43001388:	910e82d6 	add	x22, x22, #0x3a0
    4300138c:	cb160273 	sub	x19, x19, x22
    43001390:	a90363f7 	stp	x23, x24, [sp, #48]
    43001394:	f90023f9 	str	x25, [sp, #64]
    43001398:	f1007e7f 	cmp	x19, #0x1f
    4300139c:	540001a9 	b.ls	430013d0 <runtime_svc_init+0x64>  // b.plast
    430013a0:	90000058 	adrp	x24, 43009000 <suspend_binary_ca7+0x2e0>
    430013a4:	d345fe73 	lsr	x19, x19, #5
    430013a8:	912d7f18 	add	x24, x24, #0xb5f
    430013ac:	52800015 	mov	w21, #0x0                   	// #0
    430013b0:	f0000057 	adrp	x23, 4300c000 <__STACKS_START__+0xf00>
    430013b4:	913152f7 	add	x23, x23, #0xc54
    430013b8:	aa1703e0 	mov	x0, x23
    430013bc:	d2801002 	mov	x2, #0x80                  	// #128
    430013c0:	12800001 	mov	w1, #0xffffffff            	// #-1
    430013c4:	9400176a 	bl	4300716c <memset>
    430013c8:	eb35027f 	cmp	x19, w21, uxtb
    430013cc:	540000e8 	b.hi	430013e8 <runtime_svc_init+0x7c>  // b.pmore
    430013d0:	a94153f3 	ldp	x19, x20, [sp, #16]
    430013d4:	a9425bf5 	ldp	x21, x22, [sp, #32]
    430013d8:	a94363f7 	ldp	x23, x24, [sp, #48]
    430013dc:	f94023f9 	ldr	x25, [sp, #64]
    430013e0:	a8c57bfd 	ldp	x29, x30, [sp], #80
    430013e4:	d65f03c0 	ret
    430013e8:	d37b1eb9 	ubfiz	x25, x21, #5, #8
    430013ec:	8b1902d4 	add	x20, x22, x25
    430013f0:	38796ac1 	ldrb	w1, [x22, x25]
    430013f4:	39400680 	ldrb	w0, [x20, #1]
    430013f8:	6b00003f 	cmp	w1, w0
    430013fc:	54000148 	b.hi	43001424 <runtime_svc_init+0xb8>  // b.pmore
    43001400:	7100fc1f 	cmp	w0, #0x3f
    43001404:	54000108 	b.hi	43001424 <runtime_svc_init+0xb8>  // b.pmore
    43001408:	39400a80 	ldrb	w0, [x20, #2]
    4300140c:	7100041f 	cmp	w0, #0x1
    43001410:	540000a8 	b.hi	43001424 <runtime_svc_init+0xb8>  // b.pmore
    43001414:	f9400a80 	ldr	x0, [x20, #16]
    43001418:	b5000120 	cbnz	x0, 4300143c <runtime_svc_init+0xd0>
    4300141c:	f9400e80 	ldr	x0, [x20, #24]
    43001420:	b50001e0 	cbnz	x0, 4300145c <runtime_svc_init+0xf0>
    43001424:	aa1403e1 	mov	x1, x20
    43001428:	90000040 	adrp	x0, 43009000 <suspend_binary_ca7+0x2e0>
    4300142c:	912cdc00 	add	x0, x0, #0xb37
    43001430:	940011c9 	bl	43005b54 <tf_log>
    43001434:	94001241 	bl	43005d38 <console_flush>
    43001438:	940014f2 	bl	43006800 <el3_panic>
    4300143c:	d63f0000 	blr	x0
    43001440:	340000e0 	cbz	w0, 4300145c <runtime_svc_init+0xf0>
    43001444:	f9400681 	ldr	x1, [x20, #8]
    43001448:	aa1803e0 	mov	x0, x24
    4300144c:	940011c2 	bl	43005b54 <tf_log>
    43001450:	110006b5 	add	w21, w21, #0x1
    43001454:	12001eb5 	and	w21, w21, #0xff
    43001458:	17ffffdc 	b	430013c8 <runtime_svc_init+0x5c>
    4300145c:	39400a81 	ldrb	w1, [x20, #2]
    43001460:	38796ac2 	ldrb	w2, [x22, x25]
    43001464:	531a0023 	ubfiz	w3, w1, #6, #1
    43001468:	39400681 	ldrb	w1, [x20, #1]
    4300146c:	12001442 	and	w2, w2, #0x3f
    43001470:	2a030040 	orr	w0, w2, w3
    43001474:	12001421 	and	w1, w1, #0x3f
    43001478:	2a0003e2 	mov	w2, w0
    4300147c:	2a030021 	orr	w1, w1, w3
    43001480:	8b0002e0 	add	x0, x23, x0
    43001484:	6b01005f 	cmp	w2, w1
    43001488:	54fffe48 	b.hi	43001450 <runtime_svc_init+0xe4>  // b.pmore
    4300148c:	11000442 	add	w2, w2, #0x1
    43001490:	38001415 	strb	w21, [x0], #1
    43001494:	12001c42 	and	w2, w2, #0xff
    43001498:	17fffffb 	b	43001484 <runtime_svc_init+0x118>

000000004300149c <cci_init>:
    4300149c:	f0000042 	adrp	x2, 4300c000 <__STACKS_START__+0xf00>
    430014a0:	f9034440 	str	x0, [x2, #1672]
    430014a4:	f0000040 	adrp	x0, 4300c000 <__STACKS_START__+0xf00>
    430014a8:	f9034801 	str	x1, [x0, #1680]
    430014ac:	d65f03c0 	ret

00000000430014b0 <cci_enable_snoop_dvm_reqs>:
    430014b0:	f0000041 	adrp	x1, 4300c000 <__STACKS_START__+0xf00>
    430014b4:	52800063 	mov	w3, #0x3                   	// #3
    430014b8:	f9434821 	ldr	x1, [x1, #1680]
    430014bc:	b8a05820 	ldrsw	x0, [x1, w0, uxtw #2]
    430014c0:	f0000041 	adrp	x1, 4300c000 <__STACKS_START__+0xf00>
    430014c4:	91000400 	add	x0, x0, #0x1
    430014c8:	f9434422 	ldr	x2, [x1, #1672]
    430014cc:	d374cc00 	lsl	x0, x0, #12
    430014d0:	b8226803 	str	w3, [x0, x2]
    430014d4:	d5033b9f 	dsb	ish
    430014d8:	f9434420 	ldr	x0, [x1, #1672]
    430014dc:	91003000 	add	x0, x0, #0xc
    430014e0:	b9400001 	ldr	w1, [x0]
    430014e4:	3707ffe1 	tbnz	w1, #0, 430014e0 <cci_enable_snoop_dvm_reqs+0x30>
    430014e8:	d65f03c0 	ret

00000000430014ec <cci_disable_snoop_dvm_reqs>:
    430014ec:	f0000041 	adrp	x1, 4300c000 <__STACKS_START__+0xf00>
    430014f0:	12800063 	mov	w3, #0xfffffffc            	// #-4
    430014f4:	f9434821 	ldr	x1, [x1, #1680]
    430014f8:	b8a05820 	ldrsw	x0, [x1, w0, uxtw #2]
    430014fc:	f0000041 	adrp	x1, 4300c000 <__STACKS_START__+0xf00>
    43001500:	91000400 	add	x0, x0, #0x1
    43001504:	f9434422 	ldr	x2, [x1, #1672]
    43001508:	d374cc00 	lsl	x0, x0, #12
    4300150c:	b8226803 	str	w3, [x0, x2]
    43001510:	d5033b9f 	dsb	ish
    43001514:	f9434420 	ldr	x0, [x1, #1672]
    43001518:	91003000 	add	x0, x0, #0xc
    4300151c:	b9400001 	ldr	w1, [x0]
    43001520:	3707ffe1 	tbnz	w1, #0, 4300151c <cci_disable_snoop_dvm_reqs+0x30>
    43001524:	d65f03c0 	ret

0000000043001528 <gicd_read_igroupr>:
    43001528:	53057c21 	lsr	w1, w1, #5
    4300152c:	91020000 	add	x0, x0, #0x80
    43001530:	d37e6821 	ubfiz	x1, x1, #2, #27
    43001534:	b8606820 	ldr	w0, [x1, x0]
    43001538:	d65f03c0 	ret

000000004300153c <gicd_read_icfgr>:
    4300153c:	53047c21 	lsr	w1, w1, #4
    43001540:	91300000 	add	x0, x0, #0xc00
    43001544:	d37e6c21 	ubfiz	x1, x1, #2, #28
    43001548:	b8606820 	ldr	w0, [x1, x0]
    4300154c:	d65f03c0 	ret

0000000043001550 <gicd_write_igroupr>:
    43001550:	53057c21 	lsr	w1, w1, #5
    43001554:	91020000 	add	x0, x0, #0x80
    43001558:	d37e6821 	ubfiz	x1, x1, #2, #27
    4300155c:	b8206822 	str	w2, [x1, x0]
    43001560:	d65f03c0 	ret

0000000043001564 <gicd_write_isenabler>:
    43001564:	53057c21 	lsr	w1, w1, #5
    43001568:	91040000 	add	x0, x0, #0x100
    4300156c:	d37e6821 	ubfiz	x1, x1, #2, #27
    43001570:	b8206822 	str	w2, [x1, x0]
    43001574:	d65f03c0 	ret

0000000043001578 <gicd_write_icenabler>:
    43001578:	53057c21 	lsr	w1, w1, #5
    4300157c:	91060000 	add	x0, x0, #0x180
    43001580:	d37e6821 	ubfiz	x1, x1, #2, #27
    43001584:	b8206822 	str	w2, [x1, x0]
    43001588:	d65f03c0 	ret

000000004300158c <gicd_write_ipriorityr>:
    4300158c:	927e7421 	and	x1, x1, #0xfffffffc
    43001590:	91100000 	add	x0, x0, #0x400
    43001594:	b8206822 	str	w2, [x1, x0]
    43001598:	d65f03c0 	ret

000000004300159c <gicd_write_icfgr>:
    4300159c:	53047c21 	lsr	w1, w1, #4
    430015a0:	91300000 	add	x0, x0, #0xc00
    430015a4:	d37e6c21 	ubfiz	x1, x1, #2, #28
    430015a8:	b8206822 	str	w2, [x1, x0]
    430015ac:	d65f03c0 	ret

00000000430015b0 <gicd_clr_igroupr>:
    430015b0:	a9bf7bfd 	stp	x29, x30, [sp, #-16]!
    430015b4:	2a0103e3 	mov	w3, w1
    430015b8:	aa0003e4 	mov	x4, x0
    430015bc:	910003fd 	mov	x29, sp
    430015c0:	97ffffda 	bl	43001528 <gicd_read_igroupr>
    430015c4:	a8c17bfd 	ldp	x29, x30, [sp], #16
    430015c8:	52800021 	mov	w1, #0x1                   	// #1
    430015cc:	1ac32021 	lsl	w1, w1, w3
    430015d0:	0a210002 	bic	w2, w0, w1
    430015d4:	2a0303e1 	mov	w1, w3
    430015d8:	aa0403e0 	mov	x0, x4
    430015dc:	17ffffdd 	b	43001550 <gicd_write_igroupr>

00000000430015e0 <gicd_set_isenabler>:
    430015e0:	52800022 	mov	w2, #0x1                   	// #1
    430015e4:	1ac12042 	lsl	w2, w2, w1
    430015e8:	17ffffdf 	b	43001564 <gicd_write_isenabler>

00000000430015ec <gicd_set_ipriorityr>:
    430015ec:	91100000 	add	x0, x0, #0x400
    430015f0:	2a0103e1 	mov	w1, w1
    430015f4:	12001c42 	and	w2, w2, #0xff
    430015f8:	38216802 	strb	w2, [x0, x1]
    430015fc:	d65f03c0 	ret

0000000043001600 <gicd_set_icfgr>:
    43001600:	a9bf7bfd 	stp	x29, x30, [sp, #-16]!
    43001604:	531f0c26 	ubfiz	w6, w1, #1, #4
    43001608:	aa0003e5 	mov	x5, x0
    4300160c:	910003fd 	mov	x29, sp
    43001610:	2a0103e4 	mov	w4, w1
    43001614:	97ffffca 	bl	4300153c <gicd_read_icfgr>
    43001618:	a8c17bfd 	ldp	x29, x30, [sp], #16
    4300161c:	12000442 	and	w2, w2, #0x3
    43001620:	52800063 	mov	w3, #0x3                   	// #3
    43001624:	2a0403e1 	mov	w1, w4
    43001628:	1ac62063 	lsl	w3, w3, w6
    4300162c:	0a230003 	bic	w3, w0, w3
    43001630:	1ac62042 	lsl	w2, w2, w6
    43001634:	aa0503e0 	mov	x0, x5
    43001638:	2a030042 	orr	w2, w2, w3
    4300163c:	17ffffd8 	b	4300159c <gicd_write_icfgr>

0000000043001640 <gicv2_get_cpuif_id>:
    43001640:	b9480000 	ldr	w0, [x0, #2048]
    43001644:	12001c00 	and	w0, w0, #0xff
    43001648:	d65f03c0 	ret

000000004300164c <gicv2_spis_configure_defaults>:
    4300164c:	a9bd7bfd 	stp	x29, x30, [sp, #-48]!
    43001650:	910003fd 	mov	x29, sp
    43001654:	a90153f3 	stp	x19, x20, [sp, #16]
    43001658:	aa0003f4 	mov	x20, x0
    4300165c:	b9400413 	ldr	w19, [x0, #4]
    43001660:	f90013f5 	str	x21, [sp, #32]
    43001664:	52800415 	mov	w21, #0x20                  	// #32
    43001668:	531b1273 	ubfiz	w19, w19, #5, #5
    4300166c:	11008273 	add	w19, w19, #0x20
    43001670:	6b1302bf 	cmp	w21, w19
    43001674:	54000163 	b.cc	430016a0 <gicv2_spis_configure_defaults+0x54>  // b.lo, b.ul, b.last
    43001678:	52800415 	mov	w21, #0x20                  	// #32
    4300167c:	6b1302bf 	cmp	w21, w19
    43001680:	540001c3 	b.cc	430016b8 <gicv2_spis_configure_defaults+0x6c>  // b.lo, b.ul, b.last
    43001684:	52800415 	mov	w21, #0x20                  	// #32
    43001688:	6b1302bf 	cmp	w21, w19
    4300168c:	54000223 	b.cc	430016d0 <gicv2_spis_configure_defaults+0x84>  // b.lo, b.ul, b.last
    43001690:	a94153f3 	ldp	x19, x20, [sp, #16]
    43001694:	f94013f5 	ldr	x21, [sp, #32]
    43001698:	a8c37bfd 	ldp	x29, x30, [sp], #48
    4300169c:	d65f03c0 	ret
    430016a0:	2a1503e1 	mov	w1, w21
    430016a4:	aa1403e0 	mov	x0, x20
    430016a8:	12800002 	mov	w2, #0xffffffff            	// #-1
    430016ac:	110082b5 	add	w21, w21, #0x20
    430016b0:	97ffffa8 	bl	43001550 <gicd_write_igroupr>
    430016b4:	17ffffef 	b	43001670 <gicv2_spis_configure_defaults+0x24>
    430016b8:	2a1503e1 	mov	w1, w21
    430016bc:	aa1403e0 	mov	x0, x20
    430016c0:	3201c3e2 	mov	w2, #0x80808080            	// #-2139062144
    430016c4:	110012b5 	add	w21, w21, #0x4
    430016c8:	97ffffb1 	bl	4300158c <gicd_write_ipriorityr>
    430016cc:	17ffffec 	b	4300167c <gicv2_spis_configure_defaults+0x30>
    430016d0:	2a1503e1 	mov	w1, w21
    430016d4:	aa1403e0 	mov	x0, x20
    430016d8:	52800002 	mov	w2, #0x0                   	// #0
    430016dc:	110042b5 	add	w21, w21, #0x10
    430016e0:	97ffffaf 	bl	4300159c <gicd_write_icfgr>
    430016e4:	17ffffe9 	b	43001688 <gicv2_spis_configure_defaults+0x3c>

00000000430016e8 <gicv2_secure_spis_configure_props>:
    430016e8:	a9bd7bfd 	stp	x29, x30, [sp, #-48]!
    430016ec:	910003fd 	mov	x29, sp
    430016f0:	a90153f3 	stp	x19, x20, [sp, #16]
    430016f4:	aa0003f4 	mov	x20, x0
    430016f8:	aa0103f3 	mov	x19, x1
    430016fc:	a9025bf5 	stp	x21, x22, [sp, #32]
    43001700:	8b224835 	add	x21, x1, w2, uxtw #2
    43001704:	91200016 	add	x22, x0, #0x800
    43001708:	eb15027f 	cmp	x19, x21
    4300170c:	540000a1 	b.ne	43001720 <gicv2_secure_spis_configure_props+0x38>  // b.any
    43001710:	a94153f3 	ldp	x19, x20, [sp, #16]
    43001714:	a9425bf5 	ldp	x21, x22, [sp, #32]
    43001718:	a8c37bfd 	ldp	x29, x30, [sp], #48
    4300171c:	d65f03c0 	ret
    43001720:	b9400261 	ldr	w1, [x19]
    43001724:	12003021 	and	w1, w1, #0x1fff
    43001728:	71007c3f 	cmp	w1, #0x1f
    4300172c:	540002c9 	b.ls	43001784 <gicv2_secure_spis_configure_props+0x9c>  // b.plast
    43001730:	aa1403e0 	mov	x0, x20
    43001734:	97ffff9f 	bl	430015b0 <gicd_clr_igroupr>
    43001738:	b9400261 	ldr	w1, [x19]
    4300173c:	aa1403e0 	mov	x0, x20
    43001740:	d34d5022 	ubfx	x2, x1, #13, #8
    43001744:	12003021 	and	w1, w1, #0x1fff
    43001748:	97ffffa9 	bl	430015ec <gicd_set_ipriorityr>
    4300174c:	b9400260 	ldr	w0, [x19]
    43001750:	b94002c1 	ldr	w1, [x22]
    43001754:	92403000 	and	x0, x0, #0x1fff
    43001758:	12001c21 	and	w1, w1, #0xff
    4300175c:	38366801 	strb	w1, [x0, x22]
    43001760:	aa1403e0 	mov	x0, x20
    43001764:	b9400261 	ldr	w1, [x19]
    43001768:	d3576022 	ubfx	x2, x1, #23, #2
    4300176c:	12003021 	and	w1, w1, #0x1fff
    43001770:	97ffffa4 	bl	43001600 <gicd_set_icfgr>
    43001774:	b9400261 	ldr	w1, [x19]
    43001778:	aa1403e0 	mov	x0, x20
    4300177c:	12003021 	and	w1, w1, #0x1fff
    43001780:	97ffff98 	bl	430015e0 <gicd_set_isenabler>
    43001784:	91001273 	add	x19, x19, #0x4
    43001788:	17ffffe0 	b	43001708 <gicv2_secure_spis_configure_props+0x20>

000000004300178c <gicv2_secure_ppi_sgi_setup_props>:
    4300178c:	a9bc7bfd 	stp	x29, x30, [sp, #-64]!
    43001790:	910003fd 	mov	x29, sp
    43001794:	a9025bf5 	stp	x21, x22, [sp, #32]
    43001798:	52800016 	mov	w22, #0x0                   	// #0
    4300179c:	2a0203f5 	mov	w21, w2
    430017a0:	12800002 	mov	w2, #0xffffffff            	// #-1
    430017a4:	a90153f3 	stp	x19, x20, [sp, #16]
    430017a8:	aa0003f4 	mov	x20, x0
    430017ac:	aa0103f3 	mov	x19, x1
    430017b0:	52800001 	mov	w1, #0x0                   	// #0
    430017b4:	a90363f7 	stp	x23, x24, [sp, #48]
    430017b8:	97ffff70 	bl	43001578 <gicd_write_icenabler>
    430017bc:	2a1603e1 	mov	w1, w22
    430017c0:	aa1403e0 	mov	x0, x20
    430017c4:	3201c3e2 	mov	w2, #0x80808080            	// #-2139062144
    430017c8:	110012d6 	add	w22, w22, #0x4
    430017cc:	97ffff70 	bl	4300158c <gicd_write_ipriorityr>
    430017d0:	710082df 	cmp	w22, #0x20
    430017d4:	54ffff41 	b.ne	430017bc <gicv2_secure_ppi_sgi_setup_props+0x30>  // b.any
    430017d8:	8b354a75 	add	x21, x19, w21, uxtw #2
    430017dc:	52800016 	mov	w22, #0x0                   	// #0
    430017e0:	5283fe17 	mov	w23, #0x1ff0                	// #8176
    430017e4:	52800038 	mov	w24, #0x1                   	// #1
    430017e8:	eb1302bf 	cmp	x21, x19
    430017ec:	540001a1 	b.ne	43001820 <gicv2_secure_ppi_sgi_setup_props+0x94>  // b.any
    430017f0:	2a3603e2 	mvn	w2, w22
    430017f4:	aa1403e0 	mov	x0, x20
    430017f8:	52800001 	mov	w1, #0x0                   	// #0
    430017fc:	97ffff55 	bl	43001550 <gicd_write_igroupr>
    43001800:	2a1603e2 	mov	w2, w22
    43001804:	aa1403e0 	mov	x0, x20
    43001808:	a94153f3 	ldp	x19, x20, [sp, #16]
    4300180c:	52800001 	mov	w1, #0x0                   	// #0
    43001810:	a9425bf5 	ldp	x21, x22, [sp, #32]
    43001814:	a94363f7 	ldp	x23, x24, [sp, #48]
    43001818:	a8c47bfd 	ldp	x29, x30, [sp], #64
    4300181c:	17ffff52 	b	43001564 <gicd_write_isenabler>
    43001820:	b9400262 	ldr	w2, [x19]
    43001824:	12003041 	and	w1, w2, #0x1fff
    43001828:	71007c3f 	cmp	w1, #0x1f
    4300182c:	540001e8 	b.hi	43001868 <gicv2_secure_ppi_sgi_setup_props+0xdc>  // b.pmore
    43001830:	0b170020 	add	w0, w1, w23
    43001834:	12003000 	and	w0, w0, #0x1fff
    43001838:	71003c1f 	cmp	w0, #0xf
    4300183c:	54000088 	b.hi	4300184c <gicv2_secure_ppi_sgi_setup_props+0xc0>  // b.pmore
    43001840:	d3576042 	ubfx	x2, x2, #23, #2
    43001844:	aa1403e0 	mov	x0, x20
    43001848:	97ffff6e 	bl	43001600 <gicd_set_icfgr>
    4300184c:	b9400261 	ldr	w1, [x19]
    43001850:	1ac12300 	lsl	w0, w24, w1
    43001854:	d34d5022 	ubfx	x2, x1, #13, #8
    43001858:	2a0002d6 	orr	w22, w22, w0
    4300185c:	12003021 	and	w1, w1, #0x1fff
    43001860:	aa1403e0 	mov	x0, x20
    43001864:	97ffff62 	bl	430015ec <gicd_set_ipriorityr>
    43001868:	91001273 	add	x19, x19, #0x4
    4300186c:	17ffffdf 	b	430017e8 <gicv2_secure_ppi_sgi_setup_props+0x5c>

0000000043001870 <gicv2_cpuif_enable>:
    43001870:	f0000040 	adrp	x0, 4300c000 <__STACKS_START__+0xf00>
    43001874:	52801fe1 	mov	w1, #0xff                  	// #255
    43001878:	f9434c00 	ldr	x0, [x0, #1688]
    4300187c:	f9400400 	ldr	x0, [x0, #8]
    43001880:	b9000401 	str	w1, [x0, #4]
    43001884:	52803d21 	mov	w1, #0x1e9                 	// #489
    43001888:	b9000001 	str	w1, [x0]
    4300188c:	d65f03c0 	ret

0000000043001890 <gicv2_cpuif_disable>:
    43001890:	f0000040 	adrp	x0, 4300c000 <__STACKS_START__+0xf00>
    43001894:	f9434c00 	ldr	x0, [x0, #1688]
    43001898:	f9400401 	ldr	x1, [x0, #8]
    4300189c:	b9400020 	ldr	w0, [x1]
    430018a0:	121e7400 	and	w0, w0, #0xfffffffc
    430018a4:	321b0c00 	orr	w0, w0, #0x1e0
    430018a8:	b9000020 	str	w0, [x1]
    430018ac:	d65f03c0 	ret

00000000430018b0 <gicv2_pcpu_distif_init>:
    430018b0:	a9be7bfd 	stp	x29, x30, [sp, #-32]!
    430018b4:	910003fd 	mov	x29, sp
    430018b8:	f9000bf3 	str	x19, [sp, #16]
    430018bc:	f0000053 	adrp	x19, 4300c000 <__STACKS_START__+0xf00>
    430018c0:	f9434e60 	ldr	x0, [x19, #1688]
    430018c4:	b9402802 	ldr	w2, [x0, #40]
    430018c8:	f9401001 	ldr	x1, [x0, #32]
    430018cc:	f9400000 	ldr	x0, [x0]
    430018d0:	97ffffaf 	bl	4300178c <gicv2_secure_ppi_sgi_setup_props>
    430018d4:	f9434e60 	ldr	x0, [x19, #1688]
    430018d8:	f9400001 	ldr	x1, [x0]
    430018dc:	b9400020 	ldr	w0, [x1]
    430018e0:	37000060 	tbnz	w0, #0, 430018ec <gicv2_pcpu_distif_init+0x3c>
    430018e4:	32000000 	orr	w0, w0, #0x1
    430018e8:	b9000020 	str	w0, [x1]
    430018ec:	f9400bf3 	ldr	x19, [sp, #16]
    430018f0:	a8c27bfd 	ldp	x29, x30, [sp], #32
    430018f4:	d65f03c0 	ret

00000000430018f8 <gicv2_distif_init>:
    430018f8:	a9be7bfd 	stp	x29, x30, [sp, #-32]!
    430018fc:	910003fd 	mov	x29, sp
    43001900:	a90153f3 	stp	x19, x20, [sp, #16]
    43001904:	f0000054 	adrp	x20, 4300c000 <__STACKS_START__+0xf00>
    43001908:	f9434e80 	ldr	x0, [x20, #1688]
    4300190c:	f9400000 	ldr	x0, [x0]
    43001910:	b9400013 	ldr	w19, [x0]
    43001914:	121e7661 	and	w1, w19, #0xfffffffc
    43001918:	b9000001 	str	w1, [x0]
    4300191c:	32000273 	orr	w19, w19, #0x1
    43001920:	97ffff4b 	bl	4300164c <gicv2_spis_configure_defaults>
    43001924:	f9434e80 	ldr	x0, [x20, #1688]
    43001928:	b9402802 	ldr	w2, [x0, #40]
    4300192c:	f9401001 	ldr	x1, [x0, #32]
    43001930:	f9400000 	ldr	x0, [x0]
    43001934:	97ffff6d 	bl	430016e8 <gicv2_secure_spis_configure_props>
    43001938:	f9434e80 	ldr	x0, [x20, #1688]
    4300193c:	f9400000 	ldr	x0, [x0]
    43001940:	b9000013 	str	w19, [x0]
    43001944:	a94153f3 	ldp	x19, x20, [sp, #16]
    43001948:	a8c27bfd 	ldp	x29, x30, [sp], #32
    4300194c:	d65f03c0 	ret

0000000043001950 <gicv2_driver_init>:
    43001950:	a9be7bfd 	stp	x29, x30, [sp, #-32]!
    43001954:	910003fd 	mov	x29, sp
    43001958:	f9400001 	ldr	x1, [x0]
    4300195c:	b94fe821 	ldr	w1, [x1, #4072]
    43001960:	f9000bf3 	str	x19, [sp, #16]
    43001964:	f0000053 	adrp	x19, 4300c000 <__STACKS_START__+0xf00>
    43001968:	d2800101 	mov	x1, #0x8                   	// #8
    4300196c:	f9034e60 	str	x0, [x19, #1688]
    43001970:	911a6260 	add	x0, x19, #0x698
    43001974:	940013af 	bl	43006830 <flush_dcache_range>
    43001978:	f9434e60 	ldr	x0, [x19, #1688]
    4300197c:	d2800601 	mov	x1, #0x30                  	// #48
    43001980:	f9400bf3 	ldr	x19, [sp, #16]
    43001984:	a8c27bfd 	ldp	x29, x30, [sp], #32
    43001988:	140013aa 	b	43006830 <flush_dcache_range>

000000004300198c <gicv2_get_pending_interrupt_type>:
    4300198c:	f0000040 	adrp	x0, 4300c000 <__STACKS_START__+0xf00>
    43001990:	f9434c00 	ldr	x0, [x0, #1688]
    43001994:	f9400400 	ldr	x0, [x0, #8]
    43001998:	b9401800 	ldr	w0, [x0, #24]
    4300199c:	12002400 	and	w0, w0, #0x3ff
    430019a0:	d65f03c0 	ret

00000000430019a4 <gicv2_set_pe_target_mask>:
    430019a4:	a9bd7bfd 	stp	x29, x30, [sp, #-48]!
    430019a8:	910003fd 	mov	x29, sp
    430019ac:	a90153f3 	stp	x19, x20, [sp, #16]
    430019b0:	f0000054 	adrp	x20, 4300c000 <__STACKS_START__+0xf00>
    430019b4:	d37e7c13 	ubfiz	x19, x0, #2, #32
    430019b8:	f9434e81 	ldr	x1, [x20, #1688]
    430019bc:	f90013f5 	str	x21, [sp, #32]
    430019c0:	f9400835 	ldr	x21, [x1, #16]
    430019c4:	b8736aa0 	ldr	w0, [x21, x19]
    430019c8:	35000180 	cbnz	w0, 430019f8 <gicv2_set_pe_target_mask+0x54>
    430019cc:	f9400020 	ldr	x0, [x1]
    430019d0:	97ffff1c 	bl	43001640 <gicv2_get_cpuif_id>
    430019d4:	b8336aa0 	str	w0, [x21, x19]
    430019d8:	f9434e80 	ldr	x0, [x20, #1688]
    430019dc:	d2800081 	mov	x1, #0x4                   	// #4
    430019e0:	f94013f5 	ldr	x21, [sp, #32]
    430019e4:	f9400800 	ldr	x0, [x0, #16]
    430019e8:	8b130000 	add	x0, x0, x19
    430019ec:	a94153f3 	ldp	x19, x20, [sp, #16]
    430019f0:	a8c37bfd 	ldp	x29, x30, [sp], #48
    430019f4:	1400138f 	b	43006830 <flush_dcache_range>
    430019f8:	a94153f3 	ldp	x19, x20, [sp, #16]
    430019fc:	f94013f5 	ldr	x21, [sp, #32]
    43001a00:	a8c37bfd 	ldp	x29, x30, [sp], #48
    43001a04:	d65f03c0 	ret

0000000043001a08 <udelay>:
    43001a08:	a9bd7bfd 	stp	x29, x30, [sp, #-48]!
    43001a0c:	910003fd 	mov	x29, sp
    43001a10:	a90153f3 	stp	x19, x20, [sp, #16]
    43001a14:	f0000054 	adrp	x20, 4300c000 <__STACKS_START__+0xf00>
    43001a18:	2a0003f3 	mov	w19, w0
    43001a1c:	f9435280 	ldr	x0, [x20, #1696]
    43001a20:	f9400000 	ldr	x0, [x0]
    43001a24:	f90013f5 	str	x21, [sp, #32]
    43001a28:	d63f0000 	blr	x0
    43001a2c:	2a0003f5 	mov	w21, w0
    43001a30:	f9435282 	ldr	x2, [x20, #1696]
    43001a34:	29410841 	ldp	w1, w2, [x2, #8]
    43001a38:	d1000420 	sub	x0, x1, #0x1
    43001a3c:	9ba20273 	umaddl	x19, w19, w2, x0
    43001a40:	9ac10a73 	udiv	x19, x19, x1
    43001a44:	91000673 	add	x19, x19, #0x1
    43001a48:	f9435280 	ldr	x0, [x20, #1696]
    43001a4c:	f9400000 	ldr	x0, [x0]
    43001a50:	d63f0000 	blr	x0
    43001a54:	4b0002a1 	sub	w1, w21, w0
    43001a58:	eb13003f 	cmp	x1, x19
    43001a5c:	54ffff63 	b.cc	43001a48 <udelay+0x40>  // b.lo, b.ul, b.last
    43001a60:	a94153f3 	ldp	x19, x20, [sp, #16]
    43001a64:	f94013f5 	ldr	x21, [sp, #32]
    43001a68:	a8c37bfd 	ldp	x29, x30, [sp], #48
    43001a6c:	d65f03c0 	ret

0000000043001a70 <mdelay>:
    43001a70:	52807d01 	mov	w1, #0x3e8                 	// #1000
    43001a74:	1b017c00 	mul	w0, w0, w1
    43001a78:	17ffffe4 	b	43001a08 <udelay>

0000000043001a7c <timer_init>:
    43001a7c:	f0000041 	adrp	x1, 4300c000 <__STACKS_START__+0xf00>
    43001a80:	f9035020 	str	x0, [x1, #1696]
    43001a84:	d65f03c0 	ret

0000000043001a88 <get_timer_value>:
    43001a88:	d53be020 	mrs	x0, cntpct_el0
    43001a8c:	2a2003e0 	mvn	w0, w0
    43001a90:	d65f03c0 	ret

0000000043001a94 <generic_delay_timer_init_args>:
    43001a94:	2a0003e4 	mov	w4, w0
    43001a98:	f0000043 	adrp	x3, 4300c000 <__STACKS_START__+0xf00>
    43001a9c:	911aa060 	add	x0, x3, #0x6a8
    43001aa0:	90000002 	adrp	x2, 43001000 <bl31_entrypoint>
    43001aa4:	912a2042 	add	x2, x2, #0xa88
    43001aa8:	f9035462 	str	x2, [x3, #1704]
    43001aac:	29010404 	stp	w4, w1, [x0, #8]
    43001ab0:	17fffff3 	b	43001a7c <timer_init>

0000000043001ab4 <generic_delay_timer_init>:
    43001ab4:	a9bf7bfd 	stp	x29, x30, [sp, #-16]!
    43001ab8:	910003fd 	mov	x29, sp
    43001abc:	94000945 	bl	43003fd0 <plat_get_syscnt_freq2>
    43001ac0:	2a0003e1 	mov	w1, w0
    43001ac4:	52884800 	mov	w0, #0x4240                	// #16960
    43001ac8:	528000c3 	mov	w3, #0x6                   	// #6
    43001acc:	72a001e0 	movk	w0, #0xf, lsl #16
    43001ad0:	52800142 	mov	w2, #0xa                   	// #10
    43001ad4:	1ac20824 	udiv	w4, w1, w2
    43001ad8:	1b028485 	msub	w5, w4, w2, w1
    43001adc:	350000a5 	cbnz	w5, 43001af0 <generic_delay_timer_init+0x3c>
    43001ae0:	1ac20800 	udiv	w0, w0, w2
    43001ae4:	2a0403e1 	mov	w1, w4
    43001ae8:	71000463 	subs	w3, w3, #0x1
    43001aec:	54ffff41 	b.ne	43001ad4 <generic_delay_timer_init+0x20>  // b.any
    43001af0:	a8c17bfd 	ldp	x29, x30, [sp], #16
    43001af4:	17ffffe8 	b	43001a94 <generic_delay_timer_init_args>

0000000043001af8 <print_errata_status>:
    43001af8:	d65f03c0 	ret

0000000043001afc <cm_init>:
    43001afc:	d65f03c0 	ret

0000000043001b00 <cm_setup_context>:
    43001b00:	a9bd7bfd 	stp	x29, x30, [sp, #-48]!
    43001b04:	910003fd 	mov	x29, sp
    43001b08:	a90153f3 	stp	x19, x20, [sp, #16]
    43001b0c:	aa0003f3 	mov	x19, x0
    43001b10:	aa0103f4 	mov	x20, x1
    43001b14:	d2804801 	mov	x1, #0x240                 	// #576
    43001b18:	f90013f5 	str	x21, [sp, #32]
    43001b1c:	940013bb 	bl	43006a08 <zeromem>
    43001b20:	d53e1100 	mrs	x0, scr_el3
    43001b24:	9281a1e1 	mov	x1, #0xfffffffffffff2f0    	// #-3344
    43001b28:	f2f7ffe1 	movk	x1, #0xbfff, lsl #48
    43001b2c:	8a010000 	and	x0, x0, x1
    43001b30:	b9401281 	ldr	w1, [x20, #16]
    43001b34:	d3441022 	ubfx	x2, x1, #4, #1
    43001b38:	37200041 	tbnz	w1, #4, 43001b40 <cm_setup_context+0x40>
    43001b3c:	b2760000 	orr	x0, x0, #0x400
    43001b40:	b9400683 	ldr	w3, [x20, #4]
    43001b44:	36100043 	tbz	w3, #2, 43001b4c <cm_setup_context+0x4c>
    43001b48:	b2750000 	orr	x0, x0, #0x800
    43001b4c:	d53e1143 	mrs	x3, cptr_el3
    43001b50:	f9009e63 	str	x3, [x19, #312]
    43001b54:	35000302 	cbnz	w2, 43001bb4 <cm_setup_context+0xb4>
    43001b58:	d3420c22 	ubfx	x2, x1, #2, #2
    43001b5c:	7100085f 	cmp	w2, #0x2
    43001b60:	54000041 	b.ne	43001b68 <cm_setup_context+0x68>  // b.any
    43001b64:	b2780000 	orr	x0, x0, #0x100
    43001b68:	f9008260 	str	x0, [x19, #256]
    43001b6c:	2a0103e1 	mov	w1, w1
    43001b70:	f9400680 	ldr	x0, [x20, #8]
    43001b74:	a9118261 	stp	x1, x0, [x19, #280]
    43001b78:	d2800802 	mov	x2, #0x40                  	// #64
    43001b7c:	91006281 	add	x1, x20, #0x18
    43001b80:	aa1303e0 	mov	x0, x19
    43001b84:	94001565 	bl	43007118 <memcpy>
    43001b88:	b9400680 	ldr	w0, [x20, #4]
    43001b8c:	52800421 	mov	w1, #0x21                  	// #33
    43001b90:	6a010000 	ands	w0, w0, w1
    43001b94:	54000160 	b.eq	43001bc0 <cm_setup_context+0xc0>  // b.none
    43001b98:	7100041f 	cmp	w0, #0x1
    43001b9c:	540002e0 	b.eq	43001bf8 <cm_setup_context+0xf8>  // b.none
    43001ba0:	90000040 	adrp	x0, 43009000 <suspend_binary_ca7+0x2e0>
    43001ba4:	912e1c00 	add	x0, x0, #0xb87
    43001ba8:	94000feb 	bl	43005b54 <tf_log>
    43001bac:	94001063 	bl	43005d38 <console_flush>
    43001bb0:	94001314 	bl	43006800 <el3_panic>
    43001bb4:	12000c22 	and	w2, w1, #0xf
    43001bb8:	7100285f 	cmp	w2, #0xa
    43001bbc:	17ffffe9 	b	43001b60 <cm_setup_context+0x60>
    43001bc0:	f9408274 	ldr	x20, [x19, #256]
    43001bc4:	52800000 	mov	w0, #0x0                   	// #0
    43001bc8:	97fffdd4 	bl	43001318 <get_scr_el3_from_routing_model>
    43001bcc:	d5380421 	mrs	x1, id_aa64pfr1_el1
    43001bd0:	53082c21 	ubfx	w1, w1, #8, #4
    43001bd4:	aa000280 	orr	x0, x20, x0
    43001bd8:	7100043f 	cmp	w1, #0x1
    43001bdc:	54000041 	b.ne	43001be4 <cm_setup_context+0xe4>  // b.any
    43001be0:	b2660000 	orr	x0, x0, #0x4000000
    43001be4:	f94013f5 	ldr	x21, [sp, #32]
    43001be8:	f9008260 	str	x0, [x19, #256]
    43001bec:	a94153f3 	ldp	x19, x20, [sp, #16]
    43001bf0:	a8c37bfd 	ldp	x29, x30, [sp], #48
    43001bf4:	d65f03c0 	ret
    43001bf8:	f9408275 	ldr	x21, [x19, #256]
    43001bfc:	97fffdc7 	bl	43001318 <get_scr_el3_from_routing_model>
    43001c00:	b9401282 	ldr	w2, [x20, #16]
    43001c04:	d2810001 	mov	x1, #0x800                 	// #2048
    43001c08:	aa0002b5 	orr	x21, x21, x0
    43001c0c:	d2800020 	mov	x0, #0x1                   	// #1
    43001c10:	f2a08060 	movk	x0, #0x403, lsl #16
    43001c14:	aa0002b5 	orr	x21, x21, x0
    43001c18:	b9400680 	ldr	w0, [x20, #4]
    43001c1c:	d2810703 	mov	x3, #0x838                 	// #2104
    43001c20:	f27c005f 	tst	x2, #0x10
    43001c24:	f2a018a3 	movk	x3, #0xc5, lsl #16
    43001c28:	f2a61a01 	movk	x1, #0x30d0, lsl #16
    43001c2c:	f9008275 	str	x21, [x19, #256]
    43001c30:	d3689c00 	lsl	x0, x0, #24
    43001c34:	92670000 	and	x0, x0, #0x2000000
    43001c38:	aa010001 	orr	x1, x0, x1
    43001c3c:	aa030000 	orr	x0, x0, x3
    43001c40:	9a811000 	csel	x0, x0, x1, ne  // ne = any
    43001c44:	f900b260 	str	x0, [x19, #352]
    43001c48:	d5381020 	mrs	x0, actlr_el1
    43001c4c:	f94013f5 	ldr	x21, [sp, #32]
    43001c50:	f900da60 	str	x0, [x19, #432]
    43001c54:	aa1303e0 	mov	x0, x19
    43001c58:	a94153f3 	ldp	x19, x20, [sp, #16]
    43001c5c:	a8c37bfd 	ldp	x29, x30, [sp], #48
    43001c60:	1400104b 	b	43005d8c <pmuv3_enable>

0000000043001c64 <cm_manage_extensions_el3>:
    43001c64:	1400104b 	b	43005d90 <pmuv3_disable_el3>

0000000043001c68 <cm_init_context_by_index>:
    43001c68:	a9be7bfd 	stp	x29, x30, [sp, #-32]!
    43001c6c:	910003fd 	mov	x29, sp
    43001c70:	f9000bf3 	str	x19, [sp, #16]
    43001c74:	aa0103f3 	mov	x19, x1
    43001c78:	52800421 	mov	w1, #0x21                  	// #33
    43001c7c:	b9400662 	ldr	w2, [x19, #4]
    43001c80:	0a010041 	and	w1, w2, w1
    43001c84:	97fffd4d 	bl	430011b8 <cm_get_context_by_index>
    43001c88:	aa1303e1 	mov	x1, x19
    43001c8c:	f9400bf3 	ldr	x19, [sp, #16]
    43001c90:	a8c27bfd 	ldp	x29, x30, [sp], #32
    43001c94:	17ffff9b 	b	43001b00 <cm_setup_context>

0000000043001c98 <cm_init_my_context>:
    43001c98:	a9be7bfd 	stp	x29, x30, [sp, #-32]!
    43001c9c:	910003fd 	mov	x29, sp
    43001ca0:	f9000bf3 	str	x19, [sp, #16]
    43001ca4:	aa0003f3 	mov	x19, x0
    43001ca8:	52800420 	mov	w0, #0x21                  	// #33
    43001cac:	b9400661 	ldr	w1, [x19, #4]
    43001cb0:	0a000020 	and	w0, w1, w0
    43001cb4:	97fffd3c 	bl	430011a4 <cm_get_context>
    43001cb8:	aa1303e1 	mov	x1, x19
    43001cbc:	f9400bf3 	ldr	x19, [sp, #16]
    43001cc0:	a8c27bfd 	ldp	x29, x30, [sp], #32
    43001cc4:	17ffff8f 	b	43001b00 <cm_setup_context>

0000000043001cc8 <cm_el1_sysregs_context_restore>:
    43001cc8:	a9be7bfd 	stp	x29, x30, [sp, #-32]!
    43001ccc:	910003fd 	mov	x29, sp
    43001cd0:	a90153f3 	stp	x19, x20, [sp, #16]
    43001cd4:	2a0003f3 	mov	w19, w0
    43001cd8:	97fffd33 	bl	430011a4 <cm_get_context>
    43001cdc:	91054000 	add	x0, x0, #0x150
    43001ce0:	9400118f 	bl	4300631c <el1_sysregs_context_restore>
    43001ce4:	34000273 	cbz	w19, 43001d30 <cm_el1_sysregs_context_restore+0x68>
    43001ce8:	b0000053 	adrp	x19, 4300a000 <__func__.7+0x8a>
    43001cec:	b0000054 	adrp	x20, 4300a000 <__func__.7+0x8a>
    43001cf0:	9113e273 	add	x19, x19, #0x4f8
    43001cf4:	9113e294 	add	x20, x20, #0x4f8
    43001cf8:	eb14027f 	cmp	x19, x20
    43001cfc:	54000142 	b.cs	43001d24 <cm_el1_sysregs_context_restore+0x5c>  // b.hs, b.nlast
    43001d00:	f8408661 	ldr	x1, [x19], #8
    43001d04:	d2800000 	mov	x0, #0x0                   	// #0
    43001d08:	d63f0020 	blr	x1
    43001d0c:	17fffffb 	b	43001cf8 <cm_el1_sysregs_context_restore+0x30>
    43001d10:	f8408661 	ldr	x1, [x19], #8
    43001d14:	d2800000 	mov	x0, #0x0                   	// #0
    43001d18:	d63f0020 	blr	x1
    43001d1c:	eb14027f 	cmp	x19, x20
    43001d20:	54ffff83 	b.cc	43001d10 <cm_el1_sysregs_context_restore+0x48>  // b.lo, b.ul, b.last
    43001d24:	a94153f3 	ldp	x19, x20, [sp, #16]
    43001d28:	a8c27bfd 	ldp	x29, x30, [sp], #32
    43001d2c:	d65f03c0 	ret
    43001d30:	b0000053 	adrp	x19, 4300a000 <__func__.7+0x8a>
    43001d34:	b0000054 	adrp	x20, 4300a000 <__func__.7+0x8a>
    43001d38:	9113c273 	add	x19, x19, #0x4f0
    43001d3c:	9113e294 	add	x20, x20, #0x4f8
    43001d40:	17fffff7 	b	43001d1c <cm_el1_sysregs_context_restore+0x54>

0000000043001d44 <cm_set_next_eret_context>:
    43001d44:	a9bf7bfd 	stp	x29, x30, [sp, #-16]!
    43001d48:	910003fd 	mov	x29, sp
    43001d4c:	97fffd16 	bl	430011a4 <cm_get_context>
    43001d50:	d50041bf 	msr	spsel, #0x1
    43001d54:	9100001f 	mov	sp, x0
    43001d58:	d50040bf 	msr	spsel, #0x0
    43001d5c:	a8c17bfd 	ldp	x29, x30, [sp], #16
    43001d60:	d65f03c0 	ret

0000000043001d64 <cm_prepare_el3_exit>:
    43001d64:	a9be7bfd 	stp	x29, x30, [sp, #-32]!
    43001d68:	910003fd 	mov	x29, sp
    43001d6c:	f9000bf3 	str	x19, [sp, #16]
    43001d70:	2a0003f3 	mov	w19, w0
    43001d74:	97fffd0c 	bl	430011a4 <cm_get_context>
    43001d78:	7100067f 	cmp	w19, #0x1
    43001d7c:	540004e1 	b.ne	43001e18 <cm_prepare_el3_exit+0xb4>  // b.any
    43001d80:	f9408001 	ldr	x1, [x0, #256]
    43001d84:	d5380403 	mrs	x3, id_aa64pfr0_el1
    43001d88:	92780022 	and	x2, x1, #0x100
    43001d8c:	36400121 	tbz	w1, #8, 43001db0 <cm_prepare_el3_exit+0x4c>
    43001d90:	f940b000 	ldr	x0, [x0, #352]
    43001d94:	d2810601 	mov	x1, #0x830                 	// #2096
    43001d98:	f2a618a1 	movk	x1, #0x30c5, lsl #16
    43001d9c:	92670000 	and	x0, x0, #0x2000000
    43001da0:	aa010000 	orr	x0, x0, x1
    43001da4:	d51c1000 	msr	sctlr_el2, x0
    43001da8:	52800000 	mov	w0, #0x0                   	// #0
    43001dac:	14000017 	b	43001e08 <cm_prepare_el3_exit+0xa4>
    43001db0:	f2780c7f 	tst	x3, #0xf00
    43001db4:	54ffffa0 	b.eq	43001da8 <cm_prepare_el3_exit+0x44>  // b.none
    43001db8:	f2760021 	ands	x1, x1, #0x400
    43001dbc:	d2b00000 	mov	x0, #0x80000000            	// #2147483648
    43001dc0:	9a800021 	csel	x1, x1, x0, eq  // eq = none
    43001dc4:	b2580421 	orr	x1, x1, #0x30000000000
    43001dc8:	d51c1101 	msr	hcr_el2, x1
    43001dcc:	d2867fe0 	mov	x0, #0x33ff                	// #13311
    43001dd0:	d51c1140 	msr	cptr_el2, x0
    43001dd4:	d2800060 	mov	x0, #0x3                   	// #3
    43001dd8:	d51ce100 	msr	cnthctl_el2, x0
    43001ddc:	d51ce062 	msr	cntvoff_el2, x2
    43001de0:	d5380000 	mrs	x0, midr_el1
    43001de4:	d51c0000 	msr	vpidr_el2, x0
    43001de8:	d53800a0 	mrs	x0, mpidr_el1
    43001dec:	d51c00a0 	msr	vmpidr_el2, x0
    43001df0:	d51c2102 	msr	vttbr_el2, x2
    43001df4:	d51c1122 	msr	mdcr_el2, x2
    43001df8:	d51c1162 	msr	hstr_el2, x2
    43001dfc:	d51ce222 	msr	cnthp_ctl_el2, x2
    43001e00:	94000ff3 	bl	43005dcc <pmuv3_init_el2_unused>
    43001e04:	2a1303e0 	mov	w0, w19
    43001e08:	d5380501 	mrs	x1, id_aa64dfr0_el1
    43001e0c:	f2600c3f 	tst	x1, #0xf00000000
    43001e10:	54000040 	b.eq	43001e18 <cm_prepare_el3_exit+0xb4>  // b.none
    43001e14:	94000012 	bl	43001e5c <spe_enable>
    43001e18:	2a1303e0 	mov	w0, w19
    43001e1c:	97ffffab 	bl	43001cc8 <cm_el1_sysregs_context_restore>
    43001e20:	2a1303e0 	mov	w0, w19
    43001e24:	f9400bf3 	ldr	x19, [sp, #16]
    43001e28:	a8c27bfd 	ldp	x29, x30, [sp], #32
    43001e2c:	17ffffc6 	b	43001d44 <cm_set_next_eret_context>

0000000043001e30 <cm_prepare_el3_exit_ns>:
    43001e30:	52800020 	mov	w0, #0x1                   	// #1
    43001e34:	17ffffcc 	b	43001d64 <cm_prepare_el3_exit>

0000000043001e38 <spe_drain_buffers_hook>:
    43001e38:	d5380500 	mrs	x0, id_aa64dfr0_el1
    43001e3c:	f2600c1f 	tst	x0, #0xf00000000
    43001e40:	540000a0 	b.eq	43001e54 <spe_drain_buffers_hook+0x1c>  // b.none
    43001e44:	d503223f 	psb	csync
    43001e48:	d503379f 	dsb	nsh
    43001e4c:	d2800000 	mov	x0, #0x0                   	// #0
    43001e50:	d65f03c0 	ret
    43001e54:	92800000 	mov	x0, #0xffffffffffffffff    	// #-1
    43001e58:	17fffffe 	b	43001e50 <spe_drain_buffers_hook+0x18>

0000000043001e5c <spe_enable>:
    43001e5c:	72001c1f 	tst	w0, #0xff
    43001e60:	540000c0 	b.eq	43001e78 <spe_enable+0x1c>  // b.none
    43001e64:	d53c1120 	mrs	x0, mdcr_el2
    43001e68:	92407c00 	and	x0, x0, #0xffffffff
    43001e6c:	9271f800 	and	x0, x0, #0xffffffffffffbfff
    43001e70:	b2740400 	orr	x0, x0, #0x3000
    43001e74:	d51c1120 	msr	mdcr_el2, x0
    43001e78:	d53e1320 	mrs	x0, mdcr_el3
    43001e7c:	d2860001 	mov	x1, #0x3000                	// #12288
    43001e80:	f2c00201 	movk	x1, #0x10, lsl #32
    43001e84:	aa010000 	orr	x0, x0, x1
    43001e88:	d51e1320 	msr	mdcr_el3, x0
    43001e8c:	d65f03c0 	ret

0000000043001e90 <bakery_lock_get>:
    43001e90:	a9be7bfd 	stp	x29, x30, [sp, #-32]!
    43001e94:	910003fd 	mov	x29, sp
    43001e98:	f9000bf3 	str	x19, [sp, #16]
    43001e9c:	aa0003f3 	mov	x19, x0
    43001ea0:	94001230 	bl	43006760 <plat_my_core_pos>
    43001ea4:	d37f7c03 	ubfiz	x3, x0, #1, #32
    43001ea8:	52800021 	mov	w1, #0x1                   	// #1
    43001eac:	78236a61 	strh	w1, [x19, x3]
    43001eb0:	79400261 	ldrh	w1, [x19]
    43001eb4:	79400662 	ldrh	w2, [x19, #2]
    43001eb8:	d3413c21 	ubfx	x1, x1, #1, #15
    43001ebc:	d3413c42 	ubfx	x2, x2, #1, #15
    43001ec0:	6b02003f 	cmp	w1, w2
    43001ec4:	1a822021 	csel	w1, w1, w2, cs  // cs = hs, nlast
    43001ec8:	11000421 	add	w1, w1, #0x1
    43001ecc:	531f3822 	ubfiz	w2, w1, #1, #15
    43001ed0:	2a012001 	orr	w1, w0, w1, lsl #8
    43001ed4:	78236a62 	strh	w2, [x19, x3]
    43001ed8:	52800002 	mov	w2, #0x0                   	// #0
    43001edc:	6b02001f 	cmp	w0, w2
    43001ee0:	54000200 	b.eq	43001f20 <bakery_lock_get+0x90>  // b.none
    43001ee4:	d37f0045 	ubfiz	x5, x2, #1, #1
    43001ee8:	78656a64 	ldrh	w4, [x19, x5]
    43001eec:	8b050266 	add	x6, x19, x5
    43001ef0:	12003c83 	and	w3, w4, #0xffff
    43001ef4:	3707ffa4 	tbnz	w4, #0, 43001ee8 <bakery_lock_get+0x58>
    43001ef8:	53017c63 	lsr	w3, w3, #1
    43001efc:	34000123 	cbz	w3, 43001f20 <bakery_lock_get+0x90>
    43001f00:	2a032044 	orr	w4, w2, w3, lsl #8
    43001f04:	6b04003f 	cmp	w1, w4
    43001f08:	540000c9 	b.ls	43001f20 <bakery_lock_get+0x90>  // b.plast
    43001f0c:	d503205f 	wfe
    43001f10:	794000c4 	ldrh	w4, [x6]
    43001f14:	d3413c84 	ubfx	x4, x4, #1, #15
    43001f18:	6b04007f 	cmp	w3, w4
    43001f1c:	54ffff80 	b.eq	43001f0c <bakery_lock_get+0x7c>  // b.none
    43001f20:	340000a2 	cbz	w2, 43001f34 <bakery_lock_get+0xa4>
    43001f24:	d5033bbf 	dmb	ish
    43001f28:	f9400bf3 	ldr	x19, [sp, #16]
    43001f2c:	a8c27bfd 	ldp	x29, x30, [sp], #32
    43001f30:	d65f03c0 	ret
    43001f34:	52800022 	mov	w2, #0x1                   	// #1
    43001f38:	17ffffe9 	b	43001edc <bakery_lock_get+0x4c>

0000000043001f3c <bakery_lock_release>:
    43001f3c:	a9be7bfd 	stp	x29, x30, [sp, #-32]!
    43001f40:	910003fd 	mov	x29, sp
    43001f44:	f9000bf3 	str	x19, [sp, #16]
    43001f48:	aa0003f3 	mov	x19, x0
    43001f4c:	94001205 	bl	43006760 <plat_my_core_pos>
    43001f50:	d5033bbf 	dmb	ish
    43001f54:	2a0003e1 	mov	w1, w0
    43001f58:	78217a7f 	strh	wzr, [x19, x1, lsl #1]
    43001f5c:	d5033f9f 	dsb	sy
    43001f60:	d503209f 	sev
    43001f64:	f9400bf3 	ldr	x19, [sp, #16]
    43001f68:	a8c27bfd 	ldp	x29, x30, [sp], #32
    43001f6c:	d65f03c0 	ret

0000000043001f70 <psci_set_req_local_pwr_state>:
    43001f70:	51000400 	sub	w0, w0, #0x1
    43001f74:	12001c42 	and	w2, w2, #0xff
    43001f78:	7100041f 	cmp	w0, #0x1
    43001f7c:	54000128 	b.hi	43001fa0 <psci_set_req_local_pwr_state+0x30>  // b.pmore
    43001f80:	f0000043 	adrp	x3, 4300c000 <__STACKS_START__+0xf00>
    43001f84:	b94af863 	ldr	w3, [x3, #2808]
    43001f88:	6b01007f 	cmp	w3, w1
    43001f8c:	540000a9 	b.ls	43001fa0 <psci_set_req_local_pwr_state+0x30>  // b.plast
    43001f90:	f0000043 	adrp	x3, 4300c000 <__STACKS_START__+0xf00>
    43001f94:	91335063 	add	x3, x3, #0xcd4
    43001f98:	8b204460 	add	x0, x3, w0, uxtw #1
    43001f9c:	38214802 	strb	w2, [x0, w1, uxtw]
    43001fa0:	d65f03c0 	ret

0000000043001fa4 <psci_validate_power_state>:
    43001fa4:	52bf9fc2 	mov	w2, #0xfcfe0000            	// #-50462720
    43001fa8:	6a02001f 	tst	w0, w2
    43001fac:	540000c1 	b.ne	43001fc4 <psci_validate_power_state+0x20>  // b.any
    43001fb0:	f0000042 	adrp	x2, 4300c000 <__STACKS_START__+0xf00>
    43001fb4:	f9436c42 	ldr	x2, [x2, #1752]
    43001fb8:	f9403042 	ldr	x2, [x2, #96]
    43001fbc:	aa0203f0 	mov	x16, x2
    43001fc0:	d61f0200 	br	x16
    43001fc4:	12800020 	mov	w0, #0xfffffffe            	// #-2
    43001fc8:	d65f03c0 	ret

0000000043001fcc <psci_query_sys_suspend_pwrstate>:
    43001fcc:	f0000041 	adrp	x1, 4300c000 <__STACKS_START__+0xf00>
    43001fd0:	f9436c21 	ldr	x1, [x1, #1752]
    43001fd4:	f9403821 	ldr	x1, [x1, #112]
    43001fd8:	aa0103f0 	mov	x16, x1
    43001fdc:	d61f0200 	br	x16

0000000043001fe0 <psci_is_last_on_cpu>:
    43001fe0:	a9bd7bfd 	stp	x29, x30, [sp, #-48]!
    43001fe4:	910003fd 	mov	x29, sp
    43001fe8:	a90153f3 	stp	x19, x20, [sp, #16]
    43001fec:	f0000054 	adrp	x20, 4300c000 <__STACKS_START__+0xf00>
    43001ff0:	912be294 	add	x20, x20, #0xaf8
    43001ff4:	f90013f5 	str	x21, [sp, #32]
    43001ff8:	940011da 	bl	43006760 <plat_my_core_pos>
    43001ffc:	2a0003f5 	mov	w21, w0
    43002000:	52800013 	mov	w19, #0x0                   	// #0
    43002004:	b9400280 	ldr	w0, [x20]
    43002008:	6b13001f 	cmp	w0, w19
    4300200c:	540000c8 	b.hi	43002024 <psci_is_last_on_cpu+0x44>  // b.pmore
    43002010:	52800020 	mov	w0, #0x1                   	// #1
    43002014:	a94153f3 	ldp	x19, x20, [sp, #16]
    43002018:	f94013f5 	ldr	x21, [sp, #32]
    4300201c:	a8c37bfd 	ldp	x29, x30, [sp], #48
    43002020:	d65f03c0 	ret
    43002024:	6b15027f 	cmp	w19, w21
    43002028:	54000061 	b.ne	43002034 <psci_is_last_on_cpu+0x54>  // b.any
    4300202c:	11000673 	add	w19, w19, #0x1
    43002030:	17fffff5 	b	43002004 <psci_is_last_on_cpu+0x24>
    43002034:	2a1303e0 	mov	w0, w19
    43002038:	9400112c 	bl	430064e8 <_cpu_data_by_index>
    4300203c:	b9401800 	ldr	w0, [x0, #24]
    43002040:	7100041f 	cmp	w0, #0x1
    43002044:	54ffff40 	b.eq	4300202c <psci_is_last_on_cpu+0x4c>  // b.none
    43002048:	52800000 	mov	w0, #0x0                   	// #0
    4300204c:	17fffff2 	b	43002014 <psci_is_last_on_cpu+0x34>

0000000043002050 <psci_init_req_local_pwr_states>:
    43002050:	d0000040 	adrp	x0, 4300c000 <__STACKS_START__+0xf00>
    43002054:	b94af801 	ldr	w1, [x0, #2808]
    43002058:	34000181 	cbz	w1, 43002088 <psci_init_req_local_pwr_states+0x38>
    4300205c:	d0000043 	adrp	x3, 4300c000 <__STACKS_START__+0xf00>
    43002060:	52800040 	mov	w0, #0x2                   	// #2
    43002064:	91335062 	add	x2, x3, #0xcd4
    43002068:	39335060 	strb	w0, [x3, #3284]
    4300206c:	7100043f 	cmp	w1, #0x1
    43002070:	54000040 	b.eq	43002078 <psci_init_req_local_pwr_states+0x28>  // b.none
    43002074:	39000440 	strb	w0, [x2, #1]
    43002078:	39000840 	strb	w0, [x2, #2]
    4300207c:	7100043f 	cmp	w1, #0x1
    43002080:	54000040 	b.eq	43002088 <psci_init_req_local_pwr_states+0x38>  // b.none
    43002084:	39000c40 	strb	w0, [x2, #3]
    43002088:	d65f03c0 	ret

000000004300208c <psci_get_target_local_pwr_states>:
    4300208c:	a9be7bfd 	stp	x29, x30, [sp, #-32]!
    43002090:	910003fd 	mov	x29, sp
    43002094:	a90153f3 	stp	x19, x20, [sp, #16]
    43002098:	2a0003f4 	mov	w20, w0
    4300209c:	aa0103f3 	mov	x19, x1
    430020a0:	d53ed040 	mrs	x0, tpidr_el3
    430020a4:	39408000 	ldrb	w0, [x0, #32]
    430020a8:	39000020 	strb	w0, [x1]
    430020ac:	940011ad 	bl	43006760 <plat_my_core_pos>
    430020b0:	d37c7c00 	ubfiz	x0, x0, #4, #32
    430020b4:	d0000041 	adrp	x1, 4300c000 <__STACKS_START__+0xf00>
    430020b8:	911ae021 	add	x1, x1, #0x6b8
    430020bc:	8b000021 	add	x1, x1, x0
    430020c0:	f0000060 	adrp	x0, 43011000 <psci_locks>
    430020c4:	91003000 	add	x0, x0, #0xc
    430020c8:	52800022 	mov	w2, #0x1                   	// #1
    430020cc:	b9400823 	ldr	w3, [x1, #8]
    430020d0:	6b14005f 	cmp	w2, w20
    430020d4:	2a0203e1 	mov	w1, w2
    430020d8:	540000e9 	b.ls	430020f4 <psci_get_target_local_pwr_states+0x68>  // b.plast
    430020dc:	8b010273 	add	x19, x19, x1
    430020e0:	7100085f 	cmp	w2, #0x2
    430020e4:	54000169 	b.ls	43002110 <psci_get_target_local_pwr_states+0x84>  // b.plast
    430020e8:	a94153f3 	ldp	x19, x20, [sp, #16]
    430020ec:	a8c27bfd 	ldp	x29, x30, [sp], #32
    430020f0:	d65f03c0 	ret
    430020f4:	d37c7c63 	ubfiz	x3, x3, #4, #32
    430020f8:	11000442 	add	w2, w2, #0x1
    430020fc:	8b030003 	add	x3, x0, x3
    43002100:	39403064 	ldrb	w4, [x3, #12]
    43002104:	38216a64 	strb	w4, [x19, x1]
    43002108:	b9400863 	ldr	w3, [x3, #8]
    4300210c:	17fffff1 	b	430020d0 <psci_get_target_local_pwr_states+0x44>
    43002110:	11000442 	add	w2, w2, #0x1
    43002114:	3800167f 	strb	wzr, [x19], #1
    43002118:	17fffff2 	b	430020e0 <psci_get_target_local_pwr_states+0x54>

000000004300211c <psci_set_target_local_pwr_states>:
    4300211c:	a9be7bfd 	stp	x29, x30, [sp, #-32]!
    43002120:	910003fd 	mov	x29, sp
    43002124:	a90153f3 	stp	x19, x20, [sp, #16]
    43002128:	aa0103f3 	mov	x19, x1
    4300212c:	2a0003f4 	mov	w20, w0
    43002130:	39400021 	ldrb	w1, [x1]
    43002134:	d53ed040 	mrs	x0, tpidr_el3
    43002138:	39008001 	strb	w1, [x0, #32]
    4300213c:	d53ed040 	mrs	x0, tpidr_el3
    43002140:	91008000 	add	x0, x0, #0x20
    43002144:	d2800021 	mov	x1, #0x1                   	// #1
    43002148:	940011ba 	bl	43006830 <flush_dcache_range>
    4300214c:	94001185 	bl	43006760 <plat_my_core_pos>
    43002150:	d37c7c00 	ubfiz	x0, x0, #4, #32
    43002154:	d0000042 	adrp	x2, 4300c000 <__STACKS_START__+0xf00>
    43002158:	911ae042 	add	x2, x2, #0x6b8
    4300215c:	8b000042 	add	x2, x2, x0
    43002160:	f0000060 	adrp	x0, 43011000 <psci_locks>
    43002164:	91003000 	add	x0, x0, #0xc
    43002168:	52800023 	mov	w3, #0x1                   	// #1
    4300216c:	b9400842 	ldr	w2, [x2, #8]
    43002170:	6b14007f 	cmp	w3, w20
    43002174:	54000089 	b.ls	43002184 <psci_set_target_local_pwr_states+0x68>  // b.plast
    43002178:	a94153f3 	ldp	x19, x20, [sp, #16]
    4300217c:	a8c27bfd 	ldp	x29, x30, [sp], #32
    43002180:	d65f03c0 	ret
    43002184:	d37c7c42 	ubfiz	x2, x2, #4, #32
    43002188:	38634a61 	ldrb	w1, [x19, w3, uxtw]
    4300218c:	8b020002 	add	x2, x0, x2
    43002190:	11000463 	add	w3, w3, #0x1
    43002194:	39003041 	strb	w1, [x2, #12]
    43002198:	b9400842 	ldr	w2, [x2, #8]
    4300219c:	17fffff5 	b	43002170 <psci_set_target_local_pwr_states+0x54>

00000000430021a0 <psci_get_parent_pwr_domain_nodes>:
    430021a0:	d37c7c03 	ubfiz	x3, x0, #4, #32
    430021a4:	d0000040 	adrp	x0, 4300c000 <__STACKS_START__+0xf00>
    430021a8:	911ae000 	add	x0, x0, #0x6b8
    430021ac:	f0000064 	adrp	x4, 43011000 <psci_locks>
    430021b0:	8b030000 	add	x0, x0, x3
    430021b4:	d1001042 	sub	x2, x2, #0x4
    430021b8:	91003084 	add	x4, x4, #0xc
    430021bc:	d2800003 	mov	x3, #0x0                   	// #0
    430021c0:	b9400800 	ldr	w0, [x0, #8]
    430021c4:	91000463 	add	x3, x3, #0x1
    430021c8:	6b03003f 	cmp	w1, w3
    430021cc:	54000042 	b.cs	430021d4 <psci_get_parent_pwr_domain_nodes+0x34>  // b.hs, b.nlast
    430021d0:	d65f03c0 	ret
    430021d4:	b8237840 	str	w0, [x2, x3, lsl #2]
    430021d8:	d37c7c00 	ubfiz	x0, x0, #4, #32
    430021dc:	8b000080 	add	x0, x4, x0
    430021e0:	b9400800 	ldr	w0, [x0, #8]
    430021e4:	17fffff8 	b	430021c4 <psci_get_parent_pwr_domain_nodes+0x24>

00000000430021e8 <psci_set_pwr_domains_to_run>:
    430021e8:	a9be7bfd 	stp	x29, x30, [sp, #-32]!
    430021ec:	910003fd 	mov	x29, sp
    430021f0:	f9000bf3 	str	x19, [sp, #16]
    430021f4:	2a0003f3 	mov	w19, w0
    430021f8:	9400115a 	bl	43006760 <plat_my_core_pos>
    430021fc:	2a0003e1 	mov	w1, w0
    43002200:	d0000042 	adrp	x2, 4300c000 <__STACKS_START__+0xf00>
    43002204:	911ae042 	add	x2, x2, #0x6b8
    43002208:	d37c7c20 	ubfiz	x0, x1, #4, #32
    4300220c:	f0000066 	adrp	x6, 43011000 <psci_locks>
    43002210:	8b000042 	add	x2, x2, x0
    43002214:	910030c6 	add	x6, x6, #0xc
    43002218:	52800025 	mov	w5, #0x1                   	// #1
    4300221c:	b9400844 	ldr	w4, [x2, #8]
    43002220:	6b1300bf 	cmp	w5, w19
    43002224:	54000169 	b.ls	43002250 <psci_set_pwr_domains_to_run+0x68>  // b.plast
    43002228:	d53ed040 	mrs	x0, tpidr_el3
    4300222c:	b900181f 	str	wzr, [x0, #24]
    43002230:	d53ed040 	mrs	x0, tpidr_el3
    43002234:	3900801f 	strb	wzr, [x0, #32]
    43002238:	d53ed040 	mrs	x0, tpidr_el3
    4300223c:	f9400bf3 	ldr	x19, [sp, #16]
    43002240:	91006000 	add	x0, x0, #0x18
    43002244:	a8c27bfd 	ldp	x29, x30, [sp], #32
    43002248:	d2800181 	mov	x1, #0xc                   	// #12
    4300224c:	14001179 	b	43006830 <flush_dcache_range>
    43002250:	d37c7c84 	ubfiz	x4, x4, #4, #32
    43002254:	2a0503e0 	mov	w0, w5
    43002258:	8b0400c4 	add	x4, x6, x4
    4300225c:	52800002 	mov	w2, #0x0                   	// #0
    43002260:	110004a5 	add	w5, w5, #0x1
    43002264:	3900309f 	strb	wzr, [x4, #12]
    43002268:	97ffff42 	bl	43001f70 <psci_set_req_local_pwr_state>
    4300226c:	b9400884 	ldr	w4, [x4, #8]
    43002270:	17ffffec 	b	43002220 <psci_set_pwr_domains_to_run+0x38>

0000000043002274 <psci_do_state_coordination>:
    43002274:	a9bb7bfd 	stp	x29, x30, [sp, #-80]!
    43002278:	910003fd 	mov	x29, sp
    4300227c:	a90153f3 	stp	x19, x20, [sp, #16]
    43002280:	a9025bf5 	stp	x21, x22, [sp, #32]
    43002284:	aa0103f5 	mov	x21, x1
    43002288:	a90363f7 	stp	x23, x24, [sp, #48]
    4300228c:	2a0003f7 	mov	w23, w0
    43002290:	f0000078 	adrp	x24, 43011000 <psci_locks>
    43002294:	a9046bf9 	stp	x25, x26, [sp, #64]
    43002298:	94001132 	bl	43006760 <plat_my_core_pos>
    4300229c:	2a0003f6 	mov	w22, w0
    430022a0:	d0000040 	adrp	x0, 4300c000 <__STACKS_START__+0xf00>
    430022a4:	911ae000 	add	x0, x0, #0x6b8
    430022a8:	d37c7ec1 	ubfiz	x1, x22, #4, #32
    430022ac:	d0000059 	adrp	x25, 4300c000 <__STACKS_START__+0xf00>
    430022b0:	8b010000 	add	x0, x0, x1
    430022b4:	91003318 	add	x24, x24, #0xc
    430022b8:	912be339 	add	x25, x25, #0xaf8
    430022bc:	52800024 	mov	w4, #0x1                   	// #1
    430022c0:	b9400814 	ldr	w20, [x0, #8]
    430022c4:	6b17009f 	cmp	w4, w23
    430022c8:	11000493 	add	w19, w4, #0x1
    430022cc:	54000129 	b.ls	430022f0 <psci_do_state_coordination+0x7c>  // b.plast
    430022d0:	6b17027f 	cmp	w19, w23
    430022d4:	540004c9 	b.ls	4300236c <psci_do_state_coordination+0xf8>  // b.plast
    430022d8:	a94153f3 	ldp	x19, x20, [sp, #16]
    430022dc:	a9425bf5 	ldp	x21, x22, [sp, #32]
    430022e0:	a94363f7 	ldp	x23, x24, [sp, #48]
    430022e4:	a9446bf9 	ldp	x25, x26, [sp, #64]
    430022e8:	a8c57bfd 	ldp	x29, x30, [sp], #80
    430022ec:	d65f03c0 	ret
    430022f0:	2a0403fa 	mov	w26, w4
    430022f4:	2a1603e1 	mov	w1, w22
    430022f8:	2a0403e0 	mov	w0, w4
    430022fc:	2a1403f4 	mov	w20, w20
    43002300:	387a6aa2 	ldrb	w2, [x21, x26]
    43002304:	97ffff1b 	bl	43001f70 <psci_set_req_local_pwr_state>
    43002308:	51000481 	sub	w1, w4, #0x1
    4300230c:	7100043f 	cmp	w1, #0x1
    43002310:	540002a8 	b.hi	43002364 <psci_do_state_coordination+0xf0>  // b.pmore
    43002314:	d37cee80 	lsl	x0, x20, #4
    43002318:	b9400323 	ldr	w3, [x25]
    4300231c:	b8606b02 	ldr	w2, [x24, x0]
    43002320:	2a0203e0 	mov	w0, w2
    43002324:	6b03005f 	cmp	w2, w3
    43002328:	8b214400 	add	x0, x0, w1, uxtw #1
    4300232c:	d0000041 	adrp	x1, 4300c000 <__STACKS_START__+0xf00>
    43002330:	91335021 	add	x1, x1, #0xcd4
    43002334:	8b000021 	add	x1, x1, x0
    43002338:	9a9f3021 	csel	x1, x1, xzr, cc  // cc = lo, ul, last
    4300233c:	8b141314 	add	x20, x24, x20, lsl #4
    43002340:	2a0403e0 	mov	w0, w4
    43002344:	b9400682 	ldr	w2, [x20, #4]
    43002348:	94000cce 	bl	43005680 <plat_get_target_pwr_state>
    4300234c:	383a6aa0 	strb	w0, [x21, x26]
    43002350:	72001c1f 	tst	w0, #0xff
    43002354:	54fffbe0 	b.eq	430022d0 <psci_do_state_coordination+0x5c>  // b.none
    43002358:	b9400a94 	ldr	w20, [x20, #8]
    4300235c:	2a1303e4 	mov	w4, w19
    43002360:	17ffffd9 	b	430022c4 <psci_do_state_coordination+0x50>
    43002364:	d2800001 	mov	x1, #0x0                   	// #0
    43002368:	17fffff5 	b	4300233c <psci_do_state_coordination+0xc8>
    4300236c:	2a1303e5 	mov	w5, w19
    43002370:	2a1303e0 	mov	w0, w19
    43002374:	2a1603e1 	mov	w1, w22
    43002378:	11000673 	add	w19, w19, #0x1
    4300237c:	38656aa2 	ldrb	w2, [x21, x5]
    43002380:	97fffefc 	bl	43001f70 <psci_set_req_local_pwr_state>
    43002384:	38256abf 	strb	wzr, [x21, x5]
    43002388:	17ffffd2 	b	430022d0 <psci_do_state_coordination+0x5c>

000000004300238c <psci_find_max_off_lvl>:
    4300238c:	aa0003e1 	mov	x1, x0
    43002390:	39400800 	ldrb	w0, [x0, #2]
    43002394:	7100081f 	cmp	w0, #0x2
    43002398:	54000120 	b.eq	430023bc <psci_find_max_off_lvl+0x30>  // b.none
    4300239c:	39400420 	ldrb	w0, [x1, #1]
    430023a0:	7100081f 	cmp	w0, #0x2
    430023a4:	540000e0 	b.eq	430023c0 <psci_find_max_off_lvl+0x34>  // b.none
    430023a8:	39400021 	ldrb	w1, [x1]
    430023ac:	52800060 	mov	w0, #0x3                   	// #3
    430023b0:	7100083f 	cmp	w1, #0x2
    430023b4:	54000041 	b.ne	430023bc <psci_find_max_off_lvl+0x30>  // b.any
    430023b8:	52800000 	mov	w0, #0x0                   	// #0
    430023bc:	d65f03c0 	ret
    430023c0:	52800020 	mov	w0, #0x1                   	// #1
    430023c4:	17fffffe 	b	430023bc <psci_find_max_off_lvl+0x30>

00000000430023c8 <psci_find_target_suspend_lvl>:
    430023c8:	39400801 	ldrb	w1, [x0, #2]
    430023cc:	35000101 	cbnz	w1, 430023ec <psci_find_target_suspend_lvl+0x24>
    430023d0:	39400401 	ldrb	w1, [x0, #1]
    430023d4:	35000101 	cbnz	w1, 430023f4 <psci_find_target_suspend_lvl+0x2c>
    430023d8:	39400001 	ldrb	w1, [x0]
    430023dc:	52800060 	mov	w0, #0x3                   	// #3
    430023e0:	34000041 	cbz	w1, 430023e8 <psci_find_target_suspend_lvl+0x20>
    430023e4:	52800000 	mov	w0, #0x0                   	// #0
    430023e8:	d65f03c0 	ret
    430023ec:	52800040 	mov	w0, #0x2                   	// #2
    430023f0:	17fffffe 	b	430023e8 <psci_find_target_suspend_lvl+0x20>
    430023f4:	52800020 	mov	w0, #0x1                   	// #1
    430023f8:	17fffffc 	b	430023e8 <psci_find_target_suspend_lvl+0x20>

00000000430023fc <psci_acquire_pwr_domain_locks>:
    430023fc:	a9bc7bfd 	stp	x29, x30, [sp, #-64]!
    43002400:	910003fd 	mov	x29, sp
    43002404:	a90153f3 	stp	x19, x20, [sp, #16]
    43002408:	2a0003f4 	mov	w20, w0
    4300240c:	52800033 	mov	w19, #0x1                   	// #1
    43002410:	a9025bf5 	stp	x21, x22, [sp, #32]
    43002414:	f0000076 	adrp	x22, 43011000 <psci_locks>
    43002418:	aa0103f5 	mov	x21, x1
    4300241c:	910002d6 	add	x22, x22, #0x0
    43002420:	f9001bf7 	str	x23, [sp, #48]
    43002424:	f0000077 	adrp	x23, 43011000 <psci_locks>
    43002428:	910032f7 	add	x23, x23, #0xc
    4300242c:	6b14027f 	cmp	w19, w20
    43002430:	540000c9 	b.ls	43002448 <psci_acquire_pwr_domain_locks+0x4c>  // b.plast
    43002434:	a94153f3 	ldp	x19, x20, [sp, #16]
    43002438:	a9425bf5 	ldp	x21, x22, [sp, #32]
    4300243c:	f9401bf7 	ldr	x23, [sp, #48]
    43002440:	a8c47bfd 	ldp	x29, x30, [sp], #64
    43002444:	d65f03c0 	ret
    43002448:	51000660 	sub	w0, w19, #0x1
    4300244c:	11000673 	add	w19, w19, #0x1
    43002450:	b8607aa0 	ldr	w0, [x21, x0, lsl #2]
    43002454:	8b0012e0 	add	x0, x23, x0, lsl #4
    43002458:	79401c00 	ldrh	w0, [x0, #14]
    4300245c:	8b000ac0 	add	x0, x22, x0, lsl #2
    43002460:	97fffe8c 	bl	43001e90 <bakery_lock_get>
    43002464:	17fffff2 	b	4300242c <psci_acquire_pwr_domain_locks+0x30>

0000000043002468 <psci_release_pwr_domain_locks>:
    43002468:	a9bd7bfd 	stp	x29, x30, [sp, #-48]!
    4300246c:	910003fd 	mov	x29, sp
    43002470:	a90153f3 	stp	x19, x20, [sp, #16]
    43002474:	2a0003f3 	mov	w19, w0
    43002478:	aa0103f4 	mov	x20, x1
    4300247c:	a9025bf5 	stp	x21, x22, [sp, #32]
    43002480:	f0000075 	adrp	x21, 43011000 <psci_locks>
    43002484:	f0000076 	adrp	x22, 43011000 <psci_locks>
    43002488:	910002b5 	add	x21, x21, #0x0
    4300248c:	910032d6 	add	x22, x22, #0xc
    43002490:	350000b3 	cbnz	w19, 430024a4 <psci_release_pwr_domain_locks+0x3c>
    43002494:	a94153f3 	ldp	x19, x20, [sp, #16]
    43002498:	a9425bf5 	ldp	x21, x22, [sp, #32]
    4300249c:	a8c37bfd 	ldp	x29, x30, [sp], #48
    430024a0:	d65f03c0 	ret
    430024a4:	51000673 	sub	w19, w19, #0x1
    430024a8:	b8735a80 	ldr	w0, [x20, w19, uxtw #2]
    430024ac:	8b0012c0 	add	x0, x22, x0, lsl #4
    430024b0:	79401c00 	ldrh	w0, [x0, #14]
    430024b4:	8b000aa0 	add	x0, x21, x0, lsl #2
    430024b8:	97fffea1 	bl	43001f3c <bakery_lock_release>
    430024bc:	17fffff5 	b	43002490 <psci_release_pwr_domain_locks+0x28>

00000000430024c0 <psci_validate_mpidr>:
    430024c0:	a9bf7bfd 	stp	x29, x30, [sp, #-16]!
    430024c4:	910003fd 	mov	x29, sp
    430024c8:	94000d02 	bl	430058d0 <plat_core_pos_by_mpidr>
    430024cc:	7100041f 	cmp	w0, #0x1
    430024d0:	a8c17bfd 	ldp	x29, x30, [sp], #16
    430024d4:	12800020 	mov	w0, #0xfffffffe            	// #-2
    430024d8:	1a9f8000 	csel	w0, w0, wzr, hi  // hi = pmore
    430024dc:	d65f03c0 	ret

00000000430024e0 <psci_validate_entry_point>:
    430024e0:	a9bb7bfd 	stp	x29, x30, [sp, #-80]!
    430024e4:	910003fd 	mov	x29, sp
    430024e8:	a90153f3 	stp	x19, x20, [sp, #16]
    430024ec:	aa0003f4 	mov	x20, x0
    430024f0:	d0000040 	adrp	x0, 4300c000 <__STACKS_START__+0xf00>
    430024f4:	aa0103f3 	mov	x19, x1
    430024f8:	a9025bf5 	stp	x21, x22, [sp, #32]
    430024fc:	f9436c00 	ldr	x0, [x0, #1752]
    43002500:	a90363f7 	stp	x23, x24, [sp, #48]
    43002504:	aa0203f8 	mov	x24, x2
    43002508:	f9403401 	ldr	x1, [x0, #104]
    4300250c:	f90023f9 	str	x25, [sp, #64]
    43002510:	b5000361 	cbnz	x1, 4300257c <psci_validate_entry_point+0x9c>
    43002514:	d53e1117 	mrs	x23, scr_el3
    43002518:	d5381000 	mrs	x0, sctlr_el1
    4300251c:	927802f9 	and	x25, x23, #0x100
    43002520:	37400437 	tbnz	w23, #8, 430025a4 <psci_validate_entry_point+0xc4>
    43002524:	f2670000 	ands	x0, x0, #0x2000000
    43002528:	52802021 	mov	w1, #0x101                 	// #257
    4300252c:	72a00b01 	movk	w1, #0x58, lsl #16
    43002530:	d2800075 	mov	x21, #0x3                   	// #3
    43002534:	9a9f16a0 	csinc	x0, x21, xzr, ne  // ne = any
    43002538:	29000281 	stp	w1, w0, [x20]
    4300253c:	f9000693 	str	x19, [x20, #8]
    43002540:	1a9f07f6 	cset	w22, ne  // ne = any
    43002544:	91006280 	add	x0, x20, #0x18
    43002548:	d2800801 	mov	x1, #0x40                  	// #64
    4300254c:	9400112f 	bl	43006a08 <zeromem>
    43002550:	f9000e98 	str	x24, [x20, #24]
    43002554:	365002d7 	tbz	w23, #10, 430025ac <psci_validate_entry_point+0xcc>
    43002558:	37000193 	tbnz	w19, #0, 43002588 <psci_validate_entry_point+0xa8>
    4300255c:	f100033f 	cmp	x25, #0x0
    43002560:	52807821 	mov	w1, #0x3c1                 	// #961
    43002564:	1a9f07e0 	cset	w0, ne  // ne = any
    43002568:	11000400 	add	w0, w0, #0x1
    4300256c:	2a000820 	orr	w0, w1, w0, lsl #2
    43002570:	b9001280 	str	w0, [x20, #16]
    43002574:	52800000 	mov	w0, #0x0                   	// #0
    43002578:	14000005 	b	4300258c <psci_validate_entry_point+0xac>
    4300257c:	aa1303e0 	mov	x0, x19
    43002580:	d63f0020 	blr	x1
    43002584:	34fffc80 	cbz	w0, 43002514 <psci_validate_entry_point+0x34>
    43002588:	12800100 	mov	w0, #0xfffffff7            	// #-9
    4300258c:	a94153f3 	ldp	x19, x20, [sp, #16]
    43002590:	a9425bf5 	ldp	x21, x22, [sp, #32]
    43002594:	a94363f7 	ldp	x23, x24, [sp, #48]
    43002598:	f94023f9 	ldr	x25, [sp, #64]
    4300259c:	a8c57bfd 	ldp	x29, x30, [sp], #80
    430025a0:	d65f03c0 	ret
    430025a4:	d53c1000 	mrs	x0, sctlr_el2
    430025a8:	17ffffdf 	b	43002524 <psci_validate_entry_point+0x44>
    430025ac:	52800140 	mov	w0, #0xa                   	// #10
    430025b0:	f100033f 	cmp	x25, #0x0
    430025b4:	1a8002b5 	csel	w21, w21, w0, eq  // eq = none
    430025b8:	531b0273 	ubfiz	w19, w19, #5, #1
    430025bc:	52803a00 	mov	w0, #0x1d0                 	// #464
    430025c0:	2a150273 	orr	w19, w19, w21
    430025c4:	2a162416 	orr	w22, w0, w22, lsl #9
    430025c8:	2a160273 	orr	w19, w19, w22
    430025cc:	b9001293 	str	w19, [x20, #16]
    430025d0:	17ffffe9 	b	43002574 <psci_validate_entry_point+0x94>

00000000430025d4 <psci_warmboot_entrypoint>:
    430025d4:	a9bd7bfd 	stp	x29, x30, [sp, #-48]!
    430025d8:	910003fd 	mov	x29, sp
    430025dc:	a90153f3 	stp	x19, x20, [sp, #16]
    430025e0:	94001060 	bl	43006760 <plat_my_core_pos>
    430025e4:	2a0003f4 	mov	w20, w0
    430025e8:	790043ff 	strh	wzr, [sp, #32]
    430025ec:	39008bff 	strb	wzr, [sp, #34]
    430025f0:	f90017ff 	str	xzr, [sp, #40]
    430025f4:	97fffd9c 	bl	43001c64 <cm_manage_extensions_el3>
    430025f8:	d53ed040 	mrs	x0, tpidr_el3
    430025fc:	b9401800 	ldr	w0, [x0, #24]
    43002600:	7100041f 	cmp	w0, #0x1
    43002604:	540000c1 	b.ne	4300261c <psci_warmboot_entrypoint+0x48>  // b.any
    43002608:	f0000020 	adrp	x0, 43009000 <suspend_binary_ca7+0x2e0>
    4300260c:	912e8000 	add	x0, x0, #0xba0
    43002610:	94000d51 	bl	43005b54 <tf_log>
    43002614:	94000dc9 	bl	43005d38 <console_flush>
    43002618:	9400107a 	bl	43006800 <el3_panic>
    4300261c:	d53ed040 	mrs	x0, tpidr_el3
    43002620:	b9401c13 	ldr	w19, [x0, #28]
    43002624:	9100a3e2 	add	x2, sp, #0x28
    43002628:	52800040 	mov	w0, #0x2                   	// #2
    4300262c:	71000e7f 	cmp	w19, #0x3
    43002630:	1a801273 	csel	w19, w19, w0, ne  // ne = any
    43002634:	2a1403e0 	mov	w0, w20
    43002638:	2a1303e1 	mov	w1, w19
    4300263c:	97fffed9 	bl	430021a0 <psci_get_parent_pwr_domain_nodes>
    43002640:	9100a3e1 	add	x1, sp, #0x28
    43002644:	2a1303e0 	mov	w0, w19
    43002648:	97ffff6d 	bl	430023fc <psci_acquire_pwr_domain_locks>
    4300264c:	910083e1 	add	x1, sp, #0x20
    43002650:	2a1303e0 	mov	w0, w19
    43002654:	97fffe8e 	bl	4300208c <psci_get_target_local_pwr_states>
    43002658:	d53ed040 	mrs	x0, tpidr_el3
    4300265c:	b9401800 	ldr	w0, [x0, #24]
    43002660:	910083e1 	add	x1, sp, #0x20
    43002664:	7100081f 	cmp	w0, #0x2
    43002668:	2a1403e0 	mov	w0, w20
    4300266c:	54000141 	b.ne	43002694 <psci_warmboot_entrypoint+0xc0>  // b.any
    43002670:	9400021f 	bl	43002eec <psci_cpu_on_finish>
    43002674:	2a1303e0 	mov	w0, w19
    43002678:	97fffedc 	bl	430021e8 <psci_set_pwr_domains_to_run>
    4300267c:	9100a3e1 	add	x1, sp, #0x28
    43002680:	2a1303e0 	mov	w0, w19
    43002684:	97ffff79 	bl	43002468 <psci_release_pwr_domain_locks>
    43002688:	a94153f3 	ldp	x19, x20, [sp, #16]
    4300268c:	a8c37bfd 	ldp	x29, x30, [sp], #48
    43002690:	d65f03c0 	ret
    43002694:	94000390 	bl	430034d4 <psci_cpu_suspend_finish>
    43002698:	17fffff7 	b	43002674 <psci_warmboot_entrypoint+0xa0>

000000004300269c <psci_spd_migrate_info>:
    4300269c:	d0000041 	adrp	x1, 4300c000 <__STACKS_START__+0xf00>
    430026a0:	f9437021 	ldr	x1, [x1, #1760]
    430026a4:	b40000a1 	cbz	x1, 430026b8 <psci_spd_migrate_info+0x1c>
    430026a8:	f9401821 	ldr	x1, [x1, #48]
    430026ac:	b4000061 	cbz	x1, 430026b8 <psci_spd_migrate_info+0x1c>
    430026b0:	aa0103f0 	mov	x16, x1
    430026b4:	d61f0200 	br	x16
    430026b8:	12800000 	mov	w0, #0xffffffff            	// #-1
    430026bc:	d65f03c0 	ret

00000000430026c0 <psci_print_power_domain_map>:
    430026c0:	d65f03c0 	ret

00000000430026c4 <psci_pwrdown_cpu>:
    430026c4:	14000f99 	b	43006528 <psci_do_pwrdown_cache_maintenance>

00000000430026c8 <psci_cpu_on>:
    430026c8:	a9b77bfd 	stp	x29, x30, [sp, #-144]!
    430026cc:	910003fd 	mov	x29, sp
    430026d0:	a90153f3 	stp	x19, x20, [sp, #16]
    430026d4:	aa0003f3 	mov	x19, x0
    430026d8:	aa0103f4 	mov	x20, x1
    430026dc:	f90013f5 	str	x21, [sp, #32]
    430026e0:	aa0203f5 	mov	x21, x2
    430026e4:	97ffff77 	bl	430024c0 <psci_validate_mpidr>
    430026e8:	350001a0 	cbnz	w0, 4300271c <psci_cpu_on+0x54>
    430026ec:	aa1503e2 	mov	x2, x21
    430026f0:	aa1403e1 	mov	x1, x20
    430026f4:	9100e3e0 	add	x0, sp, #0x38
    430026f8:	97ffff7a 	bl	430024e0 <psci_validate_entry_point>
    430026fc:	35000080 	cbnz	w0, 4300270c <psci_cpu_on+0x44>
    43002700:	9100e3e1 	add	x1, sp, #0x38
    43002704:	aa1303e0 	mov	x0, x19
    43002708:	940001a1 	bl	43002d8c <psci_cpu_on_start>
    4300270c:	a94153f3 	ldp	x19, x20, [sp, #16]
    43002710:	f94013f5 	ldr	x21, [sp, #32]
    43002714:	a8c97bfd 	ldp	x29, x30, [sp], #144
    43002718:	d65f03c0 	ret
    4300271c:	12800020 	mov	w0, #0xfffffffe            	// #-2
    43002720:	17fffffb 	b	4300270c <psci_cpu_on+0x44>

0000000043002724 <psci_cpu_suspend>:
    43002724:	a9b67bfd 	stp	x29, x30, [sp, #-160]!
    43002728:	910003fd 	mov	x29, sp
    4300272c:	a90153f3 	stp	x19, x20, [sp, #16]
    43002730:	2a0003f4 	mov	w20, w0
    43002734:	a9025bf5 	stp	x21, x22, [sp, #32]
    43002738:	aa0103f6 	mov	x22, x1
    4300273c:	910103e1 	add	x1, sp, #0x40
    43002740:	f9001bf7 	str	x23, [sp, #48]
    43002744:	aa0203f7 	mov	x23, x2
    43002748:	790083ff 	strh	wzr, [sp, #64]
    4300274c:	39010bff 	strb	wzr, [sp, #66]
    43002750:	97fffe15 	bl	43001fa4 <psci_validate_power_state>
    43002754:	2a0003f3 	mov	w19, w0
    43002758:	35000300 	cbnz	w0, 430027b8 <psci_cpu_suspend+0x94>
    4300275c:	910103e0 	add	x0, sp, #0x40
    43002760:	d3504294 	ubfx	x20, x20, #16, #1
    43002764:	97ffff19 	bl	430023c8 <psci_find_target_suspend_lvl>
    43002768:	2a0003f5 	mov	w21, w0
    4300276c:	71000c1f 	cmp	w0, #0x3
    43002770:	540000c1 	b.ne	43002788 <psci_cpu_suspend+0x64>  // b.any
    43002774:	f0000020 	adrp	x0, 43009000 <suspend_binary_ca7+0x2e0>
    43002778:	912f0800 	add	x0, x0, #0xbc2
    4300277c:	94000cf6 	bl	43005b54 <tf_log>
    43002780:	94000d6e 	bl	43005d38 <console_flush>
    43002784:	9400101f 	bl	43006800 <el3_panic>
    43002788:	2a000280 	orr	w0, w20, w0
    4300278c:	35000220 	cbnz	w0, 430027d0 <psci_cpu_suspend+0xac>
    43002790:	d0000040 	adrp	x0, 4300c000 <__STACKS_START__+0xf00>
    43002794:	f9436c00 	ldr	x0, [x0, #1752]
    43002798:	f9400001 	ldr	x1, [x0]
    4300279c:	b4000381 	cbz	x1, 4300280c <psci_cpu_suspend+0xe8>
    430027a0:	394103e0 	ldrb	w0, [sp, #64]
    430027a4:	d53ed042 	mrs	x2, tpidr_el3
    430027a8:	39008040 	strb	w0, [x2, #32]
    430027ac:	d63f0020 	blr	x1
    430027b0:	d53ed040 	mrs	x0, tpidr_el3
    430027b4:	3900801f 	strb	wzr, [x0, #32]
    430027b8:	2a1303e0 	mov	w0, w19
    430027bc:	a94153f3 	ldp	x19, x20, [sp, #16]
    430027c0:	a9425bf5 	ldp	x21, x22, [sp, #32]
    430027c4:	f9401bf7 	ldr	x23, [sp, #48]
    430027c8:	a8ca7bfd 	ldp	x29, x30, [sp], #160
    430027cc:	d65f03c0 	ret
    430027d0:	35000114 	cbnz	w20, 430027f0 <psci_cpu_suspend+0xcc>
    430027d4:	2a1403e3 	mov	w3, w20
    430027d8:	910103e2 	add	x2, sp, #0x40
    430027dc:	2a1503e1 	mov	w1, w21
    430027e0:	910123e0 	add	x0, sp, #0x48
    430027e4:	940002cc 	bl	43003314 <psci_cpu_suspend_start>
    430027e8:	2a0003f3 	mov	w19, w0
    430027ec:	17fffff3 	b	430027b8 <psci_cpu_suspend+0x94>
    430027f0:	aa1703e2 	mov	x2, x23
    430027f4:	aa1603e1 	mov	x1, x22
    430027f8:	910123e0 	add	x0, sp, #0x48
    430027fc:	97ffff39 	bl	430024e0 <psci_validate_entry_point>
    43002800:	2a0003f3 	mov	w19, w0
    43002804:	34fffe80 	cbz	w0, 430027d4 <psci_cpu_suspend+0xb0>
    43002808:	17ffffec 	b	430027b8 <psci_cpu_suspend+0x94>
    4300280c:	12800033 	mov	w19, #0xfffffffe            	// #-2
    43002810:	17ffffea 	b	430027b8 <psci_cpu_suspend+0x94>

0000000043002814 <psci_system_suspend>:
    43002814:	a9b87bfd 	stp	x29, x30, [sp, #-128]!
    43002818:	910003fd 	mov	x29, sp
    4300281c:	a90153f3 	stp	x19, x20, [sp, #16]
    43002820:	aa0003f3 	mov	x19, x0
    43002824:	aa0103f4 	mov	x20, x1
    43002828:	97fffdee 	bl	43001fe0 <psci_is_last_on_cpu>
    4300282c:	72001c1f 	tst	w0, #0xff
    43002830:	540000a1 	b.ne	43002844 <psci_system_suspend+0x30>  // b.any
    43002834:	12800040 	mov	w0, #0xfffffffd            	// #-3
    43002838:	a94153f3 	ldp	x19, x20, [sp, #16]
    4300283c:	a8c87bfd 	ldp	x29, x30, [sp], #128
    43002840:	d65f03c0 	ret
    43002844:	aa1403e2 	mov	x2, x20
    43002848:	aa1303e1 	mov	x1, x19
    4300284c:	9100a3e0 	add	x0, sp, #0x28
    43002850:	97ffff24 	bl	430024e0 <psci_validate_entry_point>
    43002854:	35ffff20 	cbnz	w0, 43002838 <psci_system_suspend+0x24>
    43002858:	910083e0 	add	x0, sp, #0x20
    4300285c:	97fffddc 	bl	43001fcc <psci_query_sys_suspend_pwrstate>
    43002860:	910083e0 	add	x0, sp, #0x20
    43002864:	97fffed9 	bl	430023c8 <psci_find_target_suspend_lvl>
    43002868:	7100041f 	cmp	w0, #0x1
    4300286c:	54fffe49 	b.ls	43002834 <psci_system_suspend+0x20>  // b.plast
    43002870:	910083e2 	add	x2, sp, #0x20
    43002874:	9100a3e0 	add	x0, sp, #0x28
    43002878:	52800023 	mov	w3, #0x1                   	// #1
    4300287c:	52800041 	mov	w1, #0x2                   	// #2
    43002880:	940002a5 	bl	43003314 <psci_cpu_suspend_start>
    43002884:	17ffffed 	b	43002838 <psci_system_suspend+0x24>

0000000043002888 <psci_cpu_off>:
    43002888:	52800040 	mov	w0, #0x2                   	// #2
    4300288c:	140000f2 	b	43002c54 <psci_do_cpu_off>

0000000043002890 <psci_affinity_info>:
    43002890:	340000e1 	cbz	w1, 430028ac <psci_affinity_info+0x1c>
    43002894:	12800020 	mov	w0, #0xfffffffe            	// #-2
    43002898:	d65f03c0 	ret
    4300289c:	12800020 	mov	w0, #0xfffffffe            	// #-2
    430028a0:	f9400bf3 	ldr	x19, [sp, #16]
    430028a4:	a8c27bfd 	ldp	x29, x30, [sp], #32
    430028a8:	d65f03c0 	ret
    430028ac:	a9be7bfd 	stp	x29, x30, [sp, #-32]!
    430028b0:	910003fd 	mov	x29, sp
    430028b4:	f9000bf3 	str	x19, [sp, #16]
    430028b8:	94000c06 	bl	430058d0 <plat_core_pos_by_mpidr>
    430028bc:	2a0003f3 	mov	w19, w0
    430028c0:	3100041f 	cmn	w0, #0x1
    430028c4:	54fffec0 	b.eq	4300289c <psci_affinity_info+0xc>  // b.none
    430028c8:	94000f08 	bl	430064e8 <_cpu_data_by_index>
    430028cc:	91006000 	add	x0, x0, #0x18
    430028d0:	d2800081 	mov	x1, #0x4                   	// #4
    430028d4:	94000fd7 	bl	43006830 <flush_dcache_range>
    430028d8:	2a1303e0 	mov	w0, w19
    430028dc:	94000f03 	bl	430064e8 <_cpu_data_by_index>
    430028e0:	b9401800 	ldr	w0, [x0, #24]
    430028e4:	17ffffef 	b	430028a0 <psci_affinity_info+0x10>

00000000430028e8 <psci_migrate>:
    430028e8:	a9bd7bfd 	stp	x29, x30, [sp, #-48]!
    430028ec:	910003fd 	mov	x29, sp
    430028f0:	f9000bf3 	str	x19, [sp, #16]
    430028f4:	aa0003f3 	mov	x19, x0
    430028f8:	9100a3e0 	add	x0, sp, #0x28
    430028fc:	97ffff68 	bl	4300269c <psci_spd_migrate_info>
    43002900:	340000e0 	cbz	w0, 4300291c <psci_migrate+0x34>
    43002904:	7100041f 	cmp	w0, #0x1
    43002908:	12800040 	mov	w0, #0xfffffffd            	// #-3
    4300290c:	5a9f0000 	csinv	w0, w0, wzr, eq  // eq = none
    43002910:	f9400bf3 	ldr	x19, [sp, #16]
    43002914:	a8c37bfd 	ldp	x29, x30, [sp], #48
    43002918:	d65f03c0 	ret
    4300291c:	d53800a0 	mrs	x0, mpidr_el1
    43002920:	f94017e1 	ldr	x1, [sp, #40]
    43002924:	eb00003f 	cmp	x1, x0
    43002928:	54000161 	b.ne	43002954 <psci_migrate+0x6c>  // b.any
    4300292c:	aa1303e0 	mov	x0, x19
    43002930:	97fffee4 	bl	430024c0 <psci_validate_mpidr>
    43002934:	35000140 	cbnz	w0, 4300295c <psci_migrate+0x74>
    43002938:	d53800a0 	mrs	x0, mpidr_el1
    4300293c:	d0000041 	adrp	x1, 4300c000 <__STACKS_START__+0xf00>
    43002940:	f9437021 	ldr	x1, [x1, #1760]
    43002944:	f9401422 	ldr	x2, [x1, #40]
    43002948:	aa1303e1 	mov	x1, x19
    4300294c:	d63f0040 	blr	x2
    43002950:	17fffff0 	b	43002910 <psci_migrate+0x28>
    43002954:	128000c0 	mov	w0, #0xfffffff9            	// #-7
    43002958:	17ffffee 	b	43002910 <psci_migrate+0x28>
    4300295c:	12800020 	mov	w0, #0xfffffffe            	// #-2
    43002960:	17ffffec 	b	43002910 <psci_migrate+0x28>

0000000043002964 <psci_migrate_info_type>:
    43002964:	a9be7bfd 	stp	x29, x30, [sp, #-32]!
    43002968:	910003fd 	mov	x29, sp
    4300296c:	910063e0 	add	x0, sp, #0x18
    43002970:	97ffff4b 	bl	4300269c <psci_spd_migrate_info>
    43002974:	a8c27bfd 	ldp	x29, x30, [sp], #32
    43002978:	d65f03c0 	ret

000000004300297c <psci_migrate_info_up_cpu>:
    4300297c:	a9be7bfd 	stp	x29, x30, [sp, #-32]!
    43002980:	910003fd 	mov	x29, sp
    43002984:	910063e0 	add	x0, sp, #0x18
    43002988:	97ffff45 	bl	4300269c <psci_spd_migrate_info>
    4300298c:	f9400fe1 	ldr	x1, [sp, #24]
    43002990:	7100041f 	cmp	w0, #0x1
    43002994:	a8c27bfd 	ldp	x29, x30, [sp], #32
    43002998:	92800020 	mov	x0, #0xfffffffffffffffe    	// #-2
    4300299c:	9a809020 	csel	x0, x1, x0, ls  // ls = plast
    430029a0:	d65f03c0 	ret

00000000430029a4 <psci_node_hw_state>:
    430029a4:	a9be7bfd 	stp	x29, x30, [sp, #-32]!
    430029a8:	910003fd 	mov	x29, sp
    430029ac:	a90153f3 	stp	x19, x20, [sp, #16]
    430029b0:	aa0003f4 	mov	x20, x0
    430029b4:	2a0103f3 	mov	w19, w1
    430029b8:	97fffec2 	bl	430024c0 <psci_validate_mpidr>
    430029bc:	35000180 	cbnz	w0, 430029ec <psci_node_hw_state+0x48>
    430029c0:	71000a7f 	cmp	w19, #0x2
    430029c4:	54000148 	b.hi	430029ec <psci_node_hw_state+0x48>  // b.pmore
    430029c8:	d0000040 	adrp	x0, 4300c000 <__STACKS_START__+0xf00>
    430029cc:	2a1303e1 	mov	w1, w19
    430029d0:	f9436c00 	ldr	x0, [x0, #1752]
    430029d4:	f9404402 	ldr	x2, [x0, #136]
    430029d8:	aa1403e0 	mov	x0, x20
    430029dc:	a94153f3 	ldp	x19, x20, [sp, #16]
    430029e0:	aa0203f0 	mov	x16, x2
    430029e4:	a8c27bfd 	ldp	x29, x30, [sp], #32
    430029e8:	d61f0200 	br	x16
    430029ec:	12800020 	mov	w0, #0xfffffffe            	// #-2
    430029f0:	a94153f3 	ldp	x19, x20, [sp, #16]
    430029f4:	a8c27bfd 	ldp	x29, x30, [sp], #32
    430029f8:	d65f03c0 	ret

00000000430029fc <psci_features>:
    430029fc:	d0000041 	adrp	x1, 4300c000 <__STACKS_START__+0xf00>
    43002a00:	52b00002 	mov	w2, #0x80000000            	// #-2147483648
    43002a04:	b94afc21 	ldr	w1, [x1, #2812]
    43002a08:	6b02001f 	cmp	w0, w2
    43002a0c:	54000240 	b.eq	43002a54 <psci_features+0x58>  // b.none
    43002a10:	36f00080 	tbz	w0, #30, 43002a20 <psci_features+0x24>
    43002a14:	528c1742 	mov	w2, #0x60ba                	// #24762
    43002a18:	72a002e2 	movk	w2, #0x17, lsl #16
    43002a1c:	0a020021 	and	w1, w1, w2
    43002a20:	d3587402 	ubfx	x2, x0, #24, #6
    43002a24:	7100105f 	cmp	w2, #0x4
    43002a28:	540001a1 	b.ne	43002a5c <psci_features+0x60>  // b.any
    43002a2c:	d3505c04 	ubfx	x4, x0, #16, #8
    43002a30:	531f7c02 	lsr	w2, w0, #31
    43002a34:	36f80140 	tbz	w0, #31, 43002a5c <psci_features+0x60>
    43002a38:	121b2803 	and	w3, w0, #0xffe0
    43002a3c:	2a040063 	orr	w3, w3, w4
    43002a40:	350000e3 	cbnz	w3, 43002a5c <psci_features+0x60>
    43002a44:	1ac02040 	lsl	w0, w2, w0
    43002a48:	6a01001f 	tst	w0, w1
    43002a4c:	5a9f13e0 	csetm	w0, eq  // eq = none
    43002a50:	d65f03c0 	ret
    43002a54:	52800000 	mov	w0, #0x0                   	// #0
    43002a58:	17fffffe 	b	43002a50 <psci_features+0x54>
    43002a5c:	12800000 	mov	w0, #0xffffffff            	// #-1
    43002a60:	17fffffc 	b	43002a50 <psci_features+0x54>

0000000043002a64 <psci_smc_handler>:
    43002a64:	360009e7 	tbz	w7, #0, 43002ba0 <psci_smc_handler+0x13c>
    43002a68:	d0000045 	adrp	x5, 4300c000 <__STACKS_START__+0xf00>
    43002a6c:	2a0003e4 	mov	w4, w0
    43002a70:	aa0103e0 	mov	x0, x1
    43002a74:	aa0203e1 	mov	x1, x2
    43002a78:	b94afca5 	ldr	w5, [x5, #2812]
    43002a7c:	aa0303e2 	mov	x2, x3
    43002a80:	52800023 	mov	w3, #0x1                   	// #1
    43002a84:	1ac42063 	lsl	w3, w3, w4
    43002a88:	6a05007f 	tst	w3, w5
    43002a8c:	540008a0 	b.eq	43002ba0 <psci_smc_handler+0x13c>  // b.none
    43002a90:	a9bf7bfd 	stp	x29, x30, [sp, #-16]!
    43002a94:	910003fd 	mov	x29, sp
    43002a98:	37f00704 	tbnz	w4, #30, 43002b78 <psci_smc_handler+0x114>
    43002a9c:	52af8003 	mov	w3, #0x7c000000            	// #2080374784
    43002aa0:	0b030084 	add	w4, w4, w3
    43002aa4:	7100509f 	cmp	w4, #0x14
    43002aa8:	54000808 	b.hi	43002ba8 <psci_smc_handler+0x144>  // b.pmore
    43002aac:	b0000023 	adrp	x3, 43007000 <efuse_write+0x350>
    43002ab0:	91350063 	add	x3, x3, #0xd40
    43002ab4:	38644863 	ldrb	w3, [x3, w4, uxtw]
    43002ab8:	10000064 	adr	x4, 43002ac4 <psci_smc_handler+0x60>
    43002abc:	8b238883 	add	x3, x4, w3, sxtb #2
    43002ac0:	d61f0060 	br	x3
    43002ac4:	320083e0 	mov	w0, #0x10001               	// #65537
    43002ac8:	a8c17bfd 	ldp	x29, x30, [sp], #16
    43002acc:	d65f03c0 	ret
    43002ad0:	97ffff6e 	bl	43002888 <psci_cpu_off>
    43002ad4:	93407c00 	sxtw	x0, w0
    43002ad8:	17fffffc 	b	43002ac8 <psci_smc_handler+0x64>
    43002adc:	2a0203e2 	mov	w2, w2
    43002ae0:	2a0103e1 	mov	w1, w1
    43002ae4:	97ffff10 	bl	43002724 <psci_cpu_suspend>
    43002ae8:	17fffffb 	b	43002ad4 <psci_smc_handler+0x70>
    43002aec:	2a0203e2 	mov	w2, w2
    43002af0:	2a0103e1 	mov	w1, w1
    43002af4:	2a0003e0 	mov	w0, w0
    43002af8:	97fffef4 	bl	430026c8 <psci_cpu_on>
    43002afc:	17fffff6 	b	43002ad4 <psci_smc_handler+0x70>
    43002b00:	2a0003e0 	mov	w0, w0
    43002b04:	97ffff63 	bl	43002890 <psci_affinity_info>
    43002b08:	17fffff3 	b	43002ad4 <psci_smc_handler+0x70>
    43002b0c:	2a0003e0 	mov	w0, w0
    43002b10:	97ffff76 	bl	430028e8 <psci_migrate>
    43002b14:	17fffff0 	b	43002ad4 <psci_smc_handler+0x70>
    43002b18:	97ffff93 	bl	43002964 <psci_migrate_info_type>
    43002b1c:	17ffffee 	b	43002ad4 <psci_smc_handler+0x70>
    43002b20:	a8c17bfd 	ldp	x29, x30, [sp], #16
    43002b24:	17ffff96 	b	4300297c <psci_migrate_info_up_cpu>
    43002b28:	2a0003e0 	mov	w0, w0
    43002b2c:	97ffff9e 	bl	430029a4 <psci_node_hw_state>
    43002b30:	17ffffe9 	b	43002ad4 <psci_smc_handler+0x70>
    43002b34:	2a0103e1 	mov	w1, w1
    43002b38:	2a0003e0 	mov	w0, w0
    43002b3c:	97ffff36 	bl	43002814 <psci_system_suspend>
    43002b40:	17ffffe5 	b	43002ad4 <psci_smc_handler+0x70>
    43002b44:	9400028c 	bl	43003574 <psci_system_off>
    43002b48:	94000299 	bl	430035ac <psci_system_reset>
    43002b4c:	97ffffac 	bl	430029fc <psci_features>
    43002b50:	17ffffe1 	b	43002ad4 <psci_smc_handler+0x70>
    43002b54:	a8c17bfd 	ldp	x29, x30, [sp], #16
    43002b58:	14000016 	b	43002bb0 <psci_mem_protect>
    43002b5c:	2a0103e1 	mov	w1, w1
    43002b60:	2a0003e0 	mov	w0, w0
    43002b64:	a8c17bfd 	ldp	x29, x30, [sp], #16
    43002b68:	14000029 	b	43002c0c <psci_mem_chk_range>
    43002b6c:	2a0103e1 	mov	w1, w1
    43002b70:	a8c17bfd 	ldp	x29, x30, [sp], #16
    43002b74:	1400029c 	b	430035e4 <psci_system_reset2>
    43002b78:	12b88003 	mov	w3, #0x3bffffff            	// #1006632959
    43002b7c:	0b030084 	add	w4, w4, w3
    43002b80:	71004c9f 	cmp	w4, #0x13
    43002b84:	54000128 	b.hi	43002ba8 <psci_smc_handler+0x144>  // b.pmore
    43002b88:	b0000023 	adrp	x3, 43007000 <efuse_write+0x350>
    43002b8c:	91356063 	add	x3, x3, #0xd58
    43002b90:	38644863 	ldrb	w3, [x3, w4, uxtw]
    43002b94:	10000064 	adr	x4, 43002ba0 <psci_smc_handler+0x13c>
    43002b98:	8b238883 	add	x3, x4, w3, sxtb #2
    43002b9c:	d61f0060 	br	x3
    43002ba0:	92800000 	mov	x0, #0xffffffffffffffff    	// #-1
    43002ba4:	d65f03c0 	ret
    43002ba8:	92800000 	mov	x0, #0xffffffffffffffff    	// #-1
    43002bac:	17ffffc7 	b	43002ac8 <psci_smc_handler+0x64>

0000000043002bb0 <psci_mem_protect>:
    43002bb0:	a9bd7bfd 	stp	x29, x30, [sp, #-48]!
    43002bb4:	910003fd 	mov	x29, sp
    43002bb8:	a90153f3 	stp	x19, x20, [sp, #16]
    43002bbc:	d0000054 	adrp	x20, 4300c000 <__STACKS_START__+0xf00>
    43002bc0:	2a0003f3 	mov	w19, w0
    43002bc4:	f9436e80 	ldr	x0, [x20, #1752]
    43002bc8:	f9404c01 	ldr	x1, [x0, #152]
    43002bcc:	9100b3e0 	add	x0, sp, #0x2c
    43002bd0:	d63f0020 	blr	x1
    43002bd4:	36f800a0 	tbz	w0, #31, 43002be8 <psci_mem_protect+0x38>
    43002bd8:	92800000 	mov	x0, #0xffffffffffffffff    	// #-1
    43002bdc:	a94153f3 	ldp	x19, x20, [sp, #16]
    43002be0:	a8c37bfd 	ldp	x29, x30, [sp], #48
    43002be4:	d65f03c0 	ret
    43002be8:	f9436e80 	ldr	x0, [x20, #1752]
    43002bec:	f9405001 	ldr	x1, [x0, #160]
    43002bf0:	2a1303e0 	mov	w0, w19
    43002bf4:	d63f0020 	blr	x1
    43002bf8:	37ffff00 	tbnz	w0, #31, 43002bd8 <psci_mem_protect+0x28>
    43002bfc:	b9402fe0 	ldr	w0, [sp, #44]
    43002c00:	7100001f 	cmp	w0, #0x0
    43002c04:	9a9f07e0 	cset	x0, ne  // ne = any
    43002c08:	17fffff5 	b	43002bdc <psci_mem_protect+0x2c>

0000000043002c0c <psci_mem_chk_range>:
    43002c0c:	b50000c1 	cbnz	x1, 43002c24 <psci_mem_chk_range+0x18>
    43002c10:	92800040 	mov	x0, #0xfffffffffffffffd    	// #-3
    43002c14:	d65f03c0 	ret
    43002c18:	92800040 	mov	x0, #0xfffffffffffffffd    	// #-3
    43002c1c:	a8c17bfd 	ldp	x29, x30, [sp], #16
    43002c20:	d65f03c0 	ret
    43002c24:	cb0103e2 	neg	x2, x1
    43002c28:	eb00005f 	cmp	x2, x0
    43002c2c:	54ffff23 	b.cc	43002c10 <psci_mem_chk_range+0x4>  // b.lo, b.ul, b.last
    43002c30:	a9bf7bfd 	stp	x29, x30, [sp, #-16]!
    43002c34:	d0000042 	adrp	x2, 4300c000 <__STACKS_START__+0xf00>
    43002c38:	910003fd 	mov	x29, sp
    43002c3c:	f9436c42 	ldr	x2, [x2, #1752]
    43002c40:	f9404842 	ldr	x2, [x2, #144]
    43002c44:	d63f0040 	blr	x2
    43002c48:	37fffe80 	tbnz	w0, #31, 43002c18 <psci_mem_chk_range+0xc>
    43002c4c:	d2800000 	mov	x0, #0x0                   	// #0
    43002c50:	17fffff3 	b	43002c1c <psci_mem_chk_range+0x10>

0000000043002c54 <psci_do_cpu_off>:
    43002c54:	a9bc7bfd 	stp	x29, x30, [sp, #-64]!
    43002c58:	910003fd 	mov	x29, sp
    43002c5c:	a90153f3 	stp	x19, x20, [sp, #16]
    43002c60:	2a0003f4 	mov	w20, w0
    43002c64:	a9025bf5 	stp	x21, x22, [sp, #32]
    43002c68:	94000ebe 	bl	43006760 <plat_my_core_pos>
    43002c6c:	d0000055 	adrp	x21, 4300c000 <__STACKS_START__+0xf00>
    43002c70:	2a0003f6 	mov	w22, w0
    43002c74:	52800040 	mov	w0, #0x2                   	// #2
    43002c78:	3900c3e0 	strb	w0, [sp, #48]
    43002c7c:	3900c7e0 	strb	w0, [sp, #49]
    43002c80:	3900cbe0 	strb	w0, [sp, #50]
    43002c84:	f9436ea0 	ldr	x0, [x21, #1752]
    43002c88:	f9001fff 	str	xzr, [sp, #56]
    43002c8c:	f9400c01 	ldr	x1, [x0, #24]
    43002c90:	b4000161 	cbz	x1, 43002cbc <psci_do_cpu_off+0x68>
    43002c94:	9100c3e0 	add	x0, sp, #0x30
    43002c98:	d63f0020 	blr	x1
    43002c9c:	2a0003f3 	mov	w19, w0
    43002ca0:	31000c1f 	cmn	w0, #0x3
    43002ca4:	540000e1 	b.ne	43002cc0 <psci_do_cpu_off+0x6c>  // b.any
    43002ca8:	2a1303e0 	mov	w0, w19
    43002cac:	a94153f3 	ldp	x19, x20, [sp, #16]
    43002cb0:	a9425bf5 	ldp	x21, x22, [sp, #32]
    43002cb4:	a8c47bfd 	ldp	x29, x30, [sp], #64
    43002cb8:	d65f03c0 	ret
    43002cbc:	52800013 	mov	w19, #0x0                   	// #0
    43002cc0:	9100e3e2 	add	x2, sp, #0x38
    43002cc4:	2a1403e1 	mov	w1, w20
    43002cc8:	2a1603e0 	mov	w0, w22
    43002ccc:	97fffd35 	bl	430021a0 <psci_get_parent_pwr_domain_nodes>
    43002cd0:	2a1403e0 	mov	w0, w20
    43002cd4:	9100e3e1 	add	x1, sp, #0x38
    43002cd8:	97fffdc9 	bl	430023fc <psci_acquire_pwr_domain_locks>
    43002cdc:	d0000040 	adrp	x0, 4300c000 <__STACKS_START__+0xf00>
    43002ce0:	f9437000 	ldr	x0, [x0, #1760]
    43002ce4:	b40000e0 	cbz	x0, 43002d00 <psci_do_cpu_off+0xac>
    43002ce8:	f9400401 	ldr	x1, [x0, #8]
    43002cec:	b40000a1 	cbz	x1, 43002d00 <psci_do_cpu_off+0xac>
    43002cf0:	d2800000 	mov	x0, #0x0                   	// #0
    43002cf4:	d63f0020 	blr	x1
    43002cf8:	2a0003f3 	mov	w19, w0
    43002cfc:	350001c0 	cbnz	w0, 43002d34 <psci_do_cpu_off+0xe0>
    43002d00:	9100c3e1 	add	x1, sp, #0x30
    43002d04:	2a1403e0 	mov	w0, w20
    43002d08:	97fffd5b 	bl	43002274 <psci_do_state_coordination>
    43002d0c:	9100c3e1 	add	x1, sp, #0x30
    43002d10:	2a1403e0 	mov	w0, w20
    43002d14:	97fffd02 	bl	4300211c <psci_set_target_local_pwr_states>
    43002d18:	9100c3e0 	add	x0, sp, #0x30
    43002d1c:	97fffd9c 	bl	4300238c <psci_find_max_off_lvl>
    43002d20:	97fffe69 	bl	430026c4 <psci_pwrdown_cpu>
    43002d24:	f9436ea0 	ldr	x0, [x21, #1752]
    43002d28:	f9400801 	ldr	x1, [x0, #16]
    43002d2c:	9100c3e0 	add	x0, sp, #0x30
    43002d30:	d63f0020 	blr	x1
    43002d34:	9100e3e1 	add	x1, sp, #0x38
    43002d38:	2a1403e0 	mov	w0, w20
    43002d3c:	97fffdcb 	bl	43002468 <psci_release_pwr_domain_locks>
    43002d40:	35fffb53 	cbnz	w19, 43002ca8 <psci_do_cpu_off+0x54>
    43002d44:	d53ed040 	mrs	x0, tpidr_el3
    43002d48:	d2800081 	mov	x1, #0x4                   	// #4
    43002d4c:	91006000 	add	x0, x0, #0x18
    43002d50:	94000eb8 	bl	43006830 <flush_dcache_range>
    43002d54:	d53ed040 	mrs	x0, tpidr_el3
    43002d58:	52800021 	mov	w1, #0x1                   	// #1
    43002d5c:	b9001801 	str	w1, [x0, #24]
    43002d60:	d5033b9f 	dsb	ish
    43002d64:	d53ed040 	mrs	x0, tpidr_el3
    43002d68:	d2800081 	mov	x1, #0x4                   	// #4
    43002d6c:	91006000 	add	x0, x0, #0x18
    43002d70:	94000ecc 	bl	430068a0 <inv_dcache_range>
    43002d74:	f9436ea0 	ldr	x0, [x21, #1752]
    43002d78:	f9402401 	ldr	x1, [x0, #72]
    43002d7c:	b4000061 	cbz	x1, 43002d88 <psci_do_cpu_off+0x134>
    43002d80:	9100c3e0 	add	x0, sp, #0x30
    43002d84:	d63f0020 	blr	x1
    43002d88:	94000e04 	bl	43006598 <psci_power_down_wfi>

0000000043002d8c <psci_cpu_on_start>:
    43002d8c:	a9bc7bfd 	stp	x29, x30, [sp, #-64]!
    43002d90:	910003fd 	mov	x29, sp
    43002d94:	a90153f3 	stp	x19, x20, [sp, #16]
    43002d98:	aa0003f4 	mov	x20, x0
    43002d9c:	a9025bf5 	stp	x21, x22, [sp, #32]
    43002da0:	aa0103f6 	mov	x22, x1
    43002da4:	d2800195 	mov	x21, #0xc                   	// #12
    43002da8:	f9001bf7 	str	x23, [sp, #48]
    43002dac:	94000ac9 	bl	430058d0 <plat_core_pos_by_mpidr>
    43002db0:	d0000042 	adrp	x2, 4300c000 <__STACKS_START__+0xf00>
    43002db4:	911ae042 	add	x2, x2, #0x6b8
    43002db8:	8b2052b5 	add	x21, x21, w0, uxtw #4
    43002dbc:	2a0003f3 	mov	w19, w0
    43002dc0:	8b0202b5 	add	x21, x21, x2
    43002dc4:	aa1503e0 	mov	x0, x21
    43002dc8:	94000dce 	bl	43006500 <spin_lock>
    43002dcc:	2a1303e0 	mov	w0, w19
    43002dd0:	94000dc6 	bl	430064e8 <_cpu_data_by_index>
    43002dd4:	d2800081 	mov	x1, #0x4                   	// #4
    43002dd8:	91006000 	add	x0, x0, #0x18
    43002ddc:	94000e95 	bl	43006830 <flush_dcache_range>
    43002de0:	2a1303e0 	mov	w0, w19
    43002de4:	94000dc1 	bl	430064e8 <_cpu_data_by_index>
    43002de8:	b9401800 	ldr	w0, [x0, #24]
    43002dec:	34000780 	cbz	w0, 43002edc <psci_cpu_on_start+0x150>
    43002df0:	7100081f 	cmp	w0, #0x2
    43002df4:	54000780 	b.eq	43002ee4 <psci_cpu_on_start+0x158>  // b.none
    43002df8:	d0000040 	adrp	x0, 4300c000 <__STACKS_START__+0xf00>
    43002dfc:	f9437000 	ldr	x0, [x0, #1760]
    43002e00:	b40000a0 	cbz	x0, 43002e14 <psci_cpu_on_start+0x88>
    43002e04:	f9400001 	ldr	x1, [x0]
    43002e08:	b4000061 	cbz	x1, 43002e14 <psci_cpu_on_start+0x88>
    43002e0c:	aa1403e0 	mov	x0, x20
    43002e10:	d63f0020 	blr	x1
    43002e14:	2a1303e0 	mov	w0, w19
    43002e18:	52800057 	mov	w23, #0x2                   	// #2
    43002e1c:	94000db3 	bl	430064e8 <_cpu_data_by_index>
    43002e20:	b9001817 	str	w23, [x0, #24]
    43002e24:	2a1303e0 	mov	w0, w19
    43002e28:	94000db0 	bl	430064e8 <_cpu_data_by_index>
    43002e2c:	91006000 	add	x0, x0, #0x18
    43002e30:	d2800081 	mov	x1, #0x4                   	// #4
    43002e34:	94000e7f 	bl	43006830 <flush_dcache_range>
    43002e38:	2a1303e0 	mov	w0, w19
    43002e3c:	94000dab 	bl	430064e8 <_cpu_data_by_index>
    43002e40:	b9401800 	ldr	w0, [x0, #24]
    43002e44:	6b17001f 	cmp	w0, w23
    43002e48:	54000120 	b.eq	43002e6c <psci_cpu_on_start+0xe0>  // b.none
    43002e4c:	2a1303e0 	mov	w0, w19
    43002e50:	94000da6 	bl	430064e8 <_cpu_data_by_index>
    43002e54:	b9001817 	str	w23, [x0, #24]
    43002e58:	2a1303e0 	mov	w0, w19
    43002e5c:	94000da3 	bl	430064e8 <_cpu_data_by_index>
    43002e60:	91006000 	add	x0, x0, #0x18
    43002e64:	d2800081 	mov	x1, #0x4                   	// #4
    43002e68:	94000e72 	bl	43006830 <flush_dcache_range>
    43002e6c:	d0000040 	adrp	x0, 4300c000 <__STACKS_START__+0xf00>
    43002e70:	f9436c00 	ldr	x0, [x0, #1752]
    43002e74:	f9400401 	ldr	x1, [x0, #8]
    43002e78:	aa1403e0 	mov	x0, x20
    43002e7c:	d63f0020 	blr	x1
    43002e80:	2a0003f4 	mov	w20, w0
    43002e84:	35000180 	cbnz	w0, 43002eb4 <psci_cpu_on_start+0x128>
    43002e88:	aa1603e1 	mov	x1, x22
    43002e8c:	2a1303e0 	mov	w0, w19
    43002e90:	97fffb76 	bl	43001c68 <cm_init_context_by_index>
    43002e94:	aa1503e0 	mov	x0, x21
    43002e98:	94000da2 	bl	43006520 <spin_unlock>
    43002e9c:	2a1403e0 	mov	w0, w20
    43002ea0:	a94153f3 	ldp	x19, x20, [sp, #16]
    43002ea4:	a9425bf5 	ldp	x21, x22, [sp, #32]
    43002ea8:	f9401bf7 	ldr	x23, [sp, #48]
    43002eac:	a8c47bfd 	ldp	x29, x30, [sp], #64
    43002eb0:	d65f03c0 	ret
    43002eb4:	2a1303e0 	mov	w0, w19
    43002eb8:	94000d8c 	bl	430064e8 <_cpu_data_by_index>
    43002ebc:	52800021 	mov	w1, #0x1                   	// #1
    43002ec0:	b9001801 	str	w1, [x0, #24]
    43002ec4:	2a1303e0 	mov	w0, w19
    43002ec8:	94000d88 	bl	430064e8 <_cpu_data_by_index>
    43002ecc:	91006000 	add	x0, x0, #0x18
    43002ed0:	d2800081 	mov	x1, #0x4                   	// #4
    43002ed4:	94000e57 	bl	43006830 <flush_dcache_range>
    43002ed8:	17ffffef 	b	43002e94 <psci_cpu_on_start+0x108>
    43002edc:	12800074 	mov	w20, #0xfffffffc            	// #-4
    43002ee0:	17ffffed 	b	43002e94 <psci_cpu_on_start+0x108>
    43002ee4:	12800094 	mov	w20, #0xfffffffb            	// #-5
    43002ee8:	17ffffeb 	b	43002e94 <psci_cpu_on_start+0x108>

0000000043002eec <psci_cpu_on_finish>:
    43002eec:	a9bd7bfd 	stp	x29, x30, [sp, #-48]!
    43002ef0:	910003fd 	mov	x29, sp
    43002ef4:	a9025bf5 	stp	x21, x22, [sp, #32]
    43002ef8:	d0000055 	adrp	x21, 4300c000 <__STACKS_START__+0xf00>
    43002efc:	a90153f3 	stp	x19, x20, [sp, #16]
    43002f00:	2a0003f3 	mov	w19, w0
    43002f04:	aa0103f4 	mov	x20, x1
    43002f08:	f9436ea0 	ldr	x0, [x21, #1752]
    43002f0c:	f9401801 	ldr	x1, [x0, #48]
    43002f10:	aa1403e0 	mov	x0, x20
    43002f14:	d63f0020 	blr	x1
    43002f18:	94000d93 	bl	43006564 <psci_do_pwrup_cache_maintenance>
    43002f1c:	f9436ea0 	ldr	x0, [x21, #1752]
    43002f20:	f9401c01 	ldr	x1, [x0, #56]
    43002f24:	b4000061 	cbz	x1, 43002f30 <psci_cpu_on_finish+0x44>
    43002f28:	aa1403e0 	mov	x0, x20
    43002f2c:	d63f0020 	blr	x1
    43002f30:	d2800194 	mov	x20, #0xc                   	// #12
    43002f34:	d0000055 	adrp	x21, 4300c000 <__STACKS_START__+0xf00>
    43002f38:	8b335294 	add	x20, x20, w19, uxtw #4
    43002f3c:	911ae2b5 	add	x21, x21, #0x6b8
    43002f40:	8b150294 	add	x20, x20, x21
    43002f44:	9400001f 	bl	43002fc0 <psci_arch_setup>
    43002f48:	aa1403e0 	mov	x0, x20
    43002f4c:	94000d6d 	bl	43006500 <spin_lock>
    43002f50:	aa1403e0 	mov	x0, x20
    43002f54:	94000d73 	bl	43006520 <spin_unlock>
    43002f58:	d0000040 	adrp	x0, 4300c000 <__STACKS_START__+0xf00>
    43002f5c:	f9437000 	ldr	x0, [x0, #1760]
    43002f60:	b40000a0 	cbz	x0, 43002f74 <psci_cpu_on_finish+0x88>
    43002f64:	f9400c01 	ldr	x1, [x0, #24]
    43002f68:	b4000061 	cbz	x1, 43002f74 <psci_cpu_on_finish+0x88>
    43002f6c:	d2800000 	mov	x0, #0x0                   	// #0
    43002f70:	d63f0020 	blr	x1
    43002f74:	90000054 	adrp	x20, 4300a000 <__func__.7+0x8a>
    43002f78:	90000056 	adrp	x22, 4300a000 <__func__.7+0x8a>
    43002f7c:	9113c294 	add	x20, x20, #0x4f0
    43002f80:	9113c2d6 	add	x22, x22, #0x4f0
    43002f84:	eb16029f 	cmp	x20, x22
    43002f88:	54000143 	b.cc	43002fb0 <psci_cpu_on_finish+0xc4>  // b.lo, b.ul, b.last
    43002f8c:	d53800a1 	mrs	x1, mpidr_el1
    43002f90:	d37c7e73 	ubfiz	x19, x19, #4, #32
    43002f94:	92409c21 	and	x1, x1, #0xffffffffff
    43002f98:	9260dc21 	and	x1, x1, #0xffffffff00ffffff
    43002f9c:	f8336aa1 	str	x1, [x21, x19]
    43002fa0:	a94153f3 	ldp	x19, x20, [sp, #16]
    43002fa4:	a9425bf5 	ldp	x21, x22, [sp, #32]
    43002fa8:	a8c37bfd 	ldp	x29, x30, [sp], #48
    43002fac:	17fffba1 	b	43001e30 <cm_prepare_el3_exit_ns>
    43002fb0:	f8408681 	ldr	x1, [x20], #8
    43002fb4:	d2800000 	mov	x0, #0x0                   	// #0
    43002fb8:	d63f0020 	blr	x1
    43002fbc:	17fffff2 	b	43002f84 <psci_cpu_on_finish+0x98>

0000000043002fc0 <psci_arch_setup>:
    43002fc0:	a9bf7bfd 	stp	x29, x30, [sp, #-16]!
    43002fc4:	910003fd 	mov	x29, sp
    43002fc8:	94000402 	bl	43003fd0 <plat_get_syscnt_freq2>
    43002fcc:	2a0003e0 	mov	w0, w0
    43002fd0:	d51be000 	msr	cntfrq_el0, x0
    43002fd4:	94000c9c 	bl	43006244 <init_cpu_ops>
    43002fd8:	a8c17bfd 	ldp	x29, x30, [sp], #16
    43002fdc:	17fffac7 	b	43001af8 <print_errata_status>

0000000043002fe0 <psci_setup>:
    43002fe0:	a9b87bfd 	stp	x29, x30, [sp, #-128]!
    43002fe4:	910003fd 	mov	x29, sp
    43002fe8:	a90153f3 	stp	x19, x20, [sp, #16]
    43002fec:	52800013 	mov	w19, #0x0                   	// #0
    43002ff0:	a9025bf5 	stp	x21, x22, [sp, #32]
    43002ff4:	aa0003f5 	mov	x21, x0
    43002ff8:	d0000056 	adrp	x22, 4300c000 <__STACKS_START__+0xf00>
    43002ffc:	a90363f7 	stp	x23, x24, [sp, #48]
    43003000:	910682d6 	add	x22, x22, #0x1a0
    43003004:	52800017 	mov	w23, #0x0                   	// #0
    43003008:	a9046bf9 	stp	x25, x26, [sp, #64]
    4300300c:	b000005a 	adrp	x26, 4300c000 <__STACKS_START__+0xf00>
    43003010:	911ae35a 	add	x26, x26, #0x6b8
    43003014:	a90573fb 	stp	x27, x28, [sp, #80]
    43003018:	97ffffea 	bl	43002fc0 <psci_arch_setup>
    4300301c:	94000a2a 	bl	430058c4 <plat_get_power_domain_tree_desc>
    43003020:	aa0003fb 	mov	x27, x0
    43003024:	52800001 	mov	w1, #0x0                   	// #0
    43003028:	52800039 	mov	w25, #0x1                   	// #1
    4300302c:	52800058 	mov	w24, #0x2                   	// #2
    43003030:	0b170323 	add	w3, w25, w23
    43003034:	52800019 	mov	w25, #0x0                   	// #0
    43003038:	14000009 	b	4300305c <psci_setup+0x7c>
    4300303c:	38774b7c 	ldrb	w28, [x27, w23, uxtw]
    43003040:	2a0103f3 	mov	w19, w1
    43003044:	0b010384 	add	w4, w28, w1
    43003048:	6b04027f 	cmp	w19, w4
    4300304c:	54000d83 	b.cc	430031fc <psci_setup+0x21c>  // b.lo, b.ul, b.last
    43003050:	0b1c0339 	add	w25, w25, w28
    43003054:	110006f7 	add	w23, w23, #0x1
    43003058:	2a1303e1 	mov	w1, w19
    4300305c:	6b17007f 	cmp	w3, w23
    43003060:	54fffee1 	b.ne	4300303c <psci_setup+0x5c>  // b.any
    43003064:	71000718 	subs	w24, w24, #0x1
    43003068:	540011a0 	b.eq	4300329c <psci_setup+0x2bc>  // b.none
    4300306c:	3100071f 	cmn	w24, #0x1
    43003070:	54fffe01 	b.ne	43003030 <psci_setup+0x50>  // b.any
    43003074:	b0000040 	adrp	x0, 4300c000 <__STACKS_START__+0xf00>
    43003078:	d0000074 	adrp	x20, 43011000 <psci_locks>
    4300307c:	912be016 	add	x22, x0, #0xaf8
    43003080:	91003294 	add	x20, x20, #0xc
    43003084:	b90af813 	str	w19, [x0, #2808]
    43003088:	52800018 	mov	w24, #0x0                   	// #0
    4300308c:	52800017 	mov	w23, #0x0                   	// #0
    43003090:	52800013 	mov	w19, #0x0                   	// #0
    43003094:	b94002c0 	ldr	w0, [x22]
    43003098:	6b00027f 	cmp	w19, w0
    4300309c:	54001043 	b.cc	430032a4 <psci_setup+0x2c4>  // b.lo, b.ul, b.last
    430030a0:	d53800b3 	mrs	x19, mpidr_el1
    430030a4:	94000daf 	bl	43006760 <plat_my_core_pos>
    430030a8:	d37c7c00 	ubfiz	x0, x0, #4, #32
    430030ac:	b0000042 	adrp	x2, 4300c000 <__STACKS_START__+0xf00>
    430030b0:	911ae042 	add	x2, x2, #0x6b8
    430030b4:	92409e61 	and	x1, x19, #0xffffffffff
    430030b8:	b0000053 	adrp	x19, 4300c000 <__STACKS_START__+0xf00>
    430030bc:	9260dc21 	and	x1, x1, #0xffffffff00ffffff
    430030c0:	911b6274 	add	x20, x19, #0x6d8
    430030c4:	f8206841 	str	x1, [x2, x0]
    430030c8:	97fffbe2 	bl	43002050 <psci_init_req_local_pwr_states>
    430030cc:	52800040 	mov	w0, #0x2                   	// #2
    430030d0:	97fffc46 	bl	430021e8 <psci_set_pwr_domains_to_run>
    430030d4:	f94006a0 	ldr	x0, [x21, #8]
    430030d8:	aa1403e1 	mov	x1, x20
    430030dc:	94000962 	bl	43005664 <plat_setup_psci_ops>
    430030e0:	aa1403e0 	mov	x0, x20
    430030e4:	d2800101 	mov	x1, #0x8                   	// #8
    430030e8:	94000dd2 	bl	43006830 <flush_dcache_range>
    430030ec:	f9436e61 	ldr	x1, [x19, #1752]
    430030f0:	52808223 	mov	w3, #0x411                 	// #1041
    430030f4:	b0000040 	adrp	x0, 4300c000 <__STACKS_START__+0xf00>
    430030f8:	f9400822 	ldr	x2, [x1, #16]
    430030fc:	f100005f 	cmp	x2, #0x0
    43003100:	528082a2 	mov	w2, #0x415                 	// #1045
    43003104:	1a831042 	csel	w2, w2, w3, ne  // ne = any
    43003108:	b90afc02 	str	w2, [x0, #2812]
    4300310c:	f9400423 	ldr	x3, [x1, #8]
    43003110:	b40000a3 	cbz	x3, 43003124 <psci_setup+0x144>
    43003114:	f9401823 	ldr	x3, [x1, #48]
    43003118:	b4000063 	cbz	x3, 43003124 <psci_setup+0x144>
    4300311c:	321d0042 	orr	w2, w2, #0x8
    43003120:	b90afc02 	str	w2, [x0, #2812]
    43003124:	f9401422 	ldr	x2, [x1, #40]
    43003128:	b40001a2 	cbz	x2, 4300315c <psci_setup+0x17c>
    4300312c:	f9402022 	ldr	x2, [x1, #64]
    43003130:	b4000162 	cbz	x2, 4300315c <psci_setup+0x17c>
    43003134:	f9403022 	ldr	x2, [x1, #96]
    43003138:	b4000082 	cbz	x2, 43003148 <psci_setup+0x168>
    4300313c:	b94afc02 	ldr	w2, [x0, #2812]
    43003140:	321f0042 	orr	w2, w2, #0x2
    43003144:	b90afc02 	str	w2, [x0, #2812]
    43003148:	f9403822 	ldr	x2, [x1, #112]
    4300314c:	b4000082 	cbz	x2, 4300315c <psci_setup+0x17c>
    43003150:	b94afc02 	ldr	w2, [x0, #2812]
    43003154:	32120042 	orr	w2, w2, #0x4000
    43003158:	b90afc02 	str	w2, [x0, #2812]
    4300315c:	f9402822 	ldr	x2, [x1, #80]
    43003160:	b4000082 	cbz	x2, 43003170 <psci_setup+0x190>
    43003164:	b94afc02 	ldr	w2, [x0, #2812]
    43003168:	32180042 	orr	w2, w2, #0x100
    4300316c:	b90afc02 	str	w2, [x0, #2812]
    43003170:	f9402c22 	ldr	x2, [x1, #88]
    43003174:	b4000082 	cbz	x2, 43003184 <psci_setup+0x1a4>
    43003178:	b94afc02 	ldr	w2, [x0, #2812]
    4300317c:	32170042 	orr	w2, w2, #0x200
    43003180:	b90afc02 	str	w2, [x0, #2812]
    43003184:	f9404422 	ldr	x2, [x1, #136]
    43003188:	b4000082 	cbz	x2, 43003198 <psci_setup+0x1b8>
    4300318c:	b94afc02 	ldr	w2, [x0, #2812]
    43003190:	32130042 	orr	w2, w2, #0x2000
    43003194:	b90afc02 	str	w2, [x0, #2812]
    43003198:	f9404c22 	ldr	x2, [x1, #152]
    4300319c:	b40000c2 	cbz	x2, 430031b4 <psci_setup+0x1d4>
    430031a0:	f9405022 	ldr	x2, [x1, #160]
    430031a4:	b4000082 	cbz	x2, 430031b4 <psci_setup+0x1d4>
    430031a8:	b94afc02 	ldr	w2, [x0, #2812]
    430031ac:	320d0042 	orr	w2, w2, #0x80000
    430031b0:	b90afc02 	str	w2, [x0, #2812]
    430031b4:	f9404822 	ldr	x2, [x1, #144]
    430031b8:	b4000082 	cbz	x2, 430031c8 <psci_setup+0x1e8>
    430031bc:	b94afc02 	ldr	w2, [x0, #2812]
    430031c0:	320c0042 	orr	w2, w2, #0x100000
    430031c4:	b90afc02 	str	w2, [x0, #2812]
    430031c8:	f9405421 	ldr	x1, [x1, #168]
    430031cc:	b4000081 	cbz	x1, 430031dc <psci_setup+0x1fc>
    430031d0:	b94afc01 	ldr	w1, [x0, #2812]
    430031d4:	320e0021 	orr	w1, w1, #0x40000
    430031d8:	b90afc01 	str	w1, [x0, #2812]
    430031dc:	52800000 	mov	w0, #0x0                   	// #0
    430031e0:	a94153f3 	ldp	x19, x20, [sp, #16]
    430031e4:	a9425bf5 	ldp	x21, x22, [sp, #32]
    430031e8:	a94363f7 	ldp	x23, x24, [sp, #48]
    430031ec:	a9446bf9 	ldp	x25, x26, [sp, #64]
    430031f0:	a94573fb 	ldp	x27, x28, [sp, #80]
    430031f4:	a8c87bfd 	ldp	x29, x30, [sp], #128
    430031f8:	d65f03c0 	ret
    430031fc:	510006e2 	sub	w2, w23, #0x1
    43003200:	12003e74 	and	w20, w19, #0xffff
    43003204:	340001b8 	cbz	w24, 43003238 <psci_setup+0x258>
    43003208:	d0000061 	adrp	x1, 43011000 <psci_locks>
    4300320c:	91003021 	add	x1, x1, #0xc
    43003210:	8b34d034 	add	x20, x1, w20, sxtw #4
    43003214:	d37c3e60 	ubfiz	x0, x19, #4, #16
    43003218:	8b010001 	add	x1, x0, x1
    4300321c:	52800040 	mov	w0, #0x2                   	// #2
    43003220:	39003698 	strb	w24, [x20, #13]
    43003224:	79001c33 	strh	w19, [x1, #14]
    43003228:	b9000a82 	str	w2, [x20, #8]
    4300322c:	39003280 	strb	w0, [x20, #12]
    43003230:	11000673 	add	w19, w19, #0x1
    43003234:	17ffff85 	b	43003048 <psci_setup+0x68>
    43003238:	8b34d341 	add	x1, x26, w20, sxtw #4
    4300323c:	937c7e80 	sbfiz	x0, x20, #4, #32
    43003240:	290d13e3 	stp	w3, w4, [sp, #104]
    43003244:	b9000822 	str	w2, [x1, #8]
    43003248:	92800001 	mov	x1, #0xffffffffffffffff    	// #-1
    4300324c:	f8206b41 	str	x1, [x26, x0]
    43003250:	2a1403e0 	mov	w0, w20
    43003254:	94000ca5 	bl	430064e8 <_cpu_data_by_index>
    43003258:	aa0003e1 	mov	x1, x0
    4300325c:	91006000 	add	x0, x0, #0x18
    43003260:	52800022 	mov	w2, #0x1                   	// #1
    43003264:	b9001822 	str	w2, [x1, #24]
    43003268:	52800061 	mov	w1, #0x3                   	// #3
    4300326c:	b9000401 	str	w1, [x0, #4]
    43003270:	52800041 	mov	w1, #0x2                   	// #2
    43003274:	39002001 	strb	w1, [x0, #8]
    43003278:	d2800181 	mov	x1, #0xc                   	// #12
    4300327c:	94000d6d 	bl	43006830 <flush_dcache_range>
    43003280:	52804801 	mov	w1, #0x240                 	// #576
    43003284:	2a1403e0 	mov	w0, w20
    43003288:	52800022 	mov	w2, #0x1                   	// #1
    4300328c:	9ba15a81 	umaddl	x1, w20, w1, x22
    43003290:	97fff7d5 	bl	430011e4 <cm_set_context_by_index>
    43003294:	294d13e3 	ldp	w3, w4, [sp, #104]
    43003298:	17ffffe6 	b	43003230 <psci_setup+0x250>
    4300329c:	52800001 	mov	w1, #0x0                   	// #0
    430032a0:	17ffff64 	b	43003030 <psci_setup+0x50>
    430032a4:	9101e3e2 	add	x2, sp, #0x78
    430032a8:	2a1303e0 	mov	w0, w19
    430032ac:	52800041 	mov	w1, #0x2                   	// #2
    430032b0:	97fffbbc 	bl	430021a0 <psci_get_parent_pwr_domain_nodes>
    430032b4:	b9407fe2 	ldr	w2, [sp, #124]
    430032b8:	6b02031f 	cmp	w24, w2
    430032bc:	2a0203e0 	mov	w0, w2
    430032c0:	54000060 	b.eq	430032cc <psci_setup+0x2ec>  // b.none
    430032c4:	d37cec01 	lsl	x1, x0, #4
    430032c8:	b8216a93 	str	w19, [x20, x1]
    430032cc:	8b001280 	add	x0, x20, x0, lsl #4
    430032d0:	b9400401 	ldr	w1, [x0, #4]
    430032d4:	11000421 	add	w1, w1, #0x1
    430032d8:	b9000401 	str	w1, [x0, #4]
    430032dc:	b9407be0 	ldr	w0, [sp, #120]
    430032e0:	6b0002ff 	cmp	w23, w0
    430032e4:	2a0003e1 	mov	w1, w0
    430032e8:	54000060 	b.eq	430032f4 <psci_setup+0x314>  // b.none
    430032ec:	d37cec23 	lsl	x3, x1, #4
    430032f0:	b8236a93 	str	w19, [x20, x3]
    430032f4:	8b011281 	add	x1, x20, x1, lsl #4
    430032f8:	11000673 	add	w19, w19, #0x1
    430032fc:	2a0203f8 	mov	w24, w2
    43003300:	2a0003f7 	mov	w23, w0
    43003304:	b9400423 	ldr	w3, [x1, #4]
    43003308:	11000463 	add	w3, w3, #0x1
    4300330c:	b9000423 	str	w3, [x1, #4]
    43003310:	17ffff61 	b	43003094 <psci_setup+0xb4>

0000000043003314 <psci_cpu_suspend_start>:
    43003314:	a9b97bfd 	stp	x29, x30, [sp, #-112]!
    43003318:	910003fd 	mov	x29, sp
    4300331c:	a90153f3 	stp	x19, x20, [sp, #16]
    43003320:	2a0103f3 	mov	w19, w1
    43003324:	aa0203f4 	mov	x20, x2
    43003328:	a9025bf5 	stp	x21, x22, [sp, #32]
    4300332c:	2a0303f6 	mov	w22, w3
    43003330:	a90363f7 	stp	x23, x24, [sp, #48]
    43003334:	a9046bf9 	stp	x25, x26, [sp, #64]
    43003338:	aa0003f9 	mov	x25, x0
    4300333c:	94000d09 	bl	43006760 <plat_my_core_pos>
    43003340:	910183e2 	add	x2, sp, #0x60
    43003344:	2a0003f8 	mov	w24, w0
    43003348:	2a1303e1 	mov	w1, w19
    4300334c:	f90033ff 	str	xzr, [sp, #96]
    43003350:	97fffb94 	bl	430021a0 <psci_get_parent_pwr_domain_nodes>
    43003354:	910183e1 	add	x1, sp, #0x60
    43003358:	2a1303e0 	mov	w0, w19
    4300335c:	97fffc28 	bl	430023fc <psci_acquire_pwr_domain_locks>
    43003360:	d538c100 	mrs	x0, isr_el1
    43003364:	b50007a0 	cbnz	x0, 43003458 <psci_cpu_suspend_start+0x144>
    43003368:	aa1403e1 	mov	x1, x20
    4300336c:	2a1303e0 	mov	w0, w19
    43003370:	97fffbc1 	bl	43002274 <psci_do_state_coordination>
    43003374:	aa1403e1 	mov	x1, x20
    43003378:	2a1303e0 	mov	w0, w19
    4300337c:	97fffb68 	bl	4300211c <psci_set_target_local_pwr_states>
    43003380:	34000436 	cbz	w22, 43003404 <psci_cpu_suspend_start+0xf0>
    43003384:	aa1403e0 	mov	x0, x20
    43003388:	f0000035 	adrp	x21, 4300a000 <__func__.7+0x8a>
    4300338c:	f000003a 	adrp	x26, 4300a000 <__func__.7+0x8a>
    43003390:	97fffbff 	bl	4300238c <psci_find_max_off_lvl>
    43003394:	9113c2b5 	add	x21, x21, #0x4f0
    43003398:	2a0003f7 	mov	w23, w0
    4300339c:	9113c35a 	add	x26, x26, #0x4f0
    430033a0:	eb1a02bf 	cmp	x21, x26
    430033a4:	54000523 	b.cc	43003448 <psci_cpu_suspend_start+0x134>  // b.lo, b.ul, b.last
    430033a8:	d53ed040 	mrs	x0, tpidr_el3
    430033ac:	b9001c13 	str	w19, [x0, #28]
    430033b0:	d53ed040 	mrs	x0, tpidr_el3
    430033b4:	d2800081 	mov	x1, #0x4                   	// #4
    430033b8:	91007000 	add	x0, x0, #0x1c
    430033bc:	94000d1d 	bl	43006830 <flush_dcache_range>
    430033c0:	b0000040 	adrp	x0, 4300c000 <__STACKS_START__+0xf00>
    430033c4:	f9437000 	ldr	x0, [x0, #1760]
    430033c8:	b40000a0 	cbz	x0, 430033dc <psci_cpu_suspend_start+0xc8>
    430033cc:	f9400801 	ldr	x1, [x0, #16]
    430033d0:	b4000061 	cbz	x1, 430033dc <psci_cpu_suspend_start+0xc8>
    430033d4:	2a1703e0 	mov	w0, w23
    430033d8:	d63f0020 	blr	x1
    430033dc:	b0000040 	adrp	x0, 4300c000 <__STACKS_START__+0xf00>
    430033e0:	f9436c00 	ldr	x0, [x0, #1752]
    430033e4:	f9401001 	ldr	x1, [x0, #32]
    430033e8:	b4000061 	cbz	x1, 430033f4 <psci_cpu_suspend_start+0xe0>
    430033ec:	aa1403e0 	mov	x0, x20
    430033f0:	d63f0020 	blr	x1
    430033f4:	aa1903e0 	mov	x0, x25
    430033f8:	97fffa28 	bl	43001c98 <cm_init_my_context>
    430033fc:	2a1703e0 	mov	w0, w23
    43003400:	97fffcb1 	bl	430026c4 <psci_pwrdown_cpu>
    43003404:	b0000040 	adrp	x0, 4300c000 <__STACKS_START__+0xf00>
    43003408:	52800015 	mov	w21, #0x0                   	// #0
    4300340c:	f9436c00 	ldr	x0, [x0, #1752]
    43003410:	f9401401 	ldr	x1, [x0, #40]
    43003414:	aa1403e0 	mov	x0, x20
    43003418:	d63f0020 	blr	x1
    4300341c:	910183e1 	add	x1, sp, #0x60
    43003420:	2a1303e0 	mov	w0, w19
    43003424:	97fffc11 	bl	43002468 <psci_release_pwr_domain_locks>
    43003428:	35000495 	cbnz	w21, 430034b8 <psci_cpu_suspend_start+0x1a4>
    4300342c:	b0000055 	adrp	x21, 4300c000 <__STACKS_START__+0xf00>
    43003430:	340001b6 	cbz	w22, 43003464 <psci_cpu_suspend_start+0x150>
    43003434:	f9436ea0 	ldr	x0, [x21, #1752]
    43003438:	f9402401 	ldr	x1, [x0, #72]
    4300343c:	b4000121 	cbz	x1, 43003460 <psci_cpu_suspend_start+0x14c>
    43003440:	aa1403e0 	mov	x0, x20
    43003444:	d63f0020 	blr	x1
    43003448:	f84086a1 	ldr	x1, [x21], #8
    4300344c:	d2800000 	mov	x0, #0x0                   	// #0
    43003450:	d63f0020 	blr	x1
    43003454:	17ffffd3 	b	430033a0 <psci_cpu_suspend_start+0x8c>
    43003458:	52800035 	mov	w21, #0x1                   	// #1
    4300345c:	17fffff0 	b	4300341c <psci_cpu_suspend_start+0x108>
    43003460:	94000c4e 	bl	43006598 <psci_power_down_wfi>
    43003464:	d503207f 	wfi
    43003468:	9101a3e2 	add	x2, sp, #0x68
    4300346c:	2a1303e1 	mov	w1, w19
    43003470:	2a1803e0 	mov	w0, w24
    43003474:	f90037ff 	str	xzr, [sp, #104]
    43003478:	97fffb4a 	bl	430021a0 <psci_get_parent_pwr_domain_nodes>
    4300347c:	9101a3e1 	add	x1, sp, #0x68
    43003480:	2a1303e0 	mov	w0, w19
    43003484:	97fffbde 	bl	430023fc <psci_acquire_pwr_domain_locks>
    43003488:	910163e1 	add	x1, sp, #0x58
    4300348c:	2a1303e0 	mov	w0, w19
    43003490:	97fffaff 	bl	4300208c <psci_get_target_local_pwr_states>
    43003494:	f9436ea0 	ldr	x0, [x21, #1752]
    43003498:	f9402001 	ldr	x1, [x0, #64]
    4300349c:	910163e0 	add	x0, sp, #0x58
    430034a0:	d63f0020 	blr	x1
    430034a4:	2a1303e0 	mov	w0, w19
    430034a8:	97fffb50 	bl	430021e8 <psci_set_pwr_domains_to_run>
    430034ac:	9101a3e1 	add	x1, sp, #0x68
    430034b0:	2a1303e0 	mov	w0, w19
    430034b4:	97fffbed 	bl	43002468 <psci_release_pwr_domain_locks>
    430034b8:	52800000 	mov	w0, #0x0                   	// #0
    430034bc:	a94153f3 	ldp	x19, x20, [sp, #16]
    430034c0:	a9425bf5 	ldp	x21, x22, [sp, #32]
    430034c4:	a94363f7 	ldp	x23, x24, [sp, #48]
    430034c8:	a9446bf9 	ldp	x25, x26, [sp, #64]
    430034cc:	a8c77bfd 	ldp	x29, x30, [sp], #112
    430034d0:	d65f03c0 	ret

00000000430034d4 <psci_cpu_suspend_finish>:
    430034d4:	a9be7bfd 	stp	x29, x30, [sp, #-32]!
    430034d8:	b0000040 	adrp	x0, 4300c000 <__STACKS_START__+0xf00>
    430034dc:	910003fd 	mov	x29, sp
    430034e0:	f9436c00 	ldr	x0, [x0, #1752]
    430034e4:	a90153f3 	stp	x19, x20, [sp, #16]
    430034e8:	aa0103f3 	mov	x19, x1
    430034ec:	f9402001 	ldr	x1, [x0, #64]
    430034f0:	aa1303e0 	mov	x0, x19
    430034f4:	d63f0020 	blr	x1
    430034f8:	94000c1b 	bl	43006564 <psci_do_pwrup_cache_maintenance>
    430034fc:	940002b5 	bl	43003fd0 <plat_get_syscnt_freq2>
    43003500:	2a0003e0 	mov	w0, w0
    43003504:	d51be000 	msr	cntfrq_el0, x0
    43003508:	b0000054 	adrp	x20, 4300c000 <__STACKS_START__+0xf00>
    4300350c:	f9437280 	ldr	x0, [x20, #1760]
    43003510:	b4000120 	cbz	x0, 43003534 <psci_cpu_suspend_finish+0x60>
    43003514:	f9401000 	ldr	x0, [x0, #32]
    43003518:	b40000e0 	cbz	x0, 43003534 <psci_cpu_suspend_finish+0x60>
    4300351c:	aa1303e0 	mov	x0, x19
    43003520:	97fffb9b 	bl	4300238c <psci_find_max_off_lvl>
    43003524:	f9437281 	ldr	x1, [x20, #1760]
    43003528:	2a0003e0 	mov	w0, w0
    4300352c:	f9401021 	ldr	x1, [x1, #32]
    43003530:	d63f0020 	blr	x1
    43003534:	d53ed040 	mrs	x0, tpidr_el3
    43003538:	f0000033 	adrp	x19, 4300a000 <__func__.7+0x8a>
    4300353c:	f0000034 	adrp	x20, 4300a000 <__func__.7+0x8a>
    43003540:	9113c273 	add	x19, x19, #0x4f0
    43003544:	9113c294 	add	x20, x20, #0x4f0
    43003548:	52800061 	mov	w1, #0x3                   	// #3
    4300354c:	b9001c01 	str	w1, [x0, #28]
    43003550:	eb14027f 	cmp	x19, x20
    43003554:	54000083 	b.cc	43003564 <psci_cpu_suspend_finish+0x90>  // b.lo, b.ul, b.last
    43003558:	a94153f3 	ldp	x19, x20, [sp, #16]
    4300355c:	a8c27bfd 	ldp	x29, x30, [sp], #32
    43003560:	17fffa34 	b	43001e30 <cm_prepare_el3_exit_ns>
    43003564:	f8408661 	ldr	x1, [x19], #8
    43003568:	d2800000 	mov	x0, #0x0                   	// #0
    4300356c:	d63f0020 	blr	x1
    43003570:	17fffff8 	b	43003550 <psci_cpu_suspend_finish+0x7c>

0000000043003574 <psci_system_off>:
    43003574:	a9bf7bfd 	stp	x29, x30, [sp, #-16]!
    43003578:	910003fd 	mov	x29, sp
    4300357c:	97fffc51 	bl	430026c0 <psci_print_power_domain_map>
    43003580:	b0000040 	adrp	x0, 4300c000 <__STACKS_START__+0xf00>
    43003584:	f9437000 	ldr	x0, [x0, #1760]
    43003588:	b4000080 	cbz	x0, 43003598 <psci_system_off+0x24>
    4300358c:	f9401c00 	ldr	x0, [x0, #56]
    43003590:	b4000040 	cbz	x0, 43003598 <psci_system_off+0x24>
    43003594:	d63f0000 	blr	x0
    43003598:	940009e8 	bl	43005d38 <console_flush>
    4300359c:	b0000040 	adrp	x0, 4300c000 <__STACKS_START__+0xf00>
    430035a0:	f9436c00 	ldr	x0, [x0, #1752]
    430035a4:	f9402800 	ldr	x0, [x0, #80]
    430035a8:	d63f0000 	blr	x0

00000000430035ac <psci_system_reset>:
    430035ac:	a9bf7bfd 	stp	x29, x30, [sp, #-16]!
    430035b0:	910003fd 	mov	x29, sp
    430035b4:	97fffc43 	bl	430026c0 <psci_print_power_domain_map>
    430035b8:	b0000040 	adrp	x0, 4300c000 <__STACKS_START__+0xf00>
    430035bc:	f9437000 	ldr	x0, [x0, #1760]
    430035c0:	b4000080 	cbz	x0, 430035d0 <psci_system_reset+0x24>
    430035c4:	f9402000 	ldr	x0, [x0, #64]
    430035c8:	b4000040 	cbz	x0, 430035d0 <psci_system_reset+0x24>
    430035cc:	d63f0000 	blr	x0
    430035d0:	940009da 	bl	43005d38 <console_flush>
    430035d4:	b0000040 	adrp	x0, 4300c000 <__STACKS_START__+0xf00>
    430035d8:	f9436c00 	ldr	x0, [x0, #1752]
    430035dc:	f9402c00 	ldr	x0, [x0, #88]
    430035e0:	d63f0000 	blr	x0

00000000430035e4 <psci_system_reset2>:
    430035e4:	a9bd7bfd 	stp	x29, x30, [sp, #-48]!
    430035e8:	910003fd 	mov	x29, sp
    430035ec:	a90153f3 	stp	x19, x20, [sp, #16]
    430035f0:	2a0003f3 	mov	w19, w0
    430035f4:	aa0103f4 	mov	x20, x1
    430035f8:	f90013f5 	str	x21, [sp, #32]
    430035fc:	531f7e75 	lsr	w21, w19, #31
    43003600:	97fffc30 	bl	430026c0 <psci_print_power_domain_map>
    43003604:	36f80233 	tbz	w19, #31, 43003648 <psci_system_reset2+0x64>
    43003608:	b0000040 	adrp	x0, 4300c000 <__STACKS_START__+0xf00>
    4300360c:	f9437000 	ldr	x0, [x0, #1760]
    43003610:	b5000300 	cbnz	x0, 43003670 <psci_system_reset2+0x8c>
    43003614:	940009c9 	bl	43005d38 <console_flush>
    43003618:	b0000040 	adrp	x0, 4300c000 <__STACKS_START__+0xf00>
    4300361c:	aa1403e2 	mov	x2, x20
    43003620:	2a1303e1 	mov	w1, w19
    43003624:	f9436c00 	ldr	x0, [x0, #1752]
    43003628:	f9405403 	ldr	x3, [x0, #168]
    4300362c:	2a1503e0 	mov	w0, w21
    43003630:	d63f0060 	blr	x3
    43003634:	93407c00 	sxtw	x0, w0
    43003638:	a94153f3 	ldp	x19, x20, [sp, #16]
    4300363c:	f94013f5 	ldr	x21, [sp, #32]
    43003640:	a8c37bfd 	ldp	x29, x30, [sp], #48
    43003644:	d65f03c0 	ret
    43003648:	350001d3 	cbnz	w19, 43003680 <psci_system_reset2+0x9c>
    4300364c:	b0000040 	adrp	x0, 4300c000 <__STACKS_START__+0xf00>
    43003650:	f9436c00 	ldr	x0, [x0, #1752]
    43003654:	f9405001 	ldr	x1, [x0, #160]
    43003658:	b4fffd81 	cbz	x1, 43003608 <psci_system_reset2+0x24>
    4300365c:	52800000 	mov	w0, #0x0                   	// #0
    43003660:	d63f0020 	blr	x1
    43003664:	36fffd20 	tbz	w0, #31, 43003608 <psci_system_reset2+0x24>
    43003668:	92800000 	mov	x0, #0xffffffffffffffff    	// #-1
    4300366c:	17fffff3 	b	43003638 <psci_system_reset2+0x54>
    43003670:	f9402000 	ldr	x0, [x0, #64]
    43003674:	b4fffd00 	cbz	x0, 43003614 <psci_system_reset2+0x30>
    43003678:	d63f0000 	blr	x0
    4300367c:	17ffffe6 	b	43003614 <psci_system_reset2+0x30>
    43003680:	92800020 	mov	x0, #0xfffffffffffffffe    	// #-2
    43003684:	17ffffed 	b	43003638 <psci_system_reset2+0x54>

0000000043003688 <xlat_arch_current_el>:
    43003688:	d5384240 	mrs	x0, currentel
    4300368c:	53020c00 	ubfx	w0, w0, #2, #2
    43003690:	d65f03c0 	ret

0000000043003694 <xlat_arch_get_xn_desc>:
    43003694:	71000c1f 	cmp	w0, #0x3
    43003698:	d2e00801 	mov	x1, #0x40000000000000      	// #18014398509481984
    4300369c:	d2e00400 	mov	x0, #0x20000000000000      	// #9007199254740992
    430036a0:	9a800020 	csel	x0, x1, x0, eq  // eq = none
    430036a4:	d65f03c0 	ret

00000000430036a8 <init_xlat_tables>:
    430036a8:	a9be7bfd 	stp	x29, x30, [sp, #-32]!
    430036ac:	910003fd 	mov	x29, sp
    430036b0:	940000b8 	bl	43003990 <print_mmap>
    430036b4:	d2800000 	mov	x0, #0x0                   	// #0
    430036b8:	910043e4 	add	x4, sp, #0x10
    430036bc:	910063e3 	add	x3, sp, #0x18
    430036c0:	52800022 	mov	w2, #0x1                   	// #1
    430036c4:	b0000041 	adrp	x1, 4300c000 <__STACKS_START__+0xf00>
    430036c8:	91060021 	add	x1, x1, #0x180
    430036cc:	940000fb 	bl	43003ab8 <init_xlation_table>
    430036d0:	f9400be0 	ldr	x0, [sp, #16]
    430036d4:	f2540c1f 	tst	x0, #0xf00000000000
    430036d8:	540001a1 	b.ne	4300370c <init_xlat_tables+0x64>  // b.any
    430036dc:	f256041f 	tst	x0, #0xc0000000000
    430036e0:	540001a1 	b.ne	43003714 <init_xlat_tables+0x6c>  // b.any
    430036e4:	f258041f 	tst	x0, #0x30000000000
    430036e8:	540001a1 	b.ne	4300371c <init_xlat_tables+0x74>  // b.any
    430036ec:	f25c0c1f 	tst	x0, #0xf000000000
    430036f0:	540001a1 	b.ne	43003724 <init_xlat_tables+0x7c>  // b.any
    430036f4:	f2600c1f 	tst	x0, #0xf00000000
    430036f8:	9a9f07e0 	cset	x0, ne  // ne = any
    430036fc:	b0000041 	adrp	x1, 4300c000 <__STACKS_START__+0xf00>
    43003700:	f9037420 	str	x0, [x1, #1768]
    43003704:	a8c27bfd 	ldp	x29, x30, [sp], #32
    43003708:	d65f03c0 	ret
    4300370c:	d28000a0 	mov	x0, #0x5                   	// #5
    43003710:	17fffffb 	b	430036fc <init_xlat_tables+0x54>
    43003714:	d2800080 	mov	x0, #0x4                   	// #4
    43003718:	17fffff9 	b	430036fc <init_xlat_tables+0x54>
    4300371c:	d2800060 	mov	x0, #0x3                   	// #3
    43003720:	17fffff7 	b	430036fc <init_xlat_tables+0x54>
    43003724:	d2800040 	mov	x0, #0x2                   	// #2
    43003728:	17fffff5 	b	430036fc <init_xlat_tables+0x54>

000000004300372c <enable_mmu_el3>:
    4300372c:	d2809fe1 	mov	x1, #0x4ff                 	// #1279
    43003730:	f2a00881 	movk	x1, #0x44, lsl #16
    43003734:	d51ea201 	msr	mair_el3, x1
    43003738:	d50e871f 	tlbi	alle3
    4300373c:	d2800401 	mov	x1, #0x20                  	// #32
    43003740:	f27f001f 	tst	x0, #0x2
    43003744:	d286a402 	mov	x2, #0x3520                	// #13600
    43003748:	9a821022 	csel	x2, x1, x2, ne  // ne = any
    4300374c:	b0000041 	adrp	x1, 4300c000 <__STACKS_START__+0xf00>
    43003750:	f9437421 	ldr	x1, [x1, #1768]
    43003754:	aa014041 	orr	x1, x2, x1, lsl #16
    43003758:	d2b01002 	mov	x2, #0x80800000            	// #2155872256
    4300375c:	aa020021 	orr	x1, x1, x2
    43003760:	d51e2041 	msr	tcr_el3, x1
    43003764:	b0000041 	adrp	x1, 4300c000 <__STACKS_START__+0xf00>
    43003768:	91060021 	add	x1, x1, #0x180
    4300376c:	d51e2001 	msr	ttbr0_el3, x1
    43003770:	d5033b9f 	dsb	ish
    43003774:	d5033fdf 	isb
    43003778:	d53e1003 	mrs	x3, sctlr_el3
    4300377c:	52800021 	mov	w1, #0x1                   	// #1
    43003780:	121d7862 	and	w2, w3, #0xfffffffb
    43003784:	72a00101 	movk	w1, #0x8, lsl #16
    43003788:	2a010042 	orr	w2, w2, w1
    4300378c:	11001021 	add	w1, w1, #0x4
    43003790:	f240001f 	tst	x0, #0x1
    43003794:	2a030021 	orr	w1, w1, w3
    43003798:	1a820020 	csel	w0, w1, w2, eq  // eq = none
    4300379c:	d51e1000 	msr	sctlr_el3, x0
    430037a0:	d5033fdf 	isb
    430037a4:	d65f03c0 	ret

00000000430037a8 <enable_mmu_direct_el3>:
    430037a8:	17ffffe1 	b	4300372c <enable_mmu_el3>

00000000430037ac <init_xlation_table_inner>:
    430037ac:	a9ba7bfd 	stp	x29, x30, [sp, #-96]!
    430037b0:	910003fd 	mov	x29, sp
    430037b4:	a90153f3 	stp	x19, x20, [sp, #16]
    430037b8:	aa0203f4 	mov	x20, x2
    430037bc:	0b030c62 	add	w2, w3, w3, lsl #3
    430037c0:	a9025bf5 	stp	x21, x22, [sp, #32]
    430037c4:	2a0303f5 	mov	w21, w3
    430037c8:	71000ebf 	cmp	w21, #0x3
    430037cc:	a90363f7 	stp	x23, x24, [sp, #48]
    430037d0:	528004f8 	mov	w24, #0x27                  	// #39
    430037d4:	4b020302 	sub	w2, w24, w2
    430037d8:	d2800023 	mov	x3, #0x1                   	// #1
    430037dc:	d2803ff8 	mov	x24, #0x1ff                 	// #511
    430037e0:	b0000057 	adrp	x23, 4300c000 <__STACKS_START__+0xf00>
    430037e4:	912c02f7 	add	x23, x23, #0xb00
    430037e8:	a9046bf9 	stp	x25, x26, [sp, #64]
    430037ec:	d2800079 	mov	x25, #0x3                   	// #3
    430037f0:	d000005a 	adrp	x26, 4300d000 <xlat_tables>
    430037f4:	9a830339 	csel	x25, x25, x3, eq  // eq = none
    430037f8:	9100035a 	add	x26, x26, #0x0
    430037fc:	9ac22318 	lsl	x24, x24, x2
    43003800:	a90573fb 	stp	x27, x28, [sp, #80]
    43003804:	9ac2207c 	lsl	x28, x3, x2
    43003808:	a940cc02 	ldp	x2, x19, [x0, #8]
    4300380c:	b4000293 	cbz	x19, 4300385c <init_xlation_table_inner+0xb0>
    43003810:	8b020273 	add	x19, x19, x2
    43003814:	d1000673 	sub	x19, x19, #0x1
    43003818:	eb01027f 	cmp	x19, x1
    4300381c:	540001e2 	b.cs	43003858 <init_xlation_table_inner+0xac>  // b.hs, b.nlast
    43003820:	91008000 	add	x0, x0, #0x20
    43003824:	ea18003f 	tst	x1, x24
    43003828:	540000a0 	b.eq	4300383c <init_xlation_table_inner+0x90>  // b.none
    4300382c:	d1000423 	sub	x3, x1, #0x1
    43003830:	b27f7be2 	mov	x2, #0xfffffffe            	// #4294967294
    43003834:	eb02007f 	cmp	x3, x2
    43003838:	54fffe89 	b.ls	43003808 <init_xlation_table_inner+0x5c>  // b.plast
    4300383c:	a94153f3 	ldp	x19, x20, [sp, #16]
    43003840:	a9425bf5 	ldp	x21, x22, [sp, #32]
    43003844:	a94363f7 	ldp	x23, x24, [sp, #48]
    43003848:	a9446bf9 	ldp	x25, x26, [sp, #64]
    4300384c:	a94573fb 	ldp	x27, x28, [sp, #80]
    43003850:	a8c67bfd 	ldp	x29, x30, [sp], #96
    43003854:	d65f03c0 	ret
    43003858:	92800013 	mov	x19, #0xffffffffffffffff    	// #-1
    4300385c:	8b1c003b 	add	x27, x1, x28
    43003860:	d1000766 	sub	x6, x27, #0x1
    43003864:	eb0200df 	cmp	x6, x2
    43003868:	54000903 	b.cc	43003988 <init_xlation_table_inner+0x1dc>  // b.lo, b.ul, b.last
    4300386c:	340005d5 	cbz	w21, 43003924 <init_xlation_table_inner+0x178>
    43003870:	aa0003e4 	mov	x4, x0
    43003874:	12800005 	mov	w5, #0xffffffff            	// #-1
    43003878:	f9400883 	ldr	x3, [x4, #16]
    4300387c:	b4000283 	cbz	x3, 430038cc <init_xlation_table_inner+0x120>
    43003880:	f9400487 	ldr	x7, [x4, #8]
    43003884:	eb0700df 	cmp	x6, x7
    43003888:	54000223 	b.cc	430038cc <init_xlation_table_inner+0x120>  // b.lo, b.ul, b.last
    4300388c:	8b070063 	add	x3, x3, x7
    43003890:	d1000463 	sub	x3, x3, #0x1
    43003894:	eb03003f 	cmp	x1, x3
    43003898:	54000168 	b.hi	430038c4 <init_xlation_table_inner+0x118>  // b.pmore
    4300389c:	35000085 	cbnz	w5, 430038ac <init_xlation_table_inner+0x100>
    430038a0:	b9401888 	ldr	w8, [x4, #24]
    430038a4:	6b16011f 	cmp	w8, w22
    430038a8:	540000e0 	b.eq	430038c4 <init_xlation_table_inner+0x118>  // b.none
    430038ac:	eb07003f 	cmp	x1, x7
    430038b0:	540003a3 	b.cc	43003924 <init_xlation_table_inner+0x178>  // b.lo, b.ul, b.last
    430038b4:	eb0300df 	cmp	x6, x3
    430038b8:	54000368 	b.hi	43003924 <init_xlation_table_inner+0x178>  // b.pmore
    430038bc:	b9401896 	ldr	w22, [x4, #24]
    430038c0:	52800005 	mov	w5, #0x0                   	// #0
    430038c4:	91008084 	add	x4, x4, #0x20
    430038c8:	17ffffec 	b	43003878 <init_xlation_table_inner+0xcc>
    430038cc:	350002c5 	cbnz	w5, 43003924 <init_xlation_table_inner+0x178>
    430038d0:	f9400013 	ldr	x19, [x0]
    430038d4:	b0000044 	adrp	x4, 4300c000 <__STACKS_START__+0xf00>
    430038d8:	f27d02df 	tst	x22, #0x8
    430038dc:	8b130033 	add	x19, x1, x19
    430038e0:	cb020273 	sub	x19, x19, x2
    430038e4:	aa190262 	orr	x2, x19, x25
    430038e8:	d37f7ed3 	ubfiz	x19, x22, #1, #32
    430038ec:	f9437884 	ldr	x4, [x4, #1776]
    430038f0:	927b0273 	and	x19, x19, #0x20
    430038f4:	b2760263 	orr	x3, x19, #0x400
    430038f8:	9a9f17f3 	cset	x19, eq  // eq = none
    430038fc:	aa131c93 	orr	x19, x4, x19, lsl #7
    43003900:	aa020273 	orr	x19, x19, x2
    43003904:	aa030273 	orr	x19, x19, x3
    43003908:	72000ac3 	ands	w3, w22, #0x7
    4300390c:	54000261 	b.ne	43003958 <init_xlation_table_inner+0x1ac>  // b.any
    43003910:	b0000042 	adrp	x2, 4300c000 <__STACKS_START__+0xf00>
    43003914:	f9437c42 	ldr	x2, [x2, #1784]
    43003918:	aa020273 	orr	x19, x19, x2
    4300391c:	d2804082 	mov	x2, #0x204                 	// #516
    43003920:	aa020273 	orr	x19, x19, x2
    43003924:	b100067f 	cmn	x19, #0x1
    43003928:	54000121 	b.ne	4300394c <init_xlation_table_inner+0x1a0>  // b.any
    4300392c:	b94002e3 	ldr	w3, [x23]
    43003930:	d3747c62 	ubfiz	x2, x3, #12, #32
    43003934:	11000463 	add	w3, w3, #0x1
    43003938:	8b1a0042 	add	x2, x2, x26
    4300393c:	b90002e3 	str	w3, [x23]
    43003940:	b2400453 	orr	x19, x2, #0x3
    43003944:	110006a3 	add	w3, w21, #0x1
    43003948:	97ffff99 	bl	430037ac <init_xlation_table_inner>
    4300394c:	aa1b03e1 	mov	x1, x27
    43003950:	f8008693 	str	x19, [x20], #8
    43003954:	17ffffb4 	b	43003824 <init_xlation_table_inner+0x78>
    43003958:	52800502 	mov	w2, #0x28                  	// #40
    4300395c:	6a0202df 	tst	w22, w2
    43003960:	54000080 	b.eq	43003970 <init_xlation_table_inner+0x1c4>  // b.none
    43003964:	b0000042 	adrp	x2, 4300c000 <__STACKS_START__+0xf00>
    43003968:	f9437c42 	ldr	x2, [x2, #1784]
    4300396c:	aa020273 	orr	x19, x19, x2
    43003970:	b2780662 	orr	x2, x19, #0x300
    43003974:	7100087f 	cmp	w3, #0x2
    43003978:	d2804104 	mov	x4, #0x208                 	// #520
    4300397c:	aa040273 	orr	x19, x19, x4
    43003980:	9a821273 	csel	x19, x19, x2, ne  // ne = any
    43003984:	17ffffe8 	b	43003924 <init_xlation_table_inner+0x178>
    43003988:	d2800013 	mov	x19, #0x0                   	// #0
    4300398c:	17fffff0 	b	4300394c <init_xlation_table_inner+0x1a0>

0000000043003990 <print_mmap>:
    43003990:	d65f03c0 	ret

0000000043003994 <mmap_add_region>:
    43003994:	b4000722 	cbz	x2, 43003a78 <mmap_add_region+0xe4>
    43003998:	a9bc7bfd 	stp	x29, x30, [sp, #-64]!
    4300399c:	910003fd 	mov	x29, sp
    430039a0:	a90153f3 	stp	x19, x20, [sp, #16]
    430039a4:	aa0103f3 	mov	x19, x1
    430039a8:	b0000041 	adrp	x1, 4300c000 <__STACKS_START__+0xf00>
    430039ac:	911c0021 	add	x1, x1, #0x700
    430039b0:	a9025bf5 	stp	x21, x22, [sp, #32]
    430039b4:	aa0203f5 	mov	x21, x2
    430039b8:	aa0103e2 	mov	x2, x1
    430039bc:	a90363f7 	stp	x23, x24, [sp, #48]
    430039c0:	aa0003f7 	mov	x23, x0
    430039c4:	2a0303f8 	mov	w24, w3
    430039c8:	f9400420 	ldr	x0, [x1, #8]
    430039cc:	aa0103e4 	mov	x4, x1
    430039d0:	91008021 	add	x1, x1, #0x20
    430039d4:	eb13001f 	cmp	x0, x19
    430039d8:	540003e2 	b.cs	43003a54 <mmap_add_region+0xc0>  // b.hs, b.nlast
    430039dc:	f85f0020 	ldur	x0, [x1, #-16]
    430039e0:	b5ffff40 	cbnz	x0, 430039c8 <mmap_add_region+0x34>
    430039e4:	aa0403f4 	mov	x20, x4
    430039e8:	91080042 	add	x2, x2, #0x200
    430039ec:	aa1403e1 	mov	x1, x20
    430039f0:	cb140042 	sub	x2, x2, x20
    430039f4:	91008280 	add	x0, x20, #0x20
    430039f8:	94000dd0 	bl	43007138 <memmove>
    430039fc:	d10006b6 	sub	x22, x21, #0x1
    43003a00:	b0000040 	adrp	x0, 4300c000 <__STACKS_START__+0xf00>
    43003a04:	8b1702d6 	add	x22, x22, x23
    43003a08:	a9004e97 	stp	x23, x19, [x20]
    43003a0c:	f9449001 	ldr	x1, [x0, #2336]
    43003a10:	f9000a95 	str	x21, [x20, #16]
    43003a14:	b9001a98 	str	w24, [x20, #24]
    43003a18:	eb16003f 	cmp	x1, x22
    43003a1c:	54000042 	b.cs	43003a24 <mmap_add_region+0x90>  // b.hs, b.nlast
    43003a20:	f9049016 	str	x22, [x0, #2336]
    43003a24:	b0000040 	adrp	x0, 4300c000 <__STACKS_START__+0xf00>
    43003a28:	d1000673 	sub	x19, x19, #0x1
    43003a2c:	8b150273 	add	x19, x19, x21
    43003a30:	f9449401 	ldr	x1, [x0, #2344]
    43003a34:	eb13003f 	cmp	x1, x19
    43003a38:	54000042 	b.cs	43003a40 <mmap_add_region+0xac>  // b.hs, b.nlast
    43003a3c:	f9049413 	str	x19, [x0, #2344]
    43003a40:	a94153f3 	ldp	x19, x20, [sp, #16]
    43003a44:	a9425bf5 	ldp	x21, x22, [sp, #32]
    43003a48:	a94363f7 	ldp	x23, x24, [sp, #48]
    43003a4c:	a8c47bfd 	ldp	x29, x30, [sp], #64
    43003a50:	d65f03c0 	ret
    43003a54:	f9400480 	ldr	x0, [x4, #8]
    43003a58:	aa0403f4 	mov	x20, x4
    43003a5c:	91008084 	add	x4, x4, #0x20
    43003a60:	eb13001f 	cmp	x0, x19
    43003a64:	54fffc21 	b.ne	430039e8 <mmap_add_region+0x54>  // b.any
    43003a68:	f85f0080 	ldur	x0, [x4, #-16]
    43003a6c:	eb15001f 	cmp	x0, x21
    43003a70:	54ffff28 	b.hi	43003a54 <mmap_add_region+0xc0>  // b.pmore
    43003a74:	17ffffdd 	b	430039e8 <mmap_add_region+0x54>
    43003a78:	d65f03c0 	ret

0000000043003a7c <mmap_add>:
    43003a7c:	a9be7bfd 	stp	x29, x30, [sp, #-32]!
    43003a80:	910003fd 	mov	x29, sp
    43003a84:	f9000bf3 	str	x19, [sp, #16]
    43003a88:	aa0003f3 	mov	x19, x0
    43003a8c:	f9400a62 	ldr	x2, [x19, #16]
    43003a90:	b9401a63 	ldr	w3, [x19, #24]
    43003a94:	b50000a2 	cbnz	x2, 43003aa8 <mmap_add+0x2c>
    43003a98:	35000083 	cbnz	w3, 43003aa8 <mmap_add+0x2c>
    43003a9c:	f9400bf3 	ldr	x19, [sp, #16]
    43003aa0:	a8c27bfd 	ldp	x29, x30, [sp], #32
    43003aa4:	d65f03c0 	ret
    43003aa8:	f9400661 	ldr	x1, [x19, #8]
    43003aac:	f8420660 	ldr	x0, [x19], #32
    43003ab0:	97ffffb9 	bl	43003994 <mmap_add_region>
    43003ab4:	17fffff6 	b	43003a8c <mmap_add+0x10>

0000000043003ab8 <init_xlation_table>:
    43003ab8:	a9bc7bfd 	stp	x29, x30, [sp, #-64]!
    43003abc:	910003fd 	mov	x29, sp
    43003ac0:	a90153f3 	stp	x19, x20, [sp, #16]
    43003ac4:	aa0403f3 	mov	x19, x4
    43003ac8:	aa0303f4 	mov	x20, x3
    43003acc:	a9025bf5 	stp	x21, x22, [sp, #32]
    43003ad0:	aa0103f6 	mov	x22, x1
    43003ad4:	aa0003f5 	mov	x21, x0
    43003ad8:	a90363f7 	stp	x23, x24, [sp, #48]
    43003adc:	2a0203f7 	mov	w23, w2
    43003ae0:	97fffeea 	bl	43003688 <xlat_arch_current_el>
    43003ae4:	2a0003f8 	mov	w24, w0
    43003ae8:	97fffeeb 	bl	43003694 <xlat_arch_get_xn_desc>
    43003aec:	b0000041 	adrp	x1, 4300c000 <__STACKS_START__+0xf00>
    43003af0:	71000f1f 	cmp	w24, #0x3
    43003af4:	2a1703e3 	mov	w3, w23
    43003af8:	aa1603e2 	mov	x2, x22
    43003afc:	f9037c20 	str	x0, [x1, #1784]
    43003b00:	9a9f17e0 	cset	x0, eq  // eq = none
    43003b04:	b0000041 	adrp	x1, 4300c000 <__STACKS_START__+0xf00>
    43003b08:	d37ae400 	lsl	x0, x0, #6
    43003b0c:	f9037820 	str	x0, [x1, #1776]
    43003b10:	aa1503e1 	mov	x1, x21
    43003b14:	b0000040 	adrp	x0, 4300c000 <__STACKS_START__+0xf00>
    43003b18:	911c0000 	add	x0, x0, #0x700
    43003b1c:	97ffff24 	bl	430037ac <init_xlation_table_inner>
    43003b20:	b0000040 	adrp	x0, 4300c000 <__STACKS_START__+0xf00>
    43003b24:	a9425bf5 	ldp	x21, x22, [sp, #32]
    43003b28:	f9449400 	ldr	x0, [x0, #2344]
    43003b2c:	a94363f7 	ldp	x23, x24, [sp, #48]
    43003b30:	f9000280 	str	x0, [x20]
    43003b34:	b0000040 	adrp	x0, 4300c000 <__STACKS_START__+0xf00>
    43003b38:	f9449000 	ldr	x0, [x0, #2336]
    43003b3c:	f9000260 	str	x0, [x19]
    43003b40:	a94153f3 	ldp	x19, x20, [sp, #16]
    43003b44:	a8c47bfd 	ldp	x29, x30, [sp], #64
    43003b48:	d65f03c0 	ret

0000000043003b4c <plat_arm_gic_init>:
    43003b4c:	a9bf7bfd 	stp	x29, x30, [sp, #-16]!
    43003b50:	910003fd 	mov	x29, sp
    43003b54:	97fff769 	bl	430018f8 <gicv2_distif_init>
    43003b58:	97fff756 	bl	430018b0 <gicv2_pcpu_distif_init>
    43003b5c:	94000b01 	bl	43006760 <plat_my_core_pos>
    43003b60:	97fff791 	bl	430019a4 <gicv2_set_pe_target_mask>
    43003b64:	a8c17bfd 	ldp	x29, x30, [sp], #16
    43003b68:	17fff742 	b	43001870 <gicv2_cpuif_enable>

0000000043003b6c <plat_ic_get_pending_interrupt_type>:
    43003b6c:	a9bf7bfd 	stp	x29, x30, [sp, #-16]!
    43003b70:	910003fd 	mov	x29, sp
    43003b74:	97fff786 	bl	4300198c <gicv2_get_pending_interrupt_type>
    43003b78:	710ff41f 	cmp	w0, #0x3fd
    43003b7c:	540000c9 	b.ls	43003b94 <plat_ic_get_pending_interrupt_type+0x28>  // b.plast
    43003b80:	710ffc1f 	cmp	w0, #0x3ff
    43003b84:	1a9f17e0 	cset	w0, eq  // eq = none
    43003b88:	11000800 	add	w0, w0, #0x2
    43003b8c:	a8c17bfd 	ldp	x29, x30, [sp], #16
    43003b90:	d65f03c0 	ret
    43003b94:	52800000 	mov	w0, #0x0                   	// #0
    43003b98:	17fffffd 	b	43003b8c <plat_ic_get_pending_interrupt_type+0x20>

0000000043003b9c <mtk_efuse_get_len>:
    43003b9c:	b4000341 	cbz	x1, 43003c04 <mtk_efuse_get_len+0x68>
    43003ba0:	2a0003e2 	mov	w2, w0
    43003ba4:	7100601f 	cmp	w0, #0x18
    43003ba8:	54000328 	b.hi	43003c0c <mtk_efuse_get_len+0x70>  // b.pmore
    43003bac:	2a0003e3 	mov	w3, w0
    43003bb0:	b0000040 	adrp	x0, 4300c000 <__STACKS_START__+0xf00>
    43003bb4:	912c1000 	add	x0, x0, #0xb04
    43003bb8:	d2800184 	mov	x4, #0xc                   	// #12
    43003bbc:	9b040063 	madd	x3, x3, x4, x0
    43003bc0:	39402060 	ldrb	w0, [x3, #8]
    43003bc4:	35000160 	cbnz	w0, 43003bf0 <mtk_efuse_get_len+0x54>
    43003bc8:	a9bf7bfd 	stp	x29, x30, [sp, #-16]!
    43003bcc:	d0000021 	adrp	x1, 43009000 <suspend_binary_ca7+0x2e0>
    43003bd0:	d0000020 	adrp	x0, 43009000 <suspend_binary_ca7+0x2e0>
    43003bd4:	910003fd 	mov	x29, sp
    43003bd8:	91322021 	add	x1, x1, #0xc88
    43003bdc:	912fd400 	add	x0, x0, #0xbf5
    43003be0:	940007dd 	bl	43005b54 <tf_log>
    43003be4:	52800060 	mov	w0, #0x3                   	// #3
    43003be8:	a8c17bfd 	ldp	x29, x30, [sp], #16
    43003bec:	d65f03c0 	ret
    43003bf0:	b9400460 	ldr	w0, [x3, #4]
    43003bf4:	b9000020 	str	w0, [x1]
    43003bf8:	34fffe80 	cbz	w0, 43003bc8 <mtk_efuse_get_len+0x2c>
    43003bfc:	52800000 	mov	w0, #0x0                   	// #0
    43003c00:	d65f03c0 	ret
    43003c04:	52800020 	mov	w0, #0x1                   	// #1
    43003c08:	d65f03c0 	ret
    43003c0c:	52800040 	mov	w0, #0x2                   	// #2
    43003c10:	d65f03c0 	ret

0000000043003c14 <mtk_efuse_send_data>:
    43003c14:	f100001f 	cmp	x0, #0x0
    43003c18:	fa401824 	ccmp	x1, #0x0, #0x4, ne  // ne = any
    43003c1c:	540001c0 	b.eq	43003c54 <mtk_efuse_send_data+0x40>  // b.none
    43003c20:	7100605f 	cmp	w2, #0x18
    43003c24:	7a489862 	ccmp	w3, #0x8, #0x2, ls  // ls = plast
    43003c28:	54000168 	b.hi	43003c54 <mtk_efuse_send_data+0x40>  // b.pmore
    43003c2c:	8b224002 	add	x2, x0, w2, uxtw
    43003c30:	d2800004 	mov	x4, #0x0                   	// #0
    43003c34:	6b04007f 	cmp	w3, w4
    43003c38:	54000068 	b.hi	43003c44 <mtk_efuse_send_data+0x30>  // b.pmore
    43003c3c:	52800000 	mov	w0, #0x0                   	// #0
    43003c40:	d65f03c0 	ret
    43003c44:	38646820 	ldrb	w0, [x1, x4]
    43003c48:	38246840 	strb	w0, [x2, x4]
    43003c4c:	91000484 	add	x4, x4, #0x1
    43003c50:	17fffff9 	b	43003c34 <mtk_efuse_send_data+0x20>
    43003c54:	52800020 	mov	w0, #0x1                   	// #1
    43003c58:	17fffffa 	b	43003c40 <mtk_efuse_send_data+0x2c>

0000000043003c5c <mtk_efuse_get_data>:
    43003c5c:	f100003f 	cmp	x1, #0x0
    43003c60:	fa401804 	ccmp	x0, #0x0, #0x4, ne  // ne = any
    43003c64:	540001c0 	b.eq	43003c9c <mtk_efuse_get_data+0x40>  // b.none
    43003c68:	7100605f 	cmp	w2, #0x18
    43003c6c:	7a489862 	ccmp	w3, #0x8, #0x2, ls  // ls = plast
    43003c70:	54000168 	b.hi	43003c9c <mtk_efuse_get_data+0x40>  // b.pmore
    43003c74:	8b224022 	add	x2, x1, w2, uxtw
    43003c78:	d2800004 	mov	x4, #0x0                   	// #0
    43003c7c:	6b04007f 	cmp	w3, w4
    43003c80:	54000068 	b.hi	43003c8c <mtk_efuse_get_data+0x30>  // b.pmore
    43003c84:	52800000 	mov	w0, #0x0                   	// #0
    43003c88:	d65f03c0 	ret
    43003c8c:	38646841 	ldrb	w1, [x2, x4]
    43003c90:	38246801 	strb	w1, [x0, x4]
    43003c94:	91000484 	add	x4, x4, #0x1
    43003c98:	17fffff9 	b	43003c7c <mtk_efuse_get_data+0x20>
    43003c9c:	52800020 	mov	w0, #0x1                   	// #1
    43003ca0:	17fffffa 	b	43003c88 <mtk_efuse_get_data+0x2c>

0000000043003ca4 <mtk_efuse_read>:
    43003ca4:	a9bc7bfd 	stp	x29, x30, [sp, #-64]!
    43003ca8:	910003fd 	mov	x29, sp
    43003cac:	a90153f3 	stp	x19, x20, [sp, #16]
    43003cb0:	a9025bf5 	stp	x21, x22, [sp, #32]
    43003cb4:	b9003fff 	str	wzr, [sp, #60]
    43003cb8:	b4000521 	cbz	x1, 43003d5c <mtk_efuse_read+0xb8>
    43003cbc:	2a0003f5 	mov	w21, w0
    43003cc0:	aa0103f3 	mov	x19, x1
    43003cc4:	2a0203f6 	mov	w22, w2
    43003cc8:	9100f3e1 	add	x1, sp, #0x3c
    43003ccc:	97ffffb4 	bl	43003b9c <mtk_efuse_get_len>
    43003cd0:	2a0003f4 	mov	w20, w0
    43003cd4:	350003a0 	cbnz	w0, 43003d48 <mtk_efuse_read+0xa4>
    43003cd8:	b9403fe0 	ldr	w0, [sp, #60]
    43003cdc:	6b16001f 	cmp	w0, w22
    43003ce0:	54000428 	b.hi	43003d64 <mtk_efuse_read+0xc0>  // b.pmore
    43003ce4:	2a1603e2 	mov	w2, w22
    43003ce8:	aa1303e0 	mov	x0, x19
    43003cec:	52800001 	mov	w1, #0x0                   	// #0
    43003cf0:	94000d1f 	bl	4300716c <memset>
    43003cf4:	2a1503e0 	mov	w0, w21
    43003cf8:	d2800181 	mov	x1, #0xc                   	// #12
    43003cfc:	b0000043 	adrp	x3, 4300c000 <__STACKS_START__+0xf00>
    43003d00:	912c1063 	add	x3, x3, #0xb04
    43003d04:	b9403fe2 	ldr	w2, [sp, #60]
    43003d08:	9b017c00 	mul	x0, x0, x1
    43003d0c:	aa1303e1 	mov	x1, x19
    43003d10:	b8606860 	ldr	w0, [x3, x0]
    43003d14:	94000ba4 	bl	43006ba4 <efuse_read>
    43003d18:	2a0003f3 	mov	w19, w0
    43003d1c:	34000160 	cbz	w0, 43003d48 <mtk_efuse_read+0xa4>
    43003d20:	2a0003e3 	mov	w3, w0
    43003d24:	2a1503e2 	mov	w2, w21
    43003d28:	d0000021 	adrp	x1, 43009000 <suspend_binary_ca7+0x2e0>
    43003d2c:	d0000020 	adrp	x0, 43009000 <suspend_binary_ca7+0x2e0>
    43003d30:	9131e421 	add	x1, x1, #0xc79
    43003d34:	91306800 	add	x0, x0, #0xc1a
    43003d38:	94000787 	bl	43005b54 <tf_log>
    43003d3c:	7100027f 	cmp	w19, #0x0
    43003d40:	5a93a673 	cneg	w19, w19, lt  // lt = tstop
    43003d44:	11002a74 	add	w20, w19, #0xa
    43003d48:	2a1403e0 	mov	w0, w20
    43003d4c:	a94153f3 	ldp	x19, x20, [sp, #16]
    43003d50:	a9425bf5 	ldp	x21, x22, [sp, #32]
    43003d54:	a8c47bfd 	ldp	x29, x30, [sp], #64
    43003d58:	d65f03c0 	ret
    43003d5c:	52800034 	mov	w20, #0x1                   	// #1
    43003d60:	17fffffa 	b	43003d48 <mtk_efuse_read+0xa4>
    43003d64:	52800094 	mov	w20, #0x4                   	// #4
    43003d68:	17fffff8 	b	43003d48 <mtk_efuse_read+0xa4>

0000000043003d6c <mtk_efuse_write>:
    43003d6c:	a9bb7bfd 	stp	x29, x30, [sp, #-80]!
    43003d70:	910003fd 	mov	x29, sp
    43003d74:	a90153f3 	stp	x19, x20, [sp, #16]
    43003d78:	a9025bf5 	stp	x21, x22, [sp, #32]
    43003d7c:	f9001bf7 	str	x23, [sp, #48]
    43003d80:	b9004fff 	str	wzr, [sp, #76]
    43003d84:	b4000521 	cbz	x1, 43003e28 <mtk_efuse_write+0xbc>
    43003d88:	2a0003f6 	mov	w22, w0
    43003d8c:	aa0103f5 	mov	x21, x1
    43003d90:	2a0203f7 	mov	w23, w2
    43003d94:	910133e1 	add	x1, sp, #0x4c
    43003d98:	97ffff81 	bl	43003b9c <mtk_efuse_get_len>
    43003d9c:	2a0003f4 	mov	w20, w0
    43003da0:	35000380 	cbnz	w0, 43003e10 <mtk_efuse_write+0xa4>
    43003da4:	b9404fe2 	ldr	w2, [sp, #76]
    43003da8:	6b17005f 	cmp	w2, w23
    43003dac:	54000428 	b.hi	43003e30 <mtk_efuse_write+0xc4>  // b.pmore
    43003db0:	2a1603e0 	mov	w0, w22
    43003db4:	d2800181 	mov	x1, #0xc                   	// #12
    43003db8:	b0000043 	adrp	x3, 4300c000 <__STACKS_START__+0xf00>
    43003dbc:	912c1063 	add	x3, x3, #0xb04
    43003dc0:	9b017c00 	mul	x0, x0, x1
    43003dc4:	aa1503e1 	mov	x1, x21
    43003dc8:	b8606860 	ldr	w0, [x3, x0]
    43003dcc:	94000bb9 	bl	43006cb0 <efuse_write>
    43003dd0:	2a0003f3 	mov	w19, w0
    43003dd4:	2a1703e2 	mov	w2, w23
    43003dd8:	aa1503e0 	mov	x0, x21
    43003ddc:	52800001 	mov	w1, #0x0                   	// #0
    43003de0:	94000ce3 	bl	4300716c <memset>
    43003de4:	34000173 	cbz	w19, 43003e10 <mtk_efuse_write+0xa4>
    43003de8:	2a1303e3 	mov	w3, w19
    43003dec:	2a1603e2 	mov	w2, w22
    43003df0:	d0000021 	adrp	x1, 43009000 <suspend_binary_ca7+0x2e0>
    43003df4:	d0000020 	adrp	x0, 43009000 <suspend_binary_ca7+0x2e0>
    43003df8:	9131a421 	add	x1, x1, #0xc69
    43003dfc:	91310400 	add	x0, x0, #0xc41
    43003e00:	94000755 	bl	43005b54 <tf_log>
    43003e04:	7100027f 	cmp	w19, #0x0
    43003e08:	5a93a673 	cneg	w19, w19, lt  // lt = tstop
    43003e0c:	11002a74 	add	w20, w19, #0xa
    43003e10:	2a1403e0 	mov	w0, w20
    43003e14:	a94153f3 	ldp	x19, x20, [sp, #16]
    43003e18:	a9425bf5 	ldp	x21, x22, [sp, #32]
    43003e1c:	f9401bf7 	ldr	x23, [sp, #48]
    43003e20:	a8c57bfd 	ldp	x29, x30, [sp], #80
    43003e24:	d65f03c0 	ret
    43003e28:	52800034 	mov	w20, #0x1                   	// #1
    43003e2c:	17fffff9 	b	43003e10 <mtk_efuse_write+0xa4>
    43003e30:	52800094 	mov	w20, #0x4                   	// #4
    43003e34:	17fffff7 	b	43003e10 <mtk_efuse_write+0xa4>

0000000043003e38 <plat_get_spsr_for_bl33_entry>:
    43003e38:	52807920 	mov	w0, #0x3c9                 	// #969
    43003e3c:	d65f03c0 	ret

0000000043003e40 <plat_is_smccc_feature_available>:
    43003e40:	d2800041 	mov	x1, #0x2                   	// #2
    43003e44:	f2b00001 	movk	x1, #0x8000, lsl #16
    43003e48:	eb01001f 	cmp	x0, x1
    43003e4c:	5a9f03e0 	csetm	w0, ne  // ne = any
    43003e50:	d65f03c0 	ret

0000000043003e54 <plat_get_soc_version>:
    43003e54:	528ec440 	mov	w0, #0x7622                	// #30242
    43003e58:	72a084c0 	movk	w0, #0x426, lsl #16
    43003e5c:	d65f03c0 	ret

0000000043003e60 <plat_get_soc_revision>:
    43003e60:	52800000 	mov	w0, #0x0                   	// #0
    43003e64:	d65f03c0 	ret

0000000043003e68 <mediatek_sip_handler>:
    43003e68:	a9be7bfd 	stp	x29, x30, [sp, #-32]!
    43003e6c:	aa0103e8 	mov	x8, x1
    43003e70:	910003fd 	mov	x29, sp
    43003e74:	f9000bf3 	str	x19, [sp, #16]
    43003e78:	aa0603f3 	mov	x19, x6
    43003e7c:	37f000a0 	tbnz	w0, #30, 43003e90 <mediatek_sip_handler+0x28>
    43003e80:	92407c28 	and	x8, x1, #0xffffffff
    43003e84:	92407c42 	and	x2, x2, #0xffffffff
    43003e88:	92407c63 	and	x3, x3, #0xffffffff
    43003e8c:	92407c84 	and	x4, x4, #0xffffffff
    43003e90:	360000a7 	tbz	w7, #0, 43003ea4 <mediatek_sip_handler+0x3c>
    43003e94:	52800021 	mov	w1, #0x1                   	// #1
    43003e98:	72b04001 	movk	w1, #0x8200, lsl #16
    43003e9c:	6b01001f 	cmp	w0, w1
    43003ea0:	540000c0 	b.eq	43003eb8 <mediatek_sip_handler+0x50>  // b.none
    43003ea4:	aa1303e6 	mov	x6, x19
    43003ea8:	aa0803e1 	mov	x1, x8
    43003eac:	f9400bf3 	ldr	x19, [sp, #16]
    43003eb0:	a8c27bfd 	ldp	x29, x30, [sp], #32
    43003eb4:	14000608 	b	430056d4 <mediatek_plat_sip_handler>
    43003eb8:	2a0203e1 	mov	w1, w2
    43003ebc:	2a0803e0 	mov	w0, w8
    43003ec0:	940005fa 	bl	430056a8 <mt_sip_set_authorized_sreg>
    43003ec4:	f9000260 	str	x0, [x19]
    43003ec8:	aa1303e0 	mov	x0, x19
    43003ecc:	f9400bf3 	ldr	x19, [sp, #16]
    43003ed0:	a8c27bfd 	ldp	x29, x30, [sp], #32
    43003ed4:	d65f03c0 	ret

0000000043003ed8 <sip_smc_handler>:
    43003ed8:	529fe02a 	mov	w10, #0xff01                	// #65281
    43003edc:	aa0603e8 	mov	x8, x6
    43003ee0:	72b0400a 	movk	w10, #0x8200, lsl #16
    43003ee4:	6b0a001f 	cmp	w0, w10
    43003ee8:	54000160 	b.eq	43003f14 <sip_smc_handler+0x3c>  // b.none
    43003eec:	1100094a 	add	w10, w10, #0x2
    43003ef0:	6b0a001f 	cmp	w0, w10
    43003ef4:	54000280 	b.eq	43003f44 <sip_smc_handler+0x6c>  // b.none
    43003ef8:	51000d4a 	sub	w10, w10, #0x3
    43003efc:	6b0a001f 	cmp	w0, w10
    43003f00:	54000281 	b.ne	43003f50 <sip_smc_handler+0x78>  // b.any
    43003f04:	d28001c0 	mov	x0, #0xe                   	// #14
    43003f08:	f9000100 	str	x0, [x8]
    43003f0c:	aa0803e0 	mov	x0, x8
    43003f10:	d65f03c0 	ret
    43003f14:	d28000a0 	mov	x0, #0x5                   	// #5
    43003f18:	f2a7a1e0 	movk	x0, #0x3d0f, lsl #16
    43003f1c:	f9000cc0 	str	x0, [x6, #24]
    43003f20:	d29cb000 	mov	x0, #0xe580                	// #58752
    43003f24:	f2b2b1e0 	movk	x0, #0x958f, lsl #16
    43003f28:	f90008c0 	str	x0, [x6, #16]
    43003f2c:	d2884c40 	mov	x0, #0x4262                	// #16994
    43003f30:	f2a9afa0 	movk	x0, #0x4d7d, lsl #16
    43003f34:	f90004c0 	str	x0, [x6, #8]
    43003f38:	d2857480 	mov	x0, #0x2ba4                	// #11172
    43003f3c:	f2beeb00 	movk	x0, #0xf758, lsl #16
    43003f40:	17fffff2 	b	43003f08 <sip_smc_handler+0x30>
    43003f44:	d2800020 	mov	x0, #0x1                   	// #1
    43003f48:	a90000df 	stp	xzr, x0, [x6]
    43003f4c:	17fffff0 	b	43003f0c <sip_smc_handler+0x34>
    43003f50:	17ffffc6 	b	43003e68 <mediatek_sip_handler>

0000000043003f54 <plat_configure_mmu_el3>:
    43003f54:	a9bd7bfd 	stp	x29, x30, [sp, #-48]!
    43003f58:	910003fd 	mov	x29, sp
    43003f5c:	a90153f3 	stp	x19, x20, [sp, #16]
    43003f60:	aa0403f3 	mov	x19, x4
    43003f64:	aa0203f4 	mov	x20, x2
    43003f68:	aa0103e2 	mov	x2, x1
    43003f6c:	aa0003e1 	mov	x1, x0
    43003f70:	a9025bf5 	stp	x21, x22, [sp, #32]
    43003f74:	aa0503f5 	mov	x21, x5
    43003f78:	aa0303f6 	mov	x22, x3
    43003f7c:	52800143 	mov	w3, #0xa                   	// #10
    43003f80:	97fffe85 	bl	43003994 <mmap_add_region>
    43003f84:	cb1402c2 	sub	x2, x22, x20
    43003f88:	aa1403e1 	mov	x1, x20
    43003f8c:	aa1403e0 	mov	x0, x20
    43003f90:	52800043 	mov	w3, #0x2                   	// #2
    43003f94:	97fffe80 	bl	43003994 <mmap_add_region>
    43003f98:	cb1302a2 	sub	x2, x21, x19
    43003f9c:	aa1303e1 	mov	x1, x19
    43003fa0:	52800103 	mov	w3, #0x8                   	// #8
    43003fa4:	aa1303e0 	mov	x0, x19
    43003fa8:	97fffe7b 	bl	43003994 <mmap_add_region>
    43003fac:	90000020 	adrp	x0, 43007000 <efuse_write+0x350>
    43003fb0:	911c2000 	add	x0, x0, #0x708
    43003fb4:	97fffeb2 	bl	43003a7c <mmap_add>
    43003fb8:	97fffdbc 	bl	430036a8 <init_xlat_tables>
    43003fbc:	a94153f3 	ldp	x19, x20, [sp, #16]
    43003fc0:	52800000 	mov	w0, #0x0                   	// #0
    43003fc4:	a9425bf5 	ldp	x21, x22, [sp, #32]
    43003fc8:	a8c37bfd 	ldp	x29, x30, [sp], #48
    43003fcc:	17fffdd8 	b	4300372c <enable_mmu_el3>

0000000043003fd0 <plat_get_syscnt_freq2>:
    43003fd0:	d53be000 	mrs	x0, cntfrq_el0
    43003fd4:	d65f03c0 	ret

0000000043003fd8 <plat_cci_init>:
    43003fd8:	a9bf7bfd 	stp	x29, x30, [sp, #-16]!
    43003fdc:	52800042 	mov	w2, #0x2                   	// #2
    43003fe0:	d2a20720 	mov	x0, #0x10390000            	// #272171008
    43003fe4:	910003fd 	mov	x29, sp
    43003fe8:	90000021 	adrp	x1, 43007000 <efuse_write+0x350>
    43003fec:	9135b021 	add	x1, x1, #0xd6c
    43003ff0:	97fff52b 	bl	4300149c <cci_init>
    43003ff4:	d2800100 	mov	x0, #0x8                   	// #8
    43003ff8:	52800021 	mov	w1, #0x1                   	// #1
    43003ffc:	f2a20720 	movk	x0, #0x1039, lsl #16
    43004000:	b9000001 	str	w1, [x0]
    43004004:	a8c17bfd 	ldp	x29, x30, [sp], #16
    43004008:	d65f03c0 	ret

000000004300400c <plat_cci_enable>:
    4300400c:	d53800a0 	mrs	x0, mpidr_el1
    43004010:	53083c00 	ubfx	w0, w0, #8, #8
    43004014:	17fff527 	b	430014b0 <cci_enable_snoop_dvm_reqs>

0000000043004018 <plat_cci_disable>:
    43004018:	d53800a0 	mrs	x0, mpidr_el1
    4300401c:	53083c00 	ubfx	w0, w0, #8, #8
    43004020:	17fff533 	b	430014ec <cci_disable_snoop_dvm_reqs>

0000000043004024 <bl31_plat_get_next_image_ep_info>:
    43004024:	7100041f 	cmp	w0, #0x1
    43004028:	90000041 	adrp	x1, 4300c000 <__STACKS_START__+0xf00>
    4300402c:	90000042 	adrp	x2, 4300c000 <__STACKS_START__+0xf00>
    43004030:	91262020 	add	x0, x1, #0x988
    43004034:	9124c042 	add	x2, x2, #0x930
    43004038:	9a820000 	csel	x0, x0, x2, eq  // eq = none
    4300403c:	f9400401 	ldr	x1, [x0, #8]
    43004040:	f100003f 	cmp	x1, #0x0
    43004044:	9a9f1000 	csel	x0, x0, xzr, ne  // ne = any
    43004048:	d65f03c0 	ret

000000004300404c <bl31_early_platform_setup2>:
    4300404c:	a9be7bfd 	stp	x29, x30, [sp, #-32]!
    43004050:	52984002 	mov	w2, #0xc200                	// #49664
    43004054:	528f0801 	mov	w1, #0x7840                	// #30784
    43004058:	910003fd 	mov	x29, sp
    4300405c:	d2840000 	mov	x0, #0x2000                	// #8192
    43004060:	52800023 	mov	w3, #0x1                   	// #1
    43004064:	72a00022 	movk	w2, #0x1, lsl #16
    43004068:	72a02fa1 	movk	w1, #0x17d, lsl #16
    4300406c:	90000044 	adrp	x4, 4300c000 <__STACKS_START__+0xf00>
    43004070:	f2a22000 	movk	x0, #0x1100, lsl #16
    43004074:	91278084 	add	x4, x4, #0x9e0
    43004078:	f9000bf3 	str	x19, [sp, #16]
    4300407c:	940009a3 	bl	43006708 <console_hsuart_register>
    43004080:	90000042 	adrp	x2, 4300c000 <__STACKS_START__+0xf00>
    43004084:	9124c040 	add	x0, x2, #0x930
    43004088:	d2802021 	mov	x1, #0x101                 	// #257
    4300408c:	f2a00b01 	movk	x1, #0x58, lsl #16
    43004090:	f9049841 	str	x1, [x2, #2352]
    43004094:	d2a86042 	mov	x2, #0x43020000            	// #1124204544
    43004098:	f9000402 	str	x2, [x0, #8]
    4300409c:	b900101f 	str	wzr, [x0, #16]
    430040a0:	90000040 	adrp	x0, 4300c000 <__STACKS_START__+0xf00>
    430040a4:	91262013 	add	x19, x0, #0x988
    430040a8:	f904c401 	str	x1, [x0, #2440]
    430040ac:	d2a83c00 	mov	x0, #0x41e00000            	// #1105199104
    430040b0:	f9000660 	str	x0, [x19, #8]
    430040b4:	97ffff61 	bl	43003e38 <plat_get_spsr_for_bl33_entry>
    430040b8:	b9001260 	str	w0, [x19, #16]
    430040bc:	12800421 	mov	w1, #0xffffffde            	// #-34
    430040c0:	b9400660 	ldr	w0, [x19, #4]
    430040c4:	0a010000 	and	w0, w0, w1
    430040c8:	32000000 	orr	w0, w0, #0x1
    430040cc:	b9000660 	str	w0, [x19, #4]
    430040d0:	f9400bf3 	ldr	x19, [sp, #16]
    430040d4:	a8c27bfd 	ldp	x29, x30, [sp], #32
    430040d8:	d65f03c0 	ret

00000000430040dc <bl31_platform_setup>:
    430040dc:	d2800781 	mov	x1, #0x3c                  	// #60
    430040e0:	a9bf7bfd 	stp	x29, x30, [sp, #-16]!
    430040e4:	f2a20401 	movk	x1, #0x1020, lsl #16
    430040e8:	910003fd 	mov	x29, sp
    430040ec:	b9400020 	ldr	w0, [x1]
    430040f0:	32140c00 	orr	w0, w0, #0xf000
    430040f4:	b9000020 	str	w0, [x1]
    430040f8:	d0000060 	adrp	x0, 43012000 <RAM_REGION_END>
    430040fc:	d2810101 	mov	x1, #0x808                 	// #2056
    43004100:	91000000 	add	x0, x0, #0x0
    43004104:	f2a20001 	movk	x1, #0x1000, lsl #16
    43004108:	110ffc00 	add	w0, w0, #0x3ff
    4300410c:	12161c00 	and	w0, w0, #0x3fc00
    43004110:	b9000020 	str	w0, [x1]
    43004114:	d2810080 	mov	x0, #0x804                 	// #2052
    43004118:	111fc421 	add	w1, w1, #0x7f1
    4300411c:	f2a20000 	movk	x0, #0x1000, lsl #16
    43004120:	b9000001 	str	w1, [x0]
    43004124:	97fff664 	bl	43001ab4 <generic_delay_timer_init>
    43004128:	9400043b 	bl	43005214 <plat_mt_gic_driver_init>
    4300412c:	a8c17bfd 	ldp	x29, x30, [sp], #16
    43004130:	1400043c 	b	43005220 <plat_mt_gic_init>

0000000043004134 <bl31_plat_arch_setup>:
    43004134:	a9bf7bfd 	stp	x29, x30, [sp, #-16]!
    43004138:	910003fd 	mov	x29, sp
    4300413c:	97ffffa7 	bl	43003fd8 <plat_cci_init>
    43004140:	97ffffb3 	bl	4300400c <plat_cci_enable>
    43004144:	a8c17bfd 	ldp	x29, x30, [sp], #16
    43004148:	b0ffffe2 	adrp	x2, 43001000 <bl31_entrypoint>
    4300414c:	d0000065 	adrp	x5, 43012000 <RAM_REGION_END>
    43004150:	91000042 	add	x2, x2, #0x0
    43004154:	910000a5 	add	x5, x5, #0x0
    43004158:	aa0203e0 	mov	x0, x2
    4300415c:	cb0200a1 	sub	x1, x5, x2
    43004160:	b0000064 	adrp	x4, 43011000 <psci_locks>
    43004164:	f0000023 	adrp	x3, 4300b000 <__RO_END_UNALIGNED__>
    43004168:	91000084 	add	x4, x4, #0x0
    4300416c:	91000063 	add	x3, x3, #0x0
    43004170:	17ffff79 	b	43003f54 <plat_configure_mmu_el3>

0000000043004174 <wait_for_state_idle.constprop.0>:
    43004174:	a9bd7bfd 	stp	x29, x30, [sp, #-48]!
    43004178:	910003fd 	mov	x29, sp
    4300417c:	a90153f3 	stp	x19, x20, [sp, #16]
    43004180:	d2821494 	mov	x20, #0x10a4                	// #4260
    43004184:	b0000033 	adrp	x19, 43009000 <suspend_binary_ca7+0x2e0>
    43004188:	91333a73 	add	x19, x19, #0xcce
    4300418c:	a9025bf5 	stp	x21, x22, [sp, #32]
    43004190:	d2821515 	mov	x21, #0x10a8                	// #4264
    43004194:	f2a20014 	movk	x20, #0x1000, lsl #16
    43004198:	f2a20015 	movk	x21, #0x1000, lsl #16
    4300419c:	52800036 	mov	w22, #0x1                   	// #1
    430041a0:	b9400281 	ldr	w1, [x20]
    430041a4:	d3504821 	ubfx	x1, x1, #16, #3
    430041a8:	7100103f 	cmp	w1, #0x4
    430041ac:	540001a0 	b.eq	430041e0 <wait_for_state_idle.constprop.0+0x6c>  // b.none
    430041b0:	7100183f 	cmp	w1, #0x6
    430041b4:	540000c0 	b.eq	430041cc <wait_for_state_idle.constprop.0+0x58>  // b.none
    430041b8:	7100083f 	cmp	w1, #0x2
    430041bc:	54000161 	b.ne	430041e8 <wait_for_state_idle.constprop.0+0x74>  // b.any
    430041c0:	b0000020 	adrp	x0, 43009000 <suspend_binary_ca7+0x2e0>
    430041c4:	9133a800 	add	x0, x0, #0xcea
    430041c8:	14000004 	b	430041d8 <wait_for_state_idle.constprop.0+0x64>
    430041cc:	b0000020 	adrp	x0, 43009000 <suspend_binary_ca7+0x2e0>
    430041d0:	9132ac00 	add	x0, x0, #0xcab
    430041d4:	b90002b6 	str	w22, [x21]
    430041d8:	9400065f 	bl	43005b54 <tf_log>
    430041dc:	17fffff1 	b	430041a0 <wait_for_state_idle.constprop.0+0x2c>
    430041e0:	aa1303e0 	mov	x0, x19
    430041e4:	17fffffd 	b	430041d8 <wait_for_state_idle.constprop.0+0x64>
    430041e8:	35fffdc1 	cbnz	w1, 430041a0 <wait_for_state_idle.constprop.0+0x2c>
    430041ec:	52800000 	mov	w0, #0x0                   	// #0
    430041f0:	a94153f3 	ldp	x19, x20, [sp, #16]
    430041f4:	a9425bf5 	ldp	x21, x22, [sp, #32]
    430041f8:	a8c37bfd 	ldp	x29, x30, [sp], #48
    430041fc:	d65f03c0 	ret

0000000043004200 <pwrap_read>:
    43004200:	a9bd7bfd 	stp	x29, x30, [sp, #-48]!
    43004204:	910003fd 	mov	x29, sp
    43004208:	a90153f3 	stp	x19, x20, [sp, #16]
    4300420c:	aa0103f4 	mov	x20, x1
    43004210:	f90013f5 	str	x21, [sp, #32]
    43004214:	53103c15 	lsl	w21, w0, #16
    43004218:	b900003f 	str	wzr, [x1]
    4300421c:	97ffffd6 	bl	43004174 <wait_for_state_idle.constprop.0>
    43004220:	350003a0 	cbnz	w0, 43004294 <pwrap_read+0x94>
    43004224:	d2821400 	mov	x0, #0x10a0                	// #4256
    43004228:	d2821482 	mov	x2, #0x10a4                	// #4260
    4300422c:	f2a20000 	movk	x0, #0x1000, lsl #16
    43004230:	f2a20002 	movk	x2, #0x1000, lsl #16
    43004234:	b9000015 	str	w21, [x0]
    43004238:	b9400040 	ldr	w0, [x2]
    4300423c:	d3504801 	ubfx	x1, x0, #16, #3
    43004240:	7100183f 	cmp	w1, #0x6
    43004244:	54ffffa1 	b.ne	43004238 <pwrap_read+0x38>  // b.any
    43004248:	b9400281 	ldr	w1, [x20]
    4300424c:	0b202020 	add	w0, w1, w0, uxth
    43004250:	b9000280 	str	w0, [x20]
    43004254:	d2821500 	mov	x0, #0x10a8                	// #4264
    43004258:	52800021 	mov	w1, #0x1                   	// #1
    4300425c:	f2a20000 	movk	x0, #0x1000, lsl #16
    43004260:	b9000001 	str	w1, [x0]
    43004264:	97ffffc4 	bl	43004174 <wait_for_state_idle.constprop.0>
    43004268:	2a0003f3 	mov	w19, w0
    4300426c:	34000180 	cbz	w0, 4300429c <pwrap_read+0x9c>
    43004270:	b0000020 	adrp	x0, 43009000 <suspend_binary_ca7+0x2e0>
    43004274:	2a1303e1 	mov	w1, w19
    43004278:	91341000 	add	x0, x0, #0xd04
    4300427c:	94000636 	bl	43005b54 <tf_log>
    43004280:	2a1303e0 	mov	w0, w19
    43004284:	a94153f3 	ldp	x19, x20, [sp, #16]
    43004288:	f94013f5 	ldr	x21, [sp, #32]
    4300428c:	a8c37bfd 	ldp	x29, x30, [sp], #48
    43004290:	d65f03c0 	ret
    43004294:	2a0003f3 	mov	w19, w0
    43004298:	17fffff6 	b	43004270 <pwrap_read+0x70>
    4300429c:	d2821400 	mov	x0, #0x10a0                	// #4256
    430042a0:	d2821482 	mov	x2, #0x10a4                	// #4260
    430042a4:	f2a20000 	movk	x0, #0x1000, lsl #16
    430042a8:	320202b5 	orr	w21, w21, #0x40000000
    430042ac:	f2a20002 	movk	x2, #0x1000, lsl #16
    430042b0:	b9000015 	str	w21, [x0]
    430042b4:	b9400040 	ldr	w0, [x2]
    430042b8:	d3504801 	ubfx	x1, x0, #16, #3
    430042bc:	7100183f 	cmp	w1, #0x6
    430042c0:	54ffffa1 	b.ne	430042b4 <pwrap_read+0xb4>  // b.any
    430042c4:	b9400281 	ldr	w1, [x20]
    430042c8:	0b004020 	add	w0, w1, w0, lsl #16
    430042cc:	b9000280 	str	w0, [x20]
    430042d0:	d2821500 	mov	x0, #0x10a8                	// #4264
    430042d4:	52800021 	mov	w1, #0x1                   	// #1
    430042d8:	f2a20000 	movk	x0, #0x1000, lsl #16
    430042dc:	b9000001 	str	w1, [x0]
    430042e0:	17ffffe8 	b	43004280 <pwrap_read+0x80>

00000000430042e4 <pwrap_write>:
    430042e4:	a9bb7bfd 	stp	x29, x30, [sp, #-80]!
    430042e8:	910003fd 	mov	x29, sp
    430042ec:	a90153f3 	stp	x19, x20, [sp, #16]
    430042f0:	2a0103f4 	mov	w20, w1
    430042f4:	a9025bf5 	stp	x21, x22, [sp, #32]
    430042f8:	2a0003f5 	mov	w21, w0
    430042fc:	f9001bf7 	str	x23, [sp, #48]
    43004300:	97ffff9d 	bl	43004174 <wait_for_state_idle.constprop.0>
    43004304:	350002e0 	cbnz	w0, 43004360 <pwrap_write+0x7c>
    43004308:	d2821416 	mov	x22, #0x10a0                	// #4256
    4300430c:	12003e80 	and	w0, w20, #0xffff
    43004310:	f2a20016 	movk	x22, #0x1000, lsl #16
    43004314:	2a154000 	orr	w0, w0, w21, lsl #16
    43004318:	32010000 	orr	w0, w0, #0x80000000
    4300431c:	910133e1 	add	x1, sp, #0x4c
    43004320:	b90002c0 	str	w0, [x22]
    43004324:	2a1503e0 	mov	w0, w21
    43004328:	53103eb7 	lsl	w23, w21, #16
    4300432c:	97ffffb5 	bl	43004200 <pwrap_read>
    43004330:	97ffff91 	bl	43004174 <wait_for_state_idle.constprop.0>
    43004334:	2a0003f3 	mov	w19, w0
    43004338:	35000160 	cbnz	w0, 43004364 <pwrap_write+0x80>
    4300433c:	2a5442f4 	orr	w20, w23, w20, lsr #16
    43004340:	32020694 	orr	w20, w20, #0xc0000000
    43004344:	b90002d4 	str	w20, [x22]
    43004348:	2a1303e0 	mov	w0, w19
    4300434c:	a94153f3 	ldp	x19, x20, [sp, #16]
    43004350:	a9425bf5 	ldp	x21, x22, [sp, #32]
    43004354:	f9401bf7 	ldr	x23, [sp, #48]
    43004358:	a8c57bfd 	ldp	x29, x30, [sp], #80
    4300435c:	d65f03c0 	ret
    43004360:	2a0003f3 	mov	w19, w0
    43004364:	2a1303e1 	mov	w1, w19
    43004368:	b0000020 	adrp	x0, 43009000 <suspend_binary_ca7+0x2e0>
    4300436c:	91341000 	add	x0, x0, #0xd04
    43004370:	940005f9 	bl	43005b54 <tf_log>
    43004374:	17fffff5 	b	43004348 <pwrap_write+0x64>

0000000043004378 <Write_trigger>:
    43004378:	a9bd7bfd 	stp	x29, x30, [sp, #-48]!
    4300437c:	52800021 	mov	w1, #0x1                   	// #1
    43004380:	529c0780 	mov	w0, #0xe03c                	// #57404
    43004384:	910003fd 	mov	x29, sp
    43004388:	f9000bf3 	str	x19, [sp, #16]
    4300438c:	d2800c93 	mov	x19, #0x64                  	// #100
    43004390:	97ffffd5 	bl	430042e4 <pwrap_write>
    43004394:	52800140 	mov	w0, #0xa                   	// #10
    43004398:	97fff5b6 	bl	43001a70 <mdelay>
    4300439c:	9100b3e1 	add	x1, sp, #0x2c
    430043a0:	529c0000 	mov	w0, #0xe000                	// #57344
    430043a4:	b9002fff 	str	wzr, [sp, #44]
    430043a8:	97ffff96 	bl	43004200 <pwrap_read>
    430043ac:	79405be0 	ldrh	w0, [sp, #44]
    430043b0:	36300140 	tbz	w0, #6, 430043d8 <Write_trigger+0x60>
    430043b4:	f1000673 	subs	x19, x19, #0x1
    430043b8:	54fffee1 	b.ne	43004394 <Write_trigger+0x1c>  // b.any
    430043bc:	b0000020 	adrp	x0, 43009000 <suspend_binary_ca7+0x2e0>
    430043c0:	91348000 	add	x0, x0, #0xd20
    430043c4:	940005e4 	bl	43005b54 <tf_log>
    430043c8:	52800000 	mov	w0, #0x0                   	// #0
    430043cc:	f9400bf3 	ldr	x19, [sp, #16]
    430043d0:	a8c37bfd 	ldp	x29, x30, [sp], #48
    430043d4:	d65f03c0 	ret
    430043d8:	52800020 	mov	w0, #0x1                   	// #1
    430043dc:	17fffffc 	b	430043cc <Write_trigger+0x54>

00000000430043e0 <rtc_bbpu_power_down>:
    430043e0:	a9bf7bfd 	stp	x29, x30, [sp, #-16]!
    430043e4:	528b0d41 	mov	w1, #0x586a                	// #22634
    430043e8:	529c06c0 	mov	w0, #0xe036                	// #57398
    430043ec:	910003fd 	mov	x29, sp
    430043f0:	97ffffbd 	bl	430042e4 <pwrap_write>
    430043f4:	97ffffe1 	bl	43004378 <Write_trigger>
    430043f8:	34000160 	cbz	w0, 43004424 <rtc_bbpu_power_down+0x44>
    430043fc:	529226c1 	mov	w1, #0x9136                	// #37174
    43004400:	529c06c0 	mov	w0, #0xe036                	// #57398
    43004404:	97ffffb8 	bl	430042e4 <pwrap_write>
    43004408:	97ffffdc 	bl	43004378 <Write_trigger>
    4300440c:	340000c0 	cbz	w0, 43004424 <rtc_bbpu_power_down+0x44>
    43004410:	52886121 	mov	w1, #0x4309                	// #17161
    43004414:	529c0000 	mov	w0, #0xe000                	// #57344
    43004418:	97ffffb3 	bl	430042e4 <pwrap_write>
    4300441c:	a8c17bfd 	ldp	x29, x30, [sp], #16
    43004420:	17ffffd6 	b	43004378 <Write_trigger>
    43004424:	a8c17bfd 	ldp	x29, x30, [sp], #16
    43004428:	d65f03c0 	ret

000000004300442c <mtcmos_power_on.constprop.0>:
    4300442c:	b9400401 	ldr	w1, [x0, #4]
    43004430:	528c0002 	mov	w2, #0x6000                	// #24576
    43004434:	72a20002 	movk	w2, #0x1000, lsl #16
    43004438:	52800023 	mov	w3, #0x1                   	// #1
    4300443c:	0b020021 	add	w1, w1, w2
    43004440:	d28c0002 	mov	x2, #0x6000                	// #24576
    43004444:	f2a20002 	movk	x2, #0x1000, lsl #16
    43004448:	b9400c04 	ldr	w4, [x0, #12]
    4300444c:	93407c21 	sxtw	x1, w1
    43004450:	72a162c3 	movk	w3, #0xb16, lsl #16
    43004454:	b9000043 	str	w3, [x2]
    43004458:	d28cc187 	mov	x7, #0x660c                	// #26124
    4300445c:	d28cc206 	mov	x6, #0x6610                	// #26128
    43004460:	f2a20007 	movk	x7, #0x1000, lsl #16
    43004464:	b9400022 	ldr	w2, [x1]
    43004468:	f2a20006 	movk	x6, #0x1000, lsl #16
    4300446c:	321e0043 	orr	w3, w2, #0x4
    43004470:	b9000023 	str	w3, [x1]
    43004474:	321e0443 	orr	w3, w2, #0xc
    43004478:	b9000023 	str	w3, [x1]
    4300447c:	b9400003 	ldr	w3, [x0]
    43004480:	b94000e5 	ldr	w5, [x7]
    43004484:	6a0300bf 	tst	w5, w3
    43004488:	54ffffc0 	b.eq	43004480 <mtcmos_power_on.constprop.0+0x54>  // b.none
    4300448c:	b94000c5 	ldr	w5, [x6]
    43004490:	6a05007f 	tst	w3, w5
    43004494:	54ffff60 	b.eq	43004480 <mtcmos_power_on.constprop.0+0x54>  // b.none
    43004498:	121b7843 	and	w3, w2, #0xffffffef
    4300449c:	321e0463 	orr	w3, w3, #0xc
    430044a0:	b9000023 	str	w3, [x1]
    430044a4:	12800243 	mov	w3, #0xffffffed            	// #-19
    430044a8:	0a030042 	and	w2, w2, w3
    430044ac:	321e0443 	orr	w3, w2, #0xc
    430044b0:	b9000023 	str	w3, [x1]
    430044b4:	528001a3 	mov	w3, #0xd                   	// #13
    430044b8:	2a030042 	orr	w2, w2, w3
    430044bc:	b9000022 	str	w2, [x1]
    430044c0:	b9400803 	ldr	w3, [x0, #8]
    430044c4:	0a230042 	bic	w2, w2, w3
    430044c8:	b9000022 	str	w2, [x1]
    430044cc:	b9400022 	ldr	w2, [x1]
    430044d0:	6a02009f 	tst	w4, w2
    430044d4:	54ffffc1 	b.ne	430044cc <mtcmos_power_on.constprop.0+0xa0>  // b.any
    430044d8:	b9401001 	ldr	w1, [x0, #16]
    430044dc:	34000161 	cbz	w1, 43004508 <mtcmos_power_on.constprop.0+0xdc>
    430044e0:	d2804402 	mov	x2, #0x220                 	// #544
    430044e4:	f2a20002 	movk	x2, #0x1000, lsl #16
    430044e8:	91002042 	add	x2, x2, #0x8
    430044ec:	b85f8043 	ldur	w3, [x2, #-8]
    430044f0:	0a210061 	bic	w1, w3, w1
    430044f4:	b81f8041 	stur	w1, [x2, #-8]
    430044f8:	b9401000 	ldr	w0, [x0, #16]
    430044fc:	b9400041 	ldr	w1, [x2]
    43004500:	6a00003f 	tst	w1, w0
    43004504:	54ffffc1 	b.ne	430044fc <mtcmos_power_on.constprop.0+0xd0>  // b.any
    43004508:	52800000 	mov	w0, #0x0                   	// #0
    4300450c:	d65f03c0 	ret

0000000043004510 <mtcmos_little_cpu_on>:
    43004510:	a9be7bfd 	stp	x29, x30, [sp, #-32]!
    43004514:	d28c0000 	mov	x0, #0x6000                	// #24576
    43004518:	f2a20000 	movk	x0, #0x1000, lsl #16
    4300451c:	910003fd 	mov	x29, sp
    43004520:	52800021 	mov	w1, #0x1                   	// #1
    43004524:	f9000bf3 	str	x19, [sp, #16]
    43004528:	d28c4313 	mov	x19, #0x6218                	// #25112
    4300452c:	72a162c1 	movk	w1, #0xb16, lsl #16
    43004530:	f2a20013 	movk	x19, #0x1000, lsl #16
    43004534:	b9000001 	str	w1, [x0]
    43004538:	b9400260 	ldr	w0, [x19]
    4300453c:	321e0000 	orr	w0, w0, #0x4
    43004540:	b9000260 	str	w0, [x19]
    43004544:	52800020 	mov	w0, #0x1                   	// #1
    43004548:	97fff530 	bl	43001a08 <udelay>
    4300454c:	b9400260 	ldr	w0, [x19]
    43004550:	d28cc182 	mov	x2, #0x660c                	// #26124
    43004554:	d28cc201 	mov	x1, #0x6610                	// #26128
    43004558:	f2a20002 	movk	x2, #0x1000, lsl #16
    4300455c:	321d0000 	orr	w0, w0, #0x8
    43004560:	f2a20001 	movk	x1, #0x1000, lsl #16
    43004564:	b9000260 	str	w0, [x19]
    43004568:	b9400040 	ldr	w0, [x2]
    4300456c:	3667ffe0 	tbz	w0, #12, 43004568 <mtcmos_little_cpu_on+0x58>
    43004570:	b9400020 	ldr	w0, [x1]
    43004574:	3667ffa0 	tbz	w0, #12, 43004568 <mtcmos_little_cpu_on+0x58>
    43004578:	d28c4300 	mov	x0, #0x6218                	// #25112
    4300457c:	f2a20000 	movk	x0, #0x1000, lsl #16
    43004580:	b9400001 	ldr	w1, [x0]
    43004584:	121e7821 	and	w1, w1, #0xfffffffd
    43004588:	b9000001 	str	w1, [x0]
    4300458c:	d28c4c81 	mov	x1, #0x6264                	// #25188
    43004590:	f2a20001 	movk	x1, #0x1000, lsl #16
    43004594:	b9400022 	ldr	w2, [x1]
    43004598:	121f7842 	and	w2, w2, #0xfffffffe
    4300459c:	b9000022 	str	w2, [x1]
    430045a0:	b9400022 	ldr	w2, [x1]
    430045a4:	3747ffe2 	tbnz	w2, #8, 430045a0 <mtcmos_little_cpu_on+0x90>
    430045a8:	b9400001 	ldr	w1, [x0]
    430045ac:	f9400bf3 	ldr	x19, [sp, #16]
    430045b0:	321a0021 	orr	w1, w1, #0x40
    430045b4:	b9000001 	str	w1, [x0]
    430045b8:	b9400001 	ldr	w1, [x0]
    430045bc:	121a7821 	and	w1, w1, #0xffffffdf
    430045c0:	b9000001 	str	w1, [x0]
    430045c4:	b9400001 	ldr	w1, [x0]
    430045c8:	121b7821 	and	w1, w1, #0xffffffef
    430045cc:	b9000001 	str	w1, [x0]
    430045d0:	b9400001 	ldr	w1, [x0]
    430045d4:	32000021 	orr	w1, w1, #0x1
    430045d8:	b9000001 	str	w1, [x0]
    430045dc:	a8c27bfd 	ldp	x29, x30, [sp], #32
    430045e0:	d65f03c0 	ret

00000000430045e4 <mtcmos_non_cpu_ctrl>:
    430045e4:	7100043f 	cmp	w1, #0x1
    430045e8:	540000e0 	b.eq	43004604 <mtcmos_non_cpu_ctrl+0x20>  // b.none
    430045ec:	7100083f 	cmp	w1, #0x2
    430045f0:	54000120 	b.eq	43004614 <mtcmos_non_cpu_ctrl+0x30>  // b.none
    430045f4:	35000181 	cbnz	w1, 43004624 <mtcmos_non_cpu_ctrl+0x40>
    430045f8:	f0000020 	adrp	x0, 4300b000 <__RO_END_UNALIGNED__>
    430045fc:	91001000 	add	x0, x0, #0x4
    43004600:	17ffff8b 	b	4300442c <mtcmos_power_on.constprop.0>
    43004604:	f0000020 	adrp	x0, 4300b000 <__RO_END_UNALIGNED__>
    43004608:	91001000 	add	x0, x0, #0x4
    4300460c:	91005000 	add	x0, x0, #0x14
    43004610:	17fffffc 	b	43004600 <mtcmos_non_cpu_ctrl+0x1c>
    43004614:	f0000020 	adrp	x0, 4300b000 <__RO_END_UNALIGNED__>
    43004618:	91001000 	add	x0, x0, #0x4
    4300461c:	9100a000 	add	x0, x0, #0x28
    43004620:	17fffff8 	b	43004600 <mtcmos_non_cpu_ctrl+0x1c>
    43004624:	12800000 	mov	w0, #0xffffffff            	// #-1
    43004628:	d65f03c0 	ret

000000004300462c <spm_lock_get>:
    4300462c:	b0000060 	adrp	x0, 43011000 <psci_locks>
    43004630:	91002000 	add	x0, x0, #0x8
    43004634:	17fff617 	b	43001e90 <bakery_lock_get>

0000000043004638 <spm_lock_release>:
    43004638:	b0000060 	adrp	x0, 43011000 <psci_locks>
    4300463c:	91002000 	add	x0, x0, #0x8
    43004640:	17fff63f 	b	43001f3c <bakery_lock_release>

0000000043004644 <is_mcdi_ready>:
    43004644:	f0000020 	adrp	x0, 4300b000 <__RO_END_UNALIGNED__>
    43004648:	b940e000 	ldr	w0, [x0, #224]
    4300464c:	d65f03c0 	ret

0000000043004650 <is_hotplug_ready>:
    43004650:	f0000020 	adrp	x0, 4300b000 <__RO_END_UNALIGNED__>
    43004654:	b940e400 	ldr	w0, [x0, #228]
    43004658:	d65f03c0 	ret

000000004300465c <set_mcdi_ready>:
    4300465c:	f0000021 	adrp	x1, 4300b000 <__RO_END_UNALIGNED__>
    43004660:	91038020 	add	x0, x1, #0xe0
    43004664:	52800022 	mov	w2, #0x1                   	// #1
    43004668:	b900e022 	str	w2, [x1, #224]
    4300466c:	2900fc1f 	stp	wzr, wzr, [x0, #4]
    43004670:	d65f03c0 	ret

0000000043004674 <set_suspend_ready>:
    43004674:	f0000021 	adrp	x1, 4300b000 <__RO_END_UNALIGNED__>
    43004678:	91038020 	add	x0, x1, #0xe0
    4300467c:	b900e03f 	str	wzr, [x1, #224]
    43004680:	52800021 	mov	w1, #0x1                   	// #1
    43004684:	2900841f 	stp	wzr, w1, [x0, #4]
    43004688:	d65f03c0 	ret

000000004300468c <clear_all_ready>:
    4300468c:	f0000021 	adrp	x1, 4300b000 <__RO_END_UNALIGNED__>
    43004690:	91038020 	add	x0, x1, #0xe0
    43004694:	b900e03f 	str	wzr, [x1, #224]
    43004698:	2900fc1f 	stp	wzr, wzr, [x0, #4]
    4300469c:	d65f03c0 	ret

00000000430046a0 <spm_reset_and_init_pcm>:
    430046a0:	d28c6200 	mov	x0, #0x6310                	// #25360
    430046a4:	52900001 	mov	w1, #0x8000                	// #32768
    430046a8:	f2a20000 	movk	x0, #0x1000, lsl #16
    430046ac:	72a162c1 	movk	w1, #0xb16, lsl #16
    430046b0:	d28c7883 	mov	x3, #0x63c4                	// #25540
    430046b4:	b9000001 	str	w1, [x0]
    430046b8:	52a162c1 	mov	w1, #0xb160000             	// #185991168
    430046bc:	b9000001 	str	w1, [x0]
    430046c0:	52909201 	mov	w1, #0x8490                	// #33936
    430046c4:	f2a20003 	movk	x3, #0x1000, lsl #16
    430046c8:	52807d20 	mov	w0, #0x3e9                 	// #1001
    430046cc:	72a00081 	movk	w1, #0x4, lsl #16
    430046d0:	b9400062 	ldr	w2, [x3]
    430046d4:	6b01005f 	cmp	w2, w1
    430046d8:	54000060 	b.eq	430046e4 <spm_reset_and_init_pcm+0x44>  // b.none
    430046dc:	71000400 	subs	w0, w0, #0x1
    430046e0:	54ffff81 	b.ne	430046d0 <spm_reset_and_init_pcm+0x30>  // b.any
    430046e4:	d28c6200 	mov	x0, #0x6310                	// #25360
    430046e8:	52800101 	mov	w1, #0x8                   	// #8
    430046ec:	f2a20000 	movk	x0, #0x1000, lsl #16
    430046f0:	72a162c1 	movk	w1, #0xb16, lsl #16
    430046f4:	52838902 	mov	w2, #0x1c48                	// #7240
    430046f8:	b9000001 	str	w1, [x0]
    430046fc:	d28c6281 	mov	x1, #0x6314                	// #25364
    43004700:	f2a20001 	movk	x1, #0x1000, lsl #16
    43004704:	72a162c2 	movk	w2, #0xb16, lsl #16
    43004708:	b9400020 	ldr	w0, [x1]
    4300470c:	12180400 	and	w0, w0, #0x300
    43004710:	2a020000 	orr	w0, w0, w2
    43004714:	b9000020 	str	w0, [x1]
    43004718:	d65f03c0 	ret

000000004300471c <spm_init_pcm_register>:
    4300471c:	d28c0200 	mov	x0, #0x6010                	// #24592
    43004720:	d28c6401 	mov	x1, #0x6320                	// #25376
    43004724:	f2a20000 	movk	x0, #0x1000, lsl #16
    43004728:	f2a20001 	movk	x1, #0x1000, lsl #16
    4300472c:	52a00022 	mov	w2, #0x10000               	// #65536
    43004730:	b9400000 	ldr	w0, [x0]
    43004734:	b9000020 	str	w0, [x1]
    43004738:	d28c6b00 	mov	x0, #0x6358                	// #25432
    4300473c:	f2a20000 	movk	x0, #0x1000, lsl #16
    43004740:	b9000002 	str	w2, [x0]
    43004744:	d28c0282 	mov	x2, #0x6014                	// #24596
    43004748:	f2a20002 	movk	x2, #0x1000, lsl #16
    4300474c:	b900001f 	str	wzr, [x0]
    43004750:	b9400042 	ldr	w2, [x2]
    43004754:	b9000022 	str	w2, [x1]
    43004758:	52a01001 	mov	w1, #0x800000              	// #8388608
    4300475c:	b9000001 	str	w1, [x0]
    43004760:	b900001f 	str	wzr, [x0]
    43004764:	d65f03c0 	ret

0000000043004768 <spm_set_power_control>:
    43004768:	79408801 	ldrh	w1, [x0, #68]
    4300476c:	79405003 	ldrh	w3, [x0, #40]
    43004770:	7100003f 	cmp	w1, #0x0
    43004774:	79408401 	ldrh	w1, [x0, #66]
    43004778:	1a9f17e2 	cset	w2, eq  // eq = none
    4300477c:	7100003f 	cmp	w1, #0x0
    43004780:	1a9f17e1 	cset	w1, eq  // eq = none
    43004784:	530f3821 	lsl	w1, w1, #17
    43004788:	2a025422 	orr	w2, w1, w2, lsl #21
    4300478c:	79408001 	ldrh	w1, [x0, #64]
    43004790:	7100003f 	cmp	w1, #0x0
    43004794:	1a9f17e1 	cset	w1, eq  // eq = none
    43004798:	7100007f 	cmp	w3, #0x0
    4300479c:	1a9f07e3 	cset	w3, ne  // ne = any
    430047a0:	53196063 	lsl	w3, w3, #7
    430047a4:	2a014061 	orr	w1, w3, w1, lsl #16
    430047a8:	79405803 	ldrh	w3, [x0, #44]
    430047ac:	2a020022 	orr	w2, w1, w2
    430047b0:	79405401 	ldrh	w1, [x0, #42]
    430047b4:	7100003f 	cmp	w1, #0x0
    430047b8:	1a9f07e1 	cset	w1, ne  // ne = any
    430047bc:	7100007f 	cmp	w3, #0x0
    430047c0:	1a9f07e3 	cset	w3, ne  // ne = any
    430047c4:	531b6863 	lsl	w3, w3, #5
    430047c8:	2a011861 	orr	w1, w3, w1, lsl #6
    430047cc:	d28c8003 	mov	x3, #0x6400                	// #25600
    430047d0:	2a020021 	orr	w1, w1, w2
    430047d4:	79405c02 	ldrh	w2, [x0, #46]
    430047d8:	f2a20003 	movk	x3, #0x1000, lsl #16
    430047dc:	7100005f 	cmp	w2, #0x0
    430047e0:	1a9f07e2 	cset	w2, ne  // ne = any
    430047e4:	2a021021 	orr	w1, w1, w2, lsl #4
    430047e8:	d28cc102 	mov	x2, #0x6608                	// #26120
    430047ec:	f2a20002 	movk	x2, #0x1000, lsl #16
    430047f0:	b9000041 	str	w1, [x2]
    430047f4:	79404c01 	ldrh	w1, [x0, #38]
    430047f8:	7100003f 	cmp	w1, #0x0
    430047fc:	d28d6181 	mov	x1, #0x6b0c                	// #27404
    43004800:	f2a20001 	movk	x1, #0x1000, lsl #16
    43004804:	1a9f07e2 	cset	w2, ne  // ne = any
    43004808:	b9000022 	str	w2, [x1]
    4300480c:	b9005c3f 	str	wzr, [x1, #92]
    43004810:	79409001 	ldrh	w1, [x0, #72]
    43004814:	b9400062 	ldr	w2, [x3]
    43004818:	7100003f 	cmp	w1, #0x0
    4300481c:	1a9f07e1 	cset	w1, ne  // ne = any
    43004820:	12197842 	and	w2, w2, #0xffffffbf
    43004824:	2a011841 	orr	w1, w2, w1, lsl #6
    43004828:	b9000061 	str	w1, [x3]
    4300482c:	79407001 	ldrh	w1, [x0, #56]
    43004830:	7100003f 	cmp	w1, #0x0
    43004834:	d28de001 	mov	x1, #0x6f00                	// #28416
    43004838:	f2a20001 	movk	x1, #0x1000, lsl #16
    4300483c:	1a9f07e2 	cset	w2, ne  // ne = any
    43004840:	b9000022 	str	w2, [x1]
    43004844:	79407401 	ldrh	w1, [x0, #58]
    43004848:	7100003f 	cmp	w1, #0x0
    4300484c:	d28de081 	mov	x1, #0x6f04                	// #28420
    43004850:	f2a20001 	movk	x1, #0x1000, lsl #16
    43004854:	1a9f07e2 	cset	w2, ne  // ne = any
    43004858:	b9000022 	str	w2, [x1]
    4300485c:	79407801 	ldrh	w1, [x0, #60]
    43004860:	79407c00 	ldrh	w0, [x0, #62]
    43004864:	7100003f 	cmp	w1, #0x0
    43004868:	d28de101 	mov	x1, #0x6f08                	// #28424
    4300486c:	1a9f07e2 	cset	w2, ne  // ne = any
    43004870:	f2a20001 	movk	x1, #0x1000, lsl #16
    43004874:	7100001f 	cmp	w0, #0x0
    43004878:	d28de180 	mov	x0, #0x6f0c                	// #28428
    4300487c:	f2a20000 	movk	x0, #0x1000, lsl #16
    43004880:	b9000022 	str	w2, [x1]
    43004884:	1a9f07e1 	cset	w1, ne  // ne = any
    43004888:	b9000001 	str	w1, [x0]
    4300488c:	d65f03c0 	ret

0000000043004890 <spm_set_wakeup_event>:
    43004890:	b9401001 	ldr	w1, [x0, #16]
    43004894:	350000a1 	cbnz	w1, 430048a8 <spm_set_wakeup_event+0x18>
    43004898:	b9400c01 	ldr	w1, [x0, #12]
    4300489c:	12a001e2 	mov	w2, #0xfff0ffff            	// #-983041
    430048a0:	7100003f 	cmp	w1, #0x0
    430048a4:	1a821021 	csel	w1, w1, w2, ne  // ne = any
    430048a8:	d28c6b82 	mov	x2, #0x635c                	// #25436
    430048ac:	52a162c3 	mov	w3, #0xb160000             	// #185991168
    430048b0:	f2a20002 	movk	x2, #0x1000, lsl #16
    430048b4:	b9000041 	str	w1, [x2]
    430048b8:	b85b8041 	ldur	w1, [x2, #-72]
    430048bc:	2a030021 	orr	w1, w1, w3
    430048c0:	b81b8041 	stur	w1, [x2, #-72]
    430048c4:	b9401801 	ldr	w1, [x0, #24]
    430048c8:	35000041 	cbnz	w1, 430048d0 <spm_set_wakeup_event+0x40>
    430048cc:	b9401401 	ldr	w1, [x0, #20]
    430048d0:	79408c00 	ldrh	w0, [x0, #70]
    430048d4:	34000040 	cbz	w0, 430048dc <spm_set_wakeup_event+0x4c>
    430048d8:	12077821 	and	w1, w1, #0xfeffffff
    430048dc:	d28d0200 	mov	x0, #0x6810                	// #26640
    430048e0:	2a2103e1 	mvn	w1, w1
    430048e4:	f2a20000 	movk	x0, #0x1000, lsl #16
    430048e8:	b9000001 	str	w1, [x0]
    430048ec:	529fc081 	mov	w1, #0xfe04                	// #65028
    430048f0:	b900f001 	str	w1, [x0, #240]
    430048f4:	d65f03c0 	ret

00000000430048f8 <spm_get_wakeup_status>:
    430048f8:	d28c6401 	mov	x1, #0x6320                	// #25376
    430048fc:	f2a20001 	movk	x1, #0x1000, lsl #16
    43004900:	b9400021 	ldr	w1, [x1]
    43004904:	b9000001 	str	w1, [x0]
    43004908:	d28c7601 	mov	x1, #0x63b0                	// #25520
    4300490c:	f2a20001 	movk	x1, #0x1000, lsl #16
    43004910:	b9400021 	ldr	w1, [x1]
    43004914:	b9000401 	str	w1, [x0, #4]
    43004918:	d28d2201 	mov	x1, #0x6910                	// #26896
    4300491c:	f2a20001 	movk	x1, #0x1000, lsl #16
    43004920:	b9400021 	ldr	w1, [x1]
    43004924:	b9000801 	str	w1, [x0, #8]
    43004928:	d28d2301 	mov	x1, #0x6918                	// #26904
    4300492c:	f2a20001 	movk	x1, #0x1000, lsl #16
    43004930:	b9400021 	ldr	w1, [x1]
    43004934:	b9000c01 	str	w1, [x0, #12]
    43004938:	d28c6c01 	mov	x1, #0x6360                	// #25440
    4300493c:	f2a20001 	movk	x1, #0x1000, lsl #16
    43004940:	b9400021 	ldr	w1, [x1]
    43004944:	b9001001 	str	w1, [x0, #16]
    43004948:	d28c7681 	mov	x1, #0x63b4                	// #25524
    4300494c:	f2a20001 	movk	x1, #0x1000, lsl #16
    43004950:	b9400021 	ldr	w1, [x1]
    43004954:	b9001401 	str	w1, [x0, #20]
    43004958:	d28d2401 	mov	x1, #0x6920                	// #26912
    4300495c:	f2a20001 	movk	x1, #0x1000, lsl #16
    43004960:	b9400021 	ldr	w1, [x1]
    43004964:	b9001801 	str	w1, [x0, #24]
    43004968:	d28d6d81 	mov	x1, #0x6b6c                	// #27500
    4300496c:	f2a20001 	movk	x1, #0x1000, lsl #16
    43004970:	b9400021 	ldr	w1, [x1]
    43004974:	b9001c01 	str	w1, [x0, #28]
    43004978:	d28c7801 	mov	x1, #0x63c0                	// #25536
    4300497c:	f2a20001 	movk	x1, #0x1000, lsl #16
    43004980:	b9400021 	ldr	w1, [x1]
    43004984:	b9002001 	str	w1, [x0, #32]
    43004988:	d28d2081 	mov	x1, #0x6904                	// #26884
    4300498c:	f2a20001 	movk	x1, #0x1000, lsl #16
    43004990:	b9400021 	ldr	w1, [x1]
    43004994:	b9002401 	str	w1, [x0, #36]
    43004998:	d65f03c0 	ret

000000004300499c <spm_init_event_vector>:
    4300499c:	d28c6801 	mov	x1, #0x6340                	// #25408
    430049a0:	b9401802 	ldr	w2, [x0, #24]
    430049a4:	f2a20001 	movk	x1, #0x1000, lsl #16
    430049a8:	b9000022 	str	w2, [x1]
    430049ac:	b9401c02 	ldr	w2, [x0, #28]
    430049b0:	b9000422 	str	w2, [x1, #4]
    430049b4:	b9402002 	ldr	w2, [x0, #32]
    430049b8:	b9000822 	str	w2, [x1, #8]
    430049bc:	b9402402 	ldr	w2, [x0, #36]
    430049c0:	b9000c22 	str	w2, [x1, #12]
    430049c4:	b9402802 	ldr	w2, [x0, #40]
    430049c8:	b9009022 	str	w2, [x1, #144]
    430049cc:	b9402c02 	ldr	w2, [x0, #44]
    430049d0:	b9009422 	str	w2, [x1, #148]
    430049d4:	b9403002 	ldr	w2, [x0, #48]
    430049d8:	b9009822 	str	w2, [x1, #152]
    430049dc:	b9403401 	ldr	w1, [x0, #52]
    430049e0:	d28c7b80 	mov	x0, #0x63dc                	// #25564
    430049e4:	f2a20000 	movk	x0, #0x1000, lsl #16
    430049e8:	b9000001 	str	w1, [x0]
    430049ec:	d65f03c0 	ret

00000000430049f0 <spm_kick_im_to_fetch>:
    430049f0:	d28c6303 	mov	x3, #0x6318                	// #25368
    430049f4:	b9401001 	ldr	w1, [x0, #16]
    430049f8:	f2a20003 	movk	x3, #0x1000, lsl #16
    430049fc:	f9400404 	ldr	x4, [x0, #8]
    43004a00:	51000421 	sub	w1, w1, #0x1
    43004a04:	b9400062 	ldr	w2, [x3]
    43004a08:	6b02009f 	cmp	w4, w2
    43004a0c:	d28c6382 	mov	x2, #0x631c                	// #25372
    43004a10:	f2a20002 	movk	x2, #0x1000, lsl #16
    43004a14:	540000e1 	b.ne	43004a30 <spm_kick_im_to_fetch+0x40>  // b.any
    43004a18:	b9400045 	ldr	w5, [x2]
    43004a1c:	6b05003f 	cmp	w1, w5
    43004a20:	54000081 	b.ne	43004a30 <spm_kick_im_to_fetch+0x40>  // b.any
    43004a24:	39405000 	ldrb	w0, [x0, #20]
    43004a28:	7100081f 	cmp	w0, #0x2
    43004a2c:	540002e9 	b.ls	43004a88 <spm_kick_im_to_fetch+0x98>  // b.plast
    43004a30:	b9000064 	str	w4, [x3]
    43004a34:	b9000041 	str	w1, [x2]
    43004a38:	d28c6200 	mov	x0, #0x6310                	// #25360
    43004a3c:	52800041 	mov	w1, #0x2                   	// #2
    43004a40:	f2a20000 	movk	x0, #0x1000, lsl #16
    43004a44:	72a162c1 	movk	w1, #0xb16, lsl #16
    43004a48:	52a162c3 	mov	w3, #0xb160000             	// #185991168
    43004a4c:	b9400002 	ldr	w2, [x0]
    43004a50:	121e7442 	and	w2, w2, #0xfffffffc
    43004a54:	2a010041 	orr	w1, w2, w1
    43004a58:	b9000001 	str	w1, [x0]
    43004a5c:	2a030042 	orr	w2, w2, w3
    43004a60:	b9000002 	str	w2, [x0]
    43004a64:	52800022 	mov	w2, #0x1                   	// #1
    43004a68:	b9400001 	ldr	w1, [x0]
    43004a6c:	72a162c2 	movk	w2, #0xb16, lsl #16
    43004a70:	121e7421 	and	w1, w1, #0xfffffffc
    43004a74:	2a020022 	orr	w2, w1, w2
    43004a78:	b9000002 	str	w2, [x0]
    43004a7c:	2a030021 	orr	w1, w1, w3
    43004a80:	b9000001 	str	w1, [x0]
    43004a84:	d65f03c0 	ret
    43004a88:	d28c6281 	mov	x1, #0x6314                	// #25364
    43004a8c:	52800022 	mov	w2, #0x1                   	// #1
    43004a90:	f2a20001 	movk	x1, #0x1000, lsl #16
    43004a94:	72a162c2 	movk	w2, #0xb16, lsl #16
    43004a98:	b9400020 	ldr	w0, [x1]
    43004a9c:	2a020000 	orr	w0, w0, w2
    43004aa0:	b9000020 	str	w0, [x1]
    43004aa4:	17ffffe5 	b	43004a38 <spm_kick_im_to_fetch+0x48>

0000000043004aa8 <spm_set_sysclk_settle>:
    43004aa8:	d28c2000 	mov	x0, #0x6100                	// #24832
    43004aac:	52801001 	mov	w1, #0x80                  	// #128
    43004ab0:	f2a20000 	movk	x0, #0x1000, lsl #16
    43004ab4:	b9000001 	str	w1, [x0]
    43004ab8:	d65f03c0 	ret

0000000043004abc <spm_kick_pcm_to_run>:
    43004abc:	d28c6283 	mov	x3, #0x6314                	// #25364
    43004ac0:	52a162c2 	mov	w2, #0xb160000             	// #185991168
    43004ac4:	f2a20003 	movk	x3, #0x1000, lsl #16
    43004ac8:	b9400061 	ldr	w1, [x3]
    43004acc:	12167421 	and	w1, w1, #0xfffffcff
    43004ad0:	2a020022 	orr	w2, w1, w2
    43004ad4:	b9000062 	str	w2, [x3]
    43004ad8:	d28c6b82 	mov	x2, #0x635c                	// #25436
    43004adc:	12a001e3 	mov	w3, #0xfff0ffff            	// #-983041
    43004ae0:	f2a20002 	movk	x2, #0x1000, lsl #16
    43004ae4:	b9400044 	ldr	w4, [x2]
    43004ae8:	6b03009f 	cmp	w4, w3
    43004aec:	54000049 	b.ls	43004af4 <spm_kick_pcm_to_run+0x38>  // b.plast
    43004af0:	b9000043 	str	w3, [x2]
    43004af4:	b9400042 	ldr	w2, [x2]
    43004af8:	d28d0483 	mov	x3, #0x6824                	// #26660
    43004afc:	f2a20003 	movk	x3, #0x1000, lsl #16
    43004b00:	1143c042 	add	w2, w2, #0xf0, lsl #12
    43004b04:	b9000062 	str	w2, [x3]
    43004b08:	52802002 	mov	w2, #0x100                 	// #256
    43004b0c:	72a162c2 	movk	w2, #0xb16, lsl #16
    43004b10:	2a020021 	orr	w1, w1, w2
    43004b14:	d28c6282 	mov	x2, #0x6314                	// #25364
    43004b18:	f2a20002 	movk	x2, #0x1000, lsl #16
    43004b1c:	b9000041 	str	w1, [x2]
    43004b20:	d28d6c01 	mov	x1, #0x6b60                	// #27488
    43004b24:	f2a20001 	movk	x1, #0x1000, lsl #16
    43004b28:	d1203021 	sub	x1, x1, #0x80c
    43004b2c:	12800002 	mov	w2, #0xffffffff            	// #-1
    43004b30:	b9080c3f 	str	wzr, [x1, #2060]
    43004b34:	b9000022 	str	w2, [x1]
    43004b38:	b81cc03f 	stur	wzr, [x1, #-52]
    43004b3c:	b940ac22 	ldr	w2, [x1, #172]
    43004b40:	12117842 	and	w2, w2, #0xffffbfff
    43004b44:	b900ac22 	str	w2, [x1, #172]
    43004b48:	d28d6102 	mov	x2, #0x6b08                	// #27400
    43004b4c:	f2a20002 	movk	x2, #0x1000, lsl #16
    43004b50:	b9400003 	ldr	w3, [x0]
    43004b54:	b9000043 	str	w3, [x2]
    43004b58:	79404802 	ldrh	w2, [x0, #36]
    43004b5c:	b940ac23 	ldr	w3, [x1, #172]
    43004b60:	7100005f 	cmp	w2, #0x0
    43004b64:	1a9f07e2 	cset	w2, ne  // ne = any
    43004b68:	121a7863 	and	w3, w3, #0xffffffdf
    43004b6c:	2a021462 	orr	w2, w3, w2, lsl #5
    43004b70:	b900ac22 	str	w2, [x1, #172]
    43004b74:	79404001 	ldrh	w1, [x0, #32]
    43004b78:	79404400 	ldrh	w0, [x0, #34]
    43004b7c:	7100003f 	cmp	w1, #0x0
    43004b80:	1a9f07e1 	cset	w1, ne  // ne = any
    43004b84:	7100001f 	cmp	w0, #0x0
    43004b88:	1a9f07e0 	cset	w0, ne  // ne = any
    43004b8c:	2a001c20 	orr	w0, w1, w0, lsl #7
    43004b90:	d28c6b01 	mov	x1, #0x6358                	// #25432
    43004b94:	f2a20001 	movk	x1, #0x1000, lsl #16
    43004b98:	b9000020 	str	w0, [x1]
    43004b9c:	d65f03c0 	ret

0000000043004ba0 <spm_clean_after_wakeup>:
    43004ba0:	d28c6282 	mov	x2, #0x6314                	// #25364
    43004ba4:	d28c6b00 	mov	x0, #0x6358                	// #25432
    43004ba8:	f2a20002 	movk	x2, #0x1000, lsl #16
    43004bac:	f2a20000 	movk	x0, #0x1000, lsl #16
    43004bb0:	52a162c3 	mov	w3, #0xb160000             	// #185991168
    43004bb4:	b9400041 	ldr	w1, [x2]
    43004bb8:	12177821 	and	w1, w1, #0xfffffeff
    43004bbc:	2a030021 	orr	w1, w1, w3
    43004bc0:	b9000041 	str	w1, [x2]
    43004bc4:	b900001f 	str	wzr, [x0]
    43004bc8:	12800001 	mov	w1, #0xffffffff            	// #-1
    43004bcc:	b904bc1f 	str	wzr, [x0, #1212]
    43004bd0:	b9400040 	ldr	w0, [x2]
    43004bd4:	121a7800 	and	w0, w0, #0xffffffdf
    43004bd8:	2a030000 	orr	w0, w0, w3
    43004bdc:	b9000040 	str	w0, [x2]
    43004be0:	d28d0200 	mov	x0, #0x6810                	// #26640
    43004be4:	f2a20000 	movk	x0, #0x1000, lsl #16
    43004be8:	d110b000 	sub	x0, x0, #0x42c
    43004bec:	b9042c01 	str	w1, [x0, #1068]
    43004bf0:	529fe181 	mov	w1, #0xff0c                	// #65292
    43004bf4:	b9051c01 	str	w1, [x0, #1308]
    43004bf8:	52800181 	mov	w1, #0xc                   	// #12
    43004bfc:	b9052001 	str	w1, [x0, #1312]
    43004c00:	52801fe1 	mov	w1, #0xff                  	// #255
    43004c04:	b9000001 	str	w1, [x0]
    43004c08:	d65f03c0 	ret

0000000043004c0c <spm_output_wake_reason>:
    43004c0c:	29400801 	ldp	w1, w2, [x0]
    43004c10:	aa0003e3 	mov	x3, x0
    43004c14:	34000161 	cbz	w1, 43004c40 <spm_output_wake_reason+0x34>
    43004c18:	a9bf7bfd 	stp	x29, x30, [sp, #-16]!
    43004c1c:	b0000020 	adrp	x0, 43009000 <suspend_binary_ca7+0x2e0>
    43004c20:	9134f000 	add	x0, x0, #0xd3c
    43004c24:	910003fd 	mov	x29, sp
    43004c28:	b9401c64 	ldr	w4, [x3, #28]
    43004c2c:	b9401463 	ldr	w3, [x3, #20]
    43004c30:	940003c9 	bl	43005b54 <tf_log>
    43004c34:	52800040 	mov	w0, #0x2                   	// #2
    43004c38:	a8c17bfd 	ldp	x29, x30, [sp], #16
    43004c3c:	d65f03c0 	ret
    43004c40:	360002c2 	tbz	w2, #0, 43004c98 <spm_output_wake_reason+0x8c>
    43004c44:	b9400c64 	ldr	w4, [x3, #12]
    43004c48:	528000c1 	mov	w1, #0x6                   	// #6
    43004c4c:	52800060 	mov	w0, #0x3                   	// #3
    43004c50:	f26d009f 	tst	x4, #0x80000
    43004c54:	1a800020 	csel	w0, w1, w0, eq  // eq = none
    43004c58:	f26c009f 	tst	x4, #0x100000
    43004c5c:	528000a1 	mov	w1, #0x5                   	// #5
    43004c60:	1a810000 	csel	w0, w0, w1, eq  // eq = none
    43004c64:	52800021 	mov	w1, #0x1                   	// #1
    43004c68:	528000a4 	mov	w4, #0x5                   	// #5
    43004c6c:	1ac12445 	lsr	w5, w2, w1
    43004c70:	11000421 	add	w1, w1, #0x1
    43004c74:	f24000bf 	tst	x5, #0x1
    43004c78:	1a840000 	csel	w0, w0, w4, eq  // eq = none
    43004c7c:	7100803f 	cmp	w1, #0x20
    43004c80:	54ffff61 	b.ne	43004c6c <spm_output_wake_reason+0x60>  // b.any
    43004c84:	b9402061 	ldr	w1, [x3, #32]
    43004c88:	f26c003f 	tst	x1, #0x100000
    43004c8c:	52800081 	mov	w1, #0x4                   	// #4
    43004c90:	1a811000 	csel	w0, w0, w1, ne  // ne = any
    43004c94:	d65f03c0 	ret
    43004c98:	528000c0 	mov	w0, #0x6                   	// #6
    43004c9c:	17fffff2 	b	43004c64 <spm_output_wake_reason+0x58>

0000000043004ca0 <spm_clear_hotplug>:
    43004ca0:	d28c6400 	mov	x0, #0x6320                	// #25376
    43004ca4:	5297dde1 	mov	w1, #0xbeef                	// #48879
    43004ca8:	f2a20000 	movk	x0, #0x1000, lsl #16
    43004cac:	72b7dde1 	movk	w1, #0xbeef, lsl #16
    43004cb0:	d28c7882 	mov	x2, #0x63c4                	// #25540
    43004cb4:	b9000001 	str	w1, [x0]
    43004cb8:	52a00801 	mov	w1, #0x400000              	// #4194304
    43004cbc:	b9003801 	str	w1, [x0, #56]
    43004cc0:	f2a20002 	movk	x2, #0x1000, lsl #16
    43004cc4:	52909201 	mov	w1, #0x8490                	// #33936
    43004cc8:	b900381f 	str	wzr, [x0, #56]
    43004ccc:	b9400040 	ldr	w0, [x2]
    43004cd0:	121c3400 	and	w0, w0, #0x3fff0
    43004cd4:	6b01001f 	cmp	w0, w1
    43004cd8:	54ffffa1 	b.ne	43004ccc <spm_clear_hotplug+0x2c>  // b.any
    43004cdc:	17fffe6c 	b	4300468c <clear_all_ready>

0000000043004ce0 <spm_mcdi_prepare_for_off_state>:
    43004ce0:	a9bd7bfd 	stp	x29, x30, [sp, #-48]!
    43004ce4:	910003fd 	mov	x29, sp
    43004ce8:	a90153f3 	stp	x19, x20, [sp, #16]
    43004cec:	aa0003f3 	mov	x19, x0
    43004cf0:	f90013f5 	str	x21, [sp, #32]
    43004cf4:	2a0103f5 	mov	w21, w1
    43004cf8:	97fffe4d 	bl	4300462c <spm_lock_get>
    43004cfc:	97fffe52 	bl	43004644 <is_mcdi_ready>
    43004d00:	35000280 	cbnz	w0, 43004d50 <spm_mcdi_prepare_for_off_state+0x70>
    43004d04:	97fffe53 	bl	43004650 <is_hotplug_ready>
    43004d08:	7100041f 	cmp	w0, #0x1
    43004d0c:	54000041 	b.ne	43004d14 <spm_mcdi_prepare_for_off_state+0x34>  // b.any
    43004d10:	97ffffe4 	bl	43004ca0 <spm_clear_hotplug>
    43004d14:	f0000020 	adrp	x0, 4300b000 <__RO_END_UNALIGNED__>
    43004d18:	91010014 	add	x20, x0, #0x40
    43004d1c:	b9400681 	ldr	w1, [x20, #4]
    43004d20:	b9004001 	str	w1, [x0, #64]
    43004d24:	97fffe5f 	bl	430046a0 <spm_reset_and_init_pcm>
    43004d28:	f0000000 	adrp	x0, 43007000 <efuse_write+0x350>
    43004d2c:	911e2000 	add	x0, x0, #0x788
    43004d30:	97ffff30 	bl	430049f0 <spm_kick_im_to_fetch>
    43004d34:	aa1403e0 	mov	x0, x20
    43004d38:	97fffe8c 	bl	43004768 <spm_set_power_control>
    43004d3c:	aa1403e0 	mov	x0, x20
    43004d40:	97fffed4 	bl	43004890 <spm_set_wakeup_event>
    43004d44:	aa1403e0 	mov	x0, x20
    43004d48:	97ffff5d 	bl	43004abc <spm_kick_pcm_to_run>
    43004d4c:	97fffe44 	bl	4300465c <set_mcdi_ready>
    43004d50:	12001e61 	and	w1, w19, #0xff
    43004d54:	71000c3f 	cmp	w1, #0x3
    43004d58:	54000188 	b.hi	43004d88 <spm_mcdi_prepare_for_off_state+0xa8>  // b.pmore
    43004d5c:	f0000000 	adrp	x0, 43007000 <efuse_write+0x350>
    43004d60:	52800022 	mov	w2, #0x1                   	// #1
    43004d64:	9135d000 	add	x0, x0, #0xd74
    43004d68:	38614800 	ldrb	w0, [x0, w1, uxtw]
    43004d6c:	10000061 	adr	x1, 43004d78 <spm_mcdi_prepare_for_off_state+0x98>
    43004d70:	8b208820 	add	x0, x1, w0, sxtb #2
    43004d74:	d61f0000 	br	x0
    43004d78:	d28d6600 	mov	x0, #0x6b30                	// #27440
    43004d7c:	f2a20000 	movk	x0, #0x1000, lsl #16
    43004d80:	b9000002 	str	w2, [x0]
    43004d84:	b903d002 	str	w2, [x0, #976]
    43004d88:	710006bf 	cmp	w21, #0x1
    43004d8c:	54000241 	b.ne	43004dd4 <spm_mcdi_prepare_for_off_state+0xf4>  // b.any
    43004d90:	d28cc180 	mov	x0, #0x660c                	// #26124
    43004d94:	f2401e73 	ands	x19, x19, #0xff
    43004d98:	f2a20000 	movk	x0, #0x1000, lsl #16
    43004d9c:	91001000 	add	x0, x0, #0x4
    43004da0:	b85fc001 	ldur	w1, [x0, #-4]
    43004da4:	b9400000 	ldr	w0, [x0]
    43004da8:	2a000021 	orr	w1, w1, w0
    43004dac:	54000280 	b.eq	43004dfc <spm_mcdi_prepare_for_off_state+0x11c>  // b.none
    43004db0:	d3492420 	ubfx	x0, x1, #9, #1
    43004db4:	f100067f 	cmp	x19, #0x1
    43004db8:	54000241 	b.ne	43004e00 <spm_mcdi_prepare_for_off_state+0x120>  // b.any
    43004dbc:	350000c0 	cbnz	w0, 43004dd4 <spm_mcdi_prepare_for_off_state+0xf4>
    43004dc0:	d28d6001 	mov	x1, #0x6b00                	// #27392
    43004dc4:	f2a20001 	movk	x1, #0x1000, lsl #16
    43004dc8:	b9400020 	ldr	w0, [x1]
    43004dcc:	320f0000 	orr	w0, w0, #0x20000
    43004dd0:	b9000020 	str	w0, [x1]
    43004dd4:	a94153f3 	ldp	x19, x20, [sp, #16]
    43004dd8:	f94013f5 	ldr	x21, [sp, #32]
    43004ddc:	a8c37bfd 	ldp	x29, x30, [sp], #48
    43004de0:	17fffe16 	b	43004638 <spm_lock_release>
    43004de4:	d28d6680 	mov	x0, #0x6b34                	// #27444
    43004de8:	17ffffe5 	b	43004d7c <spm_mcdi_prepare_for_off_state+0x9c>
    43004dec:	d28d6700 	mov	x0, #0x6b38                	// #27448
    43004df0:	17ffffe3 	b	43004d7c <spm_mcdi_prepare_for_off_state+0x9c>
    43004df4:	d28d6780 	mov	x0, #0x6b3c                	// #27452
    43004df8:	17ffffe1 	b	43004d7c <spm_mcdi_prepare_for_off_state+0x9c>
    43004dfc:	52800000 	mov	w0, #0x0                   	// #0
    43004e00:	d34a2821 	ubfx	x1, x1, #10, #1
    43004e04:	2a010000 	orr	w0, w0, w1
    43004e08:	17ffffed 	b	43004dbc <spm_mcdi_prepare_for_off_state+0xdc>

0000000043004e0c <spm_mcdi_finish_for_on_state>:
    43004e0c:	a9be7bfd 	stp	x29, x30, [sp, #-32]!
    43004e10:	910003fd 	mov	x29, sp
    43004e14:	a90153f3 	stp	x19, x20, [sp, #16]
    43004e18:	d346fc14 	lsr	x20, x0, #6
    43004e1c:	92401c13 	and	x19, x0, #0xff
    43004e20:	97fffe03 	bl	4300462c <spm_lock_get>
    43004e24:	927e1e94 	and	x20, x20, #0x3fc
    43004e28:	d28d6001 	mov	x1, #0x6b00                	// #27392
    43004e2c:	aa130294 	orr	x20, x20, x19
    43004e30:	f2a20001 	movk	x1, #0x1000, lsl #16
    43004e34:	b9400020 	ldr	w0, [x1]
    43004e38:	120e7800 	and	w0, w0, #0xfffdffff
    43004e3c:	b9000020 	str	w0, [x1]
    43004e40:	71000e7f 	cmp	w19, #0x3
    43004e44:	540001a8 	b.hi	43004e78 <spm_mcdi_finish_for_on_state+0x6c>  // b.pmore
    43004e48:	f0000000 	adrp	x0, 43007000 <efuse_write+0x350>
    43004e4c:	2a1303e1 	mov	w1, w19
    43004e50:	9135e000 	add	x0, x0, #0xd78
    43004e54:	38614800 	ldrb	w0, [x0, w1, uxtw]
    43004e58:	10000061 	adr	x1, 43004e64 <spm_mcdi_finish_for_on_state+0x58>
    43004e5c:	8b208820 	add	x0, x1, w0, sxtb #2
    43004e60:	d61f0000 	br	x0
    43004e64:	d28de000 	mov	x0, #0x6f00                	// #28416
    43004e68:	f2a20000 	movk	x0, #0x1000, lsl #16
    43004e6c:	d10f4000 	sub	x0, x0, #0x3d0
    43004e70:	b903d01f 	str	wzr, [x0, #976]
    43004e74:	b900001f 	str	wzr, [x0]
    43004e78:	52800020 	mov	w0, #0x1                   	// #1
    43004e7c:	1ad42014 	lsl	w20, w0, w20
    43004e80:	d28c7c80 	mov	x0, #0x63e4                	// #25572
    43004e84:	f2a20000 	movk	x0, #0x1000, lsl #16
    43004e88:	b9000014 	str	w20, [x0]
    43004e8c:	a94153f3 	ldp	x19, x20, [sp, #16]
    43004e90:	a8c27bfd 	ldp	x29, x30, [sp], #32
    43004e94:	17fffde9 	b	43004638 <spm_lock_release>
    43004e98:	d28de080 	mov	x0, #0x6f04                	// #28420
    43004e9c:	17fffff3 	b	43004e68 <spm_mcdi_finish_for_on_state+0x5c>
    43004ea0:	d28de100 	mov	x0, #0x6f08                	// #28424
    43004ea4:	17fffff1 	b	43004e68 <spm_mcdi_finish_for_on_state+0x5c>
    43004ea8:	d28de180 	mov	x0, #0x6f0c                	// #28428
    43004eac:	17ffffef 	b	43004e68 <spm_mcdi_finish_for_on_state+0x5c>

0000000043004eb0 <spm_system_suspend>:
    43004eb0:	a9be7bfd 	stp	x29, x30, [sp, #-32]!
    43004eb4:	910003fd 	mov	x29, sp
    43004eb8:	f9000bf3 	str	x19, [sp, #16]
    43004ebc:	97fffddc 	bl	4300462c <spm_lock_get>
    43004ec0:	f0000021 	adrp	x1, 4300b000 <__RO_END_UNALIGNED__>
    43004ec4:	91023033 	add	x19, x1, #0x8c
    43004ec8:	52844742 	mov	w2, #0x223a                	// #8762
    43004ecc:	b9400660 	ldr	w0, [x19, #4]
    43004ed0:	7100001f 	cmp	w0, #0x0
    43004ed4:	1a821000 	csel	w0, w0, w2, ne  // ne = any
    43004ed8:	b9008c20 	str	w0, [x1, #140]
    43004edc:	97fffef3 	bl	43004aa8 <spm_set_sysclk_settle>
    43004ee0:	97fffdf0 	bl	430046a0 <spm_reset_and_init_pcm>
    43004ee4:	97fffe0e 	bl	4300471c <spm_init_pcm_register>
    43004ee8:	aa1303e0 	mov	x0, x19
    43004eec:	97fffe1f 	bl	43004768 <spm_set_power_control>
    43004ef0:	aa1303e0 	mov	x0, x19
    43004ef4:	97fffe67 	bl	43004890 <spm_set_wakeup_event>
    43004ef8:	aa1303e0 	mov	x0, x19
    43004efc:	f0000013 	adrp	x19, 43007000 <efuse_write+0x350>
    43004f00:	97fffeef 	bl	43004abc <spm_kick_pcm_to_run>
    43004f04:	911f0273 	add	x19, x19, #0x7c0
    43004f08:	aa1303e0 	mov	x0, x19
    43004f0c:	97fffea4 	bl	4300499c <spm_init_event_vector>
    43004f10:	aa1303e0 	mov	x0, x19
    43004f14:	97fffeb7 	bl	430049f0 <spm_kick_im_to_fetch>
    43004f18:	97fffdd7 	bl	43004674 <set_suspend_ready>
    43004f1c:	f9400bf3 	ldr	x19, [sp, #16]
    43004f20:	a8c27bfd 	ldp	x29, x30, [sp], #32
    43004f24:	17fffdc5 	b	43004638 <spm_lock_release>

0000000043004f28 <spm_system_suspend_finish>:
    43004f28:	a9bc7bfd 	stp	x29, x30, [sp, #-64]!
    43004f2c:	910003fd 	mov	x29, sp
    43004f30:	97fffdbf 	bl	4300462c <spm_lock_get>
    43004f34:	910063e0 	add	x0, sp, #0x18
    43004f38:	97fffe70 	bl	430048f8 <spm_get_wakeup_status>
    43004f3c:	97ffff19 	bl	43004ba0 <spm_clean_after_wakeup>
    43004f40:	910063e0 	add	x0, sp, #0x18
    43004f44:	97ffff32 	bl	43004c0c <spm_output_wake_reason>
    43004f48:	90000041 	adrp	x1, 4300c000 <__STACKS_START__+0xf00>
    43004f4c:	b90c3020 	str	w0, [x1, #3120]
    43004f50:	97fffdcf 	bl	4300468c <clear_all_ready>
    43004f54:	a8c47bfd 	ldp	x29, x30, [sp], #64
    43004f58:	17fffdb8 	b	43004638 <spm_lock_release>

0000000043004f5c <generic_timer_backup>:
    43004f5c:	d53be021 	mrs	x1, cntpct_el0
    43004f60:	d280ce82 	mov	x2, #0x674                 	// #1652
    43004f64:	52800180 	mov	w0, #0xc                   	// #12
    43004f68:	f2a20402 	movk	x2, #0x1020, lsl #16
    43004f6c:	d360fc23 	lsr	x3, x1, #32
    43004f70:	b9000040 	str	w0, [x2]
    43004f74:	d280ce00 	mov	x0, #0x670                 	// #1648
    43004f78:	f2a20400 	movk	x0, #0x1020, lsl #16
    43004f7c:	b9000003 	str	w3, [x0]
    43004f80:	52800103 	mov	w3, #0x8                   	// #8
    43004f84:	b9000043 	str	w3, [x2]
    43004f88:	b9000001 	str	w1, [x0]
    43004f8c:	d65f03c0 	ret

0000000043004f90 <mtk_wdt_soft_reset>:
    43004f90:	d2840001 	mov	x1, #0x2000                	// #8192
    43004f94:	12800982 	mov	w2, #0xffffffb3            	// #-77
    43004f98:	f2a20421 	movk	x1, #0x1021, lsl #16
    43004f9c:	b9400020 	ldr	w0, [x1]
    43004fa0:	0a020000 	and	w0, w0, w2
    43004fa4:	52801002 	mov	w2, #0x80                  	// #128
    43004fa8:	72a44002 	movk	w2, #0x2200, lsl #16
    43004fac:	2a020000 	orr	w0, w0, w2
    43004fb0:	b9000020 	str	w0, [x1]
    43004fb4:	52824122 	mov	w2, #0x1209                	// #4617
    43004fb8:	b9401420 	ldr	w0, [x1, #20]
    43004fbc:	2a020000 	orr	w0, w0, w2
    43004fc0:	b9001420 	str	w0, [x1, #20]
    43004fc4:	d65f03c0 	ret

0000000043004fc8 <mtk_antirollback_check_mtk_ar_table_parms>:
    43004fc8:	a9bf7bfd 	stp	x29, x30, [sp, #-16]!
    43004fcc:	90000040 	adrp	x0, 4300c000 <__STACKS_START__+0xf00>
    43004fd0:	b0000021 	adrp	x1, 43009000 <suspend_binary_ca7+0x2e0>
    43004fd4:	910003fd 	mov	x29, sp
    43004fd8:	f9450800 	ldr	x0, [x0, #2576]
    43004fdc:	913dd821 	add	x1, x1, #0xf76
    43004fe0:	b50000e0 	cbnz	x0, 43004ffc <mtk_antirollback_check_mtk_ar_table_parms+0x34>
    43004fe4:	b0000020 	adrp	x0, 43009000 <suspend_binary_ca7+0x2e0>
    43004fe8:	9136a000 	add	x0, x0, #0xda8
    43004fec:	940002da 	bl	43005b54 <tf_log>
    43004ff0:	12800000 	mov	w0, #0xffffffff            	// #-1
    43004ff4:	a8c17bfd 	ldp	x29, x30, [sp], #16
    43004ff8:	d65f03c0 	ret
    43004ffc:	b0000020 	adrp	x0, 43009000 <suspend_binary_ca7+0x2e0>
    43005000:	91377400 	add	x0, x0, #0xddd
    43005004:	17fffffa 	b	43004fec <mtk_antirollback_check_mtk_ar_table_parms+0x24>

0000000043005008 <mtk_antirollback_get_efuse_ar_ver>:
    43005008:	a9bc7bfd 	stp	x29, x30, [sp, #-64]!
    4300500c:	910003fd 	mov	x29, sp
    43005010:	a90153f3 	stp	x19, x20, [sp, #16]
    43005014:	aa0003f4 	mov	x20, x0
    43005018:	52800393 	mov	w19, #0x1c                  	// #28
    4300501c:	f90013f5 	str	x21, [sp, #32]
    43005020:	9100c3f5 	add	x21, sp, #0x30
    43005024:	a9037fff 	stp	xzr, xzr, [sp, #48]
    43005028:	aa1503e1 	mov	x1, x21
    4300502c:	2a1303e0 	mov	w0, w19
    43005030:	52800082 	mov	w2, #0x4                   	// #4
    43005034:	940006dc 	bl	43006ba4 <efuse_read>
    43005038:	350002c0 	cbnz	w0, 43005090 <mtk_antirollback_get_efuse_ar_ver+0x88>
    4300503c:	11000673 	add	w19, w19, #0x1
    43005040:	910012b5 	add	x21, x21, #0x4
    43005044:	7100827f 	cmp	w19, #0x20
    43005048:	54ffff01 	b.ne	43005028 <mtk_antirollback_get_efuse_ar_ver+0x20>  // b.any
    4300504c:	a9430be1 	ldp	x1, x2, [sp, #48]
    43005050:	52800003 	mov	w3, #0x0                   	// #0
    43005054:	aa020021 	orr	x1, x1, x2
    43005058:	52800022 	mov	w2, #0x1                   	// #1
    4300505c:	14000005 	b	43005070 <mtk_antirollback_get_efuse_ar_ver+0x68>
    43005060:	f240003f 	tst	x1, #0x1
    43005064:	d341fc21 	lsr	x1, x1, #1
    43005068:	1a820063 	csel	w3, w3, w2, eq  // eq = none
    4300506c:	11000442 	add	w2, w2, #0x1
    43005070:	7101005f 	cmp	w2, #0x40
    43005074:	fa409824 	ccmp	x1, #0x0, #0x4, ls  // ls = plast
    43005078:	54ffff41 	b.ne	43005060 <mtk_antirollback_get_efuse_ar_ver+0x58>  // b.any
    4300507c:	b9000283 	str	w3, [x20]
