Archive member included to satisfy reference by file (symbol)

/media/data_nvme/git/uboot/u-boot/build/rk3568/release/lib/libc.a(memchr.o)
                              /media/data_nvme/git/uboot/u-boot/build/rk3568/release/bl31/fdt_ro.o (memchr)
/media/data_nvme/git/uboot/u-boot/build/rk3568/release/lib/libc.a(memcmp.o)
                              /media/data_nvme/git/uboot/u-boot/build/rk3568/release/bl31/fdt.o (memcmp)
/media/data_nvme/git/uboot/u-boot/build/rk3568/release/lib/libc.a(memcpy.o)
                              /media/data_nvme/git/uboot/u-boot/build/rk3568/release/bl31/context_mgmt.o (memcpy)
/media/data_nvme/git/uboot/u-boot/build/rk3568/release/lib/libc.a(memmove.o)
                              /media/data_nvme/git/uboot/u-boot/build/rk3568/release/bl31/fdt.o (memmove)
/media/data_nvme/git/uboot/u-boot/build/rk3568/release/lib/libc.a(memset.o)
                              /media/data_nvme/git/uboot/u-boot/build/rk3568/release/bl31/runtime_svc.o (memset)
/media/data_nvme/git/uboot/u-boot/build/rk3568/release/lib/libc.a(printf.o)
                              /media/data_nvme/git/uboot/u-boot/build/rk3568/release/bl31/tf_log.o (vprintf)
/media/data_nvme/git/uboot/u-boot/build/rk3568/release/lib/libc.a(strchr.o)
                              /media/data_nvme/git/uboot/u-boot/build/rk3568/release/bl31/params_setup.o (strchr)
/media/data_nvme/git/uboot/u-boot/build/rk3568/release/lib/libc.a(strlen.o)
                              /media/data_nvme/git/uboot/u-boot/build/rk3568/release/bl31/fdt.o (strlen)
/media/data_nvme/git/uboot/u-boot/build/rk3568/release/lib/libc.a(strncmp.o)
                              /media/data_nvme/git/uboot/u-boot/build/rk3568/release/bl31/params_setup.o (strncmp)
/media/data_nvme/git/uboot/u-boot/build/rk3568/release/lib/libc.a(strnlen.o)
                              /media/data_nvme/git/uboot/u-boot/build/rk3568/release/bl31/fdt_ro.o (strnlen)
/media/data_nvme/git/uboot/u-boot/build/rk3568/release/lib/libc.a(strrchr.o)
                              /media/data_nvme/git/uboot/u-boot/build/rk3568/release/bl31/fdt_ro.o (strrchr)

Discarded input sections

 .text          0x0000000000000000        0x0 /media/data_nvme/git/uboot/u-boot/build/rk3568/release/bl31/build_message.o
 .data          0x0000000000000000        0x0 /media/data_nvme/git/uboot/u-boot/build/rk3568/release/bl31/build_message.o
 .bss           0x0000000000000000        0x0 /media/data_nvme/git/uboot/u-boot/build/rk3568/release/bl31/build_message.o
 .rodata.version
                0x0000000000000000        0x4 /media/data_nvme/git/uboot/u-boot/build/rk3568/release/bl31/build_message.o
 .text          0x0000000000000000        0x0 /media/data_nvme/git/uboot/u-boot/build/rk3568/release/bl31/bl31_context_mgmt.o
 .data          0x0000000000000000        0x0 /media/data_nvme/git/uboot/u-boot/build/rk3568/release/bl31/bl31_context_mgmt.o
 .bss           0x0000000000000000        0x0 /media/data_nvme/git/uboot/u-boot/build/rk3568/release/bl31/bl31_context_mgmt.o
 .text.cm_set_context
                0x0000000000000000       0x14 /media/data_nvme/git/uboot/u-boot/build/rk3568/release/bl31/bl31_context_mgmt.o
 .eh_frame      0x0000000000000000       0x88 /media/data_nvme/git/uboot/u-boot/build/rk3568/release/bl31/bl31_context_mgmt.o
 .text          0x0000000000000000        0x0 /media/data_nvme/git/uboot/u-boot/build/rk3568/release/bl31/bl31_main.o
 .data          0x0000000000000000        0x0 /media/data_nvme/git/uboot/u-boot/build/rk3568/release/bl31/bl31_main.o
 .bss           0x0000000000000000        0x0 /media/data_nvme/git/uboot/u-boot/build/rk3568/release/bl31/bl31_main.o
 .text.bl31_lib_init
                0x0000000000000000        0x4 /media/data_nvme/git/uboot/u-boot/build/rk3568/release/bl31/bl31_main.o
 .text.bl31_set_next_image_type
                0x0000000000000000        0xc /media/data_nvme/git/uboot/u-boot/build/rk3568/release/bl31/bl31_main.o
 .text.bl31_get_next_image_type
                0x0000000000000000        0xc /media/data_nvme/git/uboot/u-boot/build/rk3568/release/bl31/bl31_main.o
 .text.bl31_register_bl32_init
                0x0000000000000000        0xc /media/data_nvme/git/uboot/u-boot/build/rk3568/release/bl31/bl31_main.o
 .eh_frame      0x0000000000000000       0xf0 /media/data_nvme/git/uboot/u-boot/build/rk3568/release/bl31/bl31_main.o
 .text          0x0000000000000000        0x0 /media/data_nvme/git/uboot/u-boot/build/rk3568/release/bl31/bl31_traps.o
 .data          0x0000000000000000        0x0 /media/data_nvme/git/uboot/u-boot/build/rk3568/release/bl31/bl31_traps.o
 .bss           0x0000000000000000        0x0 /media/data_nvme/git/uboot/u-boot/build/rk3568/release/bl31/bl31_traps.o
 .eh_frame      0x0000000000000000       0x28 /media/data_nvme/git/uboot/u-boot/build/rk3568/release/bl31/bl31_traps.o
 .text          0x0000000000000000        0x0 /media/data_nvme/git/uboot/u-boot/build/rk3568/release/bl31/interrupt_mgmt.o
 .data          0x0000000000000000        0x0 /media/data_nvme/git/uboot/u-boot/build/rk3568/release/bl31/interrupt_mgmt.o
 .bss           0x0000000000000000        0x0 /media/data_nvme/git/uboot/u-boot/build/rk3568/release/bl31/interrupt_mgmt.o
 .text.set_scr_el3_from_rm
                0x0000000000000000       0x84 /media/data_nvme/git/uboot/u-boot/build/rk3568/release/bl31/interrupt_mgmt.o
 .text.set_routing_model
                0x0000000000000000       0x98 /media/data_nvme/git/uboot/u-boot/build/rk3568/release/bl31/interrupt_mgmt.o
 .text.disable_intr_rm_local
                0x0000000000000000       0x34 /media/data_nvme/git/uboot/u-boot/build/rk3568/release/bl31/interrupt_mgmt.o
 .text.enable_intr_rm_local
                0x0000000000000000       0x50 /media/data_nvme/git/uboot/u-boot/build/rk3568/release/bl31/interrupt_mgmt.o
 .text.register_interrupt_type_handler
                0x0000000000000000       0x68 /media/data_nvme/git/uboot/u-boot/build/rk3568/release/bl31/interrupt_mgmt.o
 .eh_frame      0x0000000000000000      0x110 /media/data_nvme/git/uboot/u-boot/build/rk3568/release/bl31/interrupt_mgmt.o
 .text          0x0000000000000000        0x0 /media/data_nvme/git/uboot/u-boot/build/rk3568/release/bl31/runtime_svc.o
 .data          0x0000000000000000        0x0 /media/data_nvme/git/uboot/u-boot/build/rk3568/release/bl31/runtime_svc.o
 .bss           0x0000000000000000        0x0 /media/data_nvme/git/uboot/u-boot/build/rk3568/release/bl31/runtime_svc.o
 .text.handle_runtime_svc
                0x0000000000000000       0x74 /media/data_nvme/git/uboot/u-boot/build/rk3568/release/bl31/runtime_svc.o
 .eh_frame      0x0000000000000000       0x60 /media/data_nvme/git/uboot/u-boot/build/rk3568/release/bl31/runtime_svc.o
 .text          0x0000000000000000        0x0 /media/data_nvme/git/uboot/u-boot/build/rk3568/release/bl31/cci.o
 .data          0x0000000000000000        0x0 /media/data_nvme/git/uboot/u-boot/build/rk3568/release/bl31/cci.o
 .bss           0x0000000000000000        0x0 /media/data_nvme/git/uboot/u-boot/build/rk3568/release/bl31/cci.o
 .text.cci_init
                0x0000000000000000       0x14 /media/data_nvme/git/uboot/u-boot/build/rk3568/release/bl31/cci.o
 .text.cci_enable_snoop_dvm_reqs
                0x0000000000000000       0x3c /media/data_nvme/git/uboot/u-boot/build/rk3568/release/bl31/cci.o
 .text.cci_disable_snoop_dvm_reqs
                0x0000000000000000       0x3c /media/data_nvme/git/uboot/u-boot/build/rk3568/release/bl31/cci.o
 .bss.cci_base  0x0000000000000000        0x8 /media/data_nvme/git/uboot/u-boot/build/rk3568/release/bl31/cci.o
 .bss.cci_slave_if_map
                0x0000000000000000        0x8 /media/data_nvme/git/uboot/u-boot/build/rk3568/release/bl31/cci.o
 .debug_info    0x0000000000000000      0x30d /media/data_nvme/git/uboot/u-boot/build/rk3568/release/bl31/cci.o
 .debug_abbrev  0x0000000000000000      0x145 /media/data_nvme/git/uboot/u-boot/build/rk3568/release/bl31/cci.o
 .debug_loc     0x0000000000000000      0x394 /media/data_nvme/git/uboot/u-boot/build/rk3568/release/bl31/cci.o
 .debug_aranges
                0x0000000000000000       0x50 /media/data_nvme/git/uboot/u-boot/build/rk3568/release/bl31/cci.o
 .debug_ranges  0x0000000000000000       0xc0 /media/data_nvme/git/uboot/u-boot/build/rk3568/release/bl31/cci.o
 .debug_line    0x0000000000000000      0x22c /media/data_nvme/git/uboot/u-boot/build/rk3568/release/bl31/cci.o
 .debug_str     0x0000000000000000      0x2b7 /media/data_nvme/git/uboot/u-boot/build/rk3568/release/bl31/cci.o
 .comment       0x0000000000000000       0x2c /media/data_nvme/git/uboot/u-boot/build/rk3568/release/bl31/cci.o
 .note.GNU-stack
                0x0000000000000000        0x0 /media/data_nvme/git/uboot/u-boot/build/rk3568/release/bl31/cci.o
 .eh_frame      0x0000000000000000       0x50 /media/data_nvme/git/uboot/u-boot/build/rk3568/release/bl31/cci.o
 .text          0x0000000000000000        0x0 /media/data_nvme/git/uboot/u-boot/build/rk3568/release/bl31/arm_gicv3_common.o
 .data          0x0000000000000000        0x0 /media/data_nvme/git/uboot/u-boot/build/rk3568/release/bl31/arm_gicv3_common.o
 .bss           0x0000000000000000        0x0 /media/data_nvme/git/uboot/u-boot/build/rk3568/release/bl31/arm_gicv3_common.o
 .text.arm_gicv3_distif_pre_save
                0x0000000000000000       0x2c /media/data_nvme/git/uboot/u-boot/build/rk3568/release/bl31/arm_gicv3_common.o
 .text.arm_gicv3_distif_post_restore
                0x0000000000000000       0x34 /media/data_nvme/git/uboot/u-boot/build/rk3568/release/bl31/arm_gicv3_common.o
 .debug_info    0x0000000000000000      0x517 /media/data_nvme/git/uboot/u-boot/build/rk3568/release/bl31/arm_gicv3_common.o
 .debug_abbrev  0x0000000000000000      0x22e /media/data_nvme/git/uboot/u-boot/build/rk3568/release/bl31/arm_gicv3_common.o
 .debug_loc     0x0000000000000000      0x134 /media/data_nvme/git/uboot/u-boot/build/rk3568/release/bl31/arm_gicv3_common.o
 .debug_aranges
                0x0000000000000000       0x40 /media/data_nvme/git/uboot/u-boot/build/rk3568/release/bl31/arm_gicv3_common.o
 .debug_ranges  0x0000000000000000      0x180 /media/data_nvme/git/uboot/u-boot/build/rk3568/release/bl31/arm_gicv3_common.o
 .debug_line    0x0000000000000000      0x28d /media/data_nvme/git/uboot/u-boot/build/rk3568/release/bl31/arm_gicv3_common.o
 .debug_str     0x0000000000000000      0x398 /media/data_nvme/git/uboot/u-boot/build/rk3568/release/bl31/arm_gicv3_common.o
 .comment       0x0000000000000000       0x2c /media/data_nvme/git/uboot/u-boot/build/rk3568/release/bl31/arm_gicv3_common.o
 .note.GNU-stack
                0x0000000000000000        0x0 /media/data_nvme/git/uboot/u-boot/build/rk3568/release/bl31/arm_gicv3_common.o
 .eh_frame      0x0000000000000000       0x40 /media/data_nvme/git/uboot/u-boot/build/rk3568/release/bl31/arm_gicv3_common.o
 .text          0x0000000000000000        0x0 /media/data_nvme/git/uboot/u-boot/build/rk3568/release/bl31/gic-x00.o
 .data          0x0000000000000000        0x0 /media/data_nvme/git/uboot/u-boot/build/rk3568/release/bl31/gic-x00.o
 .bss           0x0000000000000000        0x0 /media/data_nvme/git/uboot/u-boot/build/rk3568/release/bl31/gic-x00.o
 .text.gicv3_distif_pre_save
                0x0000000000000000        0x4 /media/data_nvme/git/uboot/u-boot/build/rk3568/release/bl31/gic-x00.o
 .text.gicv3_distif_post_restore
                0x0000000000000000        0x4 /media/data_nvme/git/uboot/u-boot/build/rk3568/release/bl31/gic-x00.o
 .text.gicv3_rdistif_off
                0x0000000000000000       0x50 /media/data_nvme/git/uboot/u-boot/build/rk3568/release/bl31/gic-x00.o
 .eh_frame      0x0000000000000000       0xe0 /media/data_nvme/git/uboot/u-boot/build/rk3568/release/bl31/gic-x00.o
 .text          0x0000000000000000        0x0 /media/data_nvme/git/uboot/u-boot/build/rk3568/release/bl31/gicdv3_helpers.o
 .data          0x0000000000000000        0x0 /media/data_nvme/git/uboot/u-boot/build/rk3568/release/bl31/gicdv3_helpers.o
 .bss           0x0000000000000000        0x0 /media/data_nvme/git/uboot/u-boot/build/rk3568/release/bl31/gicdv3_helpers.o
 .text.gicd_get_igroupr
                0x0000000000000000       0x1c /media/data_nvme/git/uboot/u-boot/build/rk3568/release/bl31/gicdv3_helpers.o
 .text.gicd_set_igroupr
                0x0000000000000000       0x24 /media/data_nvme/git/uboot/u-boot/build/rk3568/release/bl31/gicdv3_helpers.o
 .text.gicd_get_igrpmodr
                0x0000000000000000       0x1c /media/data_nvme/git/uboot/u-boot/build/rk3568/release/bl31/gicdv3_helpers.o
 .text.gicd_set_icenabler
                0x0000000000000000       0x1c /media/data_nvme/git/uboot/u-boot/build/rk3568/release/bl31/gicdv3_helpers.o
 .text.gicd_set_icpendr
                0x0000000000000000       0x1c /media/data_nvme/git/uboot/u-boot/build/rk3568/release/bl31/gicdv3_helpers.o
 .text.gicd_get_isactiver
                0x0000000000000000       0x1c /media/data_nvme/git/uboot/u-boot/build/rk3568/release/bl31/gicdv3_helpers.o
 .text.gicd_set_isactiver
                0x0000000000000000       0x1c /media/data_nvme/git/uboot/u-boot/build/rk3568/release/bl31/gicdv3_helpers.o
 .text.gicd_set_ispendr
                0x0000000000000000       0x1c /media/data_nvme/git/uboot/u-boot/build/rk3568/release/bl31/gicdv3_helpers.o
 .text.gicd_read_icfgr
                0x0000000000000000       0x14 /media/data_nvme/git/uboot/u-boot/build/rk3568/release/bl31/gicdv3_helpers.o
 .text.gicd_read_igroupr
                0x0000000000000000       0x14 /media/data_nvme/git/uboot/u-boot/build/rk3568/release/bl31/gicdv3_helpers.o
 .text.gicd_read_igrpmodr
                0x0000000000000000       0x14 /media/data_nvme/git/uboot/u-boot/build/rk3568/release/bl31/gicdv3_helpers.o
 .text.gicd_write_igrpmodr
                0x0000000000000000       0x14 /media/data_nvme/git/uboot/u-boot/build/rk3568/release/bl31/gicdv3_helpers.o
 .text.gicd_read_ipriorityr
                0x0000000000000000       0x10 /media/data_nvme/git/uboot/u-boot/build/rk3568/release/bl31/gicdv3_helpers.o
 .text.gicd_read_isactiver
                0x0000000000000000       0x14 /media/data_nvme/git/uboot/u-boot/build/rk3568/release/bl31/gicdv3_helpers.o
 .text.gicd_write_isactiver
                0x0000000000000000       0x14 /media/data_nvme/git/uboot/u-boot/build/rk3568/release/bl31/gicdv3_helpers.o
 .text.gicd_read_isenabler
                0x0000000000000000       0x14 /media/data_nvme/git/uboot/u-boot/build/rk3568/release/bl31/gicdv3_helpers.o
 .text.gicd_write_isenabler
                0x0000000000000000       0x14 /media/data_nvme/git/uboot/u-boot/build/rk3568/release/bl31/gicdv3_helpers.o
 .text.gicd_read_ispendr
                0x0000000000000000       0x14 /media/data_nvme/git/uboot/u-boot/build/rk3568/release/bl31/gicdv3_helpers.o
 .text.gicd_write_ispendr
                0x0000000000000000       0x14 /media/data_nvme/git/uboot/u-boot/build/rk3568/release/bl31/gicdv3_helpers.o
 .text.gicd_read_nsacr
                0x0000000000000000       0x14 /media/data_nvme/git/uboot/u-boot/build/rk3568/release/bl31/gicdv3_helpers.o
 .text.gicd_write_nsacr
                0x0000000000000000       0x14 /media/data_nvme/git/uboot/u-boot/build/rk3568/release/bl31/gicdv3_helpers.o
 .eh_frame      0x0000000000000000      0x270 /media/data_nvme/git/uboot/u-boot/build/rk3568/release/bl31/gicdv3_helpers.o
 .text          0x0000000000000000        0x0 /media/data_nvme/git/uboot/u-boot/build/rk3568/release/bl31/gicrv3_helpers.o
 .data          0x0000000000000000        0x0 /media/data_nvme/git/uboot/u-boot/build/rk3568/release/bl31/gicrv3_helpers.o
 .bss           0x0000000000000000        0x0 /media/data_nvme/git/uboot/u-boot/build/rk3568/release/bl31/gicrv3_helpers.o
 .text.gicr_read_ipriorityr
                0x0000000000000000       0x14 /media/data_nvme/git/uboot/u-boot/build/rk3568/release/bl31/gicrv3_helpers.o
 .text.gicr_get_igroupr
                0x0000000000000000       0x20 /media/data_nvme/git/uboot/u-boot/build/rk3568/release/bl31/gicrv3_helpers.o
 .text.gicr_set_igroupr
                0x0000000000000000       0x28 /media/data_nvme/git/uboot/u-boot/build/rk3568/release/bl31/gicrv3_helpers.o
 .text.gicr_get_igrpmodr
                0x0000000000000000       0x20 /media/data_nvme/git/uboot/u-boot/build/rk3568/release/bl31/gicrv3_helpers.o
 .text.gicr_set_icenabler
                0x0000000000000000       0x20 /media/data_nvme/git/uboot/u-boot/build/rk3568/release/bl31/gicrv3_helpers.o
 .text.gicr_get_isactiver
                0x0000000000000000       0x20 /media/data_nvme/git/uboot/u-boot/build/rk3568/release/bl31/gicrv3_helpers.o
 .text.gicr_set_icpendr
                0x0000000000000000       0x20 /media/data_nvme/git/uboot/u-boot/build/rk3568/release/bl31/gicrv3_helpers.o
 .text.gicr_set_ispendr
                0x0000000000000000       0x20 /media/data_nvme/git/uboot/u-boot/build/rk3568/release/bl31/gicrv3_helpers.o
 .eh_frame      0x0000000000000000      0x140 /media/data_nvme/git/uboot/u-boot/build/rk3568/release/bl31/gicrv3_helpers.o
 .text          0x0000000000000000        0x0 /media/data_nvme/git/uboot/u-boot/build/rk3568/release/bl31/gicv3_helpers.o
 .data          0x0000000000000000        0x0 /media/data_nvme/git/uboot/u-boot/build/rk3568/release/bl31/gicv3_helpers.o
 .bss           0x0000000000000000        0x0 /media/data_nvme/git/uboot/u-boot/build/rk3568/release/bl31/gicv3_helpers.o
 .text.gicv3_get_multichip_base
                0x0000000000000000        0x8 /media/data_nvme/git/uboot/u-boot/build/rk3568/release/bl31/gicv3_helpers.o
 .text.gicv3_rdistif_get_number_frames
                0x0000000000000000       0x24 /media/data_nvme/git/uboot/u-boot/build/rk3568/release/bl31/gicv3_helpers.o
 .text.gicv3_get_component_partnum
                0x0000000000000000       0x20 /media/data_nvme/git/uboot/u-boot/build/rk3568/release/bl31/gicv3_helpers.o
 .eh_frame      0x0000000000000000      0x198 /media/data_nvme/git/uboot/u-boot/build/rk3568/release/bl31/gicv3_helpers.o
 .text          0x0000000000000000        0x0 /media/data_nvme/git/uboot/u-boot/build/rk3568/release/bl31/gicv3_main.o
 .data          0x0000000000000000        0x0 /media/data_nvme/git/uboot/u-boot/build/rk3568/release/bl31/gicv3_main.o
 .bss           0x0000000000000000        0x0 /media/data_nvme/git/uboot/u-boot/build/rk3568/release/bl31/gicv3_main.o
 .text.gicr_wait_for_pending_write
                0x0000000000000000        0xc /media/data_nvme/git/uboot/u-boot/build/rk3568/release/bl31/gicv3_main.o
 .text.is_sgi_ppi
                0x0000000000000000       0x30 /media/data_nvme/git/uboot/u-boot/build/rk3568/release/bl31/gicv3_main.o
 .text.gicv3_rdistif_off
                0x0000000000000000        0x4 /media/data_nvme/git/uboot/u-boot/build/rk3568/release/bl31/gicv3_main.o
 .text.gicv3_rdistif_on
                0x0000000000000000        0x4 /media/data_nvme/git/uboot/u-boot/build/rk3568/release/bl31/gicv3_main.o
 .text.gicv3_get_pending_interrupt_id
                0x0000000000000000       0x20 /media/data_nvme/git/uboot/u-boot/build/rk3568/release/bl31/gicv3_main.o
 .text.gicv3_get_interrupt_type
                0x0000000000000000       0xac /media/data_nvme/git/uboot/u-boot/build/rk3568/release/bl31/gicv3_main.o
 .text.gicv3_its_save_disable
                0x0000000000000000       0x50 /media/data_nvme/git/uboot/u-boot/build/rk3568/release/bl31/gicv3_main.o
 .text.gicv3_its_restore
                0x0000000000000000       0x40 /media/data_nvme/git/uboot/u-boot/build/rk3568/release/bl31/gicv3_main.o
 .text.gicv3_rdistif_save
                0x0000000000000000       0xf8 /media/data_nvme/git/uboot/u-boot/build/rk3568/release/bl31/gicv3_main.o
 .text.gicv3_rdistif_init_restore
                0x0000000000000000      0x120 /media/data_nvme/git/uboot/u-boot/build/rk3568/release/bl31/gicv3_main.o
 .text.gicv3_distif_save
                0x0000000000000000      0x1f4 /media/data_nvme/git/uboot/u-boot/build/rk3568/release/bl31/gicv3_main.o
 .text.gicv3_distif_init_restore
                0x0000000000000000      0x210 /media/data_nvme/git/uboot/u-boot/build/rk3568/release/bl31/gicv3_main.o
 .text.gicv3_get_running_priority
                0x0000000000000000        0x8 /media/data_nvme/git/uboot/u-boot/build/rk3568/release/bl31/gicv3_main.o
 .text.gicv3_get_interrupt_active
                0x0000000000000000       0x5c /media/data_nvme/git/uboot/u-boot/build/rk3568/release/bl31/gicv3_main.o
 .text.gicv3_enable_interrupt
                0x0000000000000000       0x60 /media/data_nvme/git/uboot/u-boot/build/rk3568/release/bl31/gicv3_main.o
 .text.gicv3_disable_interrupt
                0x0000000000000000       0x8c /media/data_nvme/git/uboot/u-boot/build/rk3568/release/bl31/gicv3_main.o
 .text.gicv3_set_interrupt_priority
                0x0000000000000000       0x74 /media/data_nvme/git/uboot/u-boot/build/rk3568/release/bl31/gicv3_main.o
 .text.gicv3_set_interrupt_type
                0x0000000000000000      0x10c /media/data_nvme/git/uboot/u-boot/build/rk3568/release/bl31/gicv3_main.o
 .text.gicv3_raise_sgi
                0x0000000000000000       0x64 /media/data_nvme/git/uboot/u-boot/build/rk3568/release/bl31/gicv3_main.o
 .rodata.gicv3_set_spi_routing.str1.1
                0x0000000000000000       0x33 /media/data_nvme/git/uboot/u-boot/build/rk3568/release/bl31/gicv3_main.o
 .text.gicv3_set_spi_routing
                0x0000000000000000       0x78 /media/data_nvme/git/uboot/u-boot/build/rk3568/release/bl31/gicv3_main.o
 .text.gicv3_clear_interrupt_pending
                0x0000000000000000       0x60 /media/data_nvme/git/uboot/u-boot/build/rk3568/release/bl31/gicv3_main.o
 .text.gicv3_set_interrupt_pending
                0x0000000000000000       0x60 /media/data_nvme/git/uboot/u-boot/build/rk3568/release/bl31/gicv3_main.o
 .text.gicv3_set_pmr
                0x0000000000000000       0x14 /media/data_nvme/git/uboot/u-boot/build/rk3568/release/bl31/gicv3_main.o
 .text.gicv3_rdistif_probe
                0x0000000000000000       0xa0 /media/data_nvme/git/uboot/u-boot/build/rk3568/release/bl31/gicv3_main.o
 .bss.gic_lock  0x0000000000000000        0x4 /media/data_nvme/git/uboot/u-boot/build/rk3568/release/bl31/gicv3_main.o
 .eh_frame      0x0000000000000000      0x468 /media/data_nvme/git/uboot/u-boot/build/rk3568/release/bl31/gicv3_main.o
 .text          0x0000000000000000        0x0 /media/data_nvme/git/uboot/u-boot/build/rk3568/release/bl31/delay_timer.o
 .data          0x0000000000000000        0x0 /media/data_nvme/git/uboot/u-boot/build/rk3568/release/bl31/delay_timer.o
 .bss           0x0000000000000000        0x0 /media/data_nvme/git/uboot/u-boot/build/rk3568/release/bl31/delay_timer.o
 .text.udelay   0x0000000000000000       0x68 /media/data_nvme/git/uboot/u-boot/build/rk3568/release/bl31/delay_timer.o
 .text.mdelay   0x0000000000000000        0xc /media/data_nvme/git/uboot/u-boot/build/rk3568/release/bl31/delay_timer.o
 .eh_frame      0x0000000000000000       0x68 /media/data_nvme/git/uboot/u-boot/build/rk3568/release/bl31/delay_timer.o
 .text          0x0000000000000000        0x0 /media/data_nvme/git/uboot/u-boot/build/rk3568/release/bl31/generic_delay_timer.o
 .data          0x0000000000000000        0x0 /media/data_nvme/git/uboot/u-boot/build/rk3568/release/bl31/generic_delay_timer.o
 .bss           0x0000000000000000        0x0 /media/data_nvme/git/uboot/u-boot/build/rk3568/release/bl31/generic_delay_timer.o
 .eh_frame      0x0000000000000000       0x60 /media/data_nvme/git/uboot/u-boot/build/rk3568/release/bl31/generic_delay_timer.o
 .text          0x0000000000000000        0x0 /media/data_nvme/git/uboot/u-boot/build/rk3568/release/bl31/errata_report.o
 .data          0x0000000000000000        0x0 /media/data_nvme/git/uboot/u-boot/build/rk3568/release/bl31/errata_report.o
 .bss           0x0000000000000000        0x0 /media/data_nvme/git/uboot/u-boot/build/rk3568/release/bl31/errata_report.o
 .eh_frame      0x0000000000000000       0x28 /media/data_nvme/git/uboot/u-boot/build/rk3568/release/bl31/errata_report.o
 .text          0x0000000000000000        0x0 /media/data_nvme/git/uboot/u-boot/build/rk3568/release/bl31/context_mgmt.o
 .data          0x0000000000000000        0x0 /media/data_nvme/git/uboot/u-boot/build/rk3568/release/bl31/context_mgmt.o
 .bss           0x0000000000000000        0x0 /media/data_nvme/git/uboot/u-boot/build/rk3568/release/bl31/context_mgmt.o
 .text.cm_el1_sysregs_context_save
                0x0000000000000000       0x7c /media/data_nvme/git/uboot/u-boot/build/rk3568/release/bl31/context_mgmt.o
 .text.cm_set_elr_el3
                0x0000000000000000       0x24 /media/data_nvme/git/uboot/u-boot/build/rk3568/release/bl31/context_mgmt.o
 .text.cm_set_elr_spsr_el3
                0x0000000000000000       0x28 /media/data_nvme/git/uboot/u-boot/build/rk3568/release/bl31/context_mgmt.o
 .text.cm_write_scr_el3_bit
                0x0000000000000000       0x40 /media/data_nvme/git/uboot/u-boot/build/rk3568/release/bl31/context_mgmt.o
 .text.cm_get_scr_el3
                0x0000000000000000       0x18 /media/data_nvme/git/uboot/u-boot/build/rk3568/release/bl31/context_mgmt.o
 .eh_frame      0x0000000000000000      0x1f8 /media/data_nvme/git/uboot/u-boot/build/rk3568/release/bl31/context_mgmt.o
 .text          0x0000000000000000        0x0 /media/data_nvme/git/uboot/u-boot/build/rk3568/release/bl31/cpu_data_array.o
 .data          0x0000000000000000        0x0 /media/data_nvme/git/uboot/u-boot/build/rk3568/release/bl31/cpu_data_array.o
 .bss           0x0000000000000000        0x0 /media/data_nvme/git/uboot/u-boot/build/rk3568/release/bl31/cpu_data_array.o
 .text          0x0000000000000000        0x0 /media/data_nvme/git/uboot/u-boot/build/rk3568/release/bl31/spe.o
 .data          0x0000000000000000        0x0 /media/data_nvme/git/uboot/u-boot/build/rk3568/release/bl31/spe.o
 .bss           0x0000000000000000        0x0 /media/data_nvme/git/uboot/u-boot/build/rk3568/release/bl31/spe.o
 .text.spe_disable
                0x0000000000000000       0x1c /media/data_nvme/git/uboot/u-boot/build/rk3568/release/bl31/spe.o
 .eh_frame      0x0000000000000000       0x50 /media/data_nvme/git/uboot/u-boot/build/rk3568/release/bl31/spe.o
 .text          0x0000000000000000        0x0 /media/data_nvme/git/uboot/u-boot/build/rk3568/release/bl31/sve.o
 .data          0x0000000000000000        0x0 /media/data_nvme/git/uboot/u-boot/build/rk3568/release/bl31/sve.o
 .bss           0x0000000000000000        0x0 /media/data_nvme/git/uboot/u-boot/build/rk3568/release/bl31/sve.o
 .eh_frame      0x0000000000000000       0x40 /media/data_nvme/git/uboot/u-boot/build/rk3568/release/bl31/sve.o
 .text          0x0000000000000000        0x0 /media/data_nvme/git/uboot/u-boot/build/rk3568/release/bl31/fdt.o
 .data          0x0000000000000000        0x0 /media/data_nvme/git/uboot/u-boot/build/rk3568/release/bl31/fdt.o
 .bss           0x0000000000000000        0x0 /media/data_nvme/git/uboot/u-boot/build/rk3568/release/bl31/fdt.o
 .text.fdt_header_size_
                0x0000000000000000       0x34 /media/data_nvme/git/uboot/u-boot/build/rk3568/release/bl31/fdt.o
 .text.fdt_header_size
                0x0000000000000000       0x18 /media/data_nvme/git/uboot/u-boot/build/rk3568/release/bl31/fdt.o
 .text.fdt_check_header
                0x0000000000000000      0x130 /media/data_nvme/git/uboot/u-boot/build/rk3568/release/bl31/fdt.o
 .text.fdt_first_subnode
                0x0000000000000000       0x34 /media/data_nvme/git/uboot/u-boot/build/rk3568/release/bl31/fdt.o
 .text.fdt_next_subnode
                0x0000000000000000       0x58 /media/data_nvme/git/uboot/u-boot/build/rk3568/release/bl31/fdt.o
 .text.fdt_find_string_
                0x0000000000000000       0x70 /media/data_nvme/git/uboot/u-boot/build/rk3568/release/bl31/fdt.o
 .eh_frame      0x0000000000000000      0x1e0 /media/data_nvme/git/uboot/u-boot/build/rk3568/release/bl31/fdt.o
 .text          0x0000000000000000        0x0 /media/data_nvme/git/uboot/u-boot/build/rk3568/release/bl31/fdt_addresses.o
 .data          0x0000000000000000        0x0 /media/data_nvme/git/uboot/u-boot/build/rk3568/release/bl31/fdt_addresses.o
 .bss           0x0000000000000000        0x0 /media/data_nvme/git/uboot/u-boot/build/rk3568/release/bl31/fdt_addresses.o
 .text.fdt_cells
                0x0000000000000000       0x60 /media/data_nvme/git/uboot/u-boot/build/rk3568/release/bl31/fdt_addresses.o
 .rodata.fdt_address_cells.str1.1
                0x0000000000000000        0xf /media/data_nvme/git/uboot/u-boot/build/rk3568/release/bl31/fdt_addresses.o
 .text.fdt_address_cells
                0x0000000000000000       0x34 /media/data_nvme/git/uboot/u-boot/build/rk3568/release/bl31/fdt_addresses.o
 .rodata.fdt_size_cells.str1.1
                0x0000000000000000        0xc /media/data_nvme/git/uboot/u-boot/build/rk3568/release/bl31/fdt_addresses.o
 .text.fdt_size_cells
                0x0000000000000000       0x28 /media/data_nvme/git/uboot/u-boot/build/rk3568/release/bl31/fdt_addresses.o
 .text.fdt_appendprop_addrrange
                0x0000000000000000      0x1a0 /media/data_nvme/git/uboot/u-boot/build/rk3568/release/bl31/fdt_addresses.o
 .debug_info    0x0000000000000000      0x60c /media/data_nvme/git/uboot/u-boot/build/rk3568/release/bl31/fdt_addresses.o
 .debug_abbrev  0x0000000000000000      0x1cf /media/data_nvme/git/uboot/u-boot/build/rk3568/release/bl31/fdt_addresses.o
 .debug_loc     0x0000000000000000      0x8e1 /media/data_nvme/git/uboot/u-boot/build/rk3568/release/bl31/fdt_addresses.o
 .debug_aranges
                0x0000000000000000       0x60 /media/data_nvme/git/uboot/u-boot/build/rk3568/release/bl31/fdt_addresses.o
 .debug_ranges  0x0000000000000000       0x50 /media/data_nvme/git/uboot/u-boot/build/rk3568/release/bl31/fdt_addresses.o
 .debug_line    0x0000000000000000      0x37d /media/data_nvme/git/uboot/u-boot/build/rk3568/release/bl31/fdt_addresses.o
 .debug_str     0x0000000000000000      0x2e9 /media/data_nvme/git/uboot/u-boot/build/rk3568/release/bl31/fdt_addresses.o
 .comment       0x0000000000000000       0x2c /media/data_nvme/git/uboot/u-boot/build/rk3568/release/bl31/fdt_addresses.o
 .note.GNU-stack
                0x0000000000000000        0x0 /media/data_nvme/git/uboot/u-boot/build/rk3568/release/bl31/fdt_addresses.o
 .eh_frame      0x0000000000000000       0xb0 /media/data_nvme/git/uboot/u-boot/build/rk3568/release/bl31/fdt_addresses.o
 .text          0x0000000000000000        0x0 /media/data_nvme/git/uboot/u-boot/build/rk3568/release/bl31/fdt_empty_tree.o
 .data          0x0000000000000000        0x0 /media/data_nvme/git/uboot/u-boot/build/rk3568/release/bl31/fdt_empty_tree.o
 .bss           0x0000000000000000        0x0 /media/data_nvme/git/uboot/u-boot/build/rk3568/release/bl31/fdt_empty_tree.o
 .rodata.fdt_create_empty_tree.str1.1
                0x0000000000000000        0x1 /media/data_nvme/git/uboot/u-boot/build/rk3568/release/bl31/fdt_empty_tree.o
 .text.fdt_create_empty_tree
                0x0000000000000000       0x78 /media/data_nvme/git/uboot/u-boot/build/rk3568/release/bl31/fdt_empty_tree.o
 .debug_info    0x0000000000000000      0x1e2 /media/data_nvme/git/uboot/u-boot/build/rk3568/release/bl31/fdt_empty_tree.o
 .debug_abbrev  0x0000000000000000       0xc5 /media/data_nvme/git/uboot/u-boot/build/rk3568/release/bl31/fdt_empty_tree.o
 .debug_loc     0x0000000000000000      0x1b6 /media/data_nvme/git/uboot/u-boot/build/rk3568/release/bl31/fdt_empty_tree.o
 .debug_aranges
                0x0000000000000000       0x30 /media/data_nvme/git/uboot/u-boot/build/rk3568/release/bl31/fdt_empty_tree.o
 .debug_ranges  0x0000000000000000       0x20 /media/data_nvme/git/uboot/u-boot/build/rk3568/release/bl31/fdt_empty_tree.o
 .debug_line    0x0000000000000000       0xdb /media/data_nvme/git/uboot/u-boot/build/rk3568/release/bl31/fdt_empty_tree.o
 .debug_str     0x0000000000000000      0x26e /media/data_nvme/git/uboot/u-boot/build/rk3568/release/bl31/fdt_empty_tree.o
 .comment       0x0000000000000000       0x2c /media/data_nvme/git/uboot/u-boot/build/rk3568/release/bl31/fdt_empty_tree.o
 .note.GNU-stack
                0x0000000000000000        0x0 /media/data_nvme/git/uboot/u-boot/build/rk3568/release/bl31/fdt_empty_tree.o
 .eh_frame      0x0000000000000000       0x48 /media/data_nvme/git/uboot/u-boot/build/rk3568/release/bl31/fdt_empty_tree.o
 .text          0x0000000000000000        0x0 /media/data_nvme/git/uboot/u-boot/build/rk3568/release/bl31/fdt_ro.o
 .data          0x0000000000000000        0x0 /media/data_nvme/git/uboot/u-boot/build/rk3568/release/bl31/fdt_ro.o
 .bss           0x0000000000000000        0x0 /media/data_nvme/git/uboot/u-boot/build/rk3568/release/bl31/fdt_ro.o
 .text.fdt_string
                0x0000000000000000        0x8 /media/data_nvme/git/uboot/u-boot/build/rk3568/release/bl31/fdt_ro.o
 .text.fdt_get_mem_rsv
                0x0000000000000000       0x70 /media/data_nvme/git/uboot/u-boot/build/rk3568/release/bl31/fdt_ro.o
 .text.fdt_subnode_offset
                0x0000000000000000       0x44 /media/data_nvme/git/uboot/u-boot/build/rk3568/release/bl31/fdt_ro.o
 .text.fdt_get_property_by_offset
                0x0000000000000000       0x50 /media/data_nvme/git/uboot/u-boot/build/rk3568/release/bl31/fdt_ro.o
 .text.fdt_get_property_namelen
                0x0000000000000000       0x54 /media/data_nvme/git/uboot/u-boot/build/rk3568/release/bl31/fdt_ro.o
 .text.fdt_get_property
                0x0000000000000000       0x4c /media/data_nvme/git/uboot/u-boot/build/rk3568/release/bl31/fdt_ro.o
 .text.fdt_getprop_by_offset
                0x0000000000000000       0xbc /media/data_nvme/git/uboot/u-boot/build/rk3568/release/bl31/fdt_ro.o
 .rodata.fdt_get_phandle.str1.1
                0x0000000000000000       0x16 /media/data_nvme/git/uboot/u-boot/build/rk3568/release/bl31/fdt_ro.o
 .text.fdt_get_phandle
                0x0000000000000000       0x7c /media/data_nvme/git/uboot/u-boot/build/rk3568/release/bl31/fdt_ro.o
 .text.fdt_find_max_phandle
                0x0000000000000000       0x7c /media/data_nvme/git/uboot/u-boot/build/rk3568/release/bl31/fdt_ro.o
 .text.fdt_generate_phandle
                0x0000000000000000       0x4c /media/data_nvme/git/uboot/u-boot/build/rk3568/release/bl31/fdt_ro.o
 .text.fdt_get_alias
                0x0000000000000000       0x34 /media/data_nvme/git/uboot/u-boot/build/rk3568/release/bl31/fdt_ro.o
 .text.fdt_get_path
                0x0000000000000000      0x180 /media/data_nvme/git/uboot/u-boot/build/rk3568/release/bl31/fdt_ro.o
 .text.fdt_supernode_atdepth_offset
                0x0000000000000000       0xc0 /media/data_nvme/git/uboot/u-boot/build/rk3568/release/bl31/fdt_ro.o
 .text.fdt_node_depth
                0x0000000000000000       0x30 /media/data_nvme/git/uboot/u-boot/build/rk3568/release/bl31/fdt_ro.o
 .text.fdt_parent_offset
                0x0000000000000000       0x44 /media/data_nvme/git/uboot/u-boot/build/rk3568/release/bl31/fdt_ro.o
 .text.fdt_node_offset_by_prop_value
                0x0000000000000000       0xb4 /media/data_nvme/git/uboot/u-boot/build/rk3568/release/bl31/fdt_ro.o
 .text.fdt_node_offset_by_phandle
                0x0000000000000000       0x84 /media/data_nvme/git/uboot/u-boot/build/rk3568/release/bl31/fdt_ro.o
 .text.fdt_stringlist_contains
                0x0000000000000000       0x98 /media/data_nvme/git/uboot/u-boot/build/rk3568/release/bl31/fdt_ro.o
 .text.fdt_stringlist_count
                0x0000000000000000       0x7c /media/data_nvme/git/uboot/u-boot/build/rk3568/release/bl31/fdt_ro.o
 .text.fdt_stringlist_search
                0x0000000000000000       0xc4 /media/data_nvme/git/uboot/u-boot/build/rk3568/release/bl31/fdt_ro.o
 .text.fdt_stringlist_get
                0x0000000000000000       0xb4 /media/data_nvme/git/uboot/u-boot/build/rk3568/release/bl31/fdt_ro.o
 .rodata.fdt_node_check_compatible.str1.1
                0x0000000000000000        0xb /media/data_nvme/git/uboot/u-boot/build/rk3568/release/bl31/fdt_ro.o
 .text.fdt_node_check_compatible
                0x0000000000000000       0x4c /media/data_nvme/git/uboot/u-boot/build/rk3568/release/bl31/fdt_ro.o
 .text.fdt_node_offset_by_compatible
                0x0000000000000000       0x84 /media/data_nvme/git/uboot/u-boot/build/rk3568/release/bl31/fdt_ro.o
 .eh_frame      0x0000000000000000      0x6e8 /media/data_nvme/git/uboot/u-boot/build/rk3568/release/bl31/fdt_ro.o
 .text          0x0000000000000000        0x0 /media/data_nvme/git/uboot/u-boot/build/rk3568/release/bl31/fdt_rw.o
 .data          0x0000000000000000        0x0 /media/data_nvme/git/uboot/u-boot/build/rk3568/release/bl31/fdt_rw.o
 .bss           0x0000000000000000        0x0 /media/data_nvme/git/uboot/u-boot/build/rk3568/release/bl31/fdt_rw.o
 .text.cpu_to_fdt64
                0x0000000000000000        0x8 /media/data_nvme/git/uboot/u-boot/build/rk3568/release/bl31/fdt_rw.o
 .text.fdt_splice_
                0x0000000000000000       0xa8 /media/data_nvme/git/uboot/u-boot/build/rk3568/release/bl31/fdt_rw.o
 .text.fdt_splice_mem_rsv_
                0x0000000000000000       0x74 /media/data_nvme/git/uboot/u-boot/build/rk3568/release/bl31/fdt_rw.o
 .text.fdt_rw_probe_
                0x0000000000000000       0x74 /media/data_nvme/git/uboot/u-boot/build/rk3568/release/bl31/fdt_rw.o
 .text.fdt_splice_struct_
                0x0000000000000000       0x68 /media/data_nvme/git/uboot/u-boot/build/rk3568/release/bl31/fdt_rw.o
 .text.fdt_add_property_
                0x0000000000000000      0x1a8 /media/data_nvme/git/uboot/u-boot/build/rk3568/release/bl31/fdt_rw.o
 .text.fdt_add_mem_rsv
                0x0000000000000000       0x98 /media/data_nvme/git/uboot/u-boot/build/rk3568/release/bl31/fdt_rw.o
 .text.fdt_del_mem_rsv
                0x0000000000000000       0x7c /media/data_nvme/git/uboot/u-boot/build/rk3568/release/bl31/fdt_rw.o
 .text.fdt_set_name
                0x0000000000000000       0xac /media/data_nvme/git/uboot/u-boot/build/rk3568/release/bl31/fdt_rw.o
 .text.fdt_setprop_placeholder
                0x0000000000000000       0xdc /media/data_nvme/git/uboot/u-boot/build/rk3568/release/bl31/fdt_rw.o
 .text.fdt_setprop
                0x0000000000000000       0x54 /media/data_nvme/git/uboot/u-boot/build/rk3568/release/bl31/fdt_rw.o
 .text.fdt_appendprop
                0x0000000000000000       0xf0 /media/data_nvme/git/uboot/u-boot/build/rk3568/release/bl31/fdt_rw.o
 .text.fdt_delprop
                0x0000000000000000       0x6c /media/data_nvme/git/uboot/u-boot/build/rk3568/release/bl31/fdt_rw.o
 .text.fdt_add_subnode_namelen
                0x0000000000000000      0x128 /media/data_nvme/git/uboot/u-boot/build/rk3568/release/bl31/fdt_rw.o
 .text.fdt_add_subnode
                0x0000000000000000       0x44 /media/data_nvme/git/uboot/u-boot/build/rk3568/release/bl31/fdt_rw.o
 .text.fdt_del_node
                0x0000000000000000       0x70 /media/data_nvme/git/uboot/u-boot/build/rk3568/release/bl31/fdt_rw.o
 .text.fdt_pack
                0x0000000000000000       0x90 /media/data_nvme/git/uboot/u-boot/build/rk3568/release/bl31/fdt_rw.o
 .eh_frame      0x0000000000000000      0x3c0 /media/data_nvme/git/uboot/u-boot/build/rk3568/release/bl31/fdt_rw.o
 .text          0x0000000000000000        0x0 /media/data_nvme/git/uboot/u-boot/build/rk3568/release/bl31/fdt_strerror.o
 .data          0x0000000000000000        0x0 /media/data_nvme/git/uboot/u-boot/build/rk3568/release/bl31/fdt_strerror.o
 .bss           0x0000000000000000        0x0 /media/data_nvme/git/uboot/u-boot/build/rk3568/release/bl31/fdt_strerror.o
 .rodata.fdt_strerror.str1.1
                0x0000000000000000       0x31 /media/data_nvme/git/uboot/u-boot/build/rk3568/release/bl31/fdt_strerror.o
 .text.fdt_strerror
                0x0000000000000000       0x4c /media/data_nvme/git/uboot/u-boot/build/rk3568/release/bl31/fdt_strerror.o
 .rodata.str1.1
                0x0000000000000000      0x150 /media/data_nvme/git/uboot/u-boot/build/rk3568/release/bl31/fdt_strerror.o
 .rodata.fdt_errtable
                0x0000000000000000       0xa0 /media/data_nvme/git/uboot/u-boot/build/rk3568/release/bl31/fdt_strerror.o
 .debug_info    0x0000000000000000      0x128 /media/data_nvme/git/uboot/u-boot/build/rk3568/release/bl31/fdt_strerror.o
 .debug_abbrev  0x0000000000000000       0xcc /media/data_nvme/git/uboot/u-boot/build/rk3568/release/bl31/fdt_strerror.o
 .debug_loc     0x0000000000000000       0xd4 /media/data_nvme/git/uboot/u-boot/build/rk3568/release/bl31/fdt_strerror.o
 .debug_aranges
                0x0000000000000000       0x30 /media/data_nvme/git/uboot/u-boot/build/rk3568/release/bl31/fdt_strerror.o
 .debug_ranges  0x0000000000000000       0x20 /media/data_nvme/git/uboot/u-boot/build/rk3568/release/bl31/fdt_strerror.o
 .debug_line    0x0000000000000000       0x8e /media/data_nvme/git/uboot/u-boot/build/rk3568/release/bl31/fdt_strerror.o
 .debug_str     0x0000000000000000      0x227 /media/data_nvme/git/uboot/u-boot/build/rk3568/release/bl31/fdt_strerror.o
 .comment       0x0000000000000000       0x2c /media/data_nvme/git/uboot/u-boot/build/rk3568/release/bl31/fdt_strerror.o
 .note.GNU-stack
                0x0000000000000000        0x0 /media/data_nvme/git/uboot/u-boot/build/rk3568/release/bl31/fdt_strerror.o
 .eh_frame      0x0000000000000000       0x28 /media/data_nvme/git/uboot/u-boot/build/rk3568/release/bl31/fdt_strerror.o
 .text          0x0000000000000000        0x0 /media/data_nvme/git/uboot/u-boot/build/rk3568/release/bl31/fdt_sw.o
 .data          0x0000000000000000        0x0 /media/data_nvme/git/uboot/u-boot/build/rk3568/release/bl31/fdt_sw.o
 .bss           0x0000000000000000        0x0 /media/data_nvme/git/uboot/u-boot/build/rk3568/release/bl31/fdt_sw.o
 .text.fdt32_to_cpu
                0x0000000000000000        0x8 /media/data_nvme/git/uboot/u-boot/build/rk3568/release/bl31/fdt_sw.o
 .text.cpu_to_fdt64
                0x0000000000000000        0x8 /media/data_nvme/git/uboot/u-boot/build/rk3568/release/bl31/fdt_sw.o
 .text.fdt32_ld
                0x0000000000000000       0x24 /media/data_nvme/git/uboot/u-boot/build/rk3568/release/bl31/fdt_sw.o
 .text.fdt_sw_probe_
                0x0000000000000000       0x40 /media/data_nvme/git/uboot/u-boot/build/rk3568/release/bl31/fdt_sw.o
 .text.fdt_add_string_
                0x0000000000000000       0xb4 /media/data_nvme/git/uboot/u-boot/build/rk3568/release/bl31/fdt_sw.o
 .text.fdt_sw_probe_struct_
                0x0000000000000000       0x3c /media/data_nvme/git/uboot/u-boot/build/rk3568/release/bl31/fdt_sw.o
 .text.fdt_grab_space_
                0x0000000000000000       0x8c /media/data_nvme/git/uboot/u-boot/build/rk3568/release/bl31/fdt_sw.o
 .text.fdt_create_with_flags
                0x0000000000000000       0xac /media/data_nvme/git/uboot/u-boot/build/rk3568/release/bl31/fdt_sw.o
 .text.fdt_create
                0x0000000000000000        0x8 /media/data_nvme/git/uboot/u-boot/build/rk3568/release/bl31/fdt_sw.o
 .text.fdt_resize
                0x0000000000000000      0x120 /media/data_nvme/git/uboot/u-boot/build/rk3568/release/bl31/fdt_sw.o
 .text.fdt_add_reservemap_entry
                0x0000000000000000       0x90 /media/data_nvme/git/uboot/u-boot/build/rk3568/release/bl31/fdt_sw.o
 .text.fdt_finish_reservemap
                0x0000000000000000       0x3c /media/data_nvme/git/uboot/u-boot/build/rk3568/release/bl31/fdt_sw.o
 .text.fdt_begin_node
                0x0000000000000000       0x7c /media/data_nvme/git/uboot/u-boot/build/rk3568/release/bl31/fdt_sw.o
 .text.fdt_end_node
                0x0000000000000000       0x44 /media/data_nvme/git/uboot/u-boot/build/rk3568/release/bl31/fdt_sw.o
 .text.fdt_property_placeholder
                0x0000000000000000      0x11c /media/data_nvme/git/uboot/u-boot/build/rk3568/release/bl31/fdt_sw.o
 .text.fdt_property
                0x0000000000000000       0x50 /media/data_nvme/git/uboot/u-boot/build/rk3568/release/bl31/fdt_sw.o
 .text.fdt_finish
                0x0000000000000000      0x14c /media/data_nvme/git/uboot/u-boot/build/rk3568/release/bl31/fdt_sw.o
 .debug_info    0x0000000000000000     0x1edb /media/data_nvme/git/uboot/u-boot/build/rk3568/release/bl31/fdt_sw.o
 .debug_abbrev  0x0000000000000000      0x406 /media/data_nvme/git/uboot/u-boot/build/rk3568/release/bl31/fdt_sw.o
 .debug_loc     0x0000000000000000     0x23f2 /media/data_nvme/git/uboot/u-boot/build/rk3568/release/bl31/fdt_sw.o
 .debug_aranges
                0x0000000000000000      0x130 /media/data_nvme/git/uboot/u-boot/build/rk3568/release/bl31/fdt_sw.o
 .debug_ranges  0x0000000000000000      0x510 /media/data_nvme/git/uboot/u-boot/build/rk3568/release/bl31/fdt_sw.o
 .debug_line    0x0000000000000000      0xa5c /media/data_nvme/git/uboot/u-boot/build/rk3568/release/bl31/fdt_sw.o
 .debug_str     0x0000000000000000      0x6c2 /media/data_nvme/git/uboot/u-boot/build/rk3568/release/bl31/fdt_sw.o
 .comment       0x0000000000000000       0x2c /media/data_nvme/git/uboot/u-boot/build/rk3568/release/bl31/fdt_sw.o
 .note.GNU-stack
                0x0000000000000000        0x0 /media/data_nvme/git/uboot/u-boot/build/rk3568/release/bl31/fdt_sw.o
 .eh_frame      0x0000000000000000      0x288 /media/data_nvme/git/uboot/u-boot/build/rk3568/release/bl31/fdt_sw.o
 .text          0x0000000000000000        0x0 /media/data_nvme/git/uboot/u-boot/build/rk3568/release/bl31/fdt_wip.o
 .data          0x0000000000000000        0x0 /media/data_nvme/git/uboot/u-boot/build/rk3568/release/bl31/fdt_wip.o
 .bss           0x0000000000000000        0x0 /media/data_nvme/git/uboot/u-boot/build/rk3568/release/bl31/fdt_wip.o
 .text.fdt_setprop_inplace_namelen_partial
                0x0000000000000000       0x68 /media/data_nvme/git/uboot/u-boot/build/rk3568/release/bl31/fdt_wip.o
 .text.fdt_setprop_inplace
                0x0000000000000000       0x8c /media/data_nvme/git/uboot/u-boot/build/rk3568/release/bl31/fdt_wip.o
 .text.fdt_nop_property
                0x0000000000000000       0x44 /media/data_nvme/git/uboot/u-boot/build/rk3568/release/bl31/fdt_wip.o
 .text.fdt_node_end_offset_
                0x0000000000000000       0x48 /media/data_nvme/git/uboot/u-boot/build/rk3568/release/bl31/fdt_wip.o
 .text.fdt_nop_node
                0x0000000000000000       0x68 /media/data_nvme/git/uboot/u-boot/build/rk3568/release/bl31/fdt_wip.o
 .debug_info    0x0000000000000000      0x80b /media/data_nvme/git/uboot/u-boot/build/rk3568/release/bl31/fdt_wip.o
 .debug_abbrev  0x0000000000000000      0x231 /media/data_nvme/git/uboot/u-boot/build/rk3568/release/bl31/fdt_wip.o
 .debug_loc     0x0000000000000000      0xb70 /media/data_nvme/git/uboot/u-boot/build/rk3568/release/bl31/fdt_wip.o
 .debug_aranges
                0x0000000000000000       0x70 /media/data_nvme/git/uboot/u-boot/build/rk3568/release/bl31/fdt_wip.o
 .debug_ranges  0x0000000000000000      0x190 /media/data_nvme/git/uboot/u-boot/build/rk3568/release/bl31/fdt_wip.o
 .debug_line    0x0000000000000000      0x2cb /media/data_nvme/git/uboot/u-boot/build/rk3568/release/bl31/fdt_wip.o
 .debug_str     0x0000000000000000      0x3a6 /media/data_nvme/git/uboot/u-boot/build/rk3568/release/bl31/fdt_wip.o
 .comment       0x0000000000000000       0x2c /media/data_nvme/git/uboot/u-boot/build/rk3568/release/bl31/fdt_wip.o
 .note.GNU-stack
                0x0000000000000000        0x0 /media/data_nvme/git/uboot/u-boot/build/rk3568/release/bl31/fdt_wip.o
 .eh_frame      0x0000000000000000       0xe8 /media/data_nvme/git/uboot/u-boot/build/rk3568/release/bl31/fdt_wip.o
 .text          0x0000000000000000        0x0 /media/data_nvme/git/uboot/u-boot/build/rk3568/release/bl31/bakery_lock_normal.o
 .data          0x0000000000000000        0x0 /media/data_nvme/git/uboot/u-boot/build/rk3568/release/bl31/bakery_lock_normal.o
 .bss           0x0000000000000000        0x0 /media/data_nvme/git/uboot/u-boot/build/rk3568/release/bl31/bakery_lock_normal.o
 .text.bakery_lock_get
                0x0000000000000000      0x138 /media/data_nvme/git/uboot/u-boot/build/rk3568/release/bl31/bakery_lock_normal.o
 .text.bakery_lock_release
                0x0000000000000000       0x68 /media/data_nvme/git/uboot/u-boot/build/rk3568/release/bl31/bakery_lock_normal.o
 .debug_info    0x0000000000000000      0xbfc /media/data_nvme/git/uboot/u-boot/build/rk3568/release/bl31/bakery_lock_normal.o
 .debug_abbrev  0x0000000000000000      0x21c /media/data_nvme/git/uboot/u-boot/build/rk3568/release/bl31/bakery_lock_normal.o
 .debug_loc     0x0000000000000000      0xb51 /media/data_nvme/git/uboot/u-boot/build/rk3568/release/bl31/bakery_lock_normal.o
 .debug_aranges
                0x0000000000000000       0x40 /media/data_nvme/git/uboot/u-boot/build/rk3568/release/bl31/bakery_lock_normal.o
 .debug_ranges  0x0000000000000000      0x160 /media/data_nvme/git/uboot/u-boot/build/rk3568/release/bl31/bakery_lock_normal.o
 .debug_line    0x0000000000000000      0x529 /media/data_nvme/git/uboot/u-boot/build/rk3568/release/bl31/bakery_lock_normal.o
 .debug_str     0x0000000000000000      0x464 /media/data_nvme/git/uboot/u-boot/build/rk3568/release/bl31/bakery_lock_normal.o
 .comment       0x0000000000000000       0x2c /media/data_nvme/git/uboot/u-boot/build/rk3568/release/bl31/bakery_lock_normal.o
 .note.GNU-stack
                0x0000000000000000        0x0 /media/data_nvme/git/uboot/u-boot/build/rk3568/release/bl31/bakery_lock_normal.o
 .eh_frame      0x0000000000000000       0x68 /media/data_nvme/git/uboot/u-boot/build/rk3568/release/bl31/bakery_lock_normal.o
 .text          0x0000000000000000        0x0 /media/data_nvme/git/uboot/u-boot/build/rk3568/release/bl31/psci_common.o
 .data          0x0000000000000000        0x0 /media/data_nvme/git/uboot/u-boot/build/rk3568/release/bl31/psci_common.o
 .bss           0x0000000000000000        0x0 /media/data_nvme/git/uboot/u-boot/build/rk3568/release/bl31/psci_common.o
 .text.psci_validate_suspend_req
                0x0000000000000000       0x9c /media/data_nvme/git/uboot/u-boot/build/rk3568/release/bl31/psci_common.o
 .text.psci_register_spd_pm_hook
                0x0000000000000000       0x3c /media/data_nvme/git/uboot/u-boot/build/rk3568/release/bl31/psci_common.o
 .text.psci_secondaries_brought_up
                0x0000000000000000       0x3c /media/data_nvme/git/uboot/u-boot/build/rk3568/release/bl31/psci_common.o
 .text.psci_stop_other_cores
                0x0000000000000000       0xbc /media/data_nvme/git/uboot/u-boot/build/rk3568/release/bl31/psci_common.o
 .text.psci_is_last_on_cpu_safe
                0x0000000000000000       0x50 /media/data_nvme/git/uboot/u-boot/build/rk3568/release/bl31/psci_common.o
 .text.psci_are_all_cpus_on_safe
                0x0000000000000000       0x90 /media/data_nvme/git/uboot/u-boot/build/rk3568/release/bl31/psci_common.o
 .eh_frame      0x0000000000000000      0x368 /media/data_nvme/git/uboot/u-boot/build/rk3568/release/bl31/psci_common.o
 .text          0x0000000000000000        0x0 /media/data_nvme/git/uboot/u-boot/build/rk3568/release/bl31/psci_main.o
 .data          0x0000000000000000        0x0 /media/data_nvme/git/uboot/u-boot/build/rk3568/release/bl31/psci_main.o
 .bss           0x0000000000000000        0x0 /media/data_nvme/git/uboot/u-boot/build/rk3568/release/bl31/psci_main.o
 .text.psci_version
                0x0000000000000000        0x8 /media/data_nvme/git/uboot/u-boot/build/rk3568/release/bl31/psci_main.o
 .eh_frame      0x0000000000000000      0x1e8 /media/data_nvme/git/uboot/u-boot/build/rk3568/release/bl31/psci_main.o
 .text          0x0000000000000000        0x0 /media/data_nvme/git/uboot/u-boot/build/rk3568/release/bl31/psci_mem_protect.o
 .data          0x0000000000000000        0x0 /media/data_nvme/git/uboot/u-boot/build/rk3568/release/bl31/psci_mem_protect.o
 .bss           0x0000000000000000        0x0 /media/data_nvme/git/uboot/u-boot/build/rk3568/release/bl31/psci_mem_protect.o
 .eh_frame      0x0000000000000000       0x60 /media/data_nvme/git/uboot/u-boot/build/rk3568/release/bl31/psci_mem_protect.o
 .text          0x0000000000000000        0x0 /media/data_nvme/git/uboot/u-boot/build/rk3568/release/bl31/psci_off.o
 .data          0x0000000000000000        0x0 /media/data_nvme/git/uboot/u-boot/build/rk3568/release/bl31/psci_off.o
 .bss           0x0000000000000000        0x0 /media/data_nvme/git/uboot/u-boot/build/rk3568/release/bl31/psci_off.o
 .eh_frame      0x0000000000000000       0x48 /media/data_nvme/git/uboot/u-boot/build/rk3568/release/bl31/psci_off.o
 .text          0x0000000000000000        0x0 /media/data_nvme/git/uboot/u-boot/build/rk3568/release/bl31/psci_on.o
 .data          0x0000000000000000        0x0 /media/data_nvme/git/uboot/u-boot/build/rk3568/release/bl31/psci_on.o
 .bss           0x0000000000000000        0x0 /media/data_nvme/git/uboot/u-boot/build/rk3568/release/bl31/psci_on.o
 .eh_frame      0x0000000000000000       0x78 /media/data_nvme/git/uboot/u-boot/build/rk3568/release/bl31/psci_on.o
 .text          0x0000000000000000        0x0 /media/data_nvme/git/uboot/u-boot/build/rk3568/release/bl31/psci_setup.o
 .data          0x0000000000000000        0x0 /media/data_nvme/git/uboot/u-boot/build/rk3568/release/bl31/psci_setup.o
 .bss           0x0000000000000000        0x0 /media/data_nvme/git/uboot/u-boot/build/rk3568/release/bl31/psci_setup.o
 .text.psci_prepare_next_non_secure_ctx
                0x0000000000000000       0x18 /media/data_nvme/git/uboot/u-boot/build/rk3568/release/bl31/psci_setup.o
 .eh_frame      0x0000000000000000       0xa0 /media/data_nvme/git/uboot/u-boot/build/rk3568/release/bl31/psci_setup.o
 .text          0x0000000000000000        0x0 /media/data_nvme/git/uboot/u-boot/build/rk3568/release/bl31/psci_suspend.o
 .data          0x0000000000000000        0x0 /media/data_nvme/git/uboot/u-boot/build/rk3568/release/bl31/psci_suspend.o
 .bss           0x0000000000000000        0x0 /media/data_nvme/git/uboot/u-boot/build/rk3568/release/bl31/psci_suspend.o
 .eh_frame      0x0000000000000000       0x78 /media/data_nvme/git/uboot/u-boot/build/rk3568/release/bl31/psci_suspend.o
 .text          0x0000000000000000        0x0 /media/data_nvme/git/uboot/u-boot/build/rk3568/release/bl31/psci_system_off.o
 .data          0x0000000000000000        0x0 /media/data_nvme/git/uboot/u-boot/build/rk3568/release/bl31/psci_system_off.o
 .bss           0x0000000000000000        0x0 /media/data_nvme/git/uboot/u-boot/build/rk3568/release/bl31/psci_system_off.o
 .eh_frame      0x0000000000000000       0x70 /media/data_nvme/git/uboot/u-boot/build/rk3568/release/bl31/psci_system_off.o
 .text          0x0000000000000000        0x0 /media/data_nvme/git/uboot/u-boot/build/rk3568/release/bl31/plat_gicv3.o
 .data          0x0000000000000000        0x0 /media/data_nvme/git/uboot/u-boot/build/rk3568/release/bl31/plat_gicv3.o
 .bss           0x0000000000000000        0x0 /media/data_nvme/git/uboot/u-boot/build/rk3568/release/bl31/plat_gicv3.o
 .text.plat_ic_get_pending_interrupt_id
                0x0000000000000000       0x20 /media/data_nvme/git/uboot/u-boot/build/rk3568/release/bl31/plat_gicv3.o
 .text.plat_ic_acknowledge_interrupt
                0x0000000000000000        0xc /media/data_nvme/git/uboot/u-boot/build/rk3568/release/bl31/plat_gicv3.o
 .text.plat_ic_get_interrupt_type
                0x0000000000000000       0x28 /media/data_nvme/git/uboot/u-boot/build/rk3568/release/bl31/plat_gicv3.o
 .text.plat_ic_end_of_interrupt
                0x0000000000000000       0x10 /media/data_nvme/git/uboot/u-boot/build/rk3568/release/bl31/plat_gicv3.o
 .text.plat_interrupt_type_to_line
                0x0000000000000000       0x48 /media/data_nvme/git/uboot/u-boot/build/rk3568/release/bl31/plat_gicv3.o
 .text.plat_ic_get_running_priority
                0x0000000000000000        0x4 /media/data_nvme/git/uboot/u-boot/build/rk3568/release/bl31/plat_gicv3.o
 .text.plat_ic_is_spi
                0x0000000000000000       0x10 /media/data_nvme/git/uboot/u-boot/build/rk3568/release/bl31/plat_gicv3.o
 .text.plat_ic_is_ppi
                0x0000000000000000       0x10 /media/data_nvme/git/uboot/u-boot/build/rk3568/release/bl31/plat_gicv3.o
 .text.plat_ic_is_sgi
                0x0000000000000000        0xc /media/data_nvme/git/uboot/u-boot/build/rk3568/release/bl31/plat_gicv3.o
 .text.plat_ic_get_interrupt_active
                0x0000000000000000       0x28 /media/data_nvme/git/uboot/u-boot/build/rk3568/release/bl31/plat_gicv3.o
 .text.plat_ic_enable_interrupt
                0x0000000000000000       0x28 /media/data_nvme/git/uboot/u-boot/build/rk3568/release/bl31/plat_gicv3.o
 .text.plat_ic_disable_interrupt
                0x0000000000000000       0x28 /media/data_nvme/git/uboot/u-boot/build/rk3568/release/bl31/plat_gicv3.o
 .text.plat_ic_set_interrupt_priority
                0x0000000000000000       0x30 /media/data_nvme/git/uboot/u-boot/build/rk3568/release/bl31/plat_gicv3.o
 .text.plat_ic_has_interrupt_type
                0x0000000000000000        0x8 /media/data_nvme/git/uboot/u-boot/build/rk3568/release/bl31/plat_gicv3.o
 .text.plat_ic_set_interrupt_type
                0x0000000000000000       0x30 /media/data_nvme/git/uboot/u-boot/build/rk3568/release/bl31/plat_gicv3.o
 .text.plat_ic_raise_el3_sgi
                0x0000000000000000        0xc /media/data_nvme/git/uboot/u-boot/build/rk3568/release/bl31/plat_gicv3.o
 .text.plat_ic_raise_ns_sgi
                0x0000000000000000        0xc /media/data_nvme/git/uboot/u-boot/build/rk3568/release/bl31/plat_gicv3.o
 .text.plat_ic_raise_s_el1_sgi
                0x0000000000000000        0xc /media/data_nvme/git/uboot/u-boot/build/rk3568/release/bl31/plat_gicv3.o
 .text.plat_ic_set_spi_routing
                0x0000000000000000        0xc /media/data_nvme/git/uboot/u-boot/build/rk3568/release/bl31/plat_gicv3.o
 .text.plat_ic_set_interrupt_pending
                0x0000000000000000       0x28 /media/data_nvme/git/uboot/u-boot/build/rk3568/release/bl31/plat_gicv3.o
 .text.plat_ic_clear_interrupt_pending
                0x0000000000000000       0x28 /media/data_nvme/git/uboot/u-boot/build/rk3568/release/bl31/plat_gicv3.o
 .text.plat_ic_set_priority_mask
                0x0000000000000000        0x4 /media/data_nvme/git/uboot/u-boot/build/rk3568/release/bl31/plat_gicv3.o
 .text.plat_ic_get_interrupt_id
                0x0000000000000000       0x14 /media/data_nvme/git/uboot/u-boot/build/rk3568/release/bl31/plat_gicv3.o
 .eh_frame      0x0000000000000000      0x298 /media/data_nvme/git/uboot/u-boot/build/rk3568/release/bl31/plat_gicv3.o
 .text          0x0000000000000000        0x0 /media/data_nvme/git/uboot/u-boot/build/rk3568/release/bl31/platform_common.o
 .data          0x0000000000000000        0x0 /media/data_nvme/git/uboot/u-boot/build/rk3568/release/bl31/platform_common.o
 .bss           0x0000000000000000        0x0 /media/data_nvme/git/uboot/u-boot/build/rk3568/release/bl31/platform_common.o
 .eh_frame      0x0000000000000000       0x88 /media/data_nvme/git/uboot/u-boot/build/rk3568/release/bl31/platform_common.o
 .text          0x0000000000000000        0x0 /media/data_nvme/git/uboot/u-boot/build/rk3568/release/bl31/bl31_plat_setup.o
 .data          0x0000000000000000        0x0 /media/data_nvme/git/uboot/u-boot/build/rk3568/release/bl31/bl31_plat_setup.o
 .bss           0x0000000000000000        0x0 /media/data_nvme/git/uboot/u-boot/build/rk3568/release/bl31/bl31_plat_setup.o
 .text.params_early_setup
                0x0000000000000000        0x4 /media/data_nvme/git/uboot/u-boot/build/rk3568/release/bl31/bl31_plat_setup.o
 .eh_frame      0x0000000000000000       0xa8 /media/data_nvme/git/uboot/u-boot/build/rk3568/release/bl31/bl31_plat_setup.o
 .text          0x0000000000000000        0x0 /media/data_nvme/git/uboot/u-boot/build/rk3568/release/bl31/ddr_parameter.o
 .data          0x0000000000000000        0x0 /media/data_nvme/git/uboot/u-boot/build/rk3568/release/bl31/ddr_parameter.o
 .bss           0x0000000000000000        0x0 /media/data_nvme/git/uboot/u-boot/build/rk3568/release/bl31/ddr_parameter.o
 .rodata.ddr_region_usage_parse.str1.1
                0x0000000000000000       0x25 /media/data_nvme/git/uboot/u-boot/build/rk3568/release/bl31/ddr_parameter.o
 .text.ddr_region_usage_parse
                0x0000000000000000      0x15c /media/data_nvme/git/uboot/u-boot/build/rk3568/release/bl31/ddr_parameter.o
 .debug_info    0x0000000000000000      0x388 /media/data_nvme/git/uboot/u-boot/build/rk3568/release/bl31/ddr_parameter.o
 .debug_abbrev  0x0000000000000000      0x1bb /media/data_nvme/git/uboot/u-boot/build/rk3568/release/bl31/ddr_parameter.o
 .debug_loc     0x0000000000000000      0x2e3 /media/data_nvme/git/uboot/u-boot/build/rk3568/release/bl31/ddr_parameter.o
 .debug_aranges
                0x0000000000000000       0x30 /media/data_nvme/git/uboot/u-boot/build/rk3568/release/bl31/ddr_parameter.o
 .debug_ranges  0x0000000000000000       0x80 /media/data_nvme/git/uboot/u-boot/build/rk3568/release/bl31/ddr_parameter.o
 .debug_line    0x0000000000000000      0x2ef /media/data_nvme/git/uboot/u-boot/build/rk3568/release/bl31/ddr_parameter.o
 .debug_str     0x0000000000000000      0x32b /media/data_nvme/git/uboot/u-boot/build/rk3568/release/bl31/ddr_parameter.o
 .comment       0x0000000000000000       0x2c /media/data_nvme/git/uboot/u-boot/build/rk3568/release/bl31/ddr_parameter.o
 .note.GNU-stack
                0x0000000000000000        0x0 /media/data_nvme/git/uboot/u-boot/build/rk3568/release/bl31/ddr_parameter.o
 .eh_frame      0x0000000000000000       0x48 /media/data_nvme/git/uboot/u-boot/build/rk3568/release/bl31/ddr_parameter.o
 .text          0x0000000000000000        0x0 /media/data_nvme/git/uboot/u-boot/build/rk3568/release/bl31/params_setup.o
 .data          0x0000000000000000        0x0 /media/data_nvme/git/uboot/u-boot/build/rk3568/release/bl31/params_setup.o
 .bss           0x0000000000000000        0x0 /media/data_nvme/git/uboot/u-boot/build/rk3568/release/bl31/params_setup.o
 .text.plat_get_fdt
                0x0000000000000000        0xc /media/data_nvme/git/uboot/u-boot/build/rk3568/release/bl31/params_setup.o
 .text.plat_get_rockchip_gpio_reset
                0x0000000000000000       0x18 /media/data_nvme/git/uboot/u-boot/build/rk3568/release/bl31/params_setup.o
 .text.plat_get_rockchip_gpio_poweroff
                0x0000000000000000       0x18 /media/data_nvme/git/uboot/u-boot/build/rk3568/release/bl31/params_setup.o
 .text.plat_get_rockchip_suspend_gpio
                0x0000000000000000       0x18 /media/data_nvme/git/uboot/u-boot/build/rk3568/release/bl31/params_setup.o
 .text.plat_get_rockchip_suspend_apio
                0x0000000000000000        0xc /media/data_nvme/git/uboot/u-boot/build/rk3568/release/bl31/params_setup.o
 .eh_frame      0x0000000000000000      0x108 /media/data_nvme/git/uboot/u-boot/build/rk3568/release/bl31/params_setup.o
 .text          0x0000000000000000        0x0 /media/data_nvme/git/uboot/u-boot/build/rk3568/release/bl31/plat_pm.o
 .data          0x0000000000000000        0x0 /media/data_nvme/git/uboot/u-boot/build/rk3568/release/bl31/plat_pm.o
 .bss           0x0000000000000000        0x0 /media/data_nvme/git/uboot/u-boot/build/rk3568/release/bl31/plat_pm.o
 .text.rockchip_soc_cores_pwr_dm_on
                0x0000000000000000        0x8 /media/data_nvme/git/uboot/u-boot/build/rk3568/release/bl31/plat_pm.o
 .text.rockchip_soc_cores_pwr_dm_off
                0x0000000000000000        0x8 /media/data_nvme/git/uboot/u-boot/build/rk3568/release/bl31/plat_pm.o
 .text.rockchip_soc_sys_pwr_dm_suspend
                0x0000000000000000        0x8 /media/data_nvme/git/uboot/u-boot/build/rk3568/release/bl31/plat_pm.o
 .text.rockchip_soc_cores_pwr_dm_suspend
                0x0000000000000000        0x8 /media/data_nvme/git/uboot/u-boot/build/rk3568/release/bl31/plat_pm.o
 .text.rockchip_soc_cores_pwr_dm_on_finish
                0x0000000000000000        0x8 /media/data_nvme/git/uboot/u-boot/build/rk3568/release/bl31/plat_pm.o
 .text.rockchip_soc_sys_pwr_dm_resume
                0x0000000000000000        0x8 /media/data_nvme/git/uboot/u-boot/build/rk3568/release/bl31/plat_pm.o
 .text.rockchip_soc_cores_pwr_dm_resume
                0x0000000000000000        0x8 /media/data_nvme/git/uboot/u-boot/build/rk3568/release/bl31/plat_pm.o
 .text.rockchip_soc_soft_reset
                0x0000000000000000        0x4 /media/data_nvme/git/uboot/u-boot/build/rk3568/release/bl31/plat_pm.o
 .text.plat_get_sec_entrypoint
                0x0000000000000000        0xc /media/data_nvme/git/uboot/u-boot/build/rk3568/release/bl31/plat_pm.o
 .eh_frame      0x0000000000000000      0x2b8 /media/data_nvme/git/uboot/u-boot/build/rk3568/release/bl31/plat_pm.o
 .text          0x0000000000000000        0x0 /media/data_nvme/git/uboot/u-boot/build/rk3568/release/bl31/plat_topology.o
 .data          0x0000000000000000        0x0 /media/data_nvme/git/uboot/u-boot/build/rk3568/release/bl31/plat_topology.o
 .bss           0x0000000000000000        0x0 /media/data_nvme/git/uboot/u-boot/build/rk3568/release/bl31/plat_topology.o
 .eh_frame      0x0000000000000000       0x40 /media/data_nvme/git/uboot/u-boot/build/rk3568/release/bl31/plat_topology.o
 .text          0x0000000000000000        0x0 /media/data_nvme/git/uboot/u-boot/build/rk3568/release/bl31/rockchip_gicv3.o
 .data          0x0000000000000000        0x0 /media/data_nvme/git/uboot/u-boot/build/rk3568/release/bl31/rockchip_gicv3.o
 .bss           0x0000000000000000        0x0 /media/data_nvme/git/uboot/u-boot/build/rk3568/release/bl31/rockchip_gicv3.o
 .eh_frame      0x0000000000000000       0xc0 /media/data_nvme/git/uboot/u-boot/build/rk3568/release/bl31/rockchip_gicv3.o
 .text          0x0000000000000000        0x0 /media/data_nvme/git/uboot/u-boot/build/rk3568/release/bl31/rockchip_sip_svc.o
 .data          0x0000000000000000        0x0 /media/data_nvme/git/uboot/u-boot/build/rk3568/release/bl31/rockchip_sip_svc.o
 .bss           0x0000000000000000        0x0 /media/data_nvme/git/uboot/u-boot/build/rk3568/release/bl31/rockchip_sip_svc.o
 .eh_frame      0x0000000000000000       0x50 /media/data_nvme/git/uboot/u-boot/build/rk3568/release/bl31/rockchip_sip_svc.o
 .text          0x0000000000000000        0x0 /media/data_nvme/git/uboot/u-boot/build/rk3568/release/bl31/pmu.o
 .data          0x0000000000000000        0x0 /media/data_nvme/git/uboot/u-boot/build/rk3568/release/bl31/pmu.o
 .bss           0x0000000000000000        0x0 /media/data_nvme/git/uboot/u-boot/build/rk3568/release/bl31/pmu.o
 .eh_frame      0x0000000000000000      0x128 /media/data_nvme/git/uboot/u-boot/build/rk3568/release/bl31/pmu.o
 .text          0x0000000000000000        0x0 /media/data_nvme/git/uboot/u-boot/build/rk3568/release/bl31/soc.o
 .data          0x0000000000000000        0x0 /media/data_nvme/git/uboot/u-boot/build/rk3568/release/bl31/soc.o
 .bss           0x0000000000000000        0x0 /media/data_nvme/git/uboot/u-boot/build/rk3568/release/bl31/soc.o
 .eh_frame      0x0000000000000000       0x40 /media/data_nvme/git/uboot/u-boot/build/rk3568/release/bl31/soc.o
 .text          0x0000000000000000        0x0 /media/data_nvme/git/uboot/u-boot/build/rk3568/release/bl31/arm_arch_svc_setup.o
 .data          0x0000000000000000        0x0 /media/data_nvme/git/uboot/u-boot/build/rk3568/release/bl31/arm_arch_svc_setup.o
 .bss           0x0000000000000000        0x0 /media/data_nvme/git/uboot/u-boot/build/rk3568/release/bl31/arm_arch_svc_setup.o
 .eh_frame      0x0000000000000000       0x38 /media/data_nvme/git/uboot/u-boot/build/rk3568/release/bl31/arm_arch_svc_setup.o
 .text          0x0000000000000000        0x0 /media/data_nvme/git/uboot/u-boot/build/rk3568/release/bl31/std_svc_setup.o
 .data          0x0000000000000000        0x0 /media/data_nvme/git/uboot/u-boot/build/rk3568/release/bl31/std_svc_setup.o
 .bss           0x0000000000000000        0x0 /media/data_nvme/git/uboot/u-boot/build/rk3568/release/bl31/std_svc_setup.o
 .eh_frame      0x0000000000000000       0x58 /media/data_nvme/git/uboot/u-boot/build/rk3568/release/bl31/std_svc_setup.o
 .text          0x0000000000000000        0x0 /media/data_nvme/git/uboot/u-boot/build/rk3568/release/bl31/bl_common.o
 .data          0x0000000000000000        0x0 /media/data_nvme/git/uboot/u-boot/build/rk3568/release/bl31/bl_common.o
 .bss           0x0000000000000000        0x0 /media/data_nvme/git/uboot/u-boot/build/rk3568/release/bl31/bl_common.o
 .text.page_align
                0x0000000000000000       0x1c /media/data_nvme/git/uboot/u-boot/build/rk3568/release/bl31/bl_common.o
 .text.load_auth_image
                0x0000000000000000       0xec /media/data_nvme/git/uboot/u-boot/build/rk3568/release/bl31/bl_common.o
 .text.get_version
                0x0000000000000000        0xc /media/data_nvme/git/uboot/u-boot/build/rk3568/release/bl31/bl_common.o
 .eh_frame      0x0000000000000000       0x80 /media/data_nvme/git/uboot/u-boot/build/rk3568/release/bl31/bl_common.o
 .text          0x0000000000000000        0x0 /media/data_nvme/git/uboot/u-boot/build/rk3568/release/bl31/tf_log.o
 .data          0x0000000000000000        0x0 /media/data_nvme/git/uboot/u-boot/build/rk3568/release/bl31/tf_log.o
 .bss           0x0000000000000000        0x0 /media/data_nvme/git/uboot/u-boot/build/rk3568/release/bl31/tf_log.o
 .text.tf_log_set_max_level
                0x0000000000000000       0x14 /media/data_nvme/git/uboot/u-boot/build/rk3568/release/bl31/tf_log.o
 .eh_frame      0x0000000000000000       0x68 /media/data_nvme/git/uboot/u-boot/build/rk3568/release/bl31/tf_log.o
 .text          0x0000000000000000        0x0 /media/data_nvme/git/uboot/u-boot/build/rk3568/release/bl31/multi_console.o
 .data          0x0000000000000000        0x0 /media/data_nvme/git/uboot/u-boot/build/rk3568/release/bl31/multi_console.o
 .bss           0x0000000000000000        0x0 /media/data_nvme/git/uboot/u-boot/build/rk3568/release/bl31/multi_console.o
 .text.console_unregister
                0x0000000000000000       0x34 /media/data_nvme/git/uboot/u-boot/build/rk3568/release/bl31/multi_console.o
 .text.console_set_scope
                0x0000000000000000       0x18 /media/data_nvme/git/uboot/u-boot/build/rk3568/release/bl31/multi_console.o
 .text.console_getc
                0x0000000000000000       0x78 /media/data_nvme/git/uboot/u-boot/build/rk3568/release/bl31/multi_console.o
 .eh_frame      0x0000000000000000      0x130 /media/data_nvme/git/uboot/u-boot/build/rk3568/release/bl31/multi_console.o
 .text          0x0000000000000000        0x0 /media/data_nvme/git/uboot/u-boot/build/rk3568/release/bl31/pmuv3.o
 .data          0x0000000000000000        0x0 /media/data_nvme/git/uboot/u-boot/build/rk3568/release/bl31/pmuv3.o
 .bss           0x0000000000000000        0x0 /media/data_nvme/git/uboot/u-boot/build/rk3568/release/bl31/pmuv3.o
 .eh_frame      0x0000000000000000       0x50 /media/data_nvme/git/uboot/u-boot/build/rk3568/release/bl31/pmuv3.o
 .text          0x0000000000000000        0x0 /media/data_nvme/git/uboot/u-boot/build/rk3568/release/bl31/plat_bl_common.o
 .data          0x0000000000000000        0x0 /media/data_nvme/git/uboot/u-boot/build/rk3568/release/bl31/plat_bl_common.o
 .bss           0x0000000000000000        0x0 /media/data_nvme/git/uboot/u-boot/build/rk3568/release/bl31/plat_bl_common.o
 .text.bl2_el3_plat_prepare_exit
                0x0000000000000000        0x4 /media/data_nvme/git/uboot/u-boot/build/rk3568/release/bl31/plat_bl_common.o
 .text.plat_error_handler
                0x0000000000000000        0x8 /media/data_nvme/git/uboot/u-boot/build/rk3568/release/bl31/plat_bl_common.o
 .text.bl2_plat_preload_setup
                0x0000000000000000        0x4 /media/data_nvme/git/uboot/u-boot/build/rk3568/release/bl31/plat_bl_common.o
 .text.bl2_plat_handle_pre_image_load
                0x0000000000000000        0x8 /media/data_nvme/git/uboot/u-boot/build/rk3568/release/bl31/plat_bl_common.o
 .text.bl2_plat_handle_post_image_load
                0x0000000000000000        0x8 /media/data_nvme/git/uboot/u-boot/build/rk3568/release/bl31/plat_bl_common.o
 .text.plat_try_next_boot_source
                0x0000000000000000        0x8 /media/data_nvme/git/uboot/u-boot/build/rk3568/release/bl31/plat_bl_common.o
 .text.plat_get_enc_key_info
                0x0000000000000000       0x60 /media/data_nvme/git/uboot/u-boot/build/rk3568/release/bl31/plat_bl_common.o
 .rodata.plat_get_enc_key_info.str1.1
                0x0000000000000000       0x21 /media/data_nvme/git/uboot/u-boot/build/rk3568/release/bl31/plat_bl_common.o
 .text.setup_page_tables
                0x0000000000000000       0x28 /media/data_nvme/git/uboot/u-boot/build/rk3568/release/bl31/plat_bl_common.o
 .eh_frame      0x0000000000000000      0x118 /media/data_nvme/git/uboot/u-boot/build/rk3568/release/bl31/plat_bl_common.o
 .text          0x0000000000000000        0x0 /media/data_nvme/git/uboot/u-boot/build/rk3568/release/bl31/plat_log_common.o
 .data          0x0000000000000000        0x0 /media/data_nvme/git/uboot/u-boot/build/rk3568/release/bl31/plat_log_common.o
 .bss           0x0000000000000000        0x0 /media/data_nvme/git/uboot/u-boot/build/rk3568/release/bl31/plat_log_common.o
 .eh_frame      0x0000000000000000       0x28 /media/data_nvme/git/uboot/u-boot/build/rk3568/release/bl31/plat_log_common.o
 .text          0x0000000000000000        0x0 /media/data_nvme/git/uboot/u-boot/build/rk3568/release/bl31/plat_common.o
 .data          0x0000000000000000        0x0 /media/data_nvme/git/uboot/u-boot/build/rk3568/release/bl31/plat_common.o
 .bss           0x0000000000000000        0x0 /media/data_nvme/git/uboot/u-boot/build/rk3568/release/bl31/plat_common.o
 .text.platform_core_pos_helper
                0x0000000000000000        0x4 /media/data_nvme/git/uboot/u-boot/build/rk3568/release/bl31/plat_common.o
 .eh_frame      0x0000000000000000       0x78 /media/data_nvme/git/uboot/u-boot/build/rk3568/release/bl31/plat_common.o
 .text          0x0000000000000000        0x0 /media/data_nvme/git/uboot/u-boot/build/rk3568/release/bl31/popcountdi2.o
 .data          0x0000000000000000        0x0 /media/data_nvme/git/uboot/u-boot/build/rk3568/release/bl31/popcountdi2.o
 .bss           0x0000000000000000        0x0 /media/data_nvme/git/uboot/u-boot/build/rk3568/release/bl31/popcountdi2.o
 .text.__popcountdi2
                0x0000000000000000       0x3c /media/data_nvme/git/uboot/u-boot/build/rk3568/release/bl31/popcountdi2.o
 .debug_info    0x0000000000000000      0x146 /media/data_nvme/git/uboot/u-boot/build/rk3568/release/bl31/popcountdi2.o
 .debug_abbrev  0x0000000000000000       0x7d /media/data_nvme/git/uboot/u-boot/build/rk3568/release/bl31/popcountdi2.o
 .debug_loc     0x0000000000000000      0x30b /media/data_nvme/git/uboot/u-boot/build/rk3568/release/bl31/popcountdi2.o
 .debug_aranges
                0x0000000000000000       0x30 /media/data_nvme/git/uboot/u-boot/build/rk3568/release/bl31/popcountdi2.o
 .debug_ranges  0x0000000000000000       0x20 /media/data_nvme/git/uboot/u-boot/build/rk3568/release/bl31/popcountdi2.o
 .debug_line    0x0000000000000000       0xf6 /media/data_nvme/git/uboot/u-boot/build/rk3568/release/bl31/popcountdi2.o
 .debug_str     0x0000000000000000      0x287 /media/data_nvme/git/uboot/u-boot/build/rk3568/release/bl31/popcountdi2.o
 .comment       0x0000000000000000       0x2c /media/data_nvme/git/uboot/u-boot/build/rk3568/release/bl31/popcountdi2.o
 .note.GNU-stack
                0x0000000000000000        0x0 /media/data_nvme/git/uboot/u-boot/build/rk3568/release/bl31/popcountdi2.o
 .eh_frame      0x0000000000000000       0x28 /media/data_nvme/git/uboot/u-boot/build/rk3568/release/bl31/popcountdi2.o
 .text          0x0000000000000000        0x0 /media/data_nvme/git/uboot/u-boot/build/rk3568/release/bl31/popcountsi2.o
 .data          0x0000000000000000        0x0 /media/data_nvme/git/uboot/u-boot/build/rk3568/release/bl31/popcountsi2.o
 .bss           0x0000000000000000        0x0 /media/data_nvme/git/uboot/u-boot/build/rk3568/release/bl31/popcountsi2.o
 .text.__popcountsi2
                0x0000000000000000       0x34 /media/data_nvme/git/uboot/u-boot/build/rk3568/release/bl31/popcountsi2.o
 .debug_info    0x0000000000000000      0x11b /media/data_nvme/git/uboot/u-boot/build/rk3568/release/bl31/popcountsi2.o
 .debug_abbrev  0x0000000000000000       0x7d /media/data_nvme/git/uboot/u-boot/build/rk3568/release/bl31/popcountsi2.o
 .debug_loc     0x0000000000000000      0x186 /media/data_nvme/git/uboot/u-boot/build/rk3568/release/bl31/popcountsi2.o
 .debug_aranges
                0x0000000000000000       0x30 /media/data_nvme/git/uboot/u-boot/build/rk3568/release/bl31/popcountsi2.o
 .debug_ranges  0x0000000000000000       0x20 /media/data_nvme/git/uboot/u-boot/build/rk3568/release/bl31/popcountsi2.o
 .debug_line    0x0000000000000000       0xc5 /media/data_nvme/git/uboot/u-boot/build/rk3568/release/bl31/popcountsi2.o
 .debug_str     0x0000000000000000      0x277 /media/data_nvme/git/uboot/u-boot/build/rk3568/release/bl31/popcountsi2.o
 .comment       0x0000000000000000       0x2c /media/data_nvme/git/uboot/u-boot/build/rk3568/release/bl31/popcountsi2.o
 .note.GNU-stack
                0x0000000000000000        0x0 /media/data_nvme/git/uboot/u-boot/build/rk3568/release/bl31/popcountsi2.o
 .eh_frame      0x0000000000000000       0x28 /media/data_nvme/git/uboot/u-boot/build/rk3568/release/bl31/popcountsi2.o
 .text          0x0000000000000000        0x0 /media/data_nvme/git/uboot/u-boot/build/rk3568/release/bl31/xlat_tables_arch.o
 .data          0x0000000000000000        0x0 /media/data_nvme/git/uboot/u-boot/build/rk3568/release/bl31/xlat_tables_arch.o
 .bss           0x0000000000000000        0x0 /media/data_nvme/git/uboot/u-boot/build/rk3568/release/bl31/xlat_tables_arch.o
 .text.xlat_arch_is_granule_size_supported
                0x0000000000000000       0x50 /media/data_nvme/git/uboot/u-boot/build/rk3568/release/bl31/xlat_tables_arch.o
 .text.xlat_arch_get_max_supported_granule_size
                0x0000000000000000       0x24 /media/data_nvme/git/uboot/u-boot/build/rk3568/release/bl31/xlat_tables_arch.o
 .text.is_mmu_enabled_ctx
                0x0000000000000000       0x30 /media/data_nvme/git/uboot/u-boot/build/rk3568/release/bl31/xlat_tables_arch.o
 .text.is_dcache_enabled
                0x0000000000000000        0xc /media/data_nvme/git/uboot/u-boot/build/rk3568/release/bl31/xlat_tables_arch.o
 .text.xlat_arch_tlbi_va
                0x0000000000000000       0x30 /media/data_nvme/git/uboot/u-boot/build/rk3568/release/bl31/xlat_tables_arch.o
 .text.xlat_arch_tlbi_va_sync
                0x0000000000000000        0xc /media/data_nvme/git/uboot/u-boot/build/rk3568/release/bl31/xlat_tables_arch.o
 .eh_frame      0x0000000000000000      0x100 /media/data_nvme/git/uboot/u-boot/build/rk3568/release/bl31/xlat_tables_arch.o
 .text          0x0000000000000000        0x0 /media/data_nvme/git/uboot/u-boot/build/rk3568/release/bl31/xlat_tables_context.o
 .data          0x0000000000000000        0x0 /media/data_nvme/git/uboot/u-boot/build/rk3568/release/bl31/xlat_tables_context.o
 .bss           0x0000000000000000        0x0 /media/data_nvme/git/uboot/u-boot/build/rk3568/release/bl31/xlat_tables_context.o
 .text.mmap_add_region_alloc_va
                0x0000000000000000       0x48 /media/data_nvme/git/uboot/u-boot/build/rk3568/release/bl31/xlat_tables_context.o
 .text.mmap_add_alloc_va
                0x0000000000000000       0x40 /media/data_nvme/git/uboot/u-boot/build/rk3568/release/bl31/xlat_tables_context.o
 .text.xlat_get_mem_attributes
                0x0000000000000000       0x14 /media/data_nvme/git/uboot/u-boot/build/rk3568/release/bl31/xlat_tables_context.o
 .text.xlat_change_mem_attributes
                0x0000000000000000       0x18 /media/data_nvme/git/uboot/u-boot/build/rk3568/release/bl31/xlat_tables_context.o
 .text.enable_mmu_el1
                0x0000000000000000       0x48 /media/data_nvme/git/uboot/u-boot/build/rk3568/release/bl31/xlat_tables_context.o
 .text.enable_mmu_el2
                0x0000000000000000       0x48 /media/data_nvme/git/uboot/u-boot/build/rk3568/release/bl31/xlat_tables_context.o
 .text.enable_mmu
                0x0000000000000000        0x4 /media/data_nvme/git/uboot/u-boot/build/rk3568/release/bl31/xlat_tables_context.o
 .eh_frame      0x0000000000000000      0x160 /media/data_nvme/git/uboot/u-boot/build/rk3568/release/bl31/xlat_tables_context.o
 .text          0x0000000000000000        0x0 /media/data_nvme/git/uboot/u-boot/build/rk3568/release/bl31/xlat_tables_core.o
 .data          0x0000000000000000        0x0 /media/data_nvme/git/uboot/u-boot/build/rk3568/release/bl31/xlat_tables_core.o
 .bss           0x0000000000000000        0x0 /media/data_nvme/git/uboot/u-boot/build/rk3568/release/bl31/xlat_tables_core.o
 .text.mmap_add_region_alloc_va_ctx
                0x0000000000000000       0x64 /media/data_nvme/git/uboot/u-boot/build/rk3568/release/bl31/xlat_tables_core.o
 .eh_frame      0x0000000000000000      0x130 /media/data_nvme/git/uboot/u-boot/build/rk3568/release/bl31/xlat_tables_core.o
 .text          0x0000000000000000        0x0 /media/data_nvme/git/uboot/u-boot/build/rk3568/release/bl31/xlat_tables_utils.o
 .data          0x0000000000000000        0x0 /media/data_nvme/git/uboot/u-boot/build/rk3568/release/bl31/xlat_tables_utils.o
 .bss           0x0000000000000000        0x0 /media/data_nvme/git/uboot/u-boot/build/rk3568/release/bl31/xlat_tables_utils.o
 .text.find_xlat_table_entry
                0x0000000000000000       0x94 /media/data_nvme/git/uboot/u-boot/build/rk3568/release/bl31/xlat_tables_utils.o
 .text.xlat_get_mem_attributes_internal
                0x0000000000000000       0xf4 /media/data_nvme/git/uboot/u-boot/build/rk3568/release/bl31/xlat_tables_utils.o
 .text.xlat_get_mem_attributes_ctx
                0x0000000000000000       0x10 /media/data_nvme/git/uboot/u-boot/build/rk3568/release/bl31/xlat_tables_utils.o
 .text.xlat_change_mem_attributes_ctx
                0x0000000000000000      0x16c /media/data_nvme/git/uboot/u-boot/build/rk3568/release/bl31/xlat_tables_utils.o
 .eh_frame      0x0000000000000000       0xe0 /media/data_nvme/git/uboot/u-boot/build/rk3568/release/bl31/xlat_tables_utils.o
 .text          0x0000000000000000        0x0 /media/data_nvme/git/uboot/u-boot/build/rk3568/release/bl31/desc_image_load.o
 .data          0x0000000000000000        0x0 /media/data_nvme/git/uboot/u-boot/build/rk3568/release/bl31/desc_image_load.o
 .bss           0x0000000000000000        0x0 /media/data_nvme/git/uboot/u-boot/build/rk3568/release/bl31/desc_image_load.o
 .text.flush_bl_params_desc_args
                0x0000000000000000       0x30 /media/data_nvme/git/uboot/u-boot/build/rk3568/release/bl31/desc_image_load.o
 .text.flush_bl_params_desc
                0x0000000000000000       0x1c /media/data_nvme/git/uboot/u-boot/build/rk3568/release/bl31/desc_image_load.o
 .text.get_bl_params_node_index
                0x0000000000000000       0x4c /media/data_nvme/git/uboot/u-boot/build/rk3568/release/bl31/desc_image_load.o
 .text.get_bl_mem_params_node
                0x0000000000000000       0x30 /media/data_nvme/git/uboot/u-boot/build/rk3568/release/bl31/desc_image_load.o
 .text.get_bl_load_info_from_mem_params_desc
                0x0000000000000000       0x74 /media/data_nvme/git/uboot/u-boot/build/rk3568/release/bl31/desc_image_load.o
 .text.get_next_bl_params_from_mem_params_desc
                0x0000000000000000       0xd8 /media/data_nvme/git/uboot/u-boot/build/rk3568/release/bl31/desc_image_load.o
 .text.populate_next_bl_params_config
                0x0000000000000000       0xa8 /media/data_nvme/git/uboot/u-boot/build/rk3568/release/bl31/desc_image_load.o
 .bss.bl_load_info
                0x0000000000000000       0x10 /media/data_nvme/git/uboot/u-boot/build/rk3568/release/bl31/desc_image_load.o
 .bss.next_bl_params
                0x0000000000000000       0x10 /media/data_nvme/git/uboot/u-boot/build/rk3568/release/bl31/desc_image_load.o
 .eh_frame      0x0000000000000000      0x108 /media/data_nvme/git/uboot/u-boot/build/rk3568/release/bl31/desc_image_load.o
 .text          0x0000000000000000        0x0 /media/data_nvme/git/uboot/u-boot/build/rk3568/release/bl31/bl_aux_params.o
 .data          0x0000000000000000        0x0 /media/data_nvme/git/uboot/u-boot/build/rk3568/release/bl31/bl_aux_params.o
 .bss           0x0000000000000000        0x0 /media/data_nvme/git/uboot/u-boot/build/rk3568/release/bl31/bl_aux_params.o
 .eh_frame      0x0000000000000000       0x40 /media/data_nvme/git/uboot/u-boot/build/rk3568/release/bl31/bl_aux_params.o
 .text          0x0000000000000000        0x0 /media/data_nvme/git/uboot/u-boot/build/rk3568/release/bl31/plat_psci_common.o
 .data          0x0000000000000000        0x0 /media/data_nvme/git/uboot/u-boot/build/rk3568/release/bl31/plat_psci_common.o
 .bss           0x0000000000000000        0x0 /media/data_nvme/git/uboot/u-boot/build/rk3568/release/bl31/plat_psci_common.o
 .eh_frame      0x0000000000000000       0x28 /media/data_nvme/git/uboot/u-boot/build/rk3568/release/bl31/plat_psci_common.o
 .text          0x0000000000000000        0x0 /media/data_nvme/git/uboot/u-boot/build/rk3568/release/bl31/bl31_entrypoint.o
 .data          0x0000000000000000        0x0 /media/data_nvme/git/uboot/u-boot/build/rk3568/release/bl31/bl31_entrypoint.o
 .bss           0x0000000000000000        0x0 /media/data_nvme/git/uboot/u-boot/build/rk3568/release/bl31/bl31_entrypoint.o
 .text          0x0000000000000000        0x0 /media/data_nvme/git/uboot/u-boot/build/rk3568/release/bl31/crash_reporting.o
 .data          0x0000000000000000        0x0 /media/data_nvme/git/uboot/u-boot/build/rk3568/release/bl31/crash_reporting.o
 .bss           0x0000000000000000        0x0 /media/data_nvme/git/uboot/u-boot/build/rk3568/release/bl31/crash_reporting.o
 .rodata.gic_reg_name
                0x0000000000000000       0x92 /media/data_nvme/git/uboot/u-boot/build/rk3568/release/bl31/crash_reporting.o
 .rodata.cci_reg_name
                0x0000000000000000       0x31 /media/data_nvme/git/uboot/u-boot/build/rk3568/release/bl31/crash_reporting.o
 .text.asm.crash_panic
                0x0000000000000000        0x4 /media/data_nvme/git/uboot/u-boot/build/rk3568/release/bl31/crash_reporting.o
 .text          0x0000000000000000        0x0 /media/data_nvme/git/uboot/u-boot/build/rk3568/release/bl31/ea_delegate.o
 .data          0x0000000000000000        0x0 /media/data_nvme/git/uboot/u-boot/build/rk3568/release/bl31/ea_delegate.o
 .bss           0x0000000000000000        0x0 /media/data_nvme/git/uboot/u-boot/build/rk3568/release/bl31/ea_delegate.o
 .text.asm.handle_lower_el_ea_esb
                0x0000000000000000        0xc /media/data_nvme/git/uboot/u-boot/build/rk3568/release/bl31/ea_delegate.o
 .text          0x0000000000000000        0x0 /media/data_nvme/git/uboot/u-boot/build/rk3568/release/bl31/runtime_exceptions.o
 .data          0x0000000000000000        0x0 /media/data_nvme/git/uboot/u-boot/build/rk3568/release/bl31/runtime_exceptions.o
 .bss           0x0000000000000000        0x0 /media/data_nvme/git/uboot/u-boot/build/rk3568/release/bl31/runtime_exceptions.o
 .text          0x0000000000000000        0x0 /media/data_nvme/git/uboot/u-boot/build/rk3568/release/bl31/16550_console.o
 .data          0x0000000000000000        0x0 /media/data_nvme/git/uboot/u-boot/build/rk3568/release/bl31/16550_console.o
 .bss           0x0000000000000000        0x0 /media/data_nvme/git/uboot/u-boot/build/rk3568/release/bl31/16550_console.o
 .text          0x0000000000000000        0x0 /media/data_nvme/git/uboot/u-boot/build/rk3568/release/bl31/cortex_a55.o
 .data          0x0000000000000000        0x0 /media/data_nvme/git/uboot/u-boot/build/rk3568/release/bl31/cortex_a55.o
 .bss           0x0000000000000000        0x0 /media/data_nvme/git/uboot/u-boot/build/rk3568/release/bl31/cortex_a55.o
 .rodata.gic_reg_name
                0x0000000000000000       0x92 /media/data_nvme/git/uboot/u-boot/build/rk3568/release/bl31/cortex_a55.o
 .rodata.cci_reg_name
                0x0000000000000000       0x31 /media/data_nvme/git/uboot/u-boot/build/rk3568/release/bl31/cortex_a55.o
 .text.asm.errata_a55_768277_wa
                0x0000000000000000       0x20 /media/data_nvme/git/uboot/u-boot/build/rk3568/release/bl31/cortex_a55.o
 .text.asm.check_errata_768277
                0x0000000000000000        0x8 /media/data_nvme/git/uboot/u-boot/build/rk3568/release/bl31/cortex_a55.o
 .text.asm.errata_a55_778703_wa
                0x0000000000000000       0x2c /media/data_nvme/git/uboot/u-boot/build/rk3568/release/bl31/cortex_a55.o
 .text.asm.check_errata_778703
                0x0000000000000000       0x24 /media/data_nvme/git/uboot/u-boot/build/rk3568/release/bl31/cortex_a55.o
 .text.asm.errata_a55_798797_wa
                0x0000000000000000       0x20 /media/data_nvme/git/uboot/u-boot/build/rk3568/release/bl31/cortex_a55.o
 .text.asm.check_errata_798797
                0x0000000000000000        0x8 /media/data_nvme/git/uboot/u-boot/build/rk3568/release/bl31/cortex_a55.o
 .text.asm.errata_a55_846532_wa
                0x0000000000000000       0x20 /media/data_nvme/git/uboot/u-boot/build/rk3568/release/bl31/cortex_a55.o
 .text.asm.check_errata_846532
                0x0000000000000000        0x8 /media/data_nvme/git/uboot/u-boot/build/rk3568/release/bl31/cortex_a55.o
 .text.asm.errata_a55_903758_wa
                0x0000000000000000       0x20 /media/data_nvme/git/uboot/u-boot/build/rk3568/release/bl31/cortex_a55.o
 .text.asm.check_errata_903758
                0x0000000000000000        0x8 /media/data_nvme/git/uboot/u-boot/build/rk3568/release/bl31/cortex_a55.o
 .text.asm.errata_a55_1221012_wa
                0x0000000000000000       0x6c /media/data_nvme/git/uboot/u-boot/build/rk3568/release/bl31/cortex_a55.o
 .text.asm.check_errata_1221012
                0x0000000000000000        0x8 /media/data_nvme/git/uboot/u-boot/build/rk3568/release/bl31/cortex_a55.o
 .text.asm.check_errata_1530923
                0x0000000000000000        0x8 /media/data_nvme/git/uboot/u-boot/build/rk3568/release/bl31/cortex_a55.o
 .rodata.cortex_a55_regs
                0x0000000000000000        0xe /media/data_nvme/git/uboot/u-boot/build/rk3568/release/bl31/cortex_a55.o
 .text.asm.cortex_a55_cpu_reg_dump
                0x0000000000000000        0xc /media/data_nvme/git/uboot/u-boot/build/rk3568/release/bl31/cortex_a55.o
 .text          0x0000000000000000        0x0 /media/data_nvme/git/uboot/u-boot/build/rk3568/release/bl31/cpu_helpers.o
 .data          0x0000000000000000        0x0 /media/data_nvme/git/uboot/u-boot/build/rk3568/release/bl31/cpu_helpers.o
 .bss           0x0000000000000000        0x0 /media/data_nvme/git/uboot/u-boot/build/rk3568/release/bl31/cpu_helpers.o
 .text.asm.cpu_rev_var_ls
                0x0000000000000000       0x14 /media/data_nvme/git/uboot/u-boot/build/rk3568/release/bl31/cpu_helpers.o
 .text.asm.cpu_rev_var_hs
                0x0000000000000000       0x14 /media/data_nvme/git/uboot/u-boot/build/rk3568/release/bl31/cpu_helpers.o
 .text.asm.cpu_rev_var_range
                0x0000000000000000       0x24 /media/data_nvme/git/uboot/u-boot/build/rk3568/release/bl31/cpu_helpers.o
 .text.asm.wa_cve_2018_3639_get_disable_ptr
                0x0000000000000000       0x10 /media/data_nvme/git/uboot/u-boot/build/rk3568/release/bl31/cpu_helpers.o
 .text          0x0000000000000000        0x0 /media/data_nvme/git/uboot/u-boot/build/rk3568/release/bl31/dsu_helpers.o
 .data          0x0000000000000000        0x0 /media/data_nvme/git/uboot/u-boot/build/rk3568/release/bl31/dsu_helpers.o
 .bss           0x0000000000000000        0x0 /media/data_nvme/git/uboot/u-boot/build/rk3568/release/bl31/dsu_helpers.o
 .text.asm.check_errata_dsu_798953
                0x0000000000000000       0x20 /media/data_nvme/git/uboot/u-boot/build/rk3568/release/bl31/dsu_helpers.o
 .text.asm.errata_dsu_798953_wa
                0x0000000000000000       0x20 /media/data_nvme/git/uboot/u-boot/build/rk3568/release/bl31/dsu_helpers.o
 .text.asm.is_scu_present_in_dsu
                0x0000000000000000        0x8 /media/data_nvme/git/uboot/u-boot/build/rk3568/release/bl31/dsu_helpers.o
 .text.asm.check_errata_dsu_936184
                0x0000000000000000       0x38 /media/data_nvme/git/uboot/u-boot/build/rk3568/release/bl31/dsu_helpers.o
 .text.asm.errata_dsu_936184_wa
                0x0000000000000000       0x30 /media/data_nvme/git/uboot/u-boot/build/rk3568/release/bl31/dsu_helpers.o
 .text.asm.check_errata_dsu_2313941
                0x0000000000000000       0x20 /media/data_nvme/git/uboot/u-boot/build/rk3568/release/bl31/dsu_helpers.o
 .text.asm.errata_dsu_2313941_wa
                0x0000000000000000       0x20 /media/data_nvme/git/uboot/u-boot/build/rk3568/release/bl31/dsu_helpers.o
 .debug_line    0x0000000000000000       0xfc /media/data_nvme/git/uboot/u-boot/build/rk3568/release/bl31/dsu_helpers.o
 .debug_info    0x0000000000000000       0x22 /media/data_nvme/git/uboot/u-boot/build/rk3568/release/bl31/dsu_helpers.o
 .debug_abbrev  0x0000000000000000       0x12 /media/data_nvme/git/uboot/u-boot/build/rk3568/release/bl31/dsu_helpers.o
 .debug_aranges
                0x0000000000000000       0x90 /media/data_nvme/git/uboot/u-boot/build/rk3568/release/bl31/dsu_helpers.o
 .debug_str     0x0000000000000000       0x4d /media/data_nvme/git/uboot/u-boot/build/rk3568/release/bl31/dsu_helpers.o
 .debug_ranges  0x0000000000000000       0x90 /media/data_nvme/git/uboot/u-boot/build/rk3568/release/bl31/dsu_helpers.o
 .debug_frame   0x0000000000000000       0xb8 /media/data_nvme/git/uboot/u-boot/build/rk3568/release/bl31/dsu_helpers.o
 .text          0x0000000000000000        0x0 /media/data_nvme/git/uboot/u-boot/build/rk3568/release/bl31/wa_cve_2017_5715_bpiall.o
 .data          0x0000000000000000        0x0 /media/data_nvme/git/uboot/u-boot/build/rk3568/release/bl31/wa_cve_2017_5715_bpiall.o
 .bss           0x0000000000000000        0x0 /media/data_nvme/git/uboot/u-boot/build/rk3568/release/bl31/wa_cve_2017_5715_bpiall.o
 .vectors       0x0000000000000000     0x1000 /media/data_nvme/git/uboot/u-boot/build/rk3568/release/bl31/wa_cve_2017_5715_bpiall.o
 .text.asm.bpiall_ret_sync_exception_aarch32_tail
                0x0000000000000000        0x8 /media/data_nvme/git/uboot/u-boot/build/rk3568/release/bl31/wa_cve_2017_5715_bpiall.o
 .debug_line    0x0000000000000000       0xe2 /media/data_nvme/git/uboot/u-boot/build/rk3568/release/bl31/wa_cve_2017_5715_bpiall.o
 .debug_info    0x0000000000000000       0x22 /media/data_nvme/git/uboot/u-boot/build/rk3568/release/bl31/wa_cve_2017_5715_bpiall.o
 .debug_abbrev  0x0000000000000000       0x12 /media/data_nvme/git/uboot/u-boot/build/rk3568/release/bl31/wa_cve_2017_5715_bpiall.o
 .debug_aranges
                0x0000000000000000       0x40 /media/data_nvme/git/uboot/u-boot/build/rk3568/release/bl31/wa_cve_2017_5715_bpiall.o
 .debug_str     0x0000000000000000       0x59 /media/data_nvme/git/uboot/u-boot/build/rk3568/release/bl31/wa_cve_2017_5715_bpiall.o
 .debug_ranges  0x0000000000000000       0x40 /media/data_nvme/git/uboot/u-boot/build/rk3568/release/bl31/wa_cve_2017_5715_bpiall.o
 .debug_frame   0x0000000000000000      0x328 /media/data_nvme/git/uboot/u-boot/build/rk3568/release/bl31/wa_cve_2017_5715_bpiall.o
 .text          0x0000000000000000        0x0 /media/data_nvme/git/uboot/u-boot/build/rk3568/release/bl31/wa_cve_2017_5715_mmu.o
 .data          0x0000000000000000        0x0 /media/data_nvme/git/uboot/u-boot/build/rk3568/release/bl31/wa_cve_2017_5715_mmu.o
 .bss           0x0000000000000000        0x0 /media/data_nvme/git/uboot/u-boot/build/rk3568/release/bl31/wa_cve_2017_5715_mmu.o
 .vectors       0x0000000000000000      0x800 /media/data_nvme/git/uboot/u-boot/build/rk3568/release/bl31/wa_cve_2017_5715_mmu.o
 .debug_line    0x0000000000000000       0x83 /media/data_nvme/git/uboot/u-boot/build/rk3568/release/bl31/wa_cve_2017_5715_mmu.o
 .debug_info    0x0000000000000000       0x28 /media/data_nvme/git/uboot/u-boot/build/rk3568/release/bl31/wa_cve_2017_5715_mmu.o
 .debug_abbrev  0x0000000000000000       0x14 /media/data_nvme/git/uboot/u-boot/build/rk3568/release/bl31/wa_cve_2017_5715_mmu.o
 .debug_aranges
                0x0000000000000000       0x30 /media/data_nvme/git/uboot/u-boot/build/rk3568/release/bl31/wa_cve_2017_5715_mmu.o
 .debug_str     0x0000000000000000       0x56 /media/data_nvme/git/uboot/u-boot/build/rk3568/release/bl31/wa_cve_2017_5715_mmu.o
 .debug_frame   0x0000000000000000      0x190 /media/data_nvme/git/uboot/u-boot/build/rk3568/release/bl31/wa_cve_2017_5715_mmu.o
 .text          0x0000000000000000        0x0 /media/data_nvme/git/uboot/u-boot/build/rk3568/release/bl31/context.o
 .data          0x0000000000000000        0x0 /media/data_nvme/git/uboot/u-boot/build/rk3568/release/bl31/context.o
 .bss           0x0000000000000000        0x0 /media/data_nvme/git/uboot/u-boot/build/rk3568/release/bl31/context.o
 .text.asm.el1_sysregs_context_save
                0x0000000000000000       0xac /media/data_nvme/git/uboot/u-boot/build/rk3568/release/bl31/context.o
 .text.asm.save_and_update_ptw_el1_sys_regs
                0x0000000000000000       0x34 /media/data_nvme/git/uboot/u-boot/build/rk3568/release/bl31/context.o
 .text          0x0000000000000000        0x0 /media/data_nvme/git/uboot/u-boot/build/rk3568/release/bl31/cpu_data.o
 .data          0x0000000000000000        0x0 /media/data_nvme/git/uboot/u-boot/build/rk3568/release/bl31/cpu_data.o
 .bss           0x0000000000000000        0x0 /media/data_nvme/git/uboot/u-boot/build/rk3568/release/bl31/cpu_data.o
 .text          0x0000000000000000        0x0 /media/data_nvme/git/uboot/u-boot/build/rk3568/release/bl31/spinlock.o
 .data          0x0000000000000000        0x0 /media/data_nvme/git/uboot/u-boot/build/rk3568/release/bl31/spinlock.o
 .bss           0x0000000000000000        0x0 /media/data_nvme/git/uboot/u-boot/build/rk3568/release/bl31/spinlock.o
 .text          0x0000000000000000        0x0 /media/data_nvme/git/uboot/u-boot/build/rk3568/release/bl31/psci_helpers.o
 .data          0x0000000000000000        0x0 /media/data_nvme/git/uboot/u-boot/build/rk3568/release/bl31/psci_helpers.o
 .bss           0x0000000000000000        0x0 /media/data_nvme/git/uboot/u-boot/build/rk3568/release/bl31/psci_helpers.o
 .text.asm.psci_do_pwrdown_cache_maintenance
                0x0000000000000000       0x3c /media/data_nvme/git/uboot/u-boot/build/rk3568/release/bl31/psci_helpers.o
 .text.asm.psci_do_pwrup_cache_maintenance
                0x0000000000000000       0x34 /media/data_nvme/git/uboot/u-boot/build/rk3568/release/bl31/psci_helpers.o
 .text          0x0000000000000000        0x0 /media/data_nvme/git/uboot/u-boot/build/rk3568/release/bl31/runtime_errata.o
 .data          0x0000000000000000        0x0 /media/data_nvme/git/uboot/u-boot/build/rk3568/release/bl31/runtime_errata.o
 .bss           0x0000000000000000        0x0 /media/data_nvme/git/uboot/u-boot/build/rk3568/release/bl31/runtime_errata.o
 .text.asm.apply_cpu_pwr_dwn_errata
                0x0000000000000000       0x10 /media/data_nvme/git/uboot/u-boot/build/rk3568/release/bl31/runtime_errata.o
 .debug_line    0x0000000000000000       0x59 /media/data_nvme/git/uboot/u-boot/build/rk3568/release/bl31/runtime_errata.o
 .debug_info    0x0000000000000000       0x27 /media/data_nvme/git/uboot/u-boot/build/rk3568/release/bl31/runtime_errata.o
 .debug_abbrev  0x0000000000000000       0x14 /media/data_nvme/git/uboot/u-boot/build/rk3568/release/bl31/runtime_errata.o
 .debug_aranges
                0x0000000000000000       0x30 /media/data_nvme/git/uboot/u-boot/build/rk3568/release/bl31/runtime_errata.o
 .debug_str     0x0000000000000000       0x50 /media/data_nvme/git/uboot/u-boot/build/rk3568/release/bl31/runtime_errata.o
 .debug_frame   0x0000000000000000       0x28 /media/data_nvme/git/uboot/u-boot/build/rk3568/release/bl31/runtime_errata.o
 .text          0x0000000000000000        0x0 /media/data_nvme/git/uboot/u-boot/build/rk3568/release/bl31/platform_mp_stack.o
 .data          0x0000000000000000        0x0 /media/data_nvme/git/uboot/u-boot/build/rk3568/release/bl31/platform_mp_stack.o
 .bss           0x0000000000000000        0x0 /media/data_nvme/git/uboot/u-boot/build/rk3568/release/bl31/platform_mp_stack.o
 .text          0x0000000000000000        0x0 /media/data_nvme/git/uboot/u-boot/build/rk3568/release/bl31/plat_helpers.o
 .bss           0x0000000000000000        0x0 /media/data_nvme/git/uboot/u-boot/build/rk3568/release/bl31/plat_helpers.o
 .text.asm.plat_secondary_cold_boot_setup
                0x0000000000000000        0x4 /media/data_nvme/git/uboot/u-boot/build/rk3568/release/bl31/plat_helpers.o
 .text.asm.plat_is_my_cpu_primary
                0x0000000000000000       0x14 /media/data_nvme/git/uboot/u-boot/build/rk3568/release/bl31/plat_helpers.o
 .text          0x0000000000000000        0x0 /media/data_nvme/git/uboot/u-boot/build/rk3568/release/bl31/cpus_on_fixed_addr.o
 .data          0x0000000000000000        0x0 /media/data_nvme/git/uboot/u-boot/build/rk3568/release/bl31/cpus_on_fixed_addr.o
 .bss           0x0000000000000000        0x0 /media/data_nvme/git/uboot/u-boot/build/rk3568/release/bl31/cpus_on_fixed_addr.o
 .eh_frame      0x0000000000000000       0x28 /media/data_nvme/git/uboot/u-boot/build/rk3568/release/bl31/cpus_on_fixed_addr.o
 .text          0x0000000000000000        0x0 /media/data_nvme/git/uboot/u-boot/build/rk3568/release/bl31/debug.o
 .data          0x0000000000000000        0x0 /media/data_nvme/git/uboot/u-boot/build/rk3568/release/bl31/debug.o
 .bss           0x0000000000000000        0x0 /media/data_nvme/git/uboot/u-boot/build/rk3568/release/bl31/debug.o
 .text          0x0000000000000000        0x0 /media/data_nvme/git/uboot/u-boot/build/rk3568/release/bl31/cache_helpers.o
 .data          0x0000000000000000        0x0 /media/data_nvme/git/uboot/u-boot/build/rk3568/release/bl31/cache_helpers.o
 .bss           0x0000000000000000        0x0 /media/data_nvme/git/uboot/u-boot/build/rk3568/release/bl31/cache_helpers.o
 .text.asm.flush_dcache_to_popa_range
                0x0000000000000000       0x38 /media/data_nvme/git/uboot/u-boot/build/rk3568/release/bl31/cache_helpers.o
 .text.asm.do_dcsw_op
                0x0000000000000000       0xfc /media/data_nvme/git/uboot/u-boot/build/rk3568/release/bl31/cache_helpers.o
 .text.asm.dcsw_op_louis
                0x0000000000000000       0x14 /media/data_nvme/git/uboot/u-boot/build/rk3568/release/bl31/cache_helpers.o
 .text.asm.dcsw_op_all
                0x0000000000000000       0x14 /media/data_nvme/git/uboot/u-boot/build/rk3568/release/bl31/cache_helpers.o
 .text.asm.dcsw_op_level1
                0x0000000000000000       0x10 /media/data_nvme/git/uboot/u-boot/build/rk3568/release/bl31/cache_helpers.o
 .text.asm.dcsw_op_level2
                0x0000000000000000       0x10 /media/data_nvme/git/uboot/u-boot/build/rk3568/release/bl31/cache_helpers.o
 .text.asm.dcsw_op_level3
                0x0000000000000000       0x10 /media/data_nvme/git/uboot/u-boot/build/rk3568/release/bl31/cache_helpers.o
 .text          0x0000000000000000        0x0 /media/data_nvme/git/uboot/u-boot/build/rk3568/release/bl31/misc_helpers.o
 .data          0x0000000000000000        0x0 /media/data_nvme/git/uboot/u-boot/build/rk3568/release/bl31/misc_helpers.o
 .bss           0x0000000000000000        0x0 /media/data_nvme/git/uboot/u-boot/build/rk3568/release/bl31/misc_helpers.o
 .text.asm.smc  0x0000000000000000        0x4 /media/data_nvme/git/uboot/u-boot/build/rk3568/release/bl31/misc_helpers.o
 .text.asm.memcpy16
                0x0000000000000000       0x30 /media/data_nvme/git/uboot/u-boot/build/rk3568/release/bl31/misc_helpers.o
 .text.asm.disable_mmu_el3
                0x0000000000000000       0x1c /media/data_nvme/git/uboot/u-boot/build/rk3568/release/bl31/misc_helpers.o
 .text.asm.disable_mmu_icache_el3
                0x0000000000000000        0x8 /media/data_nvme/git/uboot/u-boot/build/rk3568/release/bl31/misc_helpers.o
 .text.asm.disable_mmu_el1
                0x0000000000000000       0x1c /media/data_nvme/git/uboot/u-boot/build/rk3568/release/bl31/misc_helpers.o
 .text.asm.disable_mmu_icache_el1
                0x0000000000000000        0x8 /media/data_nvme/git/uboot/u-boot/build/rk3568/release/bl31/misc_helpers.o
 .text.asm.fixup_gdt_reloc
                0x0000000000000000       0x98 /media/data_nvme/git/uboot/u-boot/build/rk3568/release/bl31/misc_helpers.o
 .text.asm.gpt_tlbi_by_pa_ll
                0x0000000000000000       0x10 /media/data_nvme/git/uboot/u-boot/build/rk3568/release/bl31/misc_helpers.o
 .text          0x0000000000000000        0x0 /media/data_nvme/git/uboot/u-boot/build/rk3568/release/bl31/platform_helpers.o
 .data          0x0000000000000000        0x0 /media/data_nvme/git/uboot/u-boot/build/rk3568/release/bl31/platform_helpers.o
 .bss           0x0000000000000000        0x0 /media/data_nvme/git/uboot/u-boot/build/rk3568/release/bl31/platform_helpers.o
 .text.asm.plat_report_exception
                0x0000000000000000        0x4 /media/data_nvme/git/uboot/u-boot/build/rk3568/release/bl31/platform_helpers.o
 .text.asm.plat_reset_handler
                0x0000000000000000        0x4 /media/data_nvme/git/uboot/u-boot/build/rk3568/release/bl31/platform_helpers.o
 .text.asm.plat_disable_acp
                0x0000000000000000        0x4 /media/data_nvme/git/uboot/u-boot/build/rk3568/release/bl31/platform_helpers.o
 .text.asm.bl1_plat_prepare_exit
                0x0000000000000000        0x4 /media/data_nvme/git/uboot/u-boot/build/rk3568/release/bl31/platform_helpers.o
 .text.asm.plat_panic_handler
                0x0000000000000000        0x8 /media/data_nvme/git/uboot/u-boot/build/rk3568/release/bl31/platform_helpers.o
 .text.asm.bl32_plat_enable_mmu
                0x0000000000000000        0x4 /media/data_nvme/git/uboot/u-boot/build/rk3568/release/bl31/platform_helpers.o
 .text.asm.plat_handle_uncontainable_ea
                0x0000000000000000        0x4 /media/data_nvme/git/uboot/u-boot/build/rk3568/release/bl31/platform_helpers.o
 .text          0x0000000000000000        0x0 /media/data_nvme/git/uboot/u-boot/build/rk3568/release/bl31/enable_mmu.o
 .data          0x0000000000000000        0x0 /media/data_nvme/git/uboot/u-boot/build/rk3568/release/bl31/enable_mmu.o
 .bss           0x0000000000000000        0x0 /media/data_nvme/git/uboot/u-boot/build/rk3568/release/bl31/enable_mmu.o
 .text.asm.enable_mmu_direct_el1
                0x0000000000000000       0x58 /media/data_nvme/git/uboot/u-boot/build/rk3568/release/bl31/enable_mmu.o
 .text.asm.enable_mmu_direct_el2
                0x0000000000000000       0x58 /media/data_nvme/git/uboot/u-boot/build/rk3568/release/bl31/enable_mmu.o
 .text          0x0000000000000000        0x0 /media/data_nvme/git/uboot/u-boot/build/rk3568/release/bl31/crash_console_helpers.o
 .data          0x0000000000000000        0x0 /media/data_nvme/git/uboot/u-boot/build/rk3568/release/bl31/crash_console_helpers.o
 .bss           0x0000000000000000        0x0 /media/data_nvme/git/uboot/u-boot/build/rk3568/release/bl31/crash_console_helpers.o
 .text          0x0000000000000000        0x0 /media/data_nvme/git/uboot/u-boot/build/rk3568/release/lib/libc.a(memchr.o)
 .data          0x0000000000000000        0x0 /media/data_nvme/git/uboot/u-boot/build/rk3568/release/lib/libc.a(memchr.o)
 .bss           0x0000000000000000        0x0 /media/data_nvme/git/uboot/u-boot/build/rk3568/release/lib/libc.a(memchr.o)
 .eh_frame      0x0000000000000000       0x28 /media/data_nvme/git/uboot/u-boot/build/rk3568/release/lib/libc.a(memchr.o)
 .text          0x0000000000000000        0x0 /media/data_nvme/git/uboot/u-boot/build/rk3568/release/lib/libc.a(memcmp.o)
 .data          0x0000000000000000        0x0 /media/data_nvme/git/uboot/u-boot/build/rk3568/release/lib/libc.a(memcmp.o)
 .bss           0x0000000000000000        0x0 /media/data_nvme/git/uboot/u-boot/build/rk3568/release/lib/libc.a(memcmp.o)
 .eh_frame      0x0000000000000000       0x28 /media/data_nvme/git/uboot/u-boot/build/rk3568/release/lib/libc.a(memcmp.o)
 .text          0x0000000000000000        0x0 /media/data_nvme/git/uboot/u-boot/build/rk3568/release/lib/libc.a(memcpy.o)
 .data          0x0000000000000000        0x0 /media/data_nvme/git/uboot/u-boot/build/rk3568/release/lib/libc.a(memcpy.o)
 .bss           0x0000000000000000        0x0 /media/data_nvme/git/uboot/u-boot/build/rk3568/release/lib/libc.a(memcpy.o)
 .eh_frame      0x0000000000000000       0x28 /media/data_nvme/git/uboot/u-boot/build/rk3568/release/lib/libc.a(memcpy.o)
 .text          0x0000000000000000        0x0 /media/data_nvme/git/uboot/u-boot/build/rk3568/release/lib/libc.a(memmove.o)
 .data          0x0000000000000000        0x0 /media/data_nvme/git/uboot/u-boot/build/rk3568/release/lib/libc.a(memmove.o)
 .bss           0x0000000000000000        0x0 /media/data_nvme/git/uboot/u-boot/build/rk3568/release/lib/libc.a(memmove.o)
 .eh_frame      0x0000000000000000       0x28 /media/data_nvme/git/uboot/u-boot/build/rk3568/release/lib/libc.a(memmove.o)
 .text          0x0000000000000000        0x0 /media/data_nvme/git/uboot/u-boot/build/rk3568/release/lib/libc.a(memset.o)
 .data          0x0000000000000000        0x0 /media/data_nvme/git/uboot/u-boot/build/rk3568/release/lib/libc.a(memset.o)
 .bss           0x0000000000000000        0x0 /media/data_nvme/git/uboot/u-boot/build/rk3568/release/lib/libc.a(memset.o)
 .eh_frame      0x0000000000000000       0x28 /media/data_nvme/git/uboot/u-boot/build/rk3568/release/lib/libc.a(memset.o)
 .text          0x0000000000000000        0x0 /media/data_nvme/git/uboot/u-boot/build/rk3568/release/lib/libc.a(printf.o)
 .data          0x0000000000000000        0x0 /media/data_nvme/git/uboot/u-boot/build/rk3568/release/lib/libc.a(printf.o)
 .bss           0x0000000000000000        0x0 /media/data_nvme/git/uboot/u-boot/build/rk3568/release/lib/libc.a(printf.o)
 .text.printf   0x0000000000000000       0x54 /media/data_nvme/git/uboot/u-boot/build/rk3568/release/lib/libc.a(printf.o)
 .eh_frame      0x0000000000000000       0xb0 /media/data_nvme/git/uboot/u-boot/build/rk3568/release/lib/libc.a(printf.o)
 .text          0x0000000000000000        0x0 /media/data_nvme/git/uboot/u-boot/build/rk3568/release/lib/libc.a(strchr.o)
 .data          0x0000000000000000        0x0 /media/data_nvme/git/uboot/u-boot/build/rk3568/release/lib/libc.a(strchr.o)
 .bss           0x0000000000000000        0x0 /media/data_nvme/git/uboot/u-boot/build/rk3568/release/lib/libc.a(strchr.o)
 .eh_frame      0x0000000000000000       0x28 /media/data_nvme/git/uboot/u-boot/build/rk3568/release/lib/libc.a(strchr.o)
 .text          0x0000000000000000        0x0 /media/data_nvme/git/uboot/u-boot/build/rk3568/release/lib/libc.a(strlen.o)
 .data          0x0000000000000000        0x0 /media/data_nvme/git/uboot/u-boot/build/rk3568/release/lib/libc.a(strlen.o)
 .bss           0x0000000000000000        0x0 /media/data_nvme/git/uboot/u-boot/build/rk3568/release/lib/libc.a(strlen.o)
 .eh_frame      0x0000000000000000       0x28 /media/data_nvme/git/uboot/u-boot/build/rk3568/release/lib/libc.a(strlen.o)
 .text          0x0000000000000000        0x0 /media/data_nvme/git/uboot/u-boot/build/rk3568/release/lib/libc.a(strncmp.o)
 .data          0x0000000000000000        0x0 /media/data_nvme/git/uboot/u-boot/build/rk3568/release/lib/libc.a(strncmp.o)
 .bss           0x0000000000000000        0x0 /media/data_nvme/git/uboot/u-boot/build/rk3568/release/lib/libc.a(strncmp.o)
 .eh_frame      0x0000000000000000       0x28 /media/data_nvme/git/uboot/u-boot/build/rk3568/release/lib/libc.a(strncmp.o)
 .text          0x0000000000000000        0x0 /media/data_nvme/git/uboot/u-boot/build/rk3568/release/lib/libc.a(strnlen.o)
 .data          0x0000000000000000        0x0 /media/data_nvme/git/uboot/u-boot/build/rk3568/release/lib/libc.a(strnlen.o)
 .bss           0x0000000000000000        0x0 /media/data_nvme/git/uboot/u-boot/build/rk3568/release/lib/libc.a(strnlen.o)
 .text.strnlen  0x0000000000000000       0x24 /media/data_nvme/git/uboot/u-boot/build/rk3568/release/lib/libc.a(strnlen.o)
 .debug_info    0x0000000000000000       0xad /media/data_nvme/git/uboot/u-boot/build/rk3568/release/lib/libc.a(strnlen.o)
 .debug_abbrev  0x0000000000000000       0x95 /media/data_nvme/git/uboot/u-boot/build/rk3568/release/lib/libc.a(strnlen.o)
 .debug_loc     0x0000000000000000       0x7a /media/data_nvme/git/uboot/u-boot/build/rk3568/release/lib/libc.a(strnlen.o)
 .debug_aranges
                0x0000000000000000       0x30 /media/data_nvme/git/uboot/u-boot/build/rk3568/release/lib/libc.a(strnlen.o)
 .debug_ranges  0x0000000000000000       0x20 /media/data_nvme/git/uboot/u-boot/build/rk3568/release/lib/libc.a(strnlen.o)
 .debug_line    0x0000000000000000       0xa9 /media/data_nvme/git/uboot/u-boot/build/rk3568/release/lib/libc.a(strnlen.o)
 .debug_str     0x0000000000000000      0x183 /media/data_nvme/git/uboot/u-boot/build/rk3568/release/lib/libc.a(strnlen.o)
 .comment       0x0000000000000000       0x2c /media/data_nvme/git/uboot/u-boot/build/rk3568/release/lib/libc.a(strnlen.o)
 .note.GNU-stack
                0x0000000000000000        0x0 /media/data_nvme/git/uboot/u-boot/build/rk3568/release/lib/libc.a(strnlen.o)
 .eh_frame      0x0000000000000000       0x28 /media/data_nvme/git/uboot/u-boot/build/rk3568/release/lib/libc.a(strnlen.o)
 .text          0x0000000000000000        0x0 /media/data_nvme/git/uboot/u-boot/build/rk3568/release/lib/libc.a(strrchr.o)
 .data          0x0000000000000000        0x0 /media/data_nvme/git/uboot/u-boot/build/rk3568/release/lib/libc.a(strrchr.o)
 .bss           0x0000000000000000        0x0 /media/data_nvme/git/uboot/u-boot/build/rk3568/release/lib/libc.a(strrchr.o)
 .eh_frame      0x0000000000000000       0x28 /media/data_nvme/git/uboot/u-boot/build/rk3568/release/lib/libc.a(strrchr.o)

Memory Configuration

Name             Origin             Length             Attributes
RAM              0x0000000000040000 0x00000000000c0000 xrw
PMUSRAM          0x00000000fdcd0000 0x0000000000002000 xrw
*default*        0x0000000000000000 0xffffffffffffffff

Linker script and memory map

                0x00000000fdcd0000                . = 0xfdcd0000

.pmusram        0x00000000fdcd0000       0x70
                0x0000000000000001                ASSERT ((. == ALIGN (0x10000)), .pmusram.entry request 64K aligned.)
 *(SORT_BY_ALIGNMENT(.pmusram.entry))
 .pmusram.entry
                0x00000000fdcd0000       0x48 /media/data_nvme/git/uboot/u-boot/build/rk3568/release/bl31/cpus_on_fixed_addr.o
                0x00000000fdcd0000                pmu_cpuson_entrypoint
                0x00000000fdcd0048                __bl31_pmusram_text_start = .
 *(SORT_BY_ALIGNMENT(.pmusram.text))
 *(SORT_BY_ALIGNMENT(.pmusram.rodata))
                0x00000000fdcd0048                __bl31_pmusram_text_end = .
                0x00000000fdcd0048                __bl31_pmusram_data_start = .
 *(SORT_BY_ALIGNMENT(.pmusram.data))
 .pmusram.data  0x00000000fdcd0048       0x28 /media/data_nvme/git/uboot/u-boot/build/rk3568/release/bl31/cpus_on_fixed_addr.o
                0x00000000fdcd0048                sys_sleep_flag_sram
                0x00000000fdcd0070                __bl31_pmusram_data_end = .
                0x0000000000040000                RAM_REGION_START = ORIGIN (RAM)
                0x00000000000c0000                RAM_REGION_LENGTH = LENGTH (RAM)

.iplt           0x00000000fdcd0070        0x0
 .iplt          0x00000000fdcd0070        0x0 /media/data_nvme/git/uboot/u-boot/build/rk3568/release/bl31/bl31_context_mgmt.o
                0x0000000000040000                . = 0x40000
                0x0000000000000001                ASSERT ((. == ALIGN (0x1000)), BL31_BASE address is not aligned on a page boundary.)
                0x0000000000040000                __BL31_START__ = .

.ro             0x0000000000040000    0x18000
                0x0000000000040000                __RO_START__ = .
 *bl31_entrypoint.o(SORT_BY_ALIGNMENT(.text*))
 .text.asm.bl31_entrypoint
                0x0000000000040000       0xfc /media/data_nvme/git/uboot/u-boot/build/rk3568/release/bl31/bl31_entrypoint.o
                0x0000000000040000                bl31_entrypoint
 .text.asm.bl31_warm_entrypoint
                0x00000000000400fc       0x80 /media/data_nvme/git/uboot/u-boot/build/rk3568/release/bl31/bl31_entrypoint.o
                0x00000000000400fc                bl31_warm_entrypoint
 *(SORT_BY_ALIGNMENT(.text*))
 *fill*         0x000000000004017c     0xfe84 
 .text.asm.platform_cpu_warmboot
                0x0000000000050000       0x48 /media/data_nvme/git/uboot/u-boot/build/rk3568/release/bl31/plat_helpers.o
                0x0000000000050000                platform_cpu_warmboot
 .text.cm_get_context
                0x0000000000050048       0x14 /media/data_nvme/git/uboot/u-boot/build/rk3568/release/bl31/bl31_context_mgmt.o
                0x0000000000050048                cm_get_context
 .text.cm_get_context_by_index
                0x000000000005005c       0x2c /media/data_nvme/git/uboot/u-boot/build/rk3568/release/bl31/bl31_context_mgmt.o
                0x000000000005005c                cm_get_context_by_index
 .text.cm_set_context_by_index
                0x0000000000050088       0x30 /media/data_nvme/git/uboot/u-boot/build/rk3568/release/bl31/bl31_context_mgmt.o
                0x0000000000050088                cm_set_context_by_index
 .text.get_arm_std_svc_args
                0x00000000000500b8        0xc /media/data_nvme/git/uboot/u-boot/build/rk3568/release/bl31/bl31_main.o
                0x00000000000500b8                get_arm_std_svc_args
 .text.bl31_setup
                0x00000000000500c4       0x14 /media/data_nvme/git/uboot/u-boot/build/rk3568/release/bl31/bl31_main.o
                0x00000000000500c4                bl31_setup
 .text.bl31_prepare_next_image_entry
                0x00000000000500d8       0x74 /media/data_nvme/git/uboot/u-boot/build/rk3568/release/bl31/bl31_main.o
                0x00000000000500d8                bl31_prepare_next_image_entry
 .text.bl31_main
                0x000000000005014c       0x68 /media/data_nvme/git/uboot/u-boot/build/rk3568/release/bl31/bl31_main.o
                0x000000000005014c                bl31_main
 .text.handle_sysreg_trap
                0x00000000000501b4        0x8 /media/data_nvme/git/uboot/u-boot/build/rk3568/release/bl31/bl31_traps.o
                0x00000000000501b4                handle_sysreg_trap
 .text.get_scr_el3_from_routing_model
                0x00000000000501bc       0x30 /media/data_nvme/git/uboot/u-boot/build/rk3568/release/bl31/interrupt_mgmt.o
                0x00000000000501bc                get_scr_el3_from_routing_model
 .text.get_interrupt_type_handler
                0x00000000000501ec       0x24 /media/data_nvme/git/uboot/u-boot/build/rk3568/release/bl31/interrupt_mgmt.o
                0x00000000000501ec                get_interrupt_type_handler
 .text.runtime_svc_init
                0x0000000000050210      0x130 /media/data_nvme/git/uboot/u-boot/build/rk3568/release/bl31/runtime_svc.o
                0x0000000000050210                runtime_svc_init
 .text.gicr_wait_group_not_in_transit
                0x0000000000050340       0x14 /media/data_nvme/git/uboot/u-boot/build/rk3568/release/bl31/gic-x00.o
 .text.gicv3_redists_need_power_mgmt
                0x0000000000050354       0x38 /media/data_nvme/git/uboot/u-boot/build/rk3568/release/bl31/gic-x00.o
 .text.gicv3_rdistif_on
                0x000000000005038c       0x44 /media/data_nvme/git/uboot/u-boot/build/rk3568/release/bl31/gic-x00.o
                0x000000000005038c                gicv3_rdistif_on
 .text.gicv3_apply_errata_wa_2384374
                0x00000000000503d0       0x24 /media/data_nvme/git/uboot/u-boot/build/rk3568/release/bl31/gic-x00.o
                0x00000000000503d0                gicv3_apply_errata_wa_2384374
 .text.gicv3_check_erratas_applies
                0x00000000000503f4       0x54 /media/data_nvme/git/uboot/u-boot/build/rk3568/release/bl31/gic-x00.o
                0x00000000000503f4                gicv3_check_erratas_applies
 .text.gicd_set_icfgr
                0x0000000000050448       0x34 /media/data_nvme/git/uboot/u-boot/build/rk3568/release/bl31/gicdv3_helpers.o
                0x0000000000050448                gicd_set_icfgr
 .text.gicd_clr_igroupr
                0x000000000005047c       0x24 /media/data_nvme/git/uboot/u-boot/build/rk3568/release/bl31/gicdv3_helpers.o
                0x000000000005047c                gicd_clr_igroupr
 .text.gicd_set_igrpmodr
                0x00000000000504a0       0x24 /media/data_nvme/git/uboot/u-boot/build/rk3568/release/bl31/gicdv3_helpers.o
                0x00000000000504a0                gicd_set_igrpmodr
 .text.gicd_clr_igrpmodr
                0x00000000000504c4       0x24 /media/data_nvme/git/uboot/u-boot/build/rk3568/release/bl31/gicdv3_helpers.o
                0x00000000000504c4                gicd_clr_igrpmodr
 .text.gicd_set_isenabler
                0x00000000000504e8       0x1c /media/data_nvme/git/uboot/u-boot/build/rk3568/release/bl31/gicdv3_helpers.o
                0x00000000000504e8                gicd_set_isenabler
 .text.gicd_set_ipriorityr
                0x0000000000050504       0x14 /media/data_nvme/git/uboot/u-boot/build/rk3568/release/bl31/gicdv3_helpers.o
                0x0000000000050504                gicd_set_ipriorityr
 .text.gicd_write_icfgr
                0x0000000000050518       0x14 /media/data_nvme/git/uboot/u-boot/build/rk3568/release/bl31/gicdv3_helpers.o
                0x0000000000050518                gicd_write_icfgr
 .text.gicd_write_igroupr
                0x000000000005052c       0x14 /media/data_nvme/git/uboot/u-boot/build/rk3568/release/bl31/gicdv3_helpers.o
                0x000000000005052c                gicd_write_igroupr
 .text.gicd_write_ipriorityr
                0x0000000000050540       0x10 /media/data_nvme/git/uboot/u-boot/build/rk3568/release/bl31/gicdv3_helpers.o
                0x0000000000050540                gicd_write_ipriorityr
 .text.gicr_write_ipriorityr
                0x0000000000050550       0x14 /media/data_nvme/git/uboot/u-boot/build/rk3568/release/bl31/gicrv3_helpers.o
                0x0000000000050550                gicr_write_ipriorityr
 .text.gicr_set_ipriorityr
                0x0000000000050564       0x18 /media/data_nvme/git/uboot/u-boot/build/rk3568/release/bl31/gicrv3_helpers.o
                0x0000000000050564                gicr_set_ipriorityr
 .text.gicr_clr_igroupr
                0x000000000005057c       0x28 /media/data_nvme/git/uboot/u-boot/build/rk3568/release/bl31/gicrv3_helpers.o
                0x000000000005057c                gicr_clr_igroupr
 .text.gicr_set_igrpmodr
                0x00000000000505a4       0x28 /media/data_nvme/git/uboot/u-boot/build/rk3568/release/bl31/gicrv3_helpers.o
                0x00000000000505a4                gicr_set_igrpmodr
 .text.gicr_clr_igrpmodr
                0x00000000000505cc       0x28 /media/data_nvme/git/uboot/u-boot/build/rk3568/release/bl31/gicrv3_helpers.o
                0x00000000000505cc                gicr_clr_igrpmodr
 .text.gicr_set_isenabler
                0x00000000000505f4       0x20 /media/data_nvme/git/uboot/u-boot/build/rk3568/release/bl31/gicrv3_helpers.o
                0x00000000000505f4                gicr_set_isenabler
 .text.gicr_set_icfgr
                0x0000000000050614       0x38 /media/data_nvme/git/uboot/u-boot/build/rk3568/release/bl31/gicrv3_helpers.o
                0x0000000000050614                gicr_set_icfgr
 .text.gicv3_rdistif_mark_core_awake
                0x000000000005064c       0x1c /media/data_nvme/git/uboot/u-boot/build/rk3568/release/bl31/gicv3_helpers.o
                0x000000000005064c                gicv3_rdistif_mark_core_awake
 .text.gicv3_rdistif_mark_core_asleep
                0x0000000000050668       0x1c /media/data_nvme/git/uboot/u-boot/build/rk3568/release/bl31/gicv3_helpers.o
                0x0000000000050668                gicv3_rdistif_mark_core_asleep
 .text.gicv3_rdistif_base_addrs_probe
                0x0000000000050684       0x6c /media/data_nvme/git/uboot/u-boot/build/rk3568/release/bl31/gicv3_helpers.o
                0x0000000000050684                gicv3_rdistif_base_addrs_probe
 .text.gicv3_get_spi_limit
                0x00000000000506f0       0x1c /media/data_nvme/git/uboot/u-boot/build/rk3568/release/bl31/gicv3_helpers.o
                0x00000000000506f0                gicv3_get_spi_limit
 .text.gicv3_spis_config_defaults
                0x000000000005070c       0x98 /media/data_nvme/git/uboot/u-boot/build/rk3568/release/bl31/gicv3_helpers.o
                0x000000000005070c                gicv3_spis_config_defaults
 .text.gicv3_secure_spis_config_props
                0x00000000000507a4       0xf0 /media/data_nvme/git/uboot/u-boot/build/rk3568/release/bl31/gicv3_helpers.o
                0x00000000000507a4                gicv3_secure_spis_config_props
 .text.gicv3_ppi_sgi_config_defaults
                0x0000000000050894       0x70 /media/data_nvme/git/uboot/u-boot/build/rk3568/release/bl31/gicv3_helpers.o
                0x0000000000050894                gicv3_ppi_sgi_config_defaults
 .text.gicv3_secure_ppi_sgi_config_props
                0x0000000000050904       0xcc /media/data_nvme/git/uboot/u-boot/build/rk3568/release/bl31/gicv3_helpers.o
                0x0000000000050904                gicv3_secure_ppi_sgi_config_props
 .text.gicv3_get_component_prodid_rev
                0x00000000000509d0       0x18 /media/data_nvme/git/uboot/u-boot/build/rk3568/release/bl31/gicv3_helpers.o
                0x00000000000509d0                gicv3_get_component_prodid_rev
 .text.gicd_wait_for_pending_write
                0x00000000000509e8        0xc /media/data_nvme/git/uboot/u-boot/build/rk3568/release/bl31/gicv3_main.o
 .text.gicv3_driver_init
                0x00000000000509f4       0x4c /media/data_nvme/git/uboot/u-boot/build/rk3568/release/bl31/gicv3_main.o
                0x00000000000509f4                gicv3_driver_init
 .text.gicv3_distif_init
                0x0000000000050a40       0x84 /media/data_nvme/git/uboot/u-boot/build/rk3568/release/bl31/gicv3_main.o
                0x0000000000050a40                gicv3_distif_init
 .text.gicv3_rdistif_init
                0x0000000000050ac4       0x90 /media/data_nvme/git/uboot/u-boot/build/rk3568/release/bl31/gicv3_main.o
                0x0000000000050ac4                gicv3_rdistif_init
 .text.gicv3_cpuif_enable
                0x0000000000050b54       0x90 /media/data_nvme/git/uboot/u-boot/build/rk3568/release/bl31/gicv3_main.o
                0x0000000000050b54                gicv3_cpuif_enable
 .text.gicv3_cpuif_disable
                0x0000000000050be4       0x60 /media/data_nvme/git/uboot/u-boot/build/rk3568/release/bl31/gicv3_main.o
                0x0000000000050be4                gicv3_cpuif_disable
 .text.gicv3_get_pending_interrupt_type
                0x0000000000050c44        0xc /media/data_nvme/git/uboot/u-boot/build/rk3568/release/bl31/gicv3_main.o
                0x0000000000050c44                gicv3_get_pending_interrupt_type
 .text.timer_init
                0x0000000000050c50        0xc /media/data_nvme/git/uboot/u-boot/build/rk3568/release/bl31/delay_timer.o
                0x0000000000050c50                timer_init
 .text.get_timer_value
                0x0000000000050c5c        0xc /media/data_nvme/git/uboot/u-boot/build/rk3568/release/bl31/generic_delay_timer.o
 .text.generic_delay_timer_init_args
                0x0000000000050c68       0x20 /media/data_nvme/git/uboot/u-boot/build/rk3568/release/bl31/generic_delay_timer.o
                0x0000000000050c68                generic_delay_timer_init_args
 .text.generic_delay_timer_init
                0x0000000000050c88       0x44 /media/data_nvme/git/uboot/u-boot/build/rk3568/release/bl31/generic_delay_timer.o
                0x0000000000050c88                generic_delay_timer_init
 .text.print_errata_status
                0x0000000000050ccc        0x4 /media/data_nvme/git/uboot/u-boot/build/rk3568/release/bl31/errata_report.o
                0x0000000000050ccc                print_errata_status
 .text.cm_init  0x0000000000050cd0        0x4 /media/data_nvme/git/uboot/u-boot/build/rk3568/release/bl31/context_mgmt.o
                0x0000000000050cd0                cm_init
 .text.cm_setup_context
                0x0000000000050cd4      0x184 /media/data_nvme/git/uboot/u-boot/build/rk3568/release/bl31/context_mgmt.o
                0x0000000000050cd4                cm_setup_context
 .text.cm_manage_extensions_el3
                0x0000000000050e58        0x4 /media/data_nvme/git/uboot/u-boot/build/rk3568/release/bl31/context_mgmt.o
                0x0000000000050e58                cm_manage_extensions_el3
 .text.cm_init_context_by_index
                0x0000000000050e5c       0x30 /media/data_nvme/git/uboot/u-boot/build/rk3568/release/bl31/context_mgmt.o
                0x0000000000050e5c                cm_init_context_by_index
 .text.cm_init_my_context
                0x0000000000050e8c       0x30 /media/data_nvme/git/uboot/u-boot/build/rk3568/release/bl31/context_mgmt.o
                0x0000000000050e8c                cm_init_my_context
 .text.cm_el1_sysregs_context_restore
                0x0000000000050ebc       0x7c /media/data_nvme/git/uboot/u-boot/build/rk3568/release/bl31/context_mgmt.o
                0x0000000000050ebc                cm_el1_sysregs_context_restore
 .text.cm_set_next_eret_context
                0x0000000000050f38       0x20 /media/data_nvme/git/uboot/u-boot/build/rk3568/release/bl31/context_mgmt.o
                0x0000000000050f38                cm_set_next_eret_context
 .text.cm_prepare_el3_exit
                0x0000000000050f58       0xe4 /media/data_nvme/git/uboot/u-boot/build/rk3568/release/bl31/context_mgmt.o
                0x0000000000050f58                cm_prepare_el3_exit
 .text.cm_prepare_el3_exit_ns
                0x000000000005103c        0x8 /media/data_nvme/git/uboot/u-boot/build/rk3568/release/bl31/context_mgmt.o
                0x000000000005103c                cm_prepare_el3_exit_ns
 .text.spe_drain_buffers_hook
                0x0000000000051044       0x24 /media/data_nvme/git/uboot/u-boot/build/rk3568/release/bl31/spe.o
 .text.spe_enable
                0x0000000000051068       0x34 /media/data_nvme/git/uboot/u-boot/build/rk3568/release/bl31/spe.o
                0x0000000000051068                spe_enable
 .text.sve_enable
                0x000000000005109c       0x20 /media/data_nvme/git/uboot/u-boot/build/rk3568/release/bl31/sve.o
                0x000000000005109c                sve_enable
 .text.sve_disable
                0x00000000000510bc       0x18 /media/data_nvme/git/uboot/u-boot/build/rk3568/release/bl31/sve.o
                0x00000000000510bc                sve_disable
 .text.fdt32_ld
                0x00000000000510d4       0x24 /media/data_nvme/git/uboot/u-boot/build/rk3568/release/bl31/fdt.o
 .text.fdt_ro_probe_
                0x00000000000510f8       0xac /media/data_nvme/git/uboot/u-boot/build/rk3568/release/bl31/fdt.o
                0x00000000000510f8                fdt_ro_probe_
 .text.fdt_offset_ptr
                0x00000000000511a4       0x88 /media/data_nvme/git/uboot/u-boot/build/rk3568/release/bl31/fdt.o
                0x00000000000511a4                fdt_offset_ptr
 .text.fdt_next_tag
                0x000000000005122c      0x144 /media/data_nvme/git/uboot/u-boot/build/rk3568/release/bl31/fdt.o
                0x000000000005122c                fdt_next_tag
 .text.fdt_check_node_offset_
                0x0000000000051370       0x40 /media/data_nvme/git/uboot/u-boot/build/rk3568/release/bl31/fdt.o
                0x0000000000051370                fdt_check_node_offset_
 .text.fdt_check_prop_offset_
                0x00000000000513b0       0x40 /media/data_nvme/git/uboot/u-boot/build/rk3568/release/bl31/fdt.o
                0x00000000000513b0                fdt_check_prop_offset_
 .text.fdt_next_node
                0x00000000000513f0       0xb0 /media/data_nvme/git/uboot/u-boot/build/rk3568/release/bl31/fdt.o
                0x00000000000513f0                fdt_next_node
 .text.fdt_move
                0x00000000000514a0       0x5c /media/data_nvme/git/uboot/u-boot/build/rk3568/release/bl31/fdt.o
                0x00000000000514a0                fdt_move
 .text.fdt32_ld
                0x00000000000514fc       0x24 /media/data_nvme/git/uboot/u-boot/build/rk3568/release/bl31/fdt_ro.o
 .text.fdt_mem_rsv
                0x0000000000051520       0x58 /media/data_nvme/git/uboot/u-boot/build/rk3568/release/bl31/fdt_ro.o
 .text.nextprop_
                0x0000000000051578       0x64 /media/data_nvme/git/uboot/u-boot/build/rk3568/release/bl31/fdt_ro.o
 .text.fdt64_ld_.isra.0
                0x00000000000515dc        0x8 /media/data_nvme/git/uboot/u-boot/build/rk3568/release/bl31/fdt_ro.o
 .text.fdt32_ld_.isra.0
                0x00000000000515e4        0x8 /media/data_nvme/git/uboot/u-boot/build/rk3568/release/bl31/fdt_ro.o
 .text.fdt_get_property_by_offset_
                0x00000000000515ec       0x68 /media/data_nvme/git/uboot/u-boot/build/rk3568/release/bl31/fdt_ro.o
 .text.fdt_get_string
                0x0000000000051654      0x114 /media/data_nvme/git/uboot/u-boot/build/rk3568/release/bl31/fdt_ro.o
                0x0000000000051654                fdt_get_string
 .text.fdt_num_mem_rsv
                0x0000000000051768       0x44 /media/data_nvme/git/uboot/u-boot/build/rk3568/release/bl31/fdt_ro.o
                0x0000000000051768                fdt_num_mem_rsv
 .text.fdt_get_name
                0x00000000000517ac       0xac /media/data_nvme/git/uboot/u-boot/build/rk3568/release/bl31/fdt_ro.o
                0x00000000000517ac                fdt_get_name
 .text.fdt_subnode_offset_namelen
                0x0000000000051858       0xe8 /media/data_nvme/git/uboot/u-boot/build/rk3568/release/bl31/fdt_ro.o
                0x0000000000051858                fdt_subnode_offset_namelen
 .text.fdt_first_property_offset
                0x0000000000051940       0x38 /media/data_nvme/git/uboot/u-boot/build/rk3568/release/bl31/fdt_ro.o
                0x0000000000051940                fdt_first_property_offset
 .text.fdt_next_property_offset
                0x0000000000051978       0x38 /media/data_nvme/git/uboot/u-boot/build/rk3568/release/bl31/fdt_ro.o
                0x0000000000051978                fdt_next_property_offset
 .text.fdt_get_property_namelen_
                0x00000000000519b0       0xd8 /media/data_nvme/git/uboot/u-boot/build/rk3568/release/bl31/fdt_ro.o
 .text.fdt_getprop_namelen
                0x0000000000051a88       0x6c /media/data_nvme/git/uboot/u-boot/build/rk3568/release/bl31/fdt_ro.o
                0x0000000000051a88                fdt_getprop_namelen
 .text.fdt_getprop
                0x0000000000051af4       0x4c /media/data_nvme/git/uboot/u-boot/build/rk3568/release/bl31/fdt_ro.o
                0x0000000000051af4                fdt_getprop
 .text.fdt_get_alias_namelen
                0x0000000000051b40       0x64 /media/data_nvme/git/uboot/u-boot/build/rk3568/release/bl31/fdt_ro.o
                0x0000000000051b40                fdt_get_alias_namelen
 .text.fdt_path_offset_namelen
                0x0000000000051ba4      0x100 /media/data_nvme/git/uboot/u-boot/build/rk3568/release/bl31/fdt_ro.o
                0x0000000000051ba4                fdt_path_offset_namelen
 .text.fdt_path_offset
                0x0000000000051ca4       0x34 /media/data_nvme/git/uboot/u-boot/build/rk3568/release/bl31/fdt_ro.o
                0x0000000000051ca4                fdt_path_offset
 .text.cpu_to_fdt32
                0x0000000000051cd8        0x8 /media/data_nvme/git/uboot/u-boot/build/rk3568/release/bl31/fdt_rw.o
 .text.fdt32_ld
                0x0000000000051ce0       0x24 /media/data_nvme/git/uboot/u-boot/build/rk3568/release/bl31/fdt_rw.o
 .text.fdt_blocks_misordered_
                0x0000000000051d04       0x88 /media/data_nvme/git/uboot/u-boot/build/rk3568/release/bl31/fdt_rw.o
 .text.fdt_packblocks_
                0x0000000000051d8c       0xd0 /media/data_nvme/git/uboot/u-boot/build/rk3568/release/bl31/fdt_rw.o
 .text.fdt_open_into
                0x0000000000051e5c      0x1c0 /media/data_nvme/git/uboot/u-boot/build/rk3568/release/bl31/fdt_rw.o
                0x0000000000051e5c                fdt_open_into
 .text.psci_set_req_local_pwr_state
                0x000000000005201c       0x34 /media/data_nvme/git/uboot/u-boot/build/rk3568/release/bl31/psci_common.o
 .text.psci_validate_power_state
                0x0000000000052050       0x28 /media/data_nvme/git/uboot/u-boot/build/rk3568/release/bl31/psci_common.o
                0x0000000000052050                psci_validate_power_state
 .text.psci_query_sys_suspend_pwrstate
                0x0000000000052078       0x14 /media/data_nvme/git/uboot/u-boot/build/rk3568/release/bl31/psci_common.o
                0x0000000000052078                psci_query_sys_suspend_pwrstate
 .text.psci_is_last_on_cpu
                0x000000000005208c       0x70 /media/data_nvme/git/uboot/u-boot/build/rk3568/release/bl31/psci_common.o
                0x000000000005208c                psci_is_last_on_cpu
 .text.psci_init_req_local_pwr_states
                0x00000000000520fc       0x58 /media/data_nvme/git/uboot/u-boot/build/rk3568/release/bl31/psci_common.o
                0x00000000000520fc                psci_init_req_local_pwr_states
 .text.psci_get_target_local_pwr_states
                0x0000000000052154       0x90 /media/data_nvme/git/uboot/u-boot/build/rk3568/release/bl31/psci_common.o
                0x0000000000052154                psci_get_target_local_pwr_states
 .text.psci_set_target_local_pwr_states
                0x00000000000521e4       0x74 /media/data_nvme/git/uboot/u-boot/build/rk3568/release/bl31/psci_common.o
                0x00000000000521e4                psci_set_target_local_pwr_states
 .text.psci_get_parent_pwr_domain_nodes
                0x0000000000052258       0x48 /media/data_nvme/git/uboot/u-boot/build/rk3568/release/bl31/psci_common.o
                0x0000000000052258                psci_get_parent_pwr_domain_nodes
 .text.psci_set_pwr_domains_to_run
                0x00000000000522a0       0x80 /media/data_nvme/git/uboot/u-boot/build/rk3568/release/bl31/psci_common.o
                0x00000000000522a0                psci_set_pwr_domains_to_run
 .text.psci_do_state_coordination
                0x0000000000052320      0x118 /media/data_nvme/git/uboot/u-boot/build/rk3568/release/bl31/psci_common.o
                0x0000000000052320                psci_do_state_coordination
 .text.psci_find_max_off_lvl
                0x0000000000052438       0x3c /media/data_nvme/git/uboot/u-boot/build/rk3568/release/bl31/psci_common.o
                0x0000000000052438                psci_find_max_off_lvl
 .text.psci_find_target_suspend_lvl
                0x0000000000052474       0x34 /media/data_nvme/git/uboot/u-boot/build/rk3568/release/bl31/psci_common.o
                0x0000000000052474                psci_find_target_suspend_lvl
 .text.psci_acquire_pwr_domain_locks
                0x00000000000524a8       0x6c /media/data_nvme/git/uboot/u-boot/build/rk3568/release/bl31/psci_common.o
                0x00000000000524a8                psci_acquire_pwr_domain_locks
 .text.psci_release_pwr_domain_locks
                0x0000000000052514       0x58 /media/data_nvme/git/uboot/u-boot/build/rk3568/release/bl31/psci_common.o
                0x0000000000052514                psci_release_pwr_domain_locks
 .text.psci_validate_mpidr
                0x000000000005256c       0x20 /media/data_nvme/git/uboot/u-boot/build/rk3568/release/bl31/psci_common.o
                0x000000000005256c                psci_validate_mpidr
 .text.psci_validate_entry_point
                0x000000000005258c       0xf4 /media/data_nvme/git/uboot/u-boot/build/rk3568/release/bl31/psci_common.o
                0x000000000005258c                psci_validate_entry_point
 .text.psci_warmboot_entrypoint
                0x0000000000052680       0xc8 /media/data_nvme/git/uboot/u-boot/build/rk3568/release/bl31/psci_common.o
                0x0000000000052680                psci_warmboot_entrypoint
 .text.psci_spd_migrate_info
                0x0000000000052748       0x24 /media/data_nvme/git/uboot/u-boot/build/rk3568/release/bl31/psci_common.o
                0x0000000000052748                psci_spd_migrate_info
 .text.psci_print_power_domain_map
                0x000000000005276c        0x4 /media/data_nvme/git/uboot/u-boot/build/rk3568/release/bl31/psci_common.o
                0x000000000005276c                psci_print_power_domain_map
 .text.psci_pwrdown_cpu
                0x0000000000052770        0x4 /media/data_nvme/git/uboot/u-boot/build/rk3568/release/bl31/psci_common.o
                0x0000000000052770                psci_pwrdown_cpu
 .text.psci_cpu_on
                0x0000000000052774       0x5c /media/data_nvme/git/uboot/u-boot/build/rk3568/release/bl31/psci_main.o
                0x0000000000052774                psci_cpu_on
 .text.psci_cpu_suspend
                0x00000000000527d0       0xf0 /media/data_nvme/git/uboot/u-boot/build/rk3568/release/bl31/psci_main.o
                0x00000000000527d0                psci_cpu_suspend
 .text.psci_system_suspend
                0x00000000000528c0       0x74 /media/data_nvme/git/uboot/u-boot/build/rk3568/release/bl31/psci_main.o
                0x00000000000528c0                psci_system_suspend
 .text.psci_cpu_off
                0x0000000000052934        0x8 /media/data_nvme/git/uboot/u-boot/build/rk3568/release/bl31/psci_main.o
                0x0000000000052934                psci_cpu_off
 .text.psci_affinity_info
                0x000000000005293c       0x58 /media/data_nvme/git/uboot/u-boot/build/rk3568/release/bl31/psci_main.o
                0x000000000005293c                psci_affinity_info
 .text.psci_migrate
                0x0000000000052994       0x7c /media/data_nvme/git/uboot/u-boot/build/rk3568/release/bl31/psci_main.o
                0x0000000000052994                psci_migrate
 .text.psci_migrate_info_type
                0x0000000000052a10       0x18 /media/data_nvme/git/uboot/u-boot/build/rk3568/release/bl31/psci_main.o
                0x0000000000052a10                psci_migrate_info_type
 .text.psci_migrate_info_up_cpu
                0x0000000000052a28       0x28 /media/data_nvme/git/uboot/u-boot/build/rk3568/release/bl31/psci_main.o
                0x0000000000052a28                psci_migrate_info_up_cpu
 .text.psci_node_hw_state
                0x0000000000052a50       0x58 /media/data_nvme/git/uboot/u-boot/build/rk3568/release/bl31/psci_main.o
                0x0000000000052a50                psci_node_hw_state
 .text.psci_features
                0x0000000000052aa8       0x68 /media/data_nvme/git/uboot/u-boot/build/rk3568/release/bl31/psci_main.o
                0x0000000000052aa8                psci_features
 .text.psci_smc_handler
                0x0000000000052b10      0x14c /media/data_nvme/git/uboot/u-boot/build/rk3568/release/bl31/psci_main.o
                0x0000000000052b10                psci_smc_handler
 .text.psci_mem_protect
                0x0000000000052c5c       0x5c /media/data_nvme/git/uboot/u-boot/build/rk3568/release/bl31/psci_mem_protect.o
                0x0000000000052c5c                psci_mem_protect
 .text.psci_mem_chk_range
                0x0000000000052cb8       0x48 /media/data_nvme/git/uboot/u-boot/build/rk3568/release/bl31/psci_mem_protect.o
                0x0000000000052cb8                psci_mem_chk_range
 .text.psci_do_cpu_off
                0x0000000000052d00      0x114 /media/data_nvme/git/uboot/u-boot/build/rk3568/release/bl31/psci_off.o
                0x0000000000052d00                psci_do_cpu_off
 .text.psci_cpu_on_start
                0x0000000000052e14      0x160 /media/data_nvme/git/uboot/u-boot/build/rk3568/release/bl31/psci_on.o
                0x0000000000052e14                psci_cpu_on_start
 .text.psci_cpu_on_finish
                0x0000000000052f74       0xd0 /media/data_nvme/git/uboot/u-boot/build/rk3568/release/bl31/psci_on.o
                0x0000000000052f74                psci_cpu_on_finish
 .text.psci_arch_setup
                0x0000000000053044       0x20 /media/data_nvme/git/uboot/u-boot/build/rk3568/release/bl31/psci_setup.o
                0x0000000000053044                psci_arch_setup
 .text.psci_setup
                0x0000000000053064      0x314 /media/data_nvme/git/uboot/u-boot/build/rk3568/release/bl31/psci_setup.o
                0x0000000000053064                psci_setup
 .text.psci_cpu_suspend_start
                0x0000000000053378      0x198 /media/data_nvme/git/uboot/u-boot/build/rk3568/release/bl31/psci_suspend.o
                0x0000000000053378                psci_cpu_suspend_start
 .text.psci_cpu_suspend_finish
                0x0000000000053510       0x9c /media/data_nvme/git/uboot/u-boot/build/rk3568/release/bl31/psci_suspend.o
                0x0000000000053510                psci_cpu_suspend_finish
 .text.psci_system_off
                0x00000000000535ac       0x38 /media/data_nvme/git/uboot/u-boot/build/rk3568/release/bl31/psci_system_off.o
                0x00000000000535ac                psci_system_off
 .text.psci_system_reset
                0x00000000000535e4       0x38 /media/data_nvme/git/uboot/u-boot/build/rk3568/release/bl31/psci_system_off.o
                0x00000000000535e4                psci_system_reset
 .text.psci_system_reset2
                0x000000000005361c       0xa4 /media/data_nvme/git/uboot/u-boot/build/rk3568/release/bl31/psci_system_off.o
                0x000000000005361c                psci_system_reset2
 .text.plat_ic_get_pending_interrupt_type
                0x00000000000536c0       0x34 /media/data_nvme/git/uboot/u-boot/build/rk3568/release/bl31/plat_gicv3.o
                0x00000000000536c0                plat_ic_get_pending_interrupt_type
 .text.plat_configure_mmu_el3
                0x00000000000536f4       0x5c /media/data_nvme/git/uboot/u-boot/build/rk3568/release/bl31/platform_common.o
                0x00000000000536f4                plat_configure_mmu_el3
 .text.plat_get_syscnt_freq2
                0x0000000000053750        0xc /media/data_nvme/git/uboot/u-boot/build/rk3568/release/bl31/platform_common.o
                0x0000000000053750                plat_get_syscnt_freq2
 .text.plat_cci_init
                0x000000000005375c        0x4 /media/data_nvme/git/uboot/u-boot/build/rk3568/release/bl31/platform_common.o
                0x000000000005375c                plat_cci_init
 .text.plat_cci_enable
                0x0000000000053760        0x4 /media/data_nvme/git/uboot/u-boot/build/rk3568/release/bl31/platform_common.o
                0x0000000000053760                plat_cci_enable
 .text.plat_cci_disable
                0x0000000000053764        0x4 /media/data_nvme/git/uboot/u-boot/build/rk3568/release/bl31/platform_common.o
                0x0000000000053764                plat_cci_disable
 .text.bl31_plat_get_next_image_ep_info
                0x0000000000053768       0x28 /media/data_nvme/git/uboot/u-boot/build/rk3568/release/bl31/bl31_plat_setup.o
                0x0000000000053768                bl31_plat_get_next_image_ep_info
 .text.bl31_early_platform_setup2
                0x0000000000053790       0x74 /media/data_nvme/git/uboot/u-boot/build/rk3568/release/bl31/bl31_plat_setup.o
                0x0000000000053790                bl31_early_platform_setup2
 .text.bl31_platform_setup
                0x0000000000053804       0x20 /media/data_nvme/git/uboot/u-boot/build/rk3568/release/bl31/bl31_plat_setup.o
                0x0000000000053804                bl31_platform_setup
 .text.bl31_plat_arch_setup
                0x0000000000053824       0x3c /media/data_nvme/git/uboot/u-boot/build/rk3568/release/bl31/bl31_plat_setup.o
                0x0000000000053824                bl31_plat_arch_setup
 .text.rk_aux_param_handler
                0x0000000000053860       0xd8 /media/data_nvme/git/uboot/u-boot/build/rk3568/release/bl31/params_setup.o
 .text.rockchip_get_uart_base
                0x0000000000053938        0xc /media/data_nvme/git/uboot/u-boot/build/rk3568/release/bl31/params_setup.o
                0x0000000000053938                rockchip_get_uart_base
 .text.rockchip_get_uart_baudrate
                0x0000000000053944        0xc /media/data_nvme/git/uboot/u-boot/build/rk3568/release/bl31/params_setup.o
                0x0000000000053944                rockchip_get_uart_baudrate
 .text.rockchip_get_uart_clock
                0x0000000000053950        0xc /media/data_nvme/git/uboot/u-boot/build/rk3568/release/bl31/params_setup.o
                0x0000000000053950                rockchip_get_uart_clock
 .text.params_early_setup
                0x000000000005395c      0x114 /media/data_nvme/git/uboot/u-boot/build/rk3568/release/bl31/params_setup.o
                0x000000000005395c                params_early_setup
 .text.rockchip_validate_power_state
                0x0000000000053a70       0x74 /media/data_nvme/git/uboot/u-boot/build/rk3568/release/bl31/plat_pm.o
                0x0000000000053a70                rockchip_validate_power_state
 .text.rockchip_get_sys_suspend_power_state
                0x0000000000053ae4       0x14 /media/data_nvme/git/uboot/u-boot/build/rk3568/release/bl31/plat_pm.o
                0x0000000000053ae4                rockchip_get_sys_suspend_power_state
 .text.rockchip_cpu_standby
                0x0000000000053af8       0x20 /media/data_nvme/git/uboot/u-boot/build/rk3568/release/bl31/plat_pm.o
                0x0000000000053af8                rockchip_cpu_standby
 .text.rockchip_pwr_domain_on
                0x0000000000053b18        0xc /media/data_nvme/git/uboot/u-boot/build/rk3568/release/bl31/plat_pm.o
                0x0000000000053b18                rockchip_pwr_domain_on
 .text.rockchip_soc_hlvl_pwr_dm_off
                0x0000000000053b24        0x8 /media/data_nvme/git/uboot/u-boot/build/rk3568/release/bl31/plat_pm.o
                0x0000000000053b24                rockchip_soc_hlvl_pwr_dm_off
 .text.rockchip_pwr_domain_off
                0x0000000000053b2c       0x5c /media/data_nvme/git/uboot/u-boot/build/rk3568/release/bl31/plat_pm.o
                0x0000000000053b2c                rockchip_pwr_domain_off
 .text.rockchip_soc_hlvl_pwr_dm_suspend
                0x0000000000053b88        0x8 /media/data_nvme/git/uboot/u-boot/build/rk3568/release/bl31/plat_pm.o
                0x0000000000053b88                rockchip_soc_hlvl_pwr_dm_suspend
 .text.rockchip_pwr_domain_suspend
                0x0000000000053b90       0x88 /media/data_nvme/git/uboot/u-boot/build/rk3568/release/bl31/plat_pm.o
                0x0000000000053b90                rockchip_pwr_domain_suspend
 .text.rockchip_soc_hlvl_pwr_dm_on_finish
                0x0000000000053c18        0x8 /media/data_nvme/git/uboot/u-boot/build/rk3568/release/bl31/plat_pm.o
                0x0000000000053c18                rockchip_soc_hlvl_pwr_dm_on_finish
 .text.rockchip_pwr_domain_on_finish
                0x0000000000053c20       0x54 /media/data_nvme/git/uboot/u-boot/build/rk3568/release/bl31/plat_pm.o
                0x0000000000053c20                rockchip_pwr_domain_on_finish
 .text.rockchip_soc_hlvl_pwr_dm_resume
                0x0000000000053c74        0x8 /media/data_nvme/git/uboot/u-boot/build/rk3568/release/bl31/plat_pm.o
                0x0000000000053c74                rockchip_soc_hlvl_pwr_dm_resume
 .text.rockchip_pwr_domain_suspend_finish
                0x0000000000053c7c       0x7c /media/data_nvme/git/uboot/u-boot/build/rk3568/release/bl31/plat_pm.o
                0x0000000000053c7c                rockchip_pwr_domain_suspend_finish
 .text.rockchip_system_reset
                0x0000000000053cf8        0xc /media/data_nvme/git/uboot/u-boot/build/rk3568/release/bl31/plat_pm.o
 .text.rockchip_soc_system_off
                0x0000000000053d04        0x4 /media/data_nvme/git/uboot/u-boot/build/rk3568/release/bl31/plat_pm.o
                0x0000000000053d04                rockchip_soc_system_off
 .text.rockchip_system_poweroff
                0x0000000000053d08        0xc /media/data_nvme/git/uboot/u-boot/build/rk3568/release/bl31/plat_pm.o
 .text.rockchip_soc_cores_pd_pwr_dn_wfi
                0x0000000000053d14        0xc /media/data_nvme/git/uboot/u-boot/build/rk3568/release/bl31/plat_pm.o
                0x0000000000053d14                rockchip_soc_cores_pd_pwr_dn_wfi
 .text.rockchip_soc_sys_pd_pwr_dn_wfi
                0x0000000000053d20        0xc /media/data_nvme/git/uboot/u-boot/build/rk3568/release/bl31/plat_pm.o
                0x0000000000053d20                rockchip_soc_sys_pd_pwr_dn_wfi
 .text.rockchip_pd_pwr_down_wfi
                0x0000000000053d2c       0x1c /media/data_nvme/git/uboot/u-boot/build/rk3568/release/bl31/plat_pm.o
 .text.plat_setup_psci_ops
                0x0000000000053d48       0x1c /media/data_nvme/git/uboot/u-boot/build/rk3568/release/bl31/plat_pm.o
                0x0000000000053d48                plat_setup_psci_ops
 .text.plat_get_power_domain_tree_desc
                0x0000000000053d64        0xc /media/data_nvme/git/uboot/u-boot/build/rk3568/release/bl31/plat_topology.o
                0x0000000000053d64                plat_get_power_domain_tree_desc
 .text.plat_core_pos_by_mpidr
                0x0000000000053d70       0x14 /media/data_nvme/git/uboot/u-boot/build/rk3568/release/bl31/plat_topology.o
                0x0000000000053d70                plat_core_pos_by_mpidr
 .text.plat_rockchip_mpidr_to_core_pos
                0x0000000000053d84        0x4 /media/data_nvme/git/uboot/u-boot/build/rk3568/release/bl31/rockchip_gicv3.o
 .text.plat_rockchip_gic_driver_init
                0x0000000000053d88        0xc /media/data_nvme/git/uboot/u-boot/build/rk3568/release/bl31/rockchip_gicv3.o
                0x0000000000053d88                plat_rockchip_gic_driver_init
 .text.plat_rockchip_gic_init
                0x0000000000053d94       0x20 /media/data_nvme/git/uboot/u-boot/build/rk3568/release/bl31/rockchip_gicv3.o
                0x0000000000053d94                plat_rockchip_gic_init
 .text.plat_rockchip_gic_cpuif_enable
                0x0000000000053db4       0x14 /media/data_nvme/git/uboot/u-boot/build/rk3568/release/bl31/rockchip_gicv3.o
                0x0000000000053db4                plat_rockchip_gic_cpuif_enable
 .text.plat_rockchip_gic_cpuif_disable
                0x0000000000053dc8       0x14 /media/data_nvme/git/uboot/u-boot/build/rk3568/release/bl31/rockchip_gicv3.o
                0x0000000000053dc8                plat_rockchip_gic_cpuif_disable
 .text.plat_rockchip_gic_pcpu_init
                0x0000000000053ddc       0x14 /media/data_nvme/git/uboot/u-boot/build/rk3568/release/bl31/rockchip_gicv3.o
                0x0000000000053ddc                plat_rockchip_gic_pcpu_init
 .text.rockchip_plat_sip_handler
                0x0000000000053df0       0x40 /media/data_nvme/git/uboot/u-boot/build/rk3568/release/bl31/rockchip_sip_svc.o
                0x0000000000053df0                rockchip_plat_sip_handler
 .text.sip_smc_handler
                0x0000000000053e30       0x88 /media/data_nvme/git/uboot/u-boot/build/rk3568/release/bl31/rockchip_sip_svc.o
                0x0000000000053e30                sip_smc_handler
 .text.cpus_pd_req_enter_wfi
                0x0000000000053eb8       0x20 /media/data_nvme/git/uboot/u-boot/build/rk3568/release/bl31/pmu.o
 .text.rockchip_plat_mmu_el3
                0x0000000000053ed8        0x4 /media/data_nvme/git/uboot/u-boot/build/rk3568/release/bl31/pmu.o
                0x0000000000053ed8                rockchip_plat_mmu_el3
 .text.rockchip_soc_cores_pwr_dm_suspend
                0x0000000000053edc        0x8 /media/data_nvme/git/uboot/u-boot/build/rk3568/release/bl31/pmu.o
                0x0000000000053edc                rockchip_soc_cores_pwr_dm_suspend
 .text.rockchip_soc_cores_pwr_dm_resume
                0x0000000000053ee4        0x8 /media/data_nvme/git/uboot/u-boot/build/rk3568/release/bl31/pmu.o
                0x0000000000053ee4                rockchip_soc_cores_pwr_dm_resume
 .text.rockchip_soc_sys_pwr_dm_suspend
                0x0000000000053eec      0x2f8 /media/data_nvme/git/uboot/u-boot/build/rk3568/release/bl31/pmu.o
                0x0000000000053eec                rockchip_soc_sys_pwr_dm_suspend
 .text.rockchip_soc_sys_pwr_dm_resume
                0x00000000000541e4       0x88 /media/data_nvme/git/uboot/u-boot/build/rk3568/release/bl31/pmu.o
                0x00000000000541e4                rockchip_soc_sys_pwr_dm_resume
 .text.rockchip_soc_cores_pwr_dm_on
                0x000000000005426c       0xa4 /media/data_nvme/git/uboot/u-boot/build/rk3568/release/bl31/pmu.o
                0x000000000005426c                rockchip_soc_cores_pwr_dm_on
 .text.rockchip_soc_cores_pwr_dm_off
                0x0000000000054310       0x4c /media/data_nvme/git/uboot/u-boot/build/rk3568/release/bl31/pmu.o
                0x0000000000054310                rockchip_soc_cores_pwr_dm_off
 .text.rockchip_soc_cores_pwr_dm_on_finish
                0x000000000005435c       0x3c /media/data_nvme/git/uboot/u-boot/build/rk3568/release/bl31/pmu.o
                0x000000000005435c                rockchip_soc_cores_pwr_dm_on_finish
 .text.plat_rockchip_pmu_init
                0x0000000000054398      0x110 /media/data_nvme/git/uboot/u-boot/build/rk3568/release/bl31/pmu.o
                0x0000000000054398                plat_rockchip_pmu_init
 .text.rockchip_soc_soft_reset
                0x00000000000544a8       0x60 /media/data_nvme/git/uboot/u-boot/build/rk3568/release/bl31/soc.o
                0x00000000000544a8                rockchip_soc_soft_reset
 .text.plat_rockchip_soc_init
                0x0000000000054508       0x98 /media/data_nvme/git/uboot/u-boot/build/rk3568/release/bl31/soc.o
                0x0000000000054508                plat_rockchip_soc_init
 .text.arm_arch_svc_smc_handler
                0x00000000000545a0      0x13c /media/data_nvme/git/uboot/u-boot/build/rk3568/release/bl31/arm_arch_svc_setup.o
 .text.std_svc_smc_handler
                0x00000000000546dc       0xb4 /media/data_nvme/git/uboot/u-boot/build/rk3568/release/bl31/std_svc_setup.o
 .text.std_svc_setup
                0x0000000000054790       0x24 /media/data_nvme/git/uboot/u-boot/build/rk3568/release/bl31/std_svc_setup.o
 .text.print_entry_point_info
                0x00000000000547b4        0x4 /media/data_nvme/git/uboot/u-boot/build/rk3568/release/bl31/bl_common.o
                0x00000000000547b4                print_entry_point_info
 .text.tf_log   0x00000000000547b8       0x94 /media/data_nvme/git/uboot/u-boot/build/rk3568/release/bl31/tf_log.o
                0x00000000000547b8                tf_log
 .text.tf_log_newline
                0x000000000005484c       0x20 /media/data_nvme/git/uboot/u-boot/build/rk3568/release/bl31/tf_log.o
                0x000000000005484c                tf_log_newline
 .text.console_is_registered
                0x000000000005486c       0x2c /media/data_nvme/git/uboot/u-boot/build/rk3568/release/bl31/multi_console.o
                0x000000000005486c                console_is_registered
 .text.console_register
                0x0000000000054898       0x34 /media/data_nvme/git/uboot/u-boot/build/rk3568/release/bl31/multi_console.o
                0x0000000000054898                console_register
 .text.console_switch_state
                0x00000000000548cc        0xc /media/data_nvme/git/uboot/u-boot/build/rk3568/release/bl31/multi_console.o
                0x00000000000548cc                console_switch_state
 .text.console_putc
                0x00000000000548d8       0x9c /media/data_nvme/git/uboot/u-boot/build/rk3568/release/bl31/multi_console.o
                0x00000000000548d8                console_putc
 .text.putchar  0x0000000000054974       0x28 /media/data_nvme/git/uboot/u-boot/build/rk3568/release/bl31/multi_console.o
                0x0000000000054974                putchar
 .text.console_flush
                0x000000000005499c       0x54 /media/data_nvme/git/uboot/u-boot/build/rk3568/release/bl31/multi_console.o
                0x000000000005499c                console_flush
 .text.pmuv3_enable
                0x00000000000549f0        0x4 /media/data_nvme/git/uboot/u-boot/build/rk3568/release/bl31/pmuv3.o
                0x00000000000549f0                pmuv3_enable
 .text.pmuv3_disable_el3
                0x00000000000549f4       0x3c /media/data_nvme/git/uboot/u-boot/build/rk3568/release/bl31/pmuv3.o
                0x00000000000549f4                pmuv3_disable_el3
 .text.pmuv3_init_el2_unused
                0x0000000000054a30       0x2c /media/data_nvme/git/uboot/u-boot/build/rk3568/release/bl31/pmuv3.o
                0x0000000000054a30                pmuv3_init_el2_unused
 .text.plat_get_soc_version
                0x0000000000054a5c        0x8 /media/data_nvme/git/uboot/u-boot/build/rk3568/release/bl31/plat_bl_common.o
                0x0000000000054a5c                plat_get_soc_version
 .text.plat_get_soc_revision
                0x0000000000054a64        0x8 /media/data_nvme/git/uboot/u-boot/build/rk3568/release/bl31/plat_bl_common.o
                0x0000000000054a64                plat_get_soc_revision
 .text.plat_is_smccc_feature_available
                0x0000000000054a6c        0x8 /media/data_nvme/git/uboot/u-boot/build/rk3568/release/bl31/plat_bl_common.o
                0x0000000000054a6c                plat_is_smccc_feature_available
 .text.plat_log_get_prefix
                0x0000000000054a74       0x30 /media/data_nvme/git/uboot/u-boot/build/rk3568/release/bl31/plat_log_common.o
                0x0000000000054a74                plat_log_get_prefix
 .text.bl31_plat_runtime_setup
                0x0000000000054aa4        0x8 /media/data_nvme/git/uboot/u-boot/build/rk3568/release/bl31/plat_common.o
                0x0000000000054aa4                bl31_plat_runtime_setup
 .text.get_el_str
                0x0000000000054aac       0x34 /media/data_nvme/git/uboot/u-boot/build/rk3568/release/bl31/plat_common.o
                0x0000000000054aac                get_el_str
 .text.plat_default_ea_handler
                0x0000000000054ae0       0x68 /media/data_nvme/git/uboot/u-boot/build/rk3568/release/bl31/plat_common.o
                0x0000000000054ae0                plat_ea_handler
                0x0000000000054ae0                plat_default_ea_handler
 .text.xlat_arch_get_pas
                0x0000000000054b48       0x14 /media/data_nvme/git/uboot/u-boot/build/rk3568/release/bl31/xlat_tables_arch.o
                0x0000000000054b48                xlat_arch_get_pas
 .text.tcr_physical_addr_size_bits
                0x0000000000054b5c       0x4c /media/data_nvme/git/uboot/u-boot/build/rk3568/release/bl31/xlat_tables_arch.o
                0x0000000000054b5c                tcr_physical_addr_size_bits
 .text.xlat_arch_regime_get_xn_desc
                0x0000000000054ba8       0x14 /media/data_nvme/git/uboot/u-boot/build/rk3568/release/bl31/xlat_tables_arch.o
                0x0000000000054ba8                xlat_arch_regime_get_xn_desc
 .text.xlat_arch_current_el
                0x0000000000054bbc        0xc /media/data_nvme/git/uboot/u-boot/build/rk3568/release/bl31/xlat_tables_arch.o
                0x0000000000054bbc                xlat_arch_current_el
 .text.setup_mmu_cfg
                0x0000000000054bc8       0x7c /media/data_nvme/git/uboot/u-boot/build/rk3568/release/bl31/xlat_tables_arch.o
                0x0000000000054bc8                setup_mmu_cfg
 .text.mmap_add_region
                0x0000000000054c44       0x34 /media/data_nvme/git/uboot/u-boot/build/rk3568/release/bl31/xlat_tables_context.o
                0x0000000000054c44                mmap_add_region
 .text.mmap_add
                0x0000000000054c78       0x10 /media/data_nvme/git/uboot/u-boot/build/rk3568/release/bl31/xlat_tables_context.o
                0x0000000000054c78                mmap_add
 .text.init_xlat_tables
                0x0000000000054c88       0x3c /media/data_nvme/git/uboot/u-boot/build/rk3568/release/bl31/xlat_tables_context.o
                0x0000000000054c88                init_xlat_tables
 .text.enable_mmu_el3
                0x0000000000054cc4       0x48 /media/data_nvme/git/uboot/u-boot/build/rk3568/release/bl31/xlat_tables_context.o
                0x0000000000054cc4                enable_mmu_el3
 .text.xlat_desc
                0x0000000000054d0c       0xe4 /media/data_nvme/git/uboot/u-boot/build/rk3568/release/bl31/xlat_tables_core.o
                0x0000000000054d0c                xlat_desc
 .text.xlat_tables_map_region
                0x0000000000054df0      0x1e4 /media/data_nvme/git/uboot/u-boot/build/rk3568/release/bl31/xlat_tables_core.o
 .text.mmap_add_region_ctx
                0x0000000000054fd4      0x230 /media/data_nvme/git/uboot/u-boot/build/rk3568/release/bl31/xlat_tables_core.o
                0x0000000000054fd4                mmap_add_region_ctx
 .text.mmap_add_ctx
                0x0000000000055204       0x3c /media/data_nvme/git/uboot/u-boot/build/rk3568/release/bl31/xlat_tables_core.o
                0x0000000000055204                mmap_add_ctx
 .text.init_xlat_tables_ctx
                0x0000000000055240       0xe4 /media/data_nvme/git/uboot/u-boot/build/rk3568/release/bl31/xlat_tables_core.o
                0x0000000000055240                init_xlat_tables_ctx
 .text.xlat_mmap_print
                0x0000000000055324        0x4 /media/data_nvme/git/uboot/u-boot/build/rk3568/release/bl31/xlat_tables_utils.o
                0x0000000000055324                xlat_mmap_print
 .text.xlat_tables_print
                0x0000000000055328        0x4 /media/data_nvme/git/uboot/u-boot/build/rk3568/release/bl31/xlat_tables_utils.o
                0x0000000000055328                xlat_tables_print
 .text.bl31_params_parse_helper
                0x000000000005532c       0xac /media/data_nvme/git/uboot/u-boot/build/rk3568/release/bl31/desc_image_load.o
                0x000000000005532c                bl31_params_parse_helper
 .text.bl_aux_params_parse
                0x00000000000553d8       0x60 /media/data_nvme/git/uboot/u-boot/build/rk3568/release/bl31/bl_aux_params.o
                0x00000000000553d8                bl_aux_params_parse
 .text.plat_get_target_pwr_state
                0x0000000000055438       0x28 /media/data_nvme/git/uboot/u-boot/build/rk3568/release/bl31/plat_psci_common.o
                0x0000000000055438                plat_get_target_pwr_state
 .text.asm.report_unhandled_exception
                0x0000000000055460        0x4 /media/data_nvme/git/uboot/u-boot/build/rk3568/release/bl31/crash_reporting.o
                0x0000000000055460                report_unhandled_exception
                0x0000000000055460                report_unhandled_interrupt
 .text.asm.handle_lower_el_sync_ea
                0x0000000000055464       0x6c /media/data_nvme/git/uboot/u-boot/build/rk3568/release/bl31/ea_delegate.o
                0x0000000000055464                handle_lower_el_sync_ea
 .text.asm.handle_lower_el_async_ea
                0x00000000000554d0       0x18 /media/data_nvme/git/uboot/u-boot/build/rk3568/release/bl31/ea_delegate.o
                0x00000000000554d0                handle_lower_el_async_ea
 .text.asm.delegate_sync_ea
                0x00000000000554e8        0x4 /media/data_nvme/git/uboot/u-boot/build/rk3568/release/bl31/ea_delegate.o
 .text.asm.delegate_async_ea
                0x00000000000554ec        0x4 /media/data_nvme/git/uboot/u-boot/build/rk3568/release/bl31/ea_delegate.o
 .text.asm.ea_proceed
                0x00000000000554f0       0x68 /media/data_nvme/git/uboot/u-boot/build/rk3568/release/bl31/ea_delegate.o
 .text.asm.sync_exception_handler
                0x0000000000055558       0xe0 /media/data_nvme/git/uboot/u-boot/build/rk3568/release/bl31/runtime_exceptions.o
 .text.asm.console_16550_core_init
                0x0000000000055638       0x70 /media/data_nvme/git/uboot/u-boot/build/rk3568/release/bl31/16550_console.o
                0x0000000000055638                console_16550_core_init
 .text.asm.console_16550_register
                0x00000000000556a8       0x58 /media/data_nvme/git/uboot/u-boot/build/rk3568/release/bl31/16550_console.o
                0x00000000000556a8                console_16550_register
 .text.asm.console_16550_core_putc
                0x0000000000055700       0x38 /media/data_nvme/git/uboot/u-boot/build/rk3568/release/bl31/16550_console.o
                0x0000000000055700                console_16550_core_putc
 .text.asm.console_16550_putc
                0x0000000000055738        0x8 /media/data_nvme/git/uboot/u-boot/build/rk3568/release/bl31/16550_console.o
                0x0000000000055738                console_16550_putc
 .text.asm.console_16550_core_getc
                0x0000000000055740       0x18 /media/data_nvme/git/uboot/u-boot/build/rk3568/release/bl31/16550_console.o
                0x0000000000055740                console_16550_core_getc
 .text.asm.console_16550_getc
                0x0000000000055758        0x8 /media/data_nvme/git/uboot/u-boot/build/rk3568/release/bl31/16550_console.o
                0x0000000000055758                console_16550_getc
 .text.asm.console_16550_core_flush
                0x0000000000055760       0x14 /media/data_nvme/git/uboot/u-boot/build/rk3568/release/bl31/16550_console.o
                0x0000000000055760                console_16550_core_flush
 .text.asm.console_16550_flush
                0x0000000000055774        0x8 /media/data_nvme/git/uboot/u-boot/build/rk3568/release/bl31/16550_console.o
                0x0000000000055774                console_16550_flush
 .text.asm.cortex_a55_reset_func
                0x000000000005577c       0x10 /media/data_nvme/git/uboot/u-boot/build/rk3568/release/bl31/cortex_a55.o
                0x000000000005577c                cortex_a55_reset_func
 .text.asm.cortex_a55_core_pwr_dwn
                0x000000000005578c       0x14 /media/data_nvme/git/uboot/u-boot/build/rk3568/release/bl31/cortex_a55.o
                0x000000000005578c                cortex_a55_core_pwr_dwn
 .text.asm.cortex_a55_dsu_pwr_dwn
                0x00000000000557a0       0x10 /media/data_nvme/git/uboot/u-boot/build/rk3568/release/bl31/cortex_a55.o
                0x00000000000557a0                cortex_a55_dsu_pwr_dwn
 .text.asm.reset_handler
                0x00000000000557b0       0x20 /media/data_nvme/git/uboot/u-boot/build/rk3568/release/bl31/cpu_helpers.o
                0x00000000000557b0                reset_handler
 .text.asm.prepare_cpu_pwr_dwn
                0x00000000000557d0       0x24 /media/data_nvme/git/uboot/u-boot/build/rk3568/release/bl31/cpu_helpers.o
                0x00000000000557d0                prepare_cpu_pwr_dwn
 .text.asm.init_cpu_ops
                0x00000000000557f4       0x20 /media/data_nvme/git/uboot/u-boot/build/rk3568/release/bl31/cpu_helpers.o
                0x00000000000557f4                init_cpu_ops
 .text.asm.get_cpu_ops_ptr
                0x0000000000055814       0x40 /media/data_nvme/git/uboot/u-boot/build/rk3568/release/bl31/cpu_helpers.o
                0x0000000000055814                get_cpu_ops_ptr
 .text.asm.cpu_get_rev_var
                0x0000000000055854       0x10 /media/data_nvme/git/uboot/u-boot/build/rk3568/release/bl31/cpu_helpers.o
                0x0000000000055854                cpu_get_rev_var
 .text.asm.check_wa_cve_2017_5715
                0x0000000000055864       0x20 /media/data_nvme/git/uboot/u-boot/build/rk3568/release/bl31/cpu_helpers.o
                0x0000000000055864                check_wa_cve_2017_5715
 .text.asm.check_smccc_arch_wa3_applies
                0x0000000000055884       0x20 /media/data_nvme/git/uboot/u-boot/build/rk3568/release/bl31/cpu_helpers.o
                0x0000000000055884                check_smccc_arch_wa3_applies
 .text.asm.el1_sysregs_context_restore
                0x00000000000558a4       0xac /media/data_nvme/git/uboot/u-boot/build/rk3568/release/bl31/context.o
                0x00000000000558a4                el1_sysregs_context_restore
 .text.asm.prepare_el3_entry
                0x0000000000055950       0x68 /media/data_nvme/git/uboot/u-boot/build/rk3568/release/bl31/context.o
                0x0000000000055950                prepare_el3_entry
 .text.asm.restore_gp_pmcr_pauth_regs
                0x00000000000559b8       0x50 /media/data_nvme/git/uboot/u-boot/build/rk3568/release/bl31/context.o
                0x00000000000559b8                restore_gp_pmcr_pauth_regs
 .text.asm.el3_exit
                0x0000000000055a08       0x54 /media/data_nvme/git/uboot/u-boot/build/rk3568/release/bl31/context.o
                0x0000000000055a08                el3_exit
 .text.asm.init_cpu_data_ptr
                0x0000000000055a5c       0x14 /media/data_nvme/git/uboot/u-boot/build/rk3568/release/bl31/cpu_data.o
                0x0000000000055a5c                init_cpu_data_ptr
 .text.asm._cpu_data_by_index
                0x0000000000055a70       0x18 /media/data_nvme/git/uboot/u-boot/build/rk3568/release/bl31/cpu_data.o
                0x0000000000055a70                _cpu_data_by_index
 .text.asm.spin_lock
                0x0000000000055a88       0x20 /media/data_nvme/git/uboot/u-boot/build/rk3568/release/bl31/spinlock.o
                0x0000000000055a88                spin_lock
 .text.asm.spin_unlock
                0x0000000000055aa8        0x8 /media/data_nvme/git/uboot/u-boot/build/rk3568/release/bl31/spinlock.o
                0x0000000000055aa8                spin_unlock
 .text.asm.psci_power_down_wfi
                0x0000000000055ab0        0xc /media/data_nvme/git/uboot/u-boot/build/rk3568/release/bl31/psci_helpers.o
                0x0000000000055ab0                psci_power_down_wfi
 .text.asm.plat_get_my_stack
                0x0000000000055abc       0x1c /media/data_nvme/git/uboot/u-boot/build/rk3568/release/bl31/platform_mp_stack.o
                0x0000000000055abc                plat_get_my_stack
 .text.asm.plat_set_my_stack
                0x0000000000055ad8       0x10 /media/data_nvme/git/uboot/u-boot/build/rk3568/release/bl31/platform_mp_stack.o
                0x0000000000055ad8                plat_set_my_stack
 .text.asm.plat_reset_handler
                0x0000000000055ae8       0x24 /media/data_nvme/git/uboot/u-boot/build/rk3568/release/bl31/plat_helpers.o
                0x0000000000055ae8                plat_reset_handler
 .text.asm.plat_my_core_pos
                0x0000000000055b0c       0x14 /media/data_nvme/git/uboot/u-boot/build/rk3568/release/bl31/plat_helpers.o
                0x0000000000055b0c                plat_my_core_pos
 .text.asm.plat_panic_handler
                0x0000000000055b20        0xc /media/data_nvme/git/uboot/u-boot/build/rk3568/release/bl31/plat_helpers.o
                0x0000000000055b20                plat_panic_handler
 .text.asm.asm_print_str
                0x0000000000055b2c       0x18 /media/data_nvme/git/uboot/u-boot/build/rk3568/release/bl31/debug.o
                0x0000000000055b2c                asm_print_str
 .text.asm.asm_print_hex
                0x0000000000055b44       0x30 /media/data_nvme/git/uboot/u-boot/build/rk3568/release/bl31/debug.o
                0x0000000000055b44                asm_print_hex
                0x0000000000055b48                asm_print_hex_bits
 .text.asm.asm_print_newline
                0x0000000000055b74        0x8 /media/data_nvme/git/uboot/u-boot/build/rk3568/release/bl31/debug.o
                0x0000000000055b74                asm_print_newline
 .text.asm.elx_panic
                0x0000000000055b7c        0x4 /media/data_nvme/git/uboot/u-boot/build/rk3568/release/bl31/debug.o
                0x0000000000055b7c                elx_panic
 .text.asm.el3_panic
                0x0000000000055b80       0x30 /media/data_nvme/git/uboot/u-boot/build/rk3568/release/bl31/debug.o
                0x0000000000055b80                el3_panic
 .text.asm.flush_dcache_range
                0x0000000000055bb0       0x38 /media/data_nvme/git/uboot/u-boot/build/rk3568/release/bl31/cache_helpers.o
                0x0000000000055bb0                flush_dcache_range
 .text.asm.clean_dcache_range
                0x0000000000055be8       0x38 /media/data_nvme/git/uboot/u-boot/build/rk3568/release/bl31/cache_helpers.o
                0x0000000000055be8                clean_dcache_range
 .text.asm.inv_dcache_range
                0x0000000000055c20       0x38 /media/data_nvme/git/uboot/u-boot/build/rk3568/release/bl31/cache_helpers.o
                0x0000000000055c20                inv_dcache_range
 .text.asm.zeromem
                0x0000000000055c58        0x8 /media/data_nvme/git/uboot/u-boot/build/rk3568/release/bl31/misc_helpers.o
                0x0000000000055c58                zeromem
 .text.asm.zeromem_dczva
                0x0000000000055c60       0xe8 /media/data_nvme/git/uboot/u-boot/build/rk3568/release/bl31/misc_helpers.o
                0x0000000000055c60                zero_normalmem
 .text.asm.bl31_plat_enable_mmu
                0x0000000000055d48        0x4 /media/data_nvme/git/uboot/u-boot/build/rk3568/release/bl31/platform_helpers.o
                0x0000000000055d48                bl31_plat_enable_mmu
 .text.asm.plat_handle_double_fault
                0x0000000000055d4c        0x4 /media/data_nvme/git/uboot/u-boot/build/rk3568/release/bl31/platform_helpers.o
                0x0000000000055d4c                plat_handle_double_fault
 .text.asm.plat_handle_el3_ea
                0x0000000000055d50        0x4 /media/data_nvme/git/uboot/u-boot/build/rk3568/release/bl31/platform_helpers.o
                0x0000000000055d50                plat_handle_el3_ea
 .text.asm.enable_mmu_direct_el3
                0x0000000000055d54       0x58 /media/data_nvme/git/uboot/u-boot/build/rk3568/release/bl31/enable_mmu.o
                0x0000000000055d54                enable_mmu_direct_el3
 .text.asm.plat_crash_console_init
                0x0000000000055dac       0x48 /media/data_nvme/git/uboot/u-boot/build/rk3568/release/bl31/crash_console_helpers.o
                0x0000000000055dac                plat_crash_console_init
 .text.asm.plat_crash_console_putc
                0x0000000000055df4       0x84 /media/data_nvme/git/uboot/u-boot/build/rk3568/release/bl31/crash_console_helpers.o
                0x0000000000055df4                plat_crash_console_putc
 .text.asm.plat_crash_console_flush
                0x0000000000055e78       0x54 /media/data_nvme/git/uboot/u-boot/build/rk3568/release/bl31/crash_console_helpers.o
                0x0000000000055e78                plat_crash_console_flush
 .text.memchr   0x0000000000055ecc       0x2c /media/data_nvme/git/uboot/u-boot/build/rk3568/release/lib/libc.a(memchr.o)
                0x0000000000055ecc                memchr
 .text.memcmp   0x0000000000055ef8       0x34 /media/data_nvme/git/uboot/u-boot/build/rk3568/release/lib/libc.a(memcmp.o)
                0x0000000000055ef8                memcmp
 .text.memcpy   0x0000000000055f2c       0x20 /media/data_nvme/git/uboot/u-boot/build/rk3568/release/lib/libc.a(memcpy.o)
                0x0000000000055f2c                memcpy
 .text.memmove  0x0000000000055f4c       0x34 /media/data_nvme/git/uboot/u-boot/build/rk3568/release/lib/libc.a(memmove.o)
                0x0000000000055f4c                memmove
 .text.memset   0x0000000000055f80       0x78 /media/data_nvme/git/uboot/u-boot/build/rk3568/release/lib/libc.a(memset.o)
                0x0000000000055f80                memset
 .text.unsigned_num_print.part.0
                0x0000000000055ff8       0xd0 /media/data_nvme/git/uboot/u-boot/build/rk3568/release/lib/libc.a(printf.o)
 .text.vprintf  0x00000000000560c8      0x444 /media/data_nvme/git/uboot/u-boot/build/rk3568/release/lib/libc.a(printf.o)
                0x00000000000560c8                vprintf
 .text.strchr   0x000000000005650c       0x24 /media/data_nvme/git/uboot/u-boot/build/rk3568/release/lib/libc.a(strchr.o)
                0x000000000005650c                strchr
 .text.strlen   0x0000000000056530       0x1c /media/data_nvme/git/uboot/u-boot/build/rk3568/release/lib/libc.a(strlen.o)
                0x0000000000056530                strlen
 .text.strncmp  0x000000000005654c       0x38 /media/data_nvme/git/uboot/u-boot/build/rk3568/release/lib/libc.a(strncmp.o)
                0x000000000005654c                strncmp
 .text.strrchr  0x0000000000056584       0x28 /media/data_nvme/git/uboot/u-boot/build/rk3568/release/lib/libc.a(strrchr.o)
                0x0000000000056584                strrchr
 *(SORT_BY_ALIGNMENT(.rodata*))
 *fill*         0x00000000000565ac        0x4 
 .rodata.psci_args.0
                0x00000000000565b0       0x10 /media/data_nvme/git/uboot/u-boot/build/rk3568/release/bl31/bl31_main.o
 .rodata.plat_rockchip_psci_pm_ops
                0x00000000000565c0       0xb0 /media/data_nvme/git/uboot/u-boot/build/rk3568/release/bl31/plat_pm.o
                0x00000000000565c0                plat_rockchip_psci_pm_ops
 .rodata.rockchip_gic_data
                0x0000000000056670       0x30 /media/data_nvme/git/uboot/u-boot/build/rk3568/release/bl31/rockchip_gicv3.o
                0x0000000000056670                rockchip_gic_data
 .rodata.plat_rk_mmap
                0x00000000000566a0       0x78 /media/data_nvme/git/uboot/u-boot/build/rk3568/release/bl31/soc.o
                0x00000000000566a0                plat_rk_mmap
 .rodata.plat_prefix_str
                0x0000000000056718       0x28 /media/data_nvme/git/uboot/u-boot/build/rk3568/release/bl31/plat_log_common.o
 .rodata.fdt_next_tag
                0x0000000000056740        0x9 /media/data_nvme/git/uboot/u-boot/build/rk3568/release/bl31/fdt.o
 *fill*         0x0000000000056749        0x3 
 .rodata.psci_smc_handler
                0x000000000005674c       0x2c /media/data_nvme/git/uboot/u-boot/build/rk3568/release/bl31/psci_main.o
 .rodata.rk_aux_param_handler
                0x0000000000056778        0x4 /media/data_nvme/git/uboot/u-boot/build/rk3568/release/bl31/params_setup.o
 .rodata.CSWTCH.7
                0x000000000005677c        0xc /media/data_nvme/git/uboot/u-boot/build/rk3568/release/bl31/params_setup.o
 .rodata.g01s_interrupt_props
                0x0000000000056788        0x8 /media/data_nvme/git/uboot/u-boot/build/rk3568/release/bl31/rockchip_gicv3.o
 .rodata.vprintf
                0x0000000000056790       0x30 /media/data_nvme/git/uboot/u-boot/build/rk3568/release/lib/libc.a(printf.o)
 .rodata.build_message
                0x00000000000567c0       0x1e /media/data_nvme/git/uboot/u-boot/build/rk3568/release/bl31/build_message.o
                0x00000000000567c0                build_message
 .rodata.version_string
                0x00000000000567de       0x29 /media/data_nvme/git/uboot/u-boot/build/rk3568/release/bl31/build_message.o
                0x00000000000567de                version_string
 .rodata.bl31_prepare_next_image_entry.str1.1
                0x0000000000056807       0x50 /media/data_nvme/git/uboot/u-boot/build/rk3568/release/bl31/bl31_main.o
 .rodata.bl31_main.str1.1
                0x0000000000056857        0xb /media/data_nvme/git/uboot/u-boot/build/rk3568/release/bl31/bl31_main.o
 .rodata.runtime_svc_init.str1.1
                0x0000000000056862       0x50 /media/data_nvme/git/uboot/u-boot/build/rk3568/release/bl31/runtime_svc.o
 .rodata.cm_setup_context.str1.1
                0x00000000000568b2       0x19 /media/data_nvme/git/uboot/u-boot/build/rk3568/release/bl31/context_mgmt.o
 .rodata.fdt_get_alias_namelen.str1.1
                0x00000000000568cb        0x9 /media/data_nvme/git/uboot/u-boot/build/rk3568/release/bl31/fdt_ro.o
 .rodata.psci_warmboot_entrypoint.str1.1
                0x00000000000568d4       0x22 /media/data_nvme/git/uboot/u-boot/build/rk3568/release/bl31/psci_common.o
 .rodata.psci_cpu_suspend.str1.1
                0x00000000000568f6       0x33 /media/data_nvme/git/uboot/u-boot/build/rk3568/release/bl31/psci_main.o
 .rodata.CSWTCH.13
                0x0000000000056929        0x4 /media/data_nvme/git/uboot/u-boot/build/rk3568/release/bl31/plat_gicv3.o
 .rodata.rk_aux_param_handler.str1.1
                0x000000000005692d       0x2e /media/data_nvme/git/uboot/u-boot/build/rk3568/release/bl31/params_setup.o
 .rodata.params_early_setup.str1.1
                0x000000000005695b       0x1b /media/data_nvme/git/uboot/u-boot/build/rk3568/release/bl31/params_setup.o
 .rodata.rockchip_plat_sip_handler.str1.1
                0x0000000000056976       0x1b /media/data_nvme/git/uboot/u-boot/build/rk3568/release/bl31/rockchip_sip_svc.o
 .rodata.str1.1
                0x0000000000056991       0x11 /media/data_nvme/git/uboot/u-boot/build/rk3568/release/bl31/rockchip_sip_svc.o
 .rodata.__func__.0
                0x00000000000569a2       0x1a /media/data_nvme/git/uboot/u-boot/build/rk3568/release/bl31/rockchip_sip_svc.o
 .rodata.plat_rockchip_soc_init.str1.1
                0x00000000000569bc       0x29 /media/data_nvme/git/uboot/u-boot/build/rk3568/release/bl31/soc.o
 .rodata.rockchip_power_domain_tree_desc
                0x00000000000569e5        0x3 /media/data_nvme/git/uboot/u-boot/build/rk3568/release/bl31/soc.o
                0x00000000000569e5                rockchip_power_domain_tree_desc
 .rodata.str1.1
                0x00000000000569e8        0xd /media/data_nvme/git/uboot/u-boot/build/rk3568/release/bl31/arm_arch_svc_setup.o
 .rodata.str1.1
                0x00000000000569f5        0x8 /media/data_nvme/git/uboot/u-boot/build/rk3568/release/bl31/std_svc_setup.o
 .rodata.str1.1
                0x00000000000569fd       0x32 /media/data_nvme/git/uboot/u-boot/build/rk3568/release/bl31/plat_log_common.o
 .rodata.get_el_str.str1.1
                0x0000000000056a2f        0xc /media/data_nvme/git/uboot/u-boot/build/rk3568/release/bl31/plat_common.o
 .rodata.plat_default_ea_handler.str1.1
                0x0000000000056a3b       0x5a /media/data_nvme/git/uboot/u-boot/build/rk3568/release/bl31/plat_common.o
                                         0x5c (size before relaxing)
 .rodata.mmap_add_region_ctx.str1.1
                0x0000000000056a95       0x2b /media/data_nvme/git/uboot/u-boot/build/rk3568/release/bl31/xlat_tables_core.o
 .rodata.init_xlat_tables_ctx.str1.1
                0x0000000000056ac0       0x4f /media/data_nvme/git/uboot/u-boot/build/rk3568/release/bl31/xlat_tables_core.o
 .rodata.bl_aux_params_parse.str1.1
                0x0000000000056b0f       0x2a /media/data_nvme/git/uboot/u-boot/build/rk3568/release/bl31/bl_aux_params.o
 .rodata.errata_entries
                0x0000000000056b39        0x0 /media/data_nvme/git/uboot/u-boot/build/rk3568/release/bl31/cortex_a55.o
 .rodata.panic_str
                0x0000000000056b39       0x11 /media/data_nvme/git/uboot/u-boot/build/rk3568/release/bl31/debug.o
 .rodata.vprintf.str1.1
                0x0000000000056b4a        0x3 /media/data_nvme/git/uboot/u-boot/build/rk3568/release/lib/libc.a(printf.o)
                0x0000000000056b50                . = ALIGN (0x8)
 *fill*         0x0000000000056b4d        0x3 
                0x0000000000056b50                __RT_SVC_DESCS_START__ = .
 *(SORT_BY_ALIGNMENT(.rt_svc_descs))
 .rt_svc_descs  0x0000000000056b50       0x20 /media/data_nvme/git/uboot/u-boot/build/rk3568/release/bl31/rockchip_sip_svc.o
 .rt_svc_descs  0x0000000000056b70       0x20 /media/data_nvme/git/uboot/u-boot/build/rk3568/release/bl31/arm_arch_svc_setup.o
 .rt_svc_descs  0x0000000000056b90       0x20 /media/data_nvme/git/uboot/u-boot/build/rk3568/release/bl31/std_svc_setup.o
                0x0000000000056bb0                __RT_SVC_DESCS_END__ = .
                0x0000000000056bb0                . = ALIGN (0x8)
                0x0000000000056bb0                __FCONF_POPULATOR_START__ = .
 *(SORT_BY_ALIGNMENT(.fconf_populator))
                0x0000000000056bb0                __FCONF_POPULATOR_END__ = .
                0x0000000000056bb0                . = ALIGN (0x8)
                0x0000000000056bb0                __PMF_SVC_DESCS_START__ = .
 *(SORT_BY_ALIGNMENT(.pmf_svc_descs))
                0x0000000000056bb0                __PMF_SVC_DESCS_END__ = .
                0x0000000000056bb0                . = ALIGN (0x8)
                0x0000000000056bb0                __PARSER_LIB_DESCS_START__ = .
 *(SORT_BY_ALIGNMENT(.img_parser_lib_descs))
                0x0000000000056bb0                __PARSER_LIB_DESCS_END__ = .
                0x0000000000056bb0                . = ALIGN (0x8)
                0x0000000000056bb0                __CPU_OPS_START__ = .
 *(SORT_BY_ALIGNMENT(.cpu_ops))
 .cpu_ops       0x0000000000056bb0       0x50 /media/data_nvme/git/uboot/u-boot/build/rk3568/release/bl31/cortex_a55.o
                0x0000000000056c00                __CPU_OPS_END__ = .
                0x0000000000056c00                . = ALIGN (0x8)
                0x0000000000056c00                __GOT_START__ = .
 *(SORT_BY_ALIGNMENT(.got))
                0x0000000000056c00                __GOT_END__ = .
                0x0000000000056c00                . = ALIGN (0x8)
                0x0000000000056c00                __pubsub_psci_cpu_on_finish_start = .
 *(SORT_BY_ALIGNMENT(.__pubsub_psci_cpu_on_finish))
                0x0000000000056c00                __pubsub_psci_cpu_on_finish_end = .
                0x0000000000056c00                __pubsub_psci_suspend_pwrdown_start_start = .
 *(SORT_BY_ALIGNMENT(.__pubsub_psci_suspend_pwrdown_start))
                0x0000000000056c00                __pubsub_psci_suspend_pwrdown_start_end = .
                0x0000000000056c00                __pubsub_psci_suspend_pwrdown_finish_start = .
 *(SORT_BY_ALIGNMENT(.__pubsub_psci_suspend_pwrdown_finish))
                0x0000000000056c00                __pubsub_psci_suspend_pwrdown_finish_end = .
                0x0000000000056c00                __pubsub_cm_entering_secure_world_start = .
 *(SORT_BY_ALIGNMENT(.__pubsub_cm_entering_secure_world))
 .__pubsub_cm_entering_secure_world
                0x0000000000056c00        0x8 /media/data_nvme/git/uboot/u-boot/build/rk3568/release/bl31/spe.o
                0x0000000000056c00                __cb_func_spe_drain_buffers_hookcm_entering_secure_world
                0x0000000000056c08                __pubsub_cm_entering_secure_world_end = .
                0x0000000000056c08                __pubsub_cm_exited_secure_world_start = .
 *(SORT_BY_ALIGNMENT(.__pubsub_cm_exited_secure_world))
                0x0000000000056c08                __pubsub_cm_exited_secure_world_end = .
                0x0000000000056c08                __pubsub_cm_entering_normal_world_start = .
 *(SORT_BY_ALIGNMENT(.__pubsub_cm_entering_normal_world))
                0x0000000000056c08                __pubsub_cm_entering_normal_world_end = .
                0x0000000000056c08                __pubsub_cm_exited_normal_world_start = .
 *(SORT_BY_ALIGNMENT(.__pubsub_cm_exited_normal_world))
                0x0000000000056c08                __pubsub_cm_exited_normal_world_end = .
 *(SORT_BY_ALIGNMENT(.vectors))
 *fill*         0x0000000000056c08      0x3f8 
 .vectors       0x0000000000057000      0x800 /media/data_nvme/git/uboot/u-boot/build/rk3568/release/bl31/runtime_exceptions.o
                0x0000000000057000                sync_exception_sp_el0
                0x0000000000057000                runtime_exceptions
                0x0000000000057080                irq_sp_el0
                0x0000000000057100                fiq_sp_el0
                0x0000000000057180                serror_sp_el0
                0x0000000000057200                sync_exception_sp_elx
                0x0000000000057280                irq_sp_elx
                0x0000000000057300                fiq_sp_elx
                0x0000000000057380                serror_sp_elx
                0x0000000000057400                sync_exception_aarch64
                0x0000000000057480                irq_aarch64
                0x0000000000057500                fiq_aarch64
                0x0000000000057580                serror_aarch64
                0x0000000000057600                sync_exception_aarch32
                0x0000000000057680                irq_aarch32
                0x0000000000057700                fiq_aarch32
                0x0000000000057780                serror_aarch32
                0x0000000000057800                __RO_END_UNALIGNED__ = .
                0x0000000000058000                . = ALIGN (0x1000)
 *fill*         0x0000000000057800      0x800 
                0x0000000000058000                __RO_END__ = .
                0x0000000000000001                ASSERT ((__CPU_OPS_END__ > __CPU_OPS_START__), cpu_ops not defined for this platform.)
                0x0000000000058000                __RW_START__ = .

.data           0x0000000000058000       0xde
                0x0000000000058000                __DATA_START__ = .
 *(SORT_BY_ALIGNMENT(.data*))
 .data.tf_xlat_ctx
                0x0000000000058000       0x60 /media/data_nvme/git/uboot/u-boot/build/rk3568/release/bl31/xlat_tables_context.o
 .data          0x0000000000058060       0x30 /media/data_nvme/git/uboot/u-boot/build/rk3568/release/bl31/plat_helpers.o
                0x0000000000058060                cpuson_entry_point
                0x0000000000058080                cpuson_flags
 .data.crash_console_reg_stash
                0x0000000000058090       0x28 /media/data_nvme/git/uboot/u-boot/build/rk3568/release/bl31/crash_console_helpers.o
 .data.next_image_type
                0x00000000000580b8        0x4 /media/data_nvme/git/uboot/u-boot/build/rk3568/release/bl31/bl31_main.o
 .data.poweroff_gpio
                0x00000000000580bc        0x8 /media/data_nvme/git/uboot/u-boot/build/rk3568/release/bl31/params_setup.o
 .data.rk_uart_base
                0x00000000000580c4        0x4 /media/data_nvme/git/uboot/u-boot/build/rk3568/release/bl31/params_setup.o
 .data.rk_uart_baudrate
                0x00000000000580c8        0x4 /media/data_nvme/git/uboot/u-boot/build/rk3568/release/bl31/params_setup.o
 .data.rst_gpio
                0x00000000000580cc        0x8 /media/data_nvme/git/uboot/u-boot/build/rk3568/release/bl31/params_setup.o
 .data.max_log_level
                0x00000000000580d4        0x4 /media/data_nvme/git/uboot/u-boot/build/rk3568/release/bl31/tf_log.o
 .data.crash_console_spinlock
                0x00000000000580d8        0x4 /media/data_nvme/git/uboot/u-boot/build/rk3568/release/bl31/crash_console_helpers.o
 .data.console_state
                0x00000000000580dc        0x1 /media/data_nvme/git/uboot/u-boot/build/rk3568/release/bl31/multi_console.o
 .data.crash_console_triggered
                0x00000000000580dd        0x1 /media/data_nvme/git/uboot/u-boot/build/rk3568/release/bl31/crash_console_helpers.o
                0x00000000000580de                __DATA_END__ = .

.igot.plt       0x00000000000580e0        0x0
 .igot.plt      0x00000000000580e0        0x0 /media/data_nvme/git/uboot/u-boot/build/rk3568/release/bl31/bl31_context_mgmt.o

.rela.dyn       0x00000000000580e0        0x0
                0x00000000000580e0                __RELA_START__ = .
 *(SORT_BY_ALIGNMENT(.rela*))
 .rela.iplt     0x00000000000580e0        0x0 /media/data_nvme/git/uboot/u-boot/build/rk3568/release/bl31/bl31_context_mgmt.o
 .rela.text.runtime_svc_init
                0x00000000000580e0        0x0 /media/data_nvme/git/uboot/u-boot/build/rk3568/release/bl31/bl31_context_mgmt.o
 .rela.text.cm_el1_sysregs_context_restore
                0x00000000000580e0        0x0 /media/data_nvme/git/uboot/u-boot/build/rk3568/release/bl31/bl31_context_mgmt.o
 .rela.text.psci_cpu_on_finish
                0x00000000000580e0        0x0 /media/data_nvme/git/uboot/u-boot/build/rk3568/release/bl31/bl31_context_mgmt.o
 .rela.text.psci_cpu_suspend_start
                0x00000000000580e0        0x0 /media/data_nvme/git/uboot/u-boot/build/rk3568/release/bl31/bl31_context_mgmt.o
 .rela.text.psci_cpu_suspend_finish
                0x00000000000580e0        0x0 /media/data_nvme/git/uboot/u-boot/build/rk3568/release/bl31/bl31_context_mgmt.o
 .rela.text.bl31_plat_arch_setup
                0x00000000000580e0        0x0 /media/data_nvme/git/uboot/u-boot/build/rk3568/release/bl31/bl31_context_mgmt.o
 .rela.text.asm.bl31_entrypoint
                0x00000000000580e0        0x0 /media/data_nvme/git/uboot/u-boot/build/rk3568/release/bl31/bl31_context_mgmt.o
 .rela.text.asm.sync_exception_handler
                0x00000000000580e0        0x0 /media/data_nvme/git/uboot/u-boot/build/rk3568/release/bl31/bl31_context_mgmt.o
 .rela.text.asm.get_cpu_ops_ptr
                0x00000000000580e0        0x0 /media/data_nvme/git/uboot/u-boot/build/rk3568/release/bl31/bl31_context_mgmt.o
                0x00000000000580e0                __RELA_END__ = .

.stacks         0x0000000000058100     0x2000
                0x0000000000058100                __STACKS_START__ = .
 *(SORT_BY_ALIGNMENT(.tzfw_normal_stacks))
 .tzfw_normal_stacks
                0x0000000000058100     0x2000 /media/data_nvme/git/uboot/u-boot/build/rk3568/release/bl31/platform_mp_stack.o
                0x000000000005a100                __STACKS_END__ = .

.bss            0x000000000005a100    0x211e0
                0x000000000005a100                __BSS_START__ = .
 *(SORT_BY_ALIGNMENT(.bss*))
 .bss.percpu_data
                0x000000000005a100      0x100 /media/data_nvme/git/uboot/u-boot/build/rk3568/release/bl31/cpu_data_array.o
                0x000000000005a100                percpu_data
 .bss.psci_ns_context
                0x000000000005a200      0x900 /media/data_nvme/git/uboot/u-boot/build/rk3568/release/bl31/psci_setup.o
 .bss.bl32_init
                0x000000000005ab00        0x8 /media/data_nvme/git/uboot/u-boot/build/rk3568/release/bl31/bl31_main.o
 .bss.intr_type_descs
                0x000000000005ab08       0x60 /media/data_nvme/git/uboot/u-boot/build/rk3568/release/bl31/interrupt_mgmt.o
 .bss.gicv3_driver_data
                0x000000000005ab68        0x8 /media/data_nvme/git/uboot/u-boot/build/rk3568/release/bl31/gicv3_main.o
                0x000000000005ab68                gicv3_driver_data
 .bss.timer_ops
                0x000000000005ab70        0x8 /media/data_nvme/git/uboot/u-boot/build/rk3568/release/bl31/delay_timer.o
 .bss.ops       0x000000000005ab78       0x10 /media/data_nvme/git/uboot/u-boot/build/rk3568/release/bl31/generic_delay_timer.o
 .bss.psci_cpu_pd_nodes
                0x000000000005ab88       0x40 /media/data_nvme/git/uboot/u-boot/build/rk3568/release/bl31/psci_common.o
                0x000000000005ab88                psci_cpu_pd_nodes
 .bss.psci_plat_pm_ops
                0x000000000005abc8        0x8 /media/data_nvme/git/uboot/u-boot/build/rk3568/release/bl31/psci_common.o
                0x000000000005abc8                psci_plat_pm_ops
 .bss.psci_spd_pm
                0x000000000005abd0        0x8 /media/data_nvme/git/uboot/u-boot/build/rk3568/release/bl31/psci_common.o
                0x000000000005abd0                psci_spd_pm
 .bss.bl32_ep_info
                0x000000000005abd8       0x58 /media/data_nvme/git/uboot/u-boot/build/rk3568/release/bl31/bl31_plat_setup.o
 .bss.bl33_ep_info
                0x000000000005ac30       0x58 /media/data_nvme/git/uboot/u-boot/build/rk3568/release/bl31/bl31_plat_setup.o
 .bss.console.0
                0x000000000005ac88       0x30 /media/data_nvme/git/uboot/u-boot/build/rk3568/release/bl31/bl31_plat_setup.o
 .bss.fdt_buffer
                0x000000000005acb8    0x20000 /media/data_nvme/git/uboot/u-boot/build/rk3568/release/bl31/params_setup.o
 .bss.rockchip_sec_entrypoint
                0x000000000007acb8        0x8 /media/data_nvme/git/uboot/u-boot/build/rk3568/release/bl31/plat_pm.o
 .bss.rdistif_base_addrs
                0x000000000007acc0       0x20 /media/data_nvme/git/uboot/u-boot/build/rk3568/release/bl31/rockchip_gicv3.o
                0x000000000007acc0                rdistif_base_addrs
 .bss.console_list
                0x000000000007ace0        0x8 /media/data_nvme/git/uboot/u-boot/build/rk3568/release/bl31/multi_console.o
                0x000000000007ace0                console_list
 .bss.mmu_cfg_params
                0x000000000007ace8       0x18 /media/data_nvme/git/uboot/u-boot/build/rk3568/release/bl31/xlat_tables_context.o
                0x000000000007ace8                mmu_cfg_params
 .bss.tf_mmap   0x000000000007ad00      0x460 /media/data_nvme/git/uboot/u-boot/build/rk3568/release/bl31/xlat_tables_context.o
 .bss.psci_locks
                0x000000000007b160       0x10 /media/data_nvme/git/uboot/u-boot/build/rk3568/release/bl31/psci_common.o
                0x000000000007b160                psci_locks
 .bss.psci_non_cpu_pd_nodes
                0x000000000007b170       0x40 /media/data_nvme/git/uboot/u-boot/build/rk3568/release/bl31/psci_common.o
                0x000000000007b170                psci_non_cpu_pd_nodes
 .bss.psci_plat_core_count
                0x000000000007b1b0        0x4 /media/data_nvme/git/uboot/u-boot/build/rk3568/release/bl31/psci_common.o
                0x000000000007b1b0                psci_plat_core_count
 .bss.psci_caps
                0x000000000007b1b4        0x4 /media/data_nvme/git/uboot/u-boot/build/rk3568/release/bl31/psci_setup.o
                0x000000000007b1b4                psci_caps
 .bss.suspend_gpio
                0x000000000007b1b8       0x50 /media/data_nvme/git/uboot/u-boot/build/rk3568/release/bl31/params_setup.o
 .bss.suspend_gpio_cnt
                0x000000000007b208        0x4 /media/data_nvme/git/uboot/u-boot/build/rk3568/release/bl31/params_setup.o
                0x000000000007b208                suspend_gpio_cnt
 .bss.grf_ddr_con3
                0x000000000007b20c        0x4 /media/data_nvme/git/uboot/u-boot/build/rk3568/release/bl31/pmu.o
 .bss.rt_svc_descs_indices
                0x000000000007b210       0x80 /media/data_nvme/git/uboot/u-boot/build/rk3568/release/bl31/runtime_svc.o
                0x000000000007b210                rt_svc_descs_indices
 .bss.gic600_errata_wa_2384374
                0x000000000007b290        0x1 /media/data_nvme/git/uboot/u-boot/build/rk3568/release/bl31/gic-x00.o
 .bss.psci_req_local_pwr_states
                0x000000000007b291        0x8 /media/data_nvme/git/uboot/u-boot/build/rk3568/release/bl31/psci_common.o
 .bss.suspend_apio
                0x000000000007b299        0x1 /media/data_nvme/git/uboot/u-boot/build/rk3568/release/bl31/params_setup.o
 *(SORT_BY_ALIGNMENT(COMMON))
                0x000000000007b2c0                . = ALIGN (0x40)
 *fill*         0x000000000007b29a       0x26 
                0x000000000007b2c0                __BAKERY_LOCK_START__ = .
                0x000000000007b2c0                __PERCPU_BAKERY_LOCK_START__ = .
 *(SORT_BY_ALIGNMENT(.bakery_lock))
                0x000000000007b2c0                . = ALIGN (0x40)
                0x000000000007b2c0                __PERCPU_BAKERY_LOCK_END__ = .
                0x0000000000000000                __PERCPU_BAKERY_LOCK_SIZE__ = ABSOLUTE ((__PERCPU_BAKERY_LOCK_END__ - __PERCPU_BAKERY_LOCK_START__))
                0x000000000007b2c0                . = (. + (__PERCPU_BAKERY_LOCK_SIZE__ * 0x3))
                0x000000000007b2c0                __BAKERY_LOCK_END__ = .
                0x000000000007b2c0                . = ALIGN (0x40)
                0x000000000007b2c0                __PMF_TIMESTAMP_START__ = .
 *(SORT_BY_ALIGNMENT(.pmf_timestamp_array))
                0x000000000007b2c0                . = ALIGN (0x40)
                0x000000000007b2c0                __PMF_PERCPU_TIMESTAMP_END__ = .
                0x0000000000000000                __PERCPU_TIMESTAMP_SIZE__ = ABSOLUTE ((. - __PMF_TIMESTAMP_START__))
                0x000000000007b2c0                . = (. + (__PERCPU_TIMESTAMP_SIZE__ * 0x3))
                0x000000000007b2c0                __PMF_TIMESTAMP_END__ = .
                0x000000000007b2c0                . = ALIGN (0x10)
                0x000000000007b2c0                __BASE_XLAT_TABLE_START__ = .
 *(SORT_BY_ALIGNMENT(.base_xlat_table))
 .base_xlat_table
                0x000000000007b2c0       0x20 /media/data_nvme/git/uboot/u-boot/build/rk3568/release/bl31/xlat_tables_context.o
                0x000000000007b2e0                __BASE_XLAT_TABLE_END__ = .
                0x000000000007b2e0                __BSS_END__ = .

.xlat_table     0x000000000007c000    0x12000
                0x000000000007c000                __XLAT_TABLE_START__ = .
 *(SORT_BY_ALIGNMENT(.xlat_table))
 .xlat_table    0x000000000007c000    0x12000 /media/data_nvme/git/uboot/u-boot/build/rk3568/release/bl31/xlat_tables_context.o
                0x000000000008e000                __XLAT_TABLE_END__ = .
                0x000000000008e000                __RW_END__ = .
                0x000000000008e000                __BL31_END__ = .
                0x0000000000000001                ASSERT ((. <= 0x100000), BL31 image has exceeded its limit.)
                0x000000000008e000                RAM_REGION_END = .

/DISCARD/
 *(SORT_BY_ALIGNMENT(.dynsym) SORT_BY_ALIGNMENT(.dynstr) SORT_BY_ALIGNMENT(.hash) SORT_BY_ALIGNMENT(.gnu.hash))
LOAD /media/data_nvme/git/uboot/u-boot/build/rk3568/release/bl31/build_message.o
LOAD /media/data_nvme/git/uboot/u-boot/build/rk3568/release/bl31/bl31_context_mgmt.o
LOAD /media/data_nvme/git/uboot/u-boot/build/rk3568/release/bl31/bl31_main.o
LOAD /media/data_nvme/git/uboot/u-boot/build/rk3568/release/bl31/bl31_traps.o
LOAD /media/data_nvme/git/uboot/u-boot/build/rk3568/release/bl31/interrupt_mgmt.o
LOAD /media/data_nvme/git/uboot/u-boot/build/rk3568/release/bl31/runtime_svc.o
LOAD /media/data_nvme/git/uboot/u-boot/build/rk3568/release/bl31/cci.o
LOAD /media/data_nvme/git/uboot/u-boot/build/rk3568/release/bl31/arm_gicv3_common.o
LOAD /media/data_nvme/git/uboot/u-boot/build/rk3568/release/bl31/gic-x00.o
LOAD /media/data_nvme/git/uboot/u-boot/build/rk3568/release/bl31/gicdv3_helpers.o
LOAD /media/data_nvme/git/uboot/u-boot/build/rk3568/release/bl31/gicrv3_helpers.o
LOAD /media/data_nvme/git/uboot/u-boot/build/rk3568/release/bl31/gicv3_helpers.o
LOAD /media/data_nvme/git/uboot/u-boot/build/rk3568/release/bl31/gicv3_main.o
LOAD /media/data_nvme/git/uboot/u-boot/build/rk3568/release/bl31/delay_timer.o
LOAD /media/data_nvme/git/uboot/u-boot/build/rk3568/release/bl31/generic_delay_timer.o
LOAD /media/data_nvme/git/uboot/u-boot/build/rk3568/release/bl31/errata_report.o
LOAD /media/data_nvme/git/uboot/u-boot/build/rk3568/release/bl31/context_mgmt.o
LOAD /media/data_nvme/git/uboot/u-boot/build/rk3568/release/bl31/cpu_data_array.o
LOAD /media/data_nvme/git/uboot/u-boot/build/rk3568/release/bl31/spe.o
LOAD /media/data_nvme/git/uboot/u-boot/build/rk3568/release/bl31/sve.o
LOAD /media/data_nvme/git/uboot/u-boot/build/rk3568/release/bl31/fdt.o
LOAD /media/data_nvme/git/uboot/u-boot/build/rk3568/release/bl31/fdt_addresses.o
LOAD /media/data_nvme/git/uboot/u-boot/build/rk3568/release/bl31/fdt_empty_tree.o
LOAD /media/data_nvme/git/uboot/u-boot/build/rk3568/release/bl31/fdt_ro.o
LOAD /media/data_nvme/git/uboot/u-boot/build/rk3568/release/bl31/fdt_rw.o
LOAD /media/data_nvme/git/uboot/u-boot/build/rk3568/release/bl31/fdt_strerror.o
LOAD /media/data_nvme/git/uboot/u-boot/build/rk3568/release/bl31/fdt_sw.o
LOAD /media/data_nvme/git/uboot/u-boot/build/rk3568/release/bl31/fdt_wip.o
LOAD /media/data_nvme/git/uboot/u-boot/build/rk3568/release/bl31/bakery_lock_normal.o
LOAD /media/data_nvme/git/uboot/u-boot/build/rk3568/release/bl31/psci_common.o
LOAD /media/data_nvme/git/uboot/u-boot/build/rk3568/release/bl31/psci_main.o
LOAD /media/data_nvme/git/uboot/u-boot/build/rk3568/release/bl31/psci_mem_protect.o
LOAD /media/data_nvme/git/uboot/u-boot/build/rk3568/release/bl31/psci_off.o
LOAD /media/data_nvme/git/uboot/u-boot/build/rk3568/release/bl31/psci_on.o
LOAD /media/data_nvme/git/uboot/u-boot/build/rk3568/release/bl31/psci_setup.o
LOAD /media/data_nvme/git/uboot/u-boot/build/rk3568/release/bl31/psci_suspend.o
LOAD /media/data_nvme/git/uboot/u-boot/build/rk3568/release/bl31/psci_system_off.o
LOAD /media/data_nvme/git/uboot/u-boot/build/rk3568/release/bl31/plat_gicv3.o
LOAD /media/data_nvme/git/uboot/u-boot/build/rk3568/release/bl31/platform_common.o
LOAD /media/data_nvme/git/uboot/u-boot/build/rk3568/release/bl31/bl31_plat_setup.o
LOAD /media/data_nvme/git/uboot/u-boot/build/rk3568/release/bl31/ddr_parameter.o
LOAD /media/data_nvme/git/uboot/u-boot/build/rk3568/release/bl31/params_setup.o
LOAD /media/data_nvme/git/uboot/u-boot/build/rk3568/release/bl31/plat_pm.o
LOAD /media/data_nvme/git/uboot/u-boot/build/rk3568/release/bl31/plat_topology.o
LOAD /media/data_nvme/git/uboot/u-boot/build/rk3568/release/bl31/rockchip_gicv3.o
LOAD /media/data_nvme/git/uboot/u-boot/build/rk3568/release/bl31/rockchip_sip_svc.o
LOAD /media/data_nvme/git/uboot/u-boot/build/rk3568/release/bl31/pmu.o
LOAD /media/data_nvme/git/uboot/u-boot/build/rk3568/release/bl31/soc.o
LOAD /media/data_nvme/git/uboot/u-boot/build/rk3568/release/bl31/arm_arch_svc_setup.o
LOAD /media/data_nvme/git/uboot/u-boot/build/rk3568/release/bl31/std_svc_setup.o
LOAD /media/data_nvme/git/uboot/u-boot/build/rk3568/release/bl31/bl_common.o
LOAD /media/data_nvme/git/uboot/u-boot/build/rk3568/release/bl31/tf_log.o
LOAD /media/data_nvme/git/uboot/u-boot/build/rk3568/release/bl31/multi_console.o
LOAD /media/data_nvme/git/uboot/u-boot/build/rk3568/release/bl31/pmuv3.o
LOAD /media/data_nvme/git/uboot/u-boot/build/rk3568/release/bl31/plat_bl_common.o
LOAD /media/data_nvme/git/uboot/u-boot/build/rk3568/release/bl31/plat_log_common.o
LOAD /media/data_nvme/git/uboot/u-boot/build/rk3568/release/bl31/plat_common.o
LOAD /media/data_nvme/git/uboot/u-boot/build/rk3568/release/bl31/popcountdi2.o
LOAD /media/data_nvme/git/uboot/u-boot/build/rk3568/release/bl31/popcountsi2.o
LOAD /media/data_nvme/git/uboot/u-boot/build/rk3568/release/bl31/xlat_tables_arch.o
LOAD /media/data_nvme/git/uboot/u-boot/build/rk3568/release/bl31/xlat_tables_context.o
LOAD /media/data_nvme/git/uboot/u-boot/build/rk3568/release/bl31/xlat_tables_core.o
LOAD /media/data_nvme/git/uboot/u-boot/build/rk3568/release/bl31/xlat_tables_utils.o
LOAD /media/data_nvme/git/uboot/u-boot/build/rk3568/release/bl31/desc_image_load.o
LOAD /media/data_nvme/git/uboot/u-boot/build/rk3568/release/bl31/bl_aux_params.o
LOAD /media/data_nvme/git/uboot/u-boot/build/rk3568/release/bl31/plat_psci_common.o
LOAD /media/data_nvme/git/uboot/u-boot/build/rk3568/release/bl31/bl31_entrypoint.o
LOAD /media/data_nvme/git/uboot/u-boot/build/rk3568/release/bl31/crash_reporting.o
LOAD /media/data_nvme/git/uboot/u-boot/build/rk3568/release/bl31/ea_delegate.o
LOAD /media/data_nvme/git/uboot/u-boot/build/rk3568/release/bl31/runtime_exceptions.o
LOAD /media/data_nvme/git/uboot/u-boot/build/rk3568/release/bl31/16550_console.o
LOAD /media/data_nvme/git/uboot/u-boot/build/rk3568/release/bl31/cortex_a55.o
LOAD /media/data_nvme/git/uboot/u-boot/build/rk3568/release/bl31/cpu_helpers.o
LOAD /media/data_nvme/git/uboot/u-boot/build/rk3568/release/bl31/dsu_helpers.o
LOAD /media/data_nvme/git/uboot/u-boot/build/rk3568/release/bl31/wa_cve_2017_5715_bpiall.o
LOAD /media/data_nvme/git/uboot/u-boot/build/rk3568/release/bl31/wa_cve_2017_5715_mmu.o
LOAD /media/data_nvme/git/uboot/u-boot/build/rk3568/release/bl31/context.o
LOAD /media/data_nvme/git/uboot/u-boot/build/rk3568/release/bl31/cpu_data.o
LOAD /media/data_nvme/git/uboot/u-boot/build/rk3568/release/bl31/spinlock.o
LOAD /media/data_nvme/git/uboot/u-boot/build/rk3568/release/bl31/psci_helpers.o
LOAD /media/data_nvme/git/uboot/u-boot/build/rk3568/release/bl31/runtime_errata.o
LOAD /media/data_nvme/git/uboot/u-boot/build/rk3568/release/bl31/platform_mp_stack.o
LOAD /media/data_nvme/git/uboot/u-boot/build/rk3568/release/bl31/plat_helpers.o
LOAD /media/data_nvme/git/uboot/u-boot/build/rk3568/release/bl31/cpus_on_fixed_addr.o
LOAD /media/data_nvme/git/uboot/u-boot/build/rk3568/release/bl31/debug.o
LOAD /media/data_nvme/git/uboot/u-boot/build/rk3568/release/bl31/cache_helpers.o
LOAD /media/data_nvme/git/uboot/u-boot/build/rk3568/release/bl31/misc_helpers.o
LOAD /media/data_nvme/git/uboot/u-boot/build/rk3568/release/bl31/platform_helpers.o
LOAD /media/data_nvme/git/uboot/u-boot/build/rk3568/release/bl31/enable_mmu.o
LOAD /media/data_nvme/git/uboot/u-boot/build/rk3568/release/bl31/crash_console_helpers.o
LOAD /media/data_nvme/git/uboot/u-boot/build/rk3568/release/lib/libfdt.a
LOAD /media/data_nvme/git/uboot/u-boot/build/rk3568/release/lib/libc.a
OUTPUT(/media/data_nvme/git/uboot/u-boot/build/rk3568/release/bl31/bl31.elf elf64-littleaarch64)
LOAD linker stubs

.debug_info     0x0000000000000000    0x2848b
 .debug_info    0x0000000000000000       0xae /media/data_nvme/git/uboot/u-boot/build/rk3568/release/bl31/build_message.o
 .debug_info    0x00000000000000ae      0x4ff /media/data_nvme/git/uboot/u-boot/build/rk3568/release/bl31/bl31_context_mgmt.o
 .debug_info    0x00000000000005ad      0x850 /media/data_nvme/git/uboot/u-boot/build/rk3568/release/bl31/bl31_main.o
 .debug_info    0x0000000000000dfd      0x23c /media/data_nvme/git/uboot/u-boot/build/rk3568/release/bl31/bl31_traps.o
 .debug_info    0x0000000000001039      0x7b0 /media/data_nvme/git/uboot/u-boot/build/rk3568/release/bl31/interrupt_mgmt.o
 .debug_info    0x00000000000017e9      0x78b /media/data_nvme/git/uboot/u-boot/build/rk3568/release/bl31/runtime_svc.o
 .debug_info    0x0000000000001f74      0xa3e /media/data_nvme/git/uboot/u-boot/build/rk3568/release/bl31/gic-x00.o
 .debug_info    0x00000000000029b2     0x116a /media/data_nvme/git/uboot/u-boot/build/rk3568/release/bl31/gicdv3_helpers.o
 .debug_info    0x0000000000003b1c      0xa65 /media/data_nvme/git/uboot/u-boot/build/rk3568/release/bl31/gicrv3_helpers.o
 .debug_info    0x0000000000004581     0x138b /media/data_nvme/git/uboot/u-boot/build/rk3568/release/bl31/gicv3_helpers.o
 .debug_info    0x000000000000590c     0x498b /media/data_nvme/git/uboot/u-boot/build/rk3568/release/bl31/gicv3_main.o
 .debug_info    0x000000000000a297      0x266 /media/data_nvme/git/uboot/u-boot/build/rk3568/release/bl31/delay_timer.o
 .debug_info    0x000000000000a4fd      0x297 /media/data_nvme/git/uboot/u-boot/build/rk3568/release/bl31/generic_delay_timer.o
 .debug_info    0x000000000000a794       0xec /media/data_nvme/git/uboot/u-boot/build/rk3568/release/bl31/errata_report.o
 .debug_info    0x000000000000a880     0x1b42 /media/data_nvme/git/uboot/u-boot/build/rk3568/release/bl31/context_mgmt.o
 .debug_info    0x000000000000c3c2      0x1ed /media/data_nvme/git/uboot/u-boot/build/rk3568/release/bl31/cpu_data_array.o
 .debug_info    0x000000000000c5af      0x4ad /media/data_nvme/git/uboot/u-boot/build/rk3568/release/bl31/spe.o
 .debug_info    0x000000000000ca5c      0x287 /media/data_nvme/git/uboot/u-boot/build/rk3568/release/bl31/sve.o
 .debug_info    0x000000000000cce3      0xf1a /media/data_nvme/git/uboot/u-boot/build/rk3568/release/bl31/fdt.o
 .debug_info    0x000000000000dbfd     0x297c /media/data_nvme/git/uboot/u-boot/build/rk3568/release/bl31/fdt_ro.o
 .debug_info    0x0000000000010579     0x2eec /media/data_nvme/git/uboot/u-boot/build/rk3568/release/bl31/fdt_rw.o
 .debug_info    0x0000000000013465     0x2245 /media/data_nvme/git/uboot/u-boot/build/rk3568/release/bl31/psci_common.o
 .debug_info    0x00000000000156aa     0x14ad /media/data_nvme/git/uboot/u-boot/build/rk3568/release/bl31/psci_main.o
 .debug_info    0x0000000000016b57      0x4e5 /media/data_nvme/git/uboot/u-boot/build/rk3568/release/bl31/psci_mem_protect.o
 .debug_info    0x000000000001703c      0x948 /media/data_nvme/git/uboot/u-boot/build/rk3568/release/bl31/psci_off.o
 .debug_info    0x0000000000017984      0xe39 /media/data_nvme/git/uboot/u-boot/build/rk3568/release/bl31/psci_on.o
 .debug_info    0x00000000000187bd      0xebc /media/data_nvme/git/uboot/u-boot/build/rk3568/release/bl31/psci_setup.o
 .debug_info    0x0000000000019679      0xf41 /media/data_nvme/git/uboot/u-boot/build/rk3568/release/bl31/psci_suspend.o
 .debug_info    0x000000000001a5ba      0x65b /media/data_nvme/git/uboot/u-boot/build/rk3568/release/bl31/psci_system_off.o
 .debug_info    0x000000000001ac15      0xb48 /media/data_nvme/git/uboot/u-boot/build/rk3568/release/bl31/plat_gicv3.o
 .debug_info    0x000000000001b75d      0x2ee /media/data_nvme/git/uboot/u-boot/build/rk3568/release/bl31/platform_common.o
 .debug_info    0x000000000001ba4b      0x689 /media/data_nvme/git/uboot/u-boot/build/rk3568/release/bl31/bl31_plat_setup.o
 .debug_info    0x000000000001c0d4      0x8b7 /media/data_nvme/git/uboot/u-boot/build/rk3568/release/bl31/params_setup.o
 .debug_info    0x000000000001c98b      0xf20 /media/data_nvme/git/uboot/u-boot/build/rk3568/release/bl31/plat_pm.o
 .debug_info    0x000000000001d8ab      0x189 /media/data_nvme/git/uboot/u-boot/build/rk3568/release/bl31/plat_topology.o
 .debug_info    0x000000000001da34      0x43f /media/data_nvme/git/uboot/u-boot/build/rk3568/release/bl31/rockchip_gicv3.o
 .debug_info    0x000000000001de73      0x6e7 /media/data_nvme/git/uboot/u-boot/build/rk3568/release/bl31/rockchip_sip_svc.o
 .debug_info    0x000000000001e55a     0x242e /media/data_nvme/git/uboot/u-boot/build/rk3568/release/bl31/pmu.o
 .debug_info    0x0000000000020988      0x9e3 /media/data_nvme/git/uboot/u-boot/build/rk3568/release/bl31/soc.o
 .debug_info    0x000000000002136b      0x53b /media/data_nvme/git/uboot/u-boot/build/rk3568/release/bl31/arm_arch_svc_setup.o
 .debug_info    0x00000000000218a6      0x684 /media/data_nvme/git/uboot/u-boot/build/rk3568/release/bl31/std_svc_setup.o
 .debug_info    0x0000000000021f2a      0x63c /media/data_nvme/git/uboot/u-boot/build/rk3568/release/bl31/bl_common.o
 .debug_info    0x0000000000022566      0x284 /media/data_nvme/git/uboot/u-boot/build/rk3568/release/bl31/tf_log.o
 .debug_info    0x00000000000227ea      0x538 /media/data_nvme/git/uboot/u-boot/build/rk3568/release/bl31/multi_console.o
 .debug_info    0x0000000000022d22      0x503 /media/data_nvme/git/uboot/u-boot/build/rk3568/release/bl31/pmuv3.o
 .debug_info    0x0000000000023225      0x4d3 /media/data_nvme/git/uboot/u-boot/build/rk3568/release/bl31/plat_bl_common.o
 .debug_info    0x00000000000236f8      0x14a /media/data_nvme/git/uboot/u-boot/build/rk3568/release/bl31/plat_log_common.o
 .debug_info    0x0000000000023842      0x39d /media/data_nvme/git/uboot/u-boot/build/rk3568/release/bl31/plat_common.o
 .debug_info    0x0000000000023bdf      0xc07 /media/data_nvme/git/uboot/u-boot/build/rk3568/release/bl31/xlat_tables_arch.o
 .debug_info    0x00000000000247e6      0x897 /media/data_nvme/git/uboot/u-boot/build/rk3568/release/bl31/xlat_tables_context.o
 .debug_info    0x000000000002507d      0xde5 /media/data_nvme/git/uboot/u-boot/build/rk3568/release/bl31/xlat_tables_core.o
 .debug_info    0x0000000000025e62      0x8df /media/data_nvme/git/uboot/u-boot/build/rk3568/release/bl31/xlat_tables_utils.o
 .debug_info    0x0000000000026741      0x8e4 /media/data_nvme/git/uboot/u-boot/build/rk3568/release/bl31/desc_image_load.o
 .debug_info    0x0000000000027025      0x18c /media/data_nvme/git/uboot/u-boot/build/rk3568/release/bl31/bl_aux_params.o
 .debug_info    0x00000000000271b1      0x195 /media/data_nvme/git/uboot/u-boot/build/rk3568/release/bl31/plat_psci_common.o
 .debug_info    0x0000000000027346       0x22 /media/data_nvme/git/uboot/u-boot/build/rk3568/release/bl31/bl31_entrypoint.o
 .debug_info    0x0000000000027368       0x22 /media/data_nvme/git/uboot/u-boot/build/rk3568/release/bl31/crash_reporting.o
 .debug_info    0x000000000002738a       0x22 /media/data_nvme/git/uboot/u-boot/build/rk3568/release/bl31/ea_delegate.o
 .debug_info    0x00000000000273ac       0x22 /media/data_nvme/git/uboot/u-boot/build/rk3568/release/bl31/runtime_exceptions.o
 .debug_info    0x00000000000273ce       0x22 /media/data_nvme/git/uboot/u-boot/build/rk3568/release/bl31/16550_console.o
 .debug_info    0x00000000000273f0       0x22 /media/data_nvme/git/uboot/u-boot/build/rk3568/release/bl31/cortex_a55.o
 .debug_info    0x0000000000027412       0x22 /media/data_nvme/git/uboot/u-boot/build/rk3568/release/bl31/cpu_helpers.o
 .debug_info    0x0000000000027434       0x22 /media/data_nvme/git/uboot/u-boot/build/rk3568/release/bl31/context.o
 .debug_info    0x0000000000027456       0x22 /media/data_nvme/git/uboot/u-boot/build/rk3568/release/bl31/cpu_data.o
 .debug_info    0x0000000000027478       0x22 /media/data_nvme/git/uboot/u-boot/build/rk3568/release/bl31/spinlock.o
 .debug_info    0x000000000002749a       0x22 /media/data_nvme/git/uboot/u-boot/build/rk3568/release/bl31/psci_helpers.o
 .debug_info    0x00000000000274bc       0x22 /media/data_nvme/git/uboot/u-boot/build/rk3568/release/bl31/platform_mp_stack.o
 .debug_info    0x00000000000274de       0x22 /media/data_nvme/git/uboot/u-boot/build/rk3568/release/bl31/plat_helpers.o
 .debug_info    0x0000000000027500       0x27 /media/data_nvme/git/uboot/u-boot/build/rk3568/release/bl31/cpus_on_fixed_addr.o
 .debug_info    0x0000000000027527       0x22 /media/data_nvme/git/uboot/u-boot/build/rk3568/release/bl31/debug.o
 .debug_info    0x0000000000027549       0x22 /media/data_nvme/git/uboot/u-boot/build/rk3568/release/bl31/cache_helpers.o
 .debug_info    0x000000000002756b       0x22 /media/data_nvme/git/uboot/u-boot/build/rk3568/release/bl31/misc_helpers.o
 .debug_info    0x000000000002758d       0x22 /media/data_nvme/git/uboot/u-boot/build/rk3568/release/bl31/platform_helpers.o
 .debug_info    0x00000000000275af       0x22 /media/data_nvme/git/uboot/u-boot/build/rk3568/release/bl31/enable_mmu.o
 .debug_info    0x00000000000275d1       0x22 /media/data_nvme/git/uboot/u-boot/build/rk3568/release/bl31/crash_console_helpers.o
 .debug_info    0x00000000000275f3       0xd5 /media/data_nvme/git/uboot/u-boot/build/rk3568/release/lib/libc.a(memchr.o)
 .debug_info    0x00000000000276c8      0x10b /media/data_nvme/git/uboot/u-boot/build/rk3568/release/lib/libc.a(memcmp.o)
 .debug_info    0x00000000000277d3       0xdc /media/data_nvme/git/uboot/u-boot/build/rk3568/release/lib/libc.a(memcpy.o)
 .debug_info    0x00000000000278af      0x135 /media/data_nvme/git/uboot/u-boot/build/rk3568/release/lib/libc.a(memmove.o)
 .debug_info    0x00000000000279e4      0x151 /media/data_nvme/git/uboot/u-boot/build/rk3568/release/lib/libc.a(memset.o)
 .debug_info    0x0000000000027b35      0x689 /media/data_nvme/git/uboot/u-boot/build/rk3568/release/lib/libc.a(printf.o)
 .debug_info    0x00000000000281be       0xb1 /media/data_nvme/git/uboot/u-boot/build/rk3568/release/lib/libc.a(strchr.o)
 .debug_info    0x000000000002826f       0x9f /media/data_nvme/git/uboot/u-boot/build/rk3568/release/lib/libc.a(strlen.o)
 .debug_info    0x000000000002830e       0xb8 /media/data_nvme/git/uboot/u-boot/build/rk3568/release/lib/libc.a(strncmp.o)
 .debug_info    0x00000000000283c6       0xc5 /media/data_nvme/git/uboot/u-boot/build/rk3568/release/lib/libc.a(strrchr.o)

.debug_abbrev   0x0000000000000000     0x8e14
 .debug_abbrev  0x0000000000000000       0x45 /media/data_nvme/git/uboot/u-boot/build/rk3568/release/bl31/build_message.o
 .debug_abbrev  0x0000000000000045      0x225 /media/data_nvme/git/uboot/u-boot/build/rk3568/release/bl31/bl31_context_mgmt.o
 .debug_abbrev  0x000000000000026a      0x314 /media/data_nvme/git/uboot/u-boot/build/rk3568/release/bl31/bl31_main.o
 .debug_abbrev  0x000000000000057e      0x14f /media/data_nvme/git/uboot/u-boot/build/rk3568/release/bl31/bl31_traps.o
 .debug_abbrev  0x00000000000006cd      0x255 /media/data_nvme/git/uboot/u-boot/build/rk3568/release/bl31/interrupt_mgmt.o
 .debug_abbrev  0x0000000000000922      0x2d2 /media/data_nvme/git/uboot/u-boot/build/rk3568/release/bl31/runtime_svc.o
 .debug_abbrev  0x0000000000000bf4      0x2e8 /media/data_nvme/git/uboot/u-boot/build/rk3568/release/bl31/gic-x00.o
 .debug_abbrev  0x0000000000000edc      0x16a /media/data_nvme/git/uboot/u-boot/build/rk3568/release/bl31/gicdv3_helpers.o
 .debug_abbrev  0x0000000000001046      0x16a /media/data_nvme/git/uboot/u-boot/build/rk3568/release/bl31/gicrv3_helpers.o
 .debug_abbrev  0x00000000000011b0      0x3bd /media/data_nvme/git/uboot/u-boot/build/rk3568/release/bl31/gicv3_helpers.o
 .debug_abbrev  0x000000000000156d      0x50a /media/data_nvme/git/uboot/u-boot/build/rk3568/release/bl31/gicv3_main.o
 .debug_abbrev  0x0000000000001a77      0x126 /media/data_nvme/git/uboot/u-boot/build/rk3568/release/bl31/delay_timer.o
 .debug_abbrev  0x0000000000001b9d      0x1a8 /media/data_nvme/git/uboot/u-boot/build/rk3568/release/bl31/generic_delay_timer.o
 .debug_abbrev  0x0000000000001d45       0x69 /media/data_nvme/git/uboot/u-boot/build/rk3568/release/bl31/errata_report.o
 .debug_abbrev  0x0000000000001dae      0x4bf /media/data_nvme/git/uboot/u-boot/build/rk3568/release/bl31/context_mgmt.o
 .debug_abbrev  0x000000000000226d      0x11c /media/data_nvme/git/uboot/u-boot/build/rk3568/release/bl31/cpu_data_array.o
 .debug_abbrev  0x0000000000002389      0x215 /media/data_nvme/git/uboot/u-boot/build/rk3568/release/bl31/spe.o
 .debug_abbrev  0x000000000000259e      0x167 /media/data_nvme/git/uboot/u-boot/build/rk3568/release/bl31/sve.o
 .debug_abbrev  0x0000000000002705      0x2c2 /media/data_nvme/git/uboot/u-boot/build/rk3568/release/bl31/fdt.o
 .debug_abbrev  0x00000000000029c7      0x39a /media/data_nvme/git/uboot/u-boot/build/rk3568/release/bl31/fdt_ro.o
 .debug_abbrev  0x0000000000002d61      0x437 /media/data_nvme/git/uboot/u-boot/build/rk3568/release/bl31/fdt_rw.o
 .debug_abbrev  0x0000000000003198      0x4fb /media/data_nvme/git/uboot/u-boot/build/rk3568/release/bl31/psci_common.o
 .debug_abbrev  0x0000000000003693      0x4a5 /media/data_nvme/git/uboot/u-boot/build/rk3568/release/bl31/psci_main.o
 .debug_abbrev  0x0000000000003b38      0x16a /media/data_nvme/git/uboot/u-boot/build/rk3568/release/bl31/psci_mem_protect.o
 .debug_abbrev  0x0000000000003ca2      0x2d9 /media/data_nvme/git/uboot/u-boot/build/rk3568/release/bl31/psci_off.o
 .debug_abbrev  0x0000000000003f7b      0x34f /media/data_nvme/git/uboot/u-boot/build/rk3568/release/bl31/psci_on.o
 .debug_abbrev  0x00000000000042ca      0x402 /media/data_nvme/git/uboot/u-boot/build/rk3568/release/bl31/psci_setup.o
 .debug_abbrev  0x00000000000046cc      0x42e /media/data_nvme/git/uboot/u-boot/build/rk3568/release/bl31/psci_suspend.o
 .debug_abbrev  0x0000000000004afa      0x1af /media/data_nvme/git/uboot/u-boot/build/rk3568/release/bl31/psci_system_off.o
 .debug_abbrev  0x0000000000004ca9      0x2c2 /media/data_nvme/git/uboot/u-boot/build/rk3568/release/bl31/plat_gicv3.o
 .debug_abbrev  0x0000000000004f6b      0x16a /media/data_nvme/git/uboot/u-boot/build/rk3568/release/bl31/platform_common.o
 .debug_abbrev  0x00000000000050d5      0x1c5 /media/data_nvme/git/uboot/u-boot/build/rk3568/release/bl31/bl31_plat_setup.o
 .debug_abbrev  0x000000000000529a      0x2e4 /media/data_nvme/git/uboot/u-boot/build/rk3568/release/bl31/params_setup.o
 .debug_abbrev  0x000000000000557e      0x51a /media/data_nvme/git/uboot/u-boot/build/rk3568/release/bl31/plat_pm.o
 .debug_abbrev  0x0000000000005a98       0xdb /media/data_nvme/git/uboot/u-boot/build/rk3568/release/bl31/plat_topology.o
 .debug_abbrev  0x0000000000005b73      0x19e /media/data_nvme/git/uboot/u-boot/build/rk3568/release/bl31/rockchip_gicv3.o
 .debug_abbrev  0x0000000000005d11      0x2ab /media/data_nvme/git/uboot/u-boot/build/rk3568/release/bl31/rockchip_sip_svc.o
 .debug_abbrev  0x0000000000005fbc      0x3fb /media/data_nvme/git/uboot/u-boot/build/rk3568/release/bl31/pmu.o
 .debug_abbrev  0x00000000000063b7      0x1ee /media/data_nvme/git/uboot/u-boot/build/rk3568/release/bl31/soc.o
 .debug_abbrev  0x00000000000065a5      0x247 /media/data_nvme/git/uboot/u-boot/build/rk3568/release/bl31/arm_arch_svc_setup.o
 .debug_abbrev  0x00000000000067ec      0x281 /media/data_nvme/git/uboot/u-boot/build/rk3568/release/bl31/std_svc_setup.o
 .debug_abbrev  0x0000000000006a6d      0x211 /media/data_nvme/git/uboot/u-boot/build/rk3568/release/bl31/bl_common.o
 .debug_abbrev  0x0000000000006c7e      0x13f /media/data_nvme/git/uboot/u-boot/build/rk3568/release/bl31/tf_log.o
 .debug_abbrev  0x0000000000006dbd      0x228 /media/data_nvme/git/uboot/u-boot/build/rk3568/release/bl31/multi_console.o
 .debug_abbrev  0x0000000000006fe5      0x235 /media/data_nvme/git/uboot/u-boot/build/rk3568/release/bl31/pmuv3.o
 .debug_abbrev  0x000000000000721a      0x2a4 /media/data_nvme/git/uboot/u-boot/build/rk3568/release/bl31/plat_bl_common.o
 .debug_abbrev  0x00000000000074be       0xbf /media/data_nvme/git/uboot/u-boot/build/rk3568/release/bl31/plat_log_common.o
 .debug_abbrev  0x000000000000757d      0x183 /media/data_nvme/git/uboot/u-boot/build/rk3568/release/bl31/plat_common.o
 .debug_abbrev  0x0000000000007700      0x2ef /media/data_nvme/git/uboot/u-boot/build/rk3568/release/bl31/xlat_tables_arch.o
 .debug_abbrev  0x00000000000079ef      0x1ed /media/data_nvme/git/uboot/u-boot/build/rk3568/release/bl31/xlat_tables_context.o
 .debug_abbrev  0x0000000000007bdc      0x323 /media/data_nvme/git/uboot/u-boot/build/rk3568/release/bl31/xlat_tables_core.o
 .debug_abbrev  0x0000000000007eff      0x255 /media/data_nvme/git/uboot/u-boot/build/rk3568/release/bl31/xlat_tables_utils.o
 .debug_abbrev  0x0000000000008154      0x206 /media/data_nvme/git/uboot/u-boot/build/rk3568/release/bl31/desc_image_load.o
 .debug_abbrev  0x000000000000835a       0xef /media/data_nvme/git/uboot/u-boot/build/rk3568/release/bl31/bl_aux_params.o
 .debug_abbrev  0x0000000000008449       0xc3 /media/data_nvme/git/uboot/u-boot/build/rk3568/release/bl31/plat_psci_common.o
 .debug_abbrev  0x000000000000850c       0x12 /media/data_nvme/git/uboot/u-boot/build/rk3568/release/bl31/bl31_entrypoint.o
 .debug_abbrev  0x000000000000851e       0x12 /media/data_nvme/git/uboot/u-boot/build/rk3568/release/bl31/crash_reporting.o
 .debug_abbrev  0x0000000000008530       0x12 /media/data_nvme/git/uboot/u-boot/build/rk3568/release/bl31/ea_delegate.o
 .debug_abbrev  0x0000000000008542       0x12 /media/data_nvme/git/uboot/u-boot/build/rk3568/release/bl31/runtime_exceptions.o
 .debug_abbrev  0x0000000000008554       0x12 /media/data_nvme/git/uboot/u-boot/build/rk3568/release/bl31/16550_console.o
 .debug_abbrev  0x0000000000008566       0x12 /media/data_nvme/git/uboot/u-boot/build/rk3568/release/bl31/cortex_a55.o
 .debug_abbrev  0x0000000000008578       0x12 /media/data_nvme/git/uboot/u-boot/build/rk3568/release/bl31/cpu_helpers.o
 .debug_abbrev  0x000000000000858a       0x12 /media/data_nvme/git/uboot/u-boot/build/rk3568/release/bl31/context.o
 .debug_abbrev  0x000000000000859c       0x12 /media/data_nvme/git/uboot/u-boot/build/rk3568/release/bl31/cpu_data.o
 .debug_abbrev  0x00000000000085ae       0x12 /media/data_nvme/git/uboot/u-boot/build/rk3568/release/bl31/spinlock.o
 .debug_abbrev  0x00000000000085c0       0x12 /media/data_nvme/git/uboot/u-boot/build/rk3568/release/bl31/psci_helpers.o
 .debug_abbrev  0x00000000000085d2       0x12 /media/data_nvme/git/uboot/u-boot/build/rk3568/release/bl31/platform_mp_stack.o
 .debug_abbrev  0x00000000000085e4       0x12 /media/data_nvme/git/uboot/u-boot/build/rk3568/release/bl31/plat_helpers.o
 .debug_abbrev  0x00000000000085f6       0x14 /media/data_nvme/git/uboot/u-boot/build/rk3568/release/bl31/cpus_on_fixed_addr.o
 .debug_abbrev  0x000000000000860a       0x12 /media/data_nvme/git/uboot/u-boot/build/rk3568/release/bl31/debug.o
 .debug_abbrev  0x000000000000861c       0x12 /media/data_nvme/git/uboot/u-boot/build/rk3568/release/bl31/cache_helpers.o
 .debug_abbrev  0x000000000000862e       0x12 /media/data_nvme/git/uboot/u-boot/build/rk3568/release/bl31/misc_helpers.o
 .debug_abbrev  0x0000000000008640       0x12 /media/data_nvme/git/uboot/u-boot/build/rk3568/release/bl31/platform_helpers.o
 .debug_abbrev  0x0000000000008652       0x12 /media/data_nvme/git/uboot/u-boot/build/rk3568/release/bl31/enable_mmu.o
 .debug_abbrev  0x0000000000008664       0x12 /media/data_nvme/git/uboot/u-boot/build/rk3568/release/bl31/crash_console_helpers.o
 .debug_abbrev  0x0000000000008676       0x9b /media/data_nvme/git/uboot/u-boot/build/rk3568/release/lib/libc.a(memchr.o)
 .debug_abbrev  0x0000000000008711       0x94 /media/data_nvme/git/uboot/u-boot/build/rk3568/release/lib/libc.a(memcmp.o)
 .debug_abbrev  0x00000000000087a5       0xa1 /media/data_nvme/git/uboot/u-boot/build/rk3568/release/lib/libc.a(memcpy.o)
 .debug_abbrev  0x0000000000008846       0xc6 /media/data_nvme/git/uboot/u-boot/build/rk3568/release/lib/libc.a(memmove.o)
 .debug_abbrev  0x000000000000890c       0xc8 /media/data_nvme/git/uboot/u-boot/build/rk3568/release/lib/libc.a(memset.o)
 .debug_abbrev  0x00000000000089d4      0x22d /media/data_nvme/git/uboot/u-boot/build/rk3568/release/lib/libc.a(printf.o)
 .debug_abbrev  0x0000000000008c01       0x80 /media/data_nvme/git/uboot/u-boot/build/rk3568/release/lib/libc.a(strchr.o)
 .debug_abbrev  0x0000000000008c81       0x84 /media/data_nvme/git/uboot/u-boot/build/rk3568/release/lib/libc.a(strlen.o)
 .debug_abbrev  0x0000000000008d05       0x7b /media/data_nvme/git/uboot/u-boot/build/rk3568/release/lib/libc.a(strncmp.o)
 .debug_abbrev  0x0000000000008d80       0x94 /media/data_nvme/git/uboot/u-boot/build/rk3568/release/lib/libc.a(strrchr.o)

.debug_aranges  0x0000000000000000     0x2d50
 .debug_aranges
                0x0000000000000000       0x20 /media/data_nvme/git/uboot/u-boot/build/rk3568/release/bl31/build_message.o
 .debug_aranges
                0x0000000000000020       0x60 /media/data_nvme/git/uboot/u-boot/build/rk3568/release/bl31/bl31_context_mgmt.o
 .debug_aranges
                0x0000000000000080       0xa0 /media/data_nvme/git/uboot/u-boot/build/rk3568/release/bl31/bl31_main.o
 .debug_aranges
                0x0000000000000120       0x30 /media/data_nvme/git/uboot/u-boot/build/rk3568/release/bl31/bl31_traps.o
 .debug_aranges
                0x0000000000000150       0x90 /media/data_nvme/git/uboot/u-boot/build/rk3568/release/bl31/interrupt_mgmt.o
 .debug_aranges
                0x00000000000001e0       0x40 /media/data_nvme/git/uboot/u-boot/build/rk3568/release/bl31/runtime_svc.o
 .debug_aranges
                0x0000000000000220       0xa0 /media/data_nvme/git/uboot/u-boot/build/rk3568/release/bl31/gic-x00.o
 .debug_aranges
                0x00000000000002c0      0x200 /media/data_nvme/git/uboot/u-boot/build/rk3568/release/bl31/gicdv3_helpers.o
 .debug_aranges
                0x00000000000004c0      0x110 /media/data_nvme/git/uboot/u-boot/build/rk3568/release/bl31/gicrv3_helpers.o
 .debug_aranges
                0x00000000000005d0       0xe0 /media/data_nvme/git/uboot/u-boot/build/rk3568/release/bl31/gicv3_helpers.o
 .debug_aranges
                0x00000000000006b0      0x200 /media/data_nvme/git/uboot/u-boot/build/rk3568/release/bl31/gicv3_main.o
 .debug_aranges
                0x00000000000008b0       0x50 /media/data_nvme/git/uboot/u-boot/build/rk3568/release/bl31/delay_timer.o
 .debug_aranges
                0x0000000000000900       0x50 /media/data_nvme/git/uboot/u-boot/build/rk3568/release/bl31/generic_delay_timer.o
 .debug_aranges
                0x0000000000000950       0x30 /media/data_nvme/git/uboot/u-boot/build/rk3568/release/bl31/errata_report.o
 .debug_aranges
                0x0000000000000980      0x100 /media/data_nvme/git/uboot/u-boot/build/rk3568/release/bl31/context_mgmt.o
 .debug_aranges
                0x0000000000000a80       0x20 /media/data_nvme/git/uboot/u-boot/build/rk3568/release/bl31/cpu_data_array.o
 .debug_aranges
                0x0000000000000aa0       0x50 /media/data_nvme/git/uboot/u-boot/build/rk3568/release/bl31/spe.o
 .debug_aranges
                0x0000000000000af0       0x40 /media/data_nvme/git/uboot/u-boot/build/rk3568/release/bl31/sve.o
 .debug_aranges
                0x0000000000000b30      0x100 /media/data_nvme/git/uboot/u-boot/build/rk3568/release/bl31/fdt.o
 .debug_aranges
                0x0000000000000c30      0x2b0 /media/data_nvme/git/uboot/u-boot/build/rk3568/release/bl31/fdt_ro.o
 .debug_aranges
                0x0000000000000ee0      0x180 /media/data_nvme/git/uboot/u-boot/build/rk3568/release/bl31/fdt_rw.o
 .debug_aranges
                0x0000000000001060      0x1c0 /media/data_nvme/git/uboot/u-boot/build/rk3568/release/bl31/psci_common.o
 .debug_aranges
                0x0000000000001220       0xe0 /media/data_nvme/git/uboot/u-boot/build/rk3568/release/bl31/psci_main.o
 .debug_aranges
                0x0000000000001300       0x40 /media/data_nvme/git/uboot/u-boot/build/rk3568/release/bl31/psci_mem_protect.o
 .debug_aranges
                0x0000000000001340       0x30 /media/data_nvme/git/uboot/u-boot/build/rk3568/release/bl31/psci_off.o
 .debug_aranges
                0x0000000000001370       0x40 /media/data_nvme/git/uboot/u-boot/build/rk3568/release/bl31/psci_on.o
 .debug_aranges
                0x00000000000013b0       0x50 /media/data_nvme/git/uboot/u-boot/build/rk3568/release/bl31/psci_setup.o
 .debug_aranges
                0x0000000000001400       0x40 /media/data_nvme/git/uboot/u-boot/build/rk3568/release/bl31/psci_suspend.o
 .debug_aranges
                0x0000000000001440       0x50 /media/data_nvme/git/uboot/u-boot/build/rk3568/release/bl31/psci_system_off.o
 .debug_aranges
                0x0000000000001490      0x1a0 /media/data_nvme/git/uboot/u-boot/build/rk3568/release/bl31/plat_gicv3.o
 .debug_aranges
                0x0000000000001630       0x50 /media/data_nvme/git/uboot/u-boot/build/rk3568/release/bl31/platform_common.o
 .debug_aranges
                0x0000000000001680       0x70 /media/data_nvme/git/uboot/u-boot/build/rk3568/release/bl31/bl31_plat_setup.o
 .debug_aranges
                0x00000000000016f0       0xc0 /media/data_nvme/git/uboot/u-boot/build/rk3568/release/bl31/params_setup.o
 .debug_aranges
                0x00000000000017b0      0x160 /media/data_nvme/git/uboot/u-boot/build/rk3568/release/bl31/plat_pm.o
 .debug_aranges
                0x0000000000001910       0x40 /media/data_nvme/git/uboot/u-boot/build/rk3568/release/bl31/plat_topology.o
 .debug_aranges
                0x0000000000001950       0x80 /media/data_nvme/git/uboot/u-boot/build/rk3568/release/bl31/rockchip_gicv3.o
 .debug_aranges
                0x00000000000019d0       0x40 /media/data_nvme/git/uboot/u-boot/build/rk3568/release/bl31/rockchip_sip_svc.o
 .debug_aranges
                0x0000000000001a10       0xb0 /media/data_nvme/git/uboot/u-boot/build/rk3568/release/bl31/pmu.o
 .debug_aranges
                0x0000000000001ac0       0x40 /media/data_nvme/git/uboot/u-boot/build/rk3568/release/bl31/soc.o
 .debug_aranges
                0x0000000000001b00       0x30 /media/data_nvme/git/uboot/u-boot/build/rk3568/release/bl31/arm_arch_svc_setup.o
 .debug_aranges
                0x0000000000001b30       0x40 /media/data_nvme/git/uboot/u-boot/build/rk3568/release/bl31/std_svc_setup.o
 .debug_aranges
                0x0000000000001b70       0x60 /media/data_nvme/git/uboot/u-boot/build/rk3568/release/bl31/bl_common.o
 .debug_aranges
                0x0000000000001bd0       0x50 /media/data_nvme/git/uboot/u-boot/build/rk3568/release/bl31/tf_log.o
 .debug_aranges
                0x0000000000001c20       0xb0 /media/data_nvme/git/uboot/u-boot/build/rk3568/release/bl31/multi_console.o
 .debug_aranges
                0x0000000000001cd0       0x50 /media/data_nvme/git/uboot/u-boot/build/rk3568/release/bl31/pmuv3.o
 .debug_aranges
                0x0000000000001d20       0xa0 /media/data_nvme/git/uboot/u-boot/build/rk3568/release/bl31/plat_bl_common.o
 .debug_aranges
                0x0000000000001dc0       0x30 /media/data_nvme/git/uboot/u-boot/build/rk3568/release/bl31/plat_log_common.o
 .debug_aranges
                0x0000000000001df0       0x60 /media/data_nvme/git/uboot/u-boot/build/rk3568/release/bl31/plat_common.o
 .debug_aranges
                0x0000000000001e50       0xd0 /media/data_nvme/git/uboot/u-boot/build/rk3568/release/bl31/xlat_tables_arch.o
 .debug_aranges
                0x0000000000001f20       0xd0 /media/data_nvme/git/uboot/u-boot/build/rk3568/release/bl31/xlat_tables_context.o
 .debug_aranges
                0x0000000000001ff0       0x80 /media/data_nvme/git/uboot/u-boot/build/rk3568/release/bl31/xlat_tables_core.o
 .debug_aranges
                0x0000000000002070       0x70 /media/data_nvme/git/uboot/u-boot/build/rk3568/release/bl31/xlat_tables_utils.o
 .debug_aranges
                0x00000000000020e0       0xa0 /media/data_nvme/git/uboot/u-boot/build/rk3568/release/bl31/desc_image_load.o
 .debug_aranges
                0x0000000000002180       0x30 /media/data_nvme/git/uboot/u-boot/build/rk3568/release/bl31/bl_aux_params.o
 .debug_aranges
                0x00000000000021b0       0x30 /media/data_nvme/git/uboot/u-boot/build/rk3568/release/bl31/plat_psci_common.o
 .debug_aranges
                0x00000000000021e0       0x40 /media/data_nvme/git/uboot/u-boot/build/rk3568/release/bl31/bl31_entrypoint.o
 .debug_aranges
                0x0000000000002220       0x40 /media/data_nvme/git/uboot/u-boot/build/rk3568/release/bl31/crash_reporting.o
 .debug_aranges
                0x0000000000002260       0x80 /media/data_nvme/git/uboot/u-boot/build/rk3568/release/bl31/ea_delegate.o
 .debug_aranges
                0x00000000000022e0       0x40 /media/data_nvme/git/uboot/u-boot/build/rk3568/release/bl31/runtime_exceptions.o
 .debug_aranges
                0x0000000000002320       0xa0 /media/data_nvme/git/uboot/u-boot/build/rk3568/release/bl31/16550_console.o
 .debug_aranges
                0x00000000000023c0      0x130 /media/data_nvme/git/uboot/u-boot/build/rk3568/release/bl31/cortex_a55.o
 .debug_aranges
                0x00000000000024f0       0xd0 /media/data_nvme/git/uboot/u-boot/build/rk3568/release/bl31/cpu_helpers.o
 .debug_aranges
                0x00000000000025c0       0x80 /media/data_nvme/git/uboot/u-boot/build/rk3568/release/bl31/context.o
 .debug_aranges
                0x0000000000002640       0x40 /media/data_nvme/git/uboot/u-boot/build/rk3568/release/bl31/cpu_data.o
 .debug_aranges
                0x0000000000002680       0x40 /media/data_nvme/git/uboot/u-boot/build/rk3568/release/bl31/spinlock.o
 .debug_aranges
                0x00000000000026c0       0x50 /media/data_nvme/git/uboot/u-boot/build/rk3568/release/bl31/psci_helpers.o
 .debug_aranges
                0x0000000000002710       0x40 /media/data_nvme/git/uboot/u-boot/build/rk3568/release/bl31/platform_mp_stack.o
 .debug_aranges
                0x0000000000002750       0x80 /media/data_nvme/git/uboot/u-boot/build/rk3568/release/bl31/plat_helpers.o
 .debug_aranges
                0x00000000000027d0       0x30 /media/data_nvme/git/uboot/u-boot/build/rk3568/release/bl31/cpus_on_fixed_addr.o
 .debug_aranges
                0x0000000000002800       0x70 /media/data_nvme/git/uboot/u-boot/build/rk3568/release/bl31/debug.o
 .debug_aranges
                0x0000000000002870       0xc0 /media/data_nvme/git/uboot/u-boot/build/rk3568/release/bl31/cache_helpers.o
 .debug_aranges
                0x0000000000002930       0xc0 /media/data_nvme/git/uboot/u-boot/build/rk3568/release/bl31/misc_helpers.o
 .debug_aranges
                0x00000000000029f0       0xc0 /media/data_nvme/git/uboot/u-boot/build/rk3568/release/bl31/platform_helpers.o
 .debug_aranges
                0x0000000000002ab0       0x50 /media/data_nvme/git/uboot/u-boot/build/rk3568/release/bl31/enable_mmu.o
 .debug_aranges
                0x0000000000002b00       0x50 /media/data_nvme/git/uboot/u-boot/build/rk3568/release/bl31/crash_console_helpers.o
 .debug_aranges
                0x0000000000002b50       0x30 /media/data_nvme/git/uboot/u-boot/build/rk3568/release/lib/libc.a(memchr.o)
 .debug_aranges
                0x0000000000002b80       0x30 /media/data_nvme/git/uboot/u-boot/build/rk3568/release/lib/libc.a(memcmp.o)
 .debug_aranges
                0x0000000000002bb0       0x30 /media/data_nvme/git/uboot/u-boot/build/rk3568/release/lib/libc.a(memcpy.o)
 .debug_aranges
                0x0000000000002be0       0x30 /media/data_nvme/git/uboot/u-boot/build/rk3568/release/lib/libc.a(memmove.o)
 .debug_aranges
                0x0000000000002c10       0x30 /media/data_nvme/git/uboot/u-boot/build/rk3568/release/lib/libc.a(memset.o)
 .debug_aranges
                0x0000000000002c40       0x50 /media/data_nvme/git/uboot/u-boot/build/rk3568/release/lib/libc.a(printf.o)
 .debug_aranges
                0x0000000000002c90       0x30 /media/data_nvme/git/uboot/u-boot/build/rk3568/release/lib/libc.a(strchr.o)
 .debug_aranges
                0x0000000000002cc0       0x30 /media/data_nvme/git/uboot/u-boot/build/rk3568/release/lib/libc.a(strlen.o)
 .debug_aranges
                0x0000000000002cf0       0x30 /media/data_nvme/git/uboot/u-boot/build/rk3568/release/lib/libc.a(strncmp.o)
 .debug_aranges
                0x0000000000002d20       0x30 /media/data_nvme/git/uboot/u-boot/build/rk3568/release/lib/libc.a(strrchr.o)

.debug_line     0x0000000000000000    0x12cd7
 .debug_line    0x0000000000000000       0x28 /media/data_nvme/git/uboot/u-boot/build/rk3568/release/bl31/build_message.o
 .debug_line    0x0000000000000028      0x1ef /media/data_nvme/git/uboot/u-boot/build/rk3568/release/bl31/bl31_context_mgmt.o
 .debug_line    0x0000000000000217      0x396 /media/data_nvme/git/uboot/u-boot/build/rk3568/release/bl31/bl31_main.o
 .debug_line    0x00000000000005ad       0xa5 /media/data_nvme/git/uboot/u-boot/build/rk3568/release/bl31/bl31_traps.o
 .debug_line    0x0000000000000652      0x37d /media/data_nvme/git/uboot/u-boot/build/rk3568/release/bl31/interrupt_mgmt.o
 .debug_line    0x00000000000009cf      0x339 /media/data_nvme/git/uboot/u-boot/build/rk3568/release/bl31/runtime_svc.o
 .debug_line    0x0000000000000d08      0x40c /media/data_nvme/git/uboot/u-boot/build/rk3568/release/bl31/gic-x00.o
 .debug_line    0x0000000000001114      0x812 /media/data_nvme/git/uboot/u-boot/build/rk3568/release/bl31/gicdv3_helpers.o
 .debug_line    0x0000000000001926      0x47d /media/data_nvme/git/uboot/u-boot/build/rk3568/release/bl31/gicrv3_helpers.o
 .debug_line    0x0000000000001da3      0x981 /media/data_nvme/git/uboot/u-boot/build/rk3568/release/bl31/gicv3_helpers.o
 .debug_line    0x0000000000002724     0x1db7 /media/data_nvme/git/uboot/u-boot/build/rk3568/release/bl31/gicv3_main.o
 .debug_line    0x00000000000044db      0x18f /media/data_nvme/git/uboot/u-boot/build/rk3568/release/bl31/delay_timer.o
 .debug_line    0x000000000000466a      0x1a2 /media/data_nvme/git/uboot/u-boot/build/rk3568/release/bl31/generic_delay_timer.o
 .debug_line    0x000000000000480c       0x8c /media/data_nvme/git/uboot/u-boot/build/rk3568/release/bl31/errata_report.o
 .debug_line    0x0000000000004898      0xa63 /media/data_nvme/git/uboot/u-boot/build/rk3568/release/bl31/context_mgmt.o
 .debug_line    0x00000000000052fb       0xbd /media/data_nvme/git/uboot/u-boot/build/rk3568/release/bl31/cpu_data_array.o
 .debug_line    0x00000000000053b8      0x268 /media/data_nvme/git/uboot/u-boot/build/rk3568/release/bl31/spe.o
 .debug_line    0x0000000000005620      0x110 /media/data_nvme/git/uboot/u-boot/build/rk3568/release/bl31/sve.o
 .debug_line    0x0000000000005730      0x884 /media/data_nvme/git/uboot/u-boot/build/rk3568/release/bl31/fdt.o
 .debug_line    0x0000000000005fb4     0x13bd /media/data_nvme/git/uboot/u-boot/build/rk3568/release/bl31/fdt_ro.o
 .debug_line    0x0000000000007371     0x10c9 /media/data_nvme/git/uboot/u-boot/build/rk3568/release/bl31/fdt_rw.o
 .debug_line    0x000000000000843a     0x10bd /media/data_nvme/git/uboot/u-boot/build/rk3568/release/bl31/psci_common.o
 .debug_line    0x00000000000094f7      0x7db /media/data_nvme/git/uboot/u-boot/build/rk3568/release/bl31/psci_main.o
 .debug_line    0x0000000000009cd2      0x14e /media/data_nvme/git/uboot/u-boot/build/rk3568/release/bl31/psci_mem_protect.o
 .debug_line    0x0000000000009e20      0x259 /media/data_nvme/git/uboot/u-boot/build/rk3568/release/bl31/psci_off.o
 .debug_line    0x000000000000a079      0x3ff /media/data_nvme/git/uboot/u-boot/build/rk3568/release/bl31/psci_on.o
 .debug_line    0x000000000000a478      0x62e /media/data_nvme/git/uboot/u-boot/build/rk3568/release/bl31/psci_setup.o
 .debug_line    0x000000000000aaa6      0x432 /media/data_nvme/git/uboot/u-boot/build/rk3568/release/bl31/psci_suspend.o
 .debug_line    0x000000000000aed8      0x1ea /media/data_nvme/git/uboot/u-boot/build/rk3568/release/bl31/psci_system_off.o
 .debug_line    0x000000000000b0c2      0x51b /media/data_nvme/git/uboot/u-boot/build/rk3568/release/bl31/plat_gicv3.o
 .debug_line    0x000000000000b5dd      0x179 /media/data_nvme/git/uboot/u-boot/build/rk3568/release/bl31/platform_common.o
 .debug_line    0x000000000000b756      0x2f3 /media/data_nvme/git/uboot/u-boot/build/rk3568/release/bl31/bl31_plat_setup.o
 .debug_line    0x000000000000ba49      0x45e /media/data_nvme/git/uboot/u-boot/build/rk3568/release/bl31/params_setup.o
 .debug_line    0x000000000000bea7      0x6dc /media/data_nvme/git/uboot/u-boot/build/rk3568/release/bl31/plat_pm.o
 .debug_line    0x000000000000c583       0xf9 /media/data_nvme/git/uboot/u-boot/build/rk3568/release/bl31/plat_topology.o
 .debug_line    0x000000000000c67c      0x1a6 /media/data_nvme/git/uboot/u-boot/build/rk3568/release/bl31/rockchip_gicv3.o
 .debug_line    0x000000000000c822      0x21d /media/data_nvme/git/uboot/u-boot/build/rk3568/release/bl31/rockchip_sip_svc.o
 .debug_line    0x000000000000ca3f      0xfc5 /media/data_nvme/git/uboot/u-boot/build/rk3568/release/bl31/pmu.o
 .debug_line    0x000000000000da04      0x3ce /media/data_nvme/git/uboot/u-boot/build/rk3568/release/bl31/soc.o
 .debug_line    0x000000000000ddd2      0x265 /media/data_nvme/git/uboot/u-boot/build/rk3568/release/bl31/arm_arch_svc_setup.o
 .debug_line    0x000000000000e037      0x2b9 /media/data_nvme/git/uboot/u-boot/build/rk3568/release/bl31/std_svc_setup.o
 .debug_line    0x000000000000e2f0      0x352 /media/data_nvme/git/uboot/u-boot/build/rk3568/release/bl31/bl_common.o
 .debug_line    0x000000000000e642      0x17f /media/data_nvme/git/uboot/u-boot/build/rk3568/release/bl31/tf_log.o
 .debug_line    0x000000000000e7c1      0x39a /media/data_nvme/git/uboot/u-boot/build/rk3568/release/bl31/multi_console.o
 .debug_line    0x000000000000eb5b      0x238 /media/data_nvme/git/uboot/u-boot/build/rk3568/release/bl31/pmuv3.o
 .debug_line    0x000000000000ed93      0x272 /media/data_nvme/git/uboot/u-boot/build/rk3568/release/bl31/plat_bl_common.o
 .debug_line    0x000000000000f005       0xa1 /media/data_nvme/git/uboot/u-boot/build/rk3568/release/bl31/plat_log_common.o
 .debug_line    0x000000000000f0a6      0x1e8 /media/data_nvme/git/uboot/u-boot/build/rk3568/release/bl31/plat_common.o
 .debug_line    0x000000000000f28e      0x58d /media/data_nvme/git/uboot/u-boot/build/rk3568/release/bl31/xlat_tables_arch.o
 .debug_line    0x000000000000f81b      0x358 /media/data_nvme/git/uboot/u-boot/build/rk3568/release/bl31/xlat_tables_context.o
 .debug_line    0x000000000000fb73      0x826 /media/data_nvme/git/uboot/u-boot/build/rk3568/release/bl31/xlat_tables_core.o
 .debug_line    0x0000000000010399      0x542 /media/data_nvme/git/uboot/u-boot/build/rk3568/release/bl31/xlat_tables_utils.o
 .debug_line    0x00000000000108db      0x59a /media/data_nvme/git/uboot/u-boot/build/rk3568/release/bl31/desc_image_load.o
 .debug_line    0x0000000000010e75      0x17a /media/data_nvme/git/uboot/u-boot/build/rk3568/release/bl31/bl_aux_params.o
 .debug_line    0x0000000000010fef       0xd8 /media/data_nvme/git/uboot/u-boot/build/rk3568/release/bl31/plat_psci_common.o
 .debug_line    0x00000000000110c7       0x93 /media/data_nvme/git/uboot/u-boot/build/rk3568/release/bl31/bl31_entrypoint.o
 .debug_line    0x000000000001115a       0x68 /media/data_nvme/git/uboot/u-boot/build/rk3568/release/bl31/crash_reporting.o
 .debug_line    0x00000000000111c2       0xf0 /media/data_nvme/git/uboot/u-boot/build/rk3568/release/bl31/ea_delegate.o
 .debug_line    0x00000000000112b2       0xe6 /media/data_nvme/git/uboot/u-boot/build/rk3568/release/bl31/runtime_exceptions.o
 .debug_line    0x0000000000011398      0x126 /media/data_nvme/git/uboot/u-boot/build/rk3568/release/bl31/16550_console.o
 .debug_line    0x00000000000114be      0x1ee /media/data_nvme/git/uboot/u-boot/build/rk3568/release/bl31/cortex_a55.o
 .debug_line    0x00000000000116ac      0x168 /media/data_nvme/git/uboot/u-boot/build/rk3568/release/bl31/cpu_helpers.o
 .debug_line    0x0000000000011814      0x14f /media/data_nvme/git/uboot/u-boot/build/rk3568/release/bl31/context.o
 .debug_line    0x0000000000011963       0x73 /media/data_nvme/git/uboot/u-boot/build/rk3568/release/bl31/cpu_data.o
 .debug_line    0x00000000000119d6       0x77 /media/data_nvme/git/uboot/u-boot/build/rk3568/release/bl31/spinlock.o
 .debug_line    0x0000000000011a4d       0x98 /media/data_nvme/git/uboot/u-boot/build/rk3568/release/bl31/psci_helpers.o
 .debug_line    0x0000000000011ae5       0x74 /media/data_nvme/git/uboot/u-boot/build/rk3568/release/bl31/platform_mp_stack.o
 .debug_line    0x0000000000011b59       0xe6 /media/data_nvme/git/uboot/u-boot/build/rk3568/release/bl31/plat_helpers.o
 .debug_line    0x0000000000011c3f       0x73 /media/data_nvme/git/uboot/u-boot/build/rk3568/release/bl31/cpus_on_fixed_addr.o
 .debug_line    0x0000000000011cb2       0xb8 /media/data_nvme/git/uboot/u-boot/build/rk3568/release/bl31/debug.o
 .debug_line    0x0000000000011d6a      0x139 /media/data_nvme/git/uboot/u-boot/build/rk3568/release/bl31/cache_helpers.o
 .debug_line    0x0000000000011ea3      0x189 /media/data_nvme/git/uboot/u-boot/build/rk3568/release/bl31/misc_helpers.o
 .debug_line    0x000000000001202c      0x10d /media/data_nvme/git/uboot/u-boot/build/rk3568/release/bl31/platform_helpers.o
 .debug_line    0x0000000000012139       0x85 /media/data_nvme/git/uboot/u-boot/build/rk3568/release/bl31/enable_mmu.o
 .debug_line    0x00000000000121be       0xce /media/data_nvme/git/uboot/u-boot/build/rk3568/release/bl31/crash_console_helpers.o
 .debug_line    0x000000000001228c       0x94 /media/data_nvme/git/uboot/u-boot/build/rk3568/release/lib/libc.a(memchr.o)
 .debug_line    0x0000000000012320       0xa9 /media/data_nvme/git/uboot/u-boot/build/rk3568/release/lib/libc.a(memcmp.o)
 .debug_line    0x00000000000123c9       0x8e /media/data_nvme/git/uboot/u-boot/build/rk3568/release/lib/libc.a(memcpy.o)
 .debug_line    0x0000000000012457       0xcf /media/data_nvme/git/uboot/u-boot/build/rk3568/release/lib/libc.a(memmove.o)
 .debug_line    0x0000000000012526      0x14e /media/data_nvme/git/uboot/u-boot/build/rk3568/release/lib/libc.a(memset.o)
 .debug_line    0x0000000000012674      0x42f /media/data_nvme/git/uboot/u-boot/build/rk3568/release/lib/libc.a(printf.o)
 .debug_line    0x0000000000012aa3       0x86 /media/data_nvme/git/uboot/u-boot/build/rk3568/release/lib/libc.a(strchr.o)
 .debug_line    0x0000000000012b29       0x8a /media/data_nvme/git/uboot/u-boot/build/rk3568/release/lib/libc.a(strlen.o)
 .debug_line    0x0000000000012bb3       0xa7 /media/data_nvme/git/uboot/u-boot/build/rk3568/release/lib/libc.a(strncmp.o)
 .debug_line    0x0000000000012c5a       0x7d /media/data_nvme/git/uboot/u-boot/build/rk3568/release/lib/libc.a(strrchr.o)

.debug_str      0x0000000000000000     0x7188
 .debug_str     0x0000000000000000      0x157 /media/data_nvme/git/uboot/u-boot/build/rk3568/release/bl31/build_message.o
                                        0x176 (size before relaxing)
 .debug_str     0x0000000000000157      0x24d /media/data_nvme/git/uboot/u-boot/build/rk3568/release/bl31/bl31_context_mgmt.o
                                        0x417 (size before relaxing)
 .debug_str     0x00000000000003a4      0x2fe /media/data_nvme/git/uboot/u-boot/build/rk3568/release/bl31/bl31_main.o
                                        0x5d6 (size before relaxing)
 .debug_str     0x00000000000006a2       0xe5 /media/data_nvme/git/uboot/u-boot/build/rk3568/release/bl31/bl31_traps.o
                                        0x2d8 (size before relaxing)
 .debug_str     0x0000000000000787      0x1de /media/data_nvme/git/uboot/u-boot/build/rk3568/release/bl31/interrupt_mgmt.o
                                        0x45f (size before relaxing)
 .debug_str     0x0000000000000965      0x11c /media/data_nvme/git/uboot/u-boot/build/rk3568/release/bl31/runtime_svc.o
                                        0x4bd (size before relaxing)
 .debug_str     0x0000000000000a81      0x287 /media/data_nvme/git/uboot/u-boot/build/rk3568/release/bl31/gic-x00.o
                                        0x508 (size before relaxing)
 .debug_str     0x0000000000000d08      0x29e /media/data_nvme/git/uboot/u-boot/build/rk3568/release/bl31/gicdv3_helpers.o
                                        0x4c2 (size before relaxing)
 .debug_str     0x0000000000000fa6      0x136 /media/data_nvme/git/uboot/u-boot/build/rk3568/release/bl31/gicrv3_helpers.o
                                        0x3aa (size before relaxing)
 .debug_str     0x00000000000010dc      0x33f /media/data_nvme/git/uboot/u-boot/build/rk3568/release/bl31/gicv3_helpers.o
                                        0x801 (size before relaxing)
 .debug_str     0x000000000000141b      0x959 /media/data_nvme/git/uboot/u-boot/build/rk3568/release/bl31/gicv3_main.o
                                       0x12f2 (size before relaxing)
 .debug_str     0x0000000000001d74       0x7d /media/data_nvme/git/uboot/u-boot/build/rk3568/release/bl31/delay_timer.o
                                        0x2cf (size before relaxing)
 .debug_str     0x0000000000001df1       0x87 /media/data_nvme/git/uboot/u-boot/build/rk3568/release/bl31/generic_delay_timer.o
                                        0x300 (size before relaxing)
 .debug_str     0x0000000000001e78       0x2d /media/data_nvme/git/uboot/u-boot/build/rk3568/release/bl31/errata_report.o
                                        0x249 (size before relaxing)
 .debug_str     0x0000000000001ea5      0x75d /media/data_nvme/git/uboot/u-boot/build/rk3568/release/bl31/context_mgmt.o
                                        0xcd2 (size before relaxing)
 .debug_str     0x0000000000002602       0x2d /media/data_nvme/git/uboot/u-boot/build/rk3568/release/bl31/cpu_data_array.o
                                        0x358 (size before relaxing)
 .debug_str     0x000000000000262f       0xd8 /media/data_nvme/git/uboot/u-boot/build/rk3568/release/bl31/spe.o
                                        0x345 (size before relaxing)
 .debug_str     0x0000000000002707       0x19 /media/data_nvme/git/uboot/u-boot/build/rk3568/release/bl31/sve.o
                                        0x2f8 (size before relaxing)
 .debug_str     0x0000000000002720      0x23c /media/data_nvme/git/uboot/u-boot/build/rk3568/release/bl31/fdt.o
                                        0x4e9 (size before relaxing)
 .debug_str     0x000000000000295c      0x476 /media/data_nvme/git/uboot/u-boot/build/rk3568/release/bl31/fdt_ro.o
                                        0x8f7 (size before relaxing)
 .debug_str     0x0000000000002dd2      0x3b1 /media/data_nvme/git/uboot/u-boot/build/rk3568/release/bl31/fdt_rw.o
                                        0x892 (size before relaxing)
 .debug_str     0x0000000000003183      0x97c /media/data_nvme/git/uboot/u-boot/build/rk3568/release/bl31/psci_common.o
                                        0xfa7 (size before relaxing)
 .debug_str     0x0000000000003aff      0x20c /media/data_nvme/git/uboot/u-boot/build/rk3568/release/bl31/psci_main.o
                                        0xa9c (size before relaxing)
 .debug_str     0x0000000000003d0b       0x1c /media/data_nvme/git/uboot/u-boot/build/rk3568/release/bl31/psci_mem_protect.o
                                        0x4b6 (size before relaxing)
 .debug_str     0x0000000000003d27       0x4d /media/data_nvme/git/uboot/u-boot/build/rk3568/release/bl31/psci_off.o
                                        0x74f (size before relaxing)
 .debug_str     0x0000000000003d74       0xd3 /media/data_nvme/git/uboot/u-boot/build/rk3568/release/bl31/psci_on.o
                                        0x8e2 (size before relaxing)
 .debug_str     0x0000000000003e47      0x1a5 /media/data_nvme/git/uboot/u-boot/build/rk3568/release/bl31/psci_setup.o
                                        0xae1 (size before relaxing)
 .debug_str     0x0000000000003fec      0x138 /media/data_nvme/git/uboot/u-boot/build/rk3568/release/bl31/psci_suspend.o
                                        0x9ed (size before relaxing)
 .debug_str     0x0000000000004124       0x30 /media/data_nvme/git/uboot/u-boot/build/rk3568/release/bl31/psci_system_off.o
                                        0x5a7 (size before relaxing)
 .debug_str     0x0000000000004154      0x2fa /media/data_nvme/git/uboot/u-boot/build/rk3568/release/bl31/plat_gicv3.o
                                        0x737 (size before relaxing)
 .debug_str     0x000000000000444e      0x127 /media/data_nvme/git/uboot/u-boot/build/rk3568/release/bl31/platform_common.o
                                        0x378 (size before relaxing)
 .debug_str     0x0000000000004575      0x24a /media/data_nvme/git/uboot/u-boot/build/rk3568/release/bl31/bl31_plat_setup.o
                                        0x623 (size before relaxing)
 .debug_str     0x00000000000047bf      0x306 /media/data_nvme/git/uboot/u-boot/build/rk3568/release/bl31/params_setup.o
                                        0x713 (size before relaxing)
 .debug_str     0x0000000000004ac5      0x40e /media/data_nvme/git/uboot/u-boot/build/rk3568/release/bl31/plat_pm.o
                                        0x9f3 (size before relaxing)
 .debug_str     0x0000000000004ed3       0x57 /media/data_nvme/git/uboot/u-boot/build/rk3568/release/bl31/plat_topology.o
                                        0x2c3 (size before relaxing)
 .debug_str     0x0000000000004f2a       0x6d /media/data_nvme/git/uboot/u-boot/build/rk3568/release/bl31/rockchip_gicv3.o
                                        0x493 (size before relaxing)
 .debug_str     0x0000000000004f97       0xe5 /media/data_nvme/git/uboot/u-boot/build/rk3568/release/bl31/rockchip_sip_svc.o
                                        0x4a0 (size before relaxing)
 .debug_str     0x000000000000507c      0x990 /media/data_nvme/git/uboot/u-boot/build/rk3568/release/bl31/pmu.o
                                        0xe6f (size before relaxing)
 .debug_str     0x0000000000005a0c       0xec /media/data_nvme/git/uboot/u-boot/build/rk3568/release/bl31/soc.o
                                        0x3e0 (size before relaxing)
 .debug_str     0x0000000000005af8      0x10b /media/data_nvme/git/uboot/u-boot/build/rk3568/release/bl31/arm_arch_svc_setup.o
                                        0x4b6 (size before relaxing)
 .debug_str     0x0000000000005c03       0x6a /media/data_nvme/git/uboot/u-boot/build/rk3568/release/bl31/std_svc_setup.o
                                        0x566 (size before relaxing)
 .debug_str     0x0000000000005c6d      0x14a /media/data_nvme/git/uboot/u-boot/build/rk3568/release/bl31/bl_common.o
                                        0x48a (size before relaxing)
 .debug_str     0x0000000000005db7       0xa6 /media/data_nvme/git/uboot/u-boot/build/rk3568/release/bl31/tf_log.o
                                        0x2e3 (size before relaxing)
 .debug_str     0x0000000000005e5d       0xf6 /media/data_nvme/git/uboot/u-boot/build/rk3568/release/bl31/multi_console.o
                                        0x341 (size before relaxing)
 .debug_str     0x0000000000005f53       0x97 /media/data_nvme/git/uboot/u-boot/build/rk3568/release/bl31/pmuv3.o
                                        0x3cf (size before relaxing)
 .debug_str     0x0000000000005fea      0x154 /media/data_nvme/git/uboot/u-boot/build/rk3568/release/bl31/plat_bl_common.o
                                        0x46f (size before relaxing)
 .debug_str     0x000000000000613e       0x2e /media/data_nvme/git/uboot/u-boot/build/rk3568/release/bl31/plat_log_common.o
                                        0x26e (size before relaxing)
 .debug_str     0x000000000000616c       0x7f /media/data_nvme/git/uboot/u-boot/build/rk3568/release/bl31/plat_common.o
                                        0x33a (size before relaxing)
 .debug_str     0x00000000000061eb      0x320 /media/data_nvme/git/uboot/u-boot/build/rk3568/release/bl31/xlat_tables_arch.o
                                        0x5ea (size before relaxing)
 .debug_str     0x000000000000650b      0x1c5 /media/data_nvme/git/uboot/u-boot/build/rk3568/release/bl31/xlat_tables_context.o
                                        0x577 (size before relaxing)
 .debug_str     0x00000000000066d0      0x281 /media/data_nvme/git/uboot/u-boot/build/rk3568/release/bl31/xlat_tables_core.o
                                        0x6a2 (size before relaxing)
 .debug_str     0x0000000000006951      0x123 /media/data_nvme/git/uboot/u-boot/build/rk3568/release/bl31/xlat_tables_utils.o
                                        0x54f (size before relaxing)
 .debug_str     0x0000000000006a74      0x2df /media/data_nvme/git/uboot/u-boot/build/rk3568/release/bl31/desc_image_load.o
                                        0x707 (size before relaxing)
 .debug_str     0x0000000000006d53       0x39 /media/data_nvme/git/uboot/u-boot/build/rk3568/release/bl31/bl_aux_params.o
                                        0x283 (size before relaxing)
 .debug_str     0x0000000000006d8c       0x29 /media/data_nvme/git/uboot/u-boot/build/rk3568/release/bl31/plat_psci_common.o
                                        0x288 (size before relaxing)
 .debug_str     0x0000000000006db5       0x2b /media/data_nvme/git/uboot/u-boot/build/rk3568/release/bl31/bl31_entrypoint.o
                                         0x4d (size before relaxing)
 .debug_str     0x0000000000006de0       0x1f /media/data_nvme/git/uboot/u-boot/build/rk3568/release/bl31/crash_reporting.o
                                         0x4d (size before relaxing)
 .debug_str     0x0000000000006dff       0x1b /media/data_nvme/git/uboot/u-boot/build/rk3568/release/bl31/ea_delegate.o
                                         0x49 (size before relaxing)
 .debug_str     0x0000000000006e1a       0x22 /media/data_nvme/git/uboot/u-boot/build/rk3568/release/bl31/runtime_exceptions.o
                                         0x50 (size before relaxing)
 .debug_str     0x0000000000006e3c       0x28 /media/data_nvme/git/uboot/u-boot/build/rk3568/release/bl31/16550_console.o
                                         0x56 (size before relaxing)
 .debug_str     0x0000000000006e64       0x1e /media/data_nvme/git/uboot/u-boot/build/rk3568/release/bl31/cortex_a55.o
                                         0x4c (size before relaxing)
 .debug_str     0x0000000000006e82       0x1f /media/data_nvme/git/uboot/u-boot/build/rk3568/release/bl31/cpu_helpers.o
                                         0x4d (size before relaxing)
 .debug_str     0x0000000000006ea1       0x22 /media/data_nvme/git/uboot/u-boot/build/rk3568/release/bl31/context.o
                                         0x50 (size before relaxing)
 .debug_str     0x0000000000006ec3       0x23 /media/data_nvme/git/uboot/u-boot/build/rk3568/release/bl31/cpu_data.o
                                         0x51 (size before relaxing)
 .debug_str     0x0000000000006ee6       0x27 /media/data_nvme/git/uboot/u-boot/build/rk3568/release/bl31/spinlock.o
                                         0x55 (size before relaxing)
 .debug_str     0x0000000000006f0d       0x20 /media/data_nvme/git/uboot/u-boot/build/rk3568/release/bl31/psci_helpers.o
                                         0x4e (size before relaxing)
 .debug_str     0x0000000000006f2d       0x28 /media/data_nvme/git/uboot/u-boot/build/rk3568/release/bl31/platform_mp_stack.o
                                         0x56 (size before relaxing)
 .debug_str     0x0000000000006f55       0x2c /media/data_nvme/git/uboot/u-boot/build/rk3568/release/bl31/plat_helpers.o
                                         0x5a (size before relaxing)
 .debug_str     0x0000000000006f81       0x32 /media/data_nvme/git/uboot/u-boot/build/rk3568/release/bl31/cpus_on_fixed_addr.o
                                         0x60 (size before relaxing)
 .debug_str     0x0000000000006fb3       0x17 /media/data_nvme/git/uboot/u-boot/build/rk3568/release/bl31/debug.o
                                         0x45 (size before relaxing)
 .debug_str     0x0000000000006fca       0x1c /media/data_nvme/git/uboot/u-boot/build/rk3568/release/bl31/cache_helpers.o
                                         0x4a (size before relaxing)
 .debug_str     0x0000000000006fe6       0x1b /media/data_nvme/git/uboot/u-boot/build/rk3568/release/bl31/misc_helpers.o
                                         0x49 (size before relaxing)
 .debug_str     0x0000000000007001       0x27 /media/data_nvme/git/uboot/u-boot/build/rk3568/release/bl31/platform_helpers.o
                                         0x55 (size before relaxing)
 .debug_str     0x0000000000007028       0x28 /media/data_nvme/git/uboot/u-boot/build/rk3568/release/bl31/enable_mmu.o
                                         0x56 (size before relaxing)
 .debug_str     0x0000000000007050       0x2c /media/data_nvme/git/uboot/u-boot/build/rk3568/release/bl31/crash_console_helpers.o
                                         0x5a (size before relaxing)
 .debug_str     0x000000000000707c       0x12 /media/data_nvme/git/uboot/u-boot/build/rk3568/release/lib/libc.a(memchr.o)
                                        0x183 (size before relaxing)
 .debug_str     0x000000000000708e       0x12 /media/data_nvme/git/uboot/u-boot/build/rk3568/release/lib/libc.a(memcmp.o)
                                        0x183 (size before relaxing)
 .debug_str     0x00000000000070a0       0x12 /media/data_nvme/git/uboot/u-boot/build/rk3568/release/lib/libc.a(memcpy.o)
                                        0x17a (size before relaxing)
 .debug_str     0x00000000000070b2       0x13 /media/data_nvme/git/uboot/u-boot/build/rk3568/release/lib/libc.a(memmove.o)
                                        0x183 (size before relaxing)
 .debug_str     0x00000000000070c5       0x1d /media/data_nvme/git/uboot/u-boot/build/rk3568/release/lib/libc.a(memset.o)
                                        0x225 (size before relaxing)
 .debug_str     0x00000000000070e2       0x5c /media/data_nvme/git/uboot/u-boot/build/rk3568/release/lib/libc.a(printf.o)
                                        0x29e (size before relaxing)
 .debug_str     0x000000000000713e       0x12 /media/data_nvme/git/uboot/u-boot/build/rk3568/release/lib/libc.a(strchr.o)
                                        0x173 (size before relaxing)
 .debug_str     0x0000000000007150       0x12 /media/data_nvme/git/uboot/u-boot/build/rk3568/release/lib/libc.a(strlen.o)
                                        0x181 (size before relaxing)
 .debug_str     0x0000000000007162       0x13 /media/data_nvme/git/uboot/u-boot/build/rk3568/release/lib/libc.a(strncmp.o)
                                        0x17c (size before relaxing)
 .debug_str     0x0000000000007175       0x13 /media/data_nvme/git/uboot/u-boot/build/rk3568/release/lib/libc.a(strrchr.o)
                                        0x17a (size before relaxing)

.comment        0x0000000000000000       0x2b
 .comment       0x0000000000000000       0x2b /media/data_nvme/git/uboot/u-boot/build/rk3568/release/bl31/build_message.o
                                         0x2c (size before relaxing)
 .comment       0x000000000000002b       0x2c /media/data_nvme/git/uboot/u-boot/build/rk3568/release/bl31/bl31_context_mgmt.o
 .comment       0x000000000000002b       0x2c /media/data_nvme/git/uboot/u-boot/build/rk3568/release/bl31/bl31_main.o
 .comment       0x000000000000002b       0x2c /media/data_nvme/git/uboot/u-boot/build/rk3568/release/bl31/bl31_traps.o
 .comment       0x000000000000002b       0x2c /media/data_nvme/git/uboot/u-boot/build/rk3568/release/bl31/interrupt_mgmt.o
 .comment       0x000000000000002b       0x2c /media/data_nvme/git/uboot/u-boot/build/rk3568/release/bl31/runtime_svc.o
 .comment       0x000000000000002b       0x2c /media/data_nvme/git/uboot/u-boot/build/rk3568/release/bl31/gic-x00.o
 .comment       0x000000000000002b       0x2c /media/data_nvme/git/uboot/u-boot/build/rk3568/release/bl31/gicdv3_helpers.o
 .comment       0x000000000000002b       0x2c /media/data_nvme/git/uboot/u-boot/build/rk3568/release/bl31/gicrv3_helpers.o
 .comment       0x000000000000002b       0x2c /media/data_nvme/git/uboot/u-boot/build/rk3568/release/bl31/gicv3_helpers.o
 .comment       0x000000000000002b       0x2c /media/data_nvme/git/uboot/u-boot/build/rk3568/release/bl31/gicv3_main.o
 .comment       0x000000000000002b       0x2c /media/data_nvme/git/uboot/u-boot/build/rk3568/release/bl31/delay_timer.o
 .comment       0x000000000000002b       0x2c /media/data_nvme/git/uboot/u-boot/build/rk3568/release/bl31/generic_delay_timer.o
 .comment       0x000000000000002b       0x2c /media/data_nvme/git/uboot/u-boot/build/rk3568/release/bl31/errata_report.o
 .comment       0x000000000000002b       0x2c /media/data_nvme/git/uboot/u-boot/build/rk3568/release/bl31/context_mgmt.o
 .comment       0x000000000000002b       0x2c /media/data_nvme/git/uboot/u-boot/build/rk3568/release/bl31/cpu_data_array.o
 .comment       0x000000000000002b       0x2c /media/data_nvme/git/uboot/u-boot/build/rk3568/release/bl31/spe.o
 .comment       0x000000000000002b       0x2c /media/data_nvme/git/uboot/u-boot/build/rk3568/release/bl31/sve.o
 .comment       0x000000000000002b       0x2c /media/data_nvme/git/uboot/u-boot/build/rk3568/release/bl31/fdt.o
 .comment       0x000000000000002b       0x2c /media/data_nvme/git/uboot/u-boot/build/rk3568/release/bl31/fdt_ro.o
 .comment       0x000000000000002b       0x2c /media/data_nvme/git/uboot/u-boot/build/rk3568/release/bl31/fdt_rw.o
 .comment       0x000000000000002b       0x2c /media/data_nvme/git/uboot/u-boot/build/rk3568/release/bl31/psci_common.o
 .comment       0x000000000000002b       0x2c /media/data_nvme/git/uboot/u-boot/build/rk3568/release/bl31/psci_main.o
 .comment       0x000000000000002b       0x2c /media/data_nvme/git/uboot/u-boot/build/rk3568/release/bl31/psci_mem_protect.o
 .comment       0x000000000000002b       0x2c /media/data_nvme/git/uboot/u-boot/build/rk3568/release/bl31/psci_off.o
 .comment       0x000000000000002b       0x2c /media/data_nvme/git/uboot/u-boot/build/rk3568/release/bl31/psci_on.o
 .comment       0x000000000000002b       0x2c /media/data_nvme/git/uboot/u-boot/build/rk3568/release/bl31/psci_setup.o
 .comment       0x000000000000002b       0x2c /media/data_nvme/git/uboot/u-boot/build/rk3568/release/bl31/psci_suspend.o
 .comment       0x000000000000002b       0x2c /media/data_nvme/git/uboot/u-boot/build/rk3568/release/bl31/psci_system_off.o
 .comment       0x000000000000002b       0x2c /media/data_nvme/git/uboot/u-boot/build/rk3568/release/bl31/plat_gicv3.o
 .comment       0x000000000000002b       0x2c /media/data_nvme/git/uboot/u-boot/build/rk3568/release/bl31/platform_common.o
 .comment       0x000000000000002b       0x2c /media/data_nvme/git/uboot/u-boot/build/rk3568/release/bl31/bl31_plat_setup.o
 .comment       0x000000000000002b       0x2c /media/data_nvme/git/uboot/u-boot/build/rk3568/release/bl31/params_setup.o
 .comment       0x000000000000002b       0x2c /media/data_nvme/git/uboot/u-boot/build/rk3568/release/bl31/plat_pm.o
 .comment       0x000000000000002b       0x2c /media/data_nvme/git/uboot/u-boot/build/rk3568/release/bl31/plat_topology.o
 .comment       0x000000000000002b       0x2c /media/data_nvme/git/uboot/u-boot/build/rk3568/release/bl31/rockchip_gicv3.o
 .comment       0x000000000000002b       0x2c /media/data_nvme/git/uboot/u-boot/build/rk3568/release/bl31/rockchip_sip_svc.o
 .comment       0x000000000000002b       0x2c /media/data_nvme/git/uboot/u-boot/build/rk3568/release/bl31/pmu.o
 .comment       0x000000000000002b       0x2c /media/data_nvme/git/uboot/u-boot/build/rk3568/release/bl31/soc.o
 .comment       0x000000000000002b       0x2c /media/data_nvme/git/uboot/u-boot/build/rk3568/release/bl31/arm_arch_svc_setup.o
 .comment       0x000000000000002b       0x2c /media/data_nvme/git/uboot/u-boot/build/rk3568/release/bl31/std_svc_setup.o
 .comment       0x000000000000002b       0x2c /media/data_nvme/git/uboot/u-boot/build/rk3568/release/bl31/bl_common.o
 .comment       0x000000000000002b       0x2c /media/data_nvme/git/uboot/u-boot/build/rk3568/release/bl31/tf_log.o
 .comment       0x000000000000002b       0x2c /media/data_nvme/git/uboot/u-boot/build/rk3568/release/bl31/multi_console.o
 .comment       0x000000000000002b       0x2c /media/data_nvme/git/uboot/u-boot/build/rk3568/release/bl31/pmuv3.o
 .comment       0x000000000000002b       0x2c /media/data_nvme/git/uboot/u-boot/build/rk3568/release/bl31/plat_bl_common.o
 .comment       0x000000000000002b       0x2c /media/data_nvme/git/uboot/u-boot/build/rk3568/release/bl31/plat_log_common.o
 .comment       0x000000000000002b       0x2c /media/data_nvme/git/uboot/u-boot/build/rk3568/release/bl31/plat_common.o
 .comment       0x000000000000002b       0x2c /media/data_nvme/git/uboot/u-boot/build/rk3568/release/bl31/xlat_tables_arch.o
 .comment       0x000000000000002b       0x2c /media/data_nvme/git/uboot/u-boot/build/rk3568/release/bl31/xlat_tables_context.o
 .comment       0x000000000000002b       0x2c /media/data_nvme/git/uboot/u-boot/build/rk3568/release/bl31/xlat_tables_core.o
 .comment       0x000000000000002b       0x2c /media/data_nvme/git/uboot/u-boot/build/rk3568/release/bl31/xlat_tables_utils.o
 .comment       0x000000000000002b       0x2c /media/data_nvme/git/uboot/u-boot/build/rk3568/release/bl31/desc_image_load.o
 .comment       0x000000000000002b       0x2c /media/data_nvme/git/uboot/u-boot/build/rk3568/release/bl31/bl_aux_params.o
 .comment       0x000000000000002b       0x2c /media/data_nvme/git/uboot/u-boot/build/rk3568/release/bl31/plat_psci_common.o
 .comment       0x000000000000002b       0x2c /media/data_nvme/git/uboot/u-boot/build/rk3568/release/lib/libc.a(memchr.o)
 .comment       0x000000000000002b       0x2c /media/data_nvme/git/uboot/u-boot/build/rk3568/release/lib/libc.a(memcmp.o)
 .comment       0x000000000000002b       0x2c /media/data_nvme/git/uboot/u-boot/build/rk3568/release/lib/libc.a(memcpy.o)
 .comment       0x000000000000002b       0x2c /media/data_nvme/git/uboot/u-boot/build/rk3568/release/lib/libc.a(memmove.o)
 .comment       0x000000000000002b       0x2c /media/data_nvme/git/uboot/u-boot/build/rk3568/release/lib/libc.a(memset.o)
 .comment       0x000000000000002b       0x2c /media/data_nvme/git/uboot/u-boot/build/rk3568/release/lib/libc.a(printf.o)
 .comment       0x000000000000002b       0x2c /media/data_nvme/git/uboot/u-boot/build/rk3568/release/lib/libc.a(strchr.o)
 .comment       0x000000000000002b       0x2c /media/data_nvme/git/uboot/u-boot/build/rk3568/release/lib/libc.a(strlen.o)
 .comment       0x000000000000002b       0x2c /media/data_nvme/git/uboot/u-boot/build/rk3568/release/lib/libc.a(strncmp.o)
 .comment       0x000000000000002b       0x2c /media/data_nvme/git/uboot/u-boot/build/rk3568/release/lib/libc.a(strrchr.o)

.note.GNU-stack
                0x0000000000000000        0x0
 .note.GNU-stack
                0x0000000000000000        0x0 /media/data_nvme/git/uboot/u-boot/build/rk3568/release/bl31/build_message.o
 .note.GNU-stack
                0x0000000000000000        0x0 /media/data_nvme/git/uboot/u-boot/build/rk3568/release/bl31/bl31_context_mgmt.o
 .note.GNU-stack
                0x0000000000000000        0x0 /media/data_nvme/git/uboot/u-boot/build/rk3568/release/bl31/bl31_main.o
 .note.GNU-stack
                0x0000000000000000        0x0 /media/data_nvme/git/uboot/u-boot/build/rk3568/release/bl31/bl31_traps.o
 .note.GNU-stack
                0x0000000000000000        0x0 /media/data_nvme/git/uboot/u-boot/build/rk3568/release/bl31/interrupt_mgmt.o
 .note.GNU-stack
                0x0000000000000000        0x0 /media/data_nvme/git/uboot/u-boot/build/rk3568/release/bl31/runtime_svc.o
 .note.GNU-stack
                0x0000000000000000        0x0 /media/data_nvme/git/uboot/u-boot/build/rk3568/release/bl31/gic-x00.o
 .note.GNU-stack
                0x0000000000000000        0x0 /media/data_nvme/git/uboot/u-boot/build/rk3568/release/bl31/gicdv3_helpers.o
 .note.GNU-stack
                0x0000000000000000        0x0 /media/data_nvme/git/uboot/u-boot/build/rk3568/release/bl31/gicrv3_helpers.o
 .note.GNU-stack
                0x0000000000000000        0x0 /media/data_nvme/git/uboot/u-boot/build/rk3568/release/bl31/gicv3_helpers.o
 .note.GNU-stack
                0x0000000000000000        0x0 /media/data_nvme/git/uboot/u-boot/build/rk3568/release/bl31/gicv3_main.o
 .note.GNU-stack
                0x0000000000000000        0x0 /media/data_nvme/git/uboot/u-boot/build/rk3568/release/bl31/delay_timer.o
 .note.GNU-stack
                0x0000000000000000        0x0 /media/data_nvme/git/uboot/u-boot/build/rk3568/release/bl31/generic_delay_timer.o
 .note.GNU-stack
                0x0000000000000000        0x0 /media/data_nvme/git/uboot/u-boot/build/rk3568/release/bl31/errata_report.o
 .note.GNU-stack
                0x0000000000000000        0x0 /media/data_nvme/git/uboot/u-boot/build/rk3568/release/bl31/context_mgmt.o
 .note.GNU-stack
                0x0000000000000000        0x0 /media/data_nvme/git/uboot/u-boot/build/rk3568/release/bl31/cpu_data_array.o
 .note.GNU-stack
                0x0000000000000000        0x0 /media/data_nvme/git/uboot/u-boot/build/rk3568/release/bl31/spe.o
 .note.GNU-stack
                0x0000000000000000        0x0 /media/data_nvme/git/uboot/u-boot/build/rk3568/release/bl31/sve.o
 .note.GNU-stack
                0x0000000000000000        0x0 /media/data_nvme/git/uboot/u-boot/build/rk3568/release/bl31/fdt.o
 .note.GNU-stack
                0x0000000000000000        0x0 /media/data_nvme/git/uboot/u-boot/build/rk3568/release/bl31/fdt_ro.o
 .note.GNU-stack
                0x0000000000000000        0x0 /media/data_nvme/git/uboot/u-boot/build/rk3568/release/bl31/fdt_rw.o
 .note.GNU-stack
                0x0000000000000000        0x0 /media/data_nvme/git/uboot/u-boot/build/rk3568/release/bl31/psci_common.o
 .note.GNU-stack
                0x0000000000000000        0x0 /media/data_nvme/git/uboot/u-boot/build/rk3568/release/bl31/psci_main.o
 .note.GNU-stack
                0x0000000000000000        0x0 /media/data_nvme/git/uboot/u-boot/build/rk3568/release/bl31/psci_mem_protect.o
 .note.GNU-stack
                0x0000000000000000        0x0 /media/data_nvme/git/uboot/u-boot/build/rk3568/release/bl31/psci_off.o
 .note.GNU-stack
                0x0000000000000000        0x0 /media/data_nvme/git/uboot/u-boot/build/rk3568/release/bl31/psci_on.o
 .note.GNU-stack
                0x0000000000000000        0x0 /media/data_nvme/git/uboot/u-boot/build/rk3568/release/bl31/psci_setup.o
 .note.GNU-stack
                0x0000000000000000        0x0 /media/data_nvme/git/uboot/u-boot/build/rk3568/release/bl31/psci_suspend.o
 .note.GNU-stack
                0x0000000000000000        0x0 /media/data_nvme/git/uboot/u-boot/build/rk3568/release/bl31/psci_system_off.o
 .note.GNU-stack
                0x0000000000000000        0x0 /media/data_nvme/git/uboot/u-boot/build/rk3568/release/bl31/plat_gicv3.o
 .note.GNU-stack
                0x0000000000000000        0x0 /media/data_nvme/git/uboot/u-boot/build/rk3568/release/bl31/platform_common.o
 .note.GNU-stack
                0x0000000000000000        0x0 /media/data_nvme/git/uboot/u-boot/build/rk3568/release/bl31/bl31_plat_setup.o
 .note.GNU-stack
                0x0000000000000000        0x0 /media/data_nvme/git/uboot/u-boot/build/rk3568/release/bl31/params_setup.o
 .note.GNU-stack
                0x0000000000000000        0x0 /media/data_nvme/git/uboot/u-boot/build/rk3568/release/bl31/plat_pm.o
 .note.GNU-stack
                0x0000000000000000        0x0 /media/data_nvme/git/uboot/u-boot/build/rk3568/release/bl31/plat_topology.o
 .note.GNU-stack
                0x0000000000000000        0x0 /media/data_nvme/git/uboot/u-boot/build/rk3568/release/bl31/rockchip_gicv3.o
 .note.GNU-stack
                0x0000000000000000        0x0 /media/data_nvme/git/uboot/u-boot/build/rk3568/release/bl31/rockchip_sip_svc.o
 .note.GNU-stack
                0x0000000000000000        0x0 /media/data_nvme/git/uboot/u-boot/build/rk3568/release/bl31/pmu.o
 .note.GNU-stack
                0x0000000000000000        0x0 /media/data_nvme/git/uboot/u-boot/build/rk3568/release/bl31/soc.o
 .note.GNU-stack
                0x0000000000000000        0x0 /media/data_nvme/git/uboot/u-boot/build/rk3568/release/bl31/arm_arch_svc_setup.o
 .note.GNU-stack
                0x0000000000000000        0x0 /media/data_nvme/git/uboot/u-boot/build/rk3568/release/bl31/std_svc_setup.o
 .note.GNU-stack
                0x0000000000000000        0x0 /media/data_nvme/git/uboot/u-boot/build/rk3568/release/bl31/bl_common.o
 .note.GNU-stack
                0x0000000000000000        0x0 /media/data_nvme/git/uboot/u-boot/build/rk3568/release/bl31/tf_log.o
 .note.GNU-stack
                0x0000000000000000        0x0 /media/data_nvme/git/uboot/u-boot/build/rk3568/release/bl31/multi_console.o
 .note.GNU-stack
                0x0000000000000000        0x0 /media/data_nvme/git/uboot/u-boot/build/rk3568/release/bl31/pmuv3.o
 .note.GNU-stack
                0x0000000000000000        0x0 /media/data_nvme/git/uboot/u-boot/build/rk3568/release/bl31/plat_bl_common.o
 .note.GNU-stack
                0x0000000000000000        0x0 /media/data_nvme/git/uboot/u-boot/build/rk3568/release/bl31/plat_log_common.o
 .note.GNU-stack
                0x0000000000000000        0x0 /media/data_nvme/git/uboot/u-boot/build/rk3568/release/bl31/plat_common.o
 .note.GNU-stack
                0x0000000000000000        0x0 /media/data_nvme/git/uboot/u-boot/build/rk3568/release/bl31/xlat_tables_arch.o
 .note.GNU-stack
                0x0000000000000000        0x0 /media/data_nvme/git/uboot/u-boot/build/rk3568/release/bl31/xlat_tables_context.o
 .note.GNU-stack
                0x0000000000000000        0x0 /media/data_nvme/git/uboot/u-boot/build/rk3568/release/bl31/xlat_tables_core.o
 .note.GNU-stack
                0x0000000000000000        0x0 /media/data_nvme/git/uboot/u-boot/build/rk3568/release/bl31/xlat_tables_utils.o
 .note.GNU-stack
                0x0000000000000000        0x0 /media/data_nvme/git/uboot/u-boot/build/rk3568/release/bl31/desc_image_load.o
 .note.GNU-stack
                0x0000000000000000        0x0 /media/data_nvme/git/uboot/u-boot/build/rk3568/release/bl31/bl_aux_params.o
 .note.GNU-stack
                0x0000000000000000        0x0 /media/data_nvme/git/uboot/u-boot/build/rk3568/release/bl31/plat_psci_common.o
 .note.GNU-stack
                0x0000000000000000        0x0 /media/data_nvme/git/uboot/u-boot/build/rk3568/release/lib/libc.a(memchr.o)
 .note.GNU-stack
                0x0000000000000000        0x0 /media/data_nvme/git/uboot/u-boot/build/rk3568/release/lib/libc.a(memcmp.o)
 .note.GNU-stack
                0x0000000000000000        0x0 /media/data_nvme/git/uboot/u-boot/build/rk3568/release/lib/libc.a(memcpy.o)
 .note.GNU-stack
                0x0000000000000000        0x0 /media/data_nvme/git/uboot/u-boot/build/rk3568/release/lib/libc.a(memmove.o)
 .note.GNU-stack
                0x0000000000000000        0x0 /media/data_nvme/git/uboot/u-boot/build/rk3568/release/lib/libc.a(memset.o)
 .note.GNU-stack
                0x0000000000000000        0x0 /media/data_nvme/git/uboot/u-boot/build/rk3568/release/lib/libc.a(printf.o)
 .note.GNU-stack
                0x0000000000000000        0x0 /media/data_nvme/git/uboot/u-boot/build/rk3568/release/lib/libc.a(strchr.o)
 .note.GNU-stack
                0x0000000000000000        0x0 /media/data_nvme/git/uboot/u-boot/build/rk3568/release/lib/libc.a(strlen.o)
 .note.GNU-stack
                0x0000000000000000        0x0 /media/data_nvme/git/uboot/u-boot/build/rk3568/release/lib/libc.a(strncmp.o)
 .note.GNU-stack
                0x0000000000000000        0x0 /media/data_nvme/git/uboot/u-boot/build/rk3568/release/lib/libc.a(strrchr.o)

.debug_loc      0x0000000000000000    0x2abb9
 .debug_loc     0x0000000000000000      0x2cb /media/data_nvme/git/uboot/u-boot/build/rk3568/release/bl31/bl31_context_mgmt.o
 .debug_loc     0x00000000000002cb      0x240 /media/data_nvme/git/uboot/u-boot/build/rk3568/release/bl31/bl31_main.o
 .debug_loc     0x000000000000050b       0x88 /media/data_nvme/git/uboot/u-boot/build/rk3568/release/bl31/bl31_traps.o
 .debug_loc     0x0000000000000593      0xa05 /media/data_nvme/git/uboot/u-boot/build/rk3568/release/bl31/interrupt_mgmt.o
 .debug_loc     0x0000000000000f98      0x618 /media/data_nvme/git/uboot/u-boot/build/rk3568/release/bl31/runtime_svc.o
 .debug_loc     0x00000000000015b0      0x6c7 /media/data_nvme/git/uboot/u-boot/build/rk3568/release/bl31/gic-x00.o
 .debug_loc     0x0000000000001c77     0x22ae /media/data_nvme/git/uboot/u-boot/build/rk3568/release/bl31/gicdv3_helpers.o
 .debug_loc     0x0000000000003f25     0x1662 /media/data_nvme/git/uboot/u-boot/build/rk3568/release/bl31/gicrv3_helpers.o
 .debug_loc     0x0000000000005587     0x1701 /media/data_nvme/git/uboot/u-boot/build/rk3568/release/bl31/gicv3_helpers.o
 .debug_loc     0x0000000000006c88     0x4f25 /media/data_nvme/git/uboot/u-boot/build/rk3568/release/bl31/gicv3_main.o
 .debug_loc     0x000000000000bbad      0x15e /media/data_nvme/git/uboot/u-boot/build/rk3568/release/bl31/delay_timer.o
 .debug_loc     0x000000000000bd0b      0x12d /media/data_nvme/git/uboot/u-boot/build/rk3568/release/bl31/generic_delay_timer.o
 .debug_loc     0x000000000000be38     0x1826 /media/data_nvme/git/uboot/u-boot/build/rk3568/release/bl31/context_mgmt.o
 .debug_loc     0x000000000000d65e      0x2ae /media/data_nvme/git/uboot/u-boot/build/rk3568/release/bl31/spe.o
 .debug_loc     0x000000000000d90c      0x117 /media/data_nvme/git/uboot/u-boot/build/rk3568/release/bl31/sve.o
 .debug_loc     0x000000000000da23     0x1238 /media/data_nvme/git/uboot/u-boot/build/rk3568/release/bl31/fdt.o
 .debug_loc     0x000000000000ec5b     0x4569 /media/data_nvme/git/uboot/u-boot/build/rk3568/release/bl31/fdt_ro.o
 .debug_loc     0x00000000000131c4     0x40a5 /media/data_nvme/git/uboot/u-boot/build/rk3568/release/bl31/fdt_rw.o
 .debug_loc     0x0000000000017269     0x2086 /media/data_nvme/git/uboot/u-boot/build/rk3568/release/bl31/psci_common.o
 .debug_loc     0x00000000000192ef     0x21e0 /media/data_nvme/git/uboot/u-boot/build/rk3568/release/bl31/psci_main.o
 .debug_loc     0x000000000001b4cf      0x175 /media/data_nvme/git/uboot/u-boot/build/rk3568/release/bl31/psci_mem_protect.o
 .debug_loc     0x000000000001b644      0x24a /media/data_nvme/git/uboot/u-boot/build/rk3568/release/bl31/psci_off.o
 .debug_loc     0x000000000001b88e      0x402 /media/data_nvme/git/uboot/u-boot/build/rk3568/release/bl31/psci_on.o
 .debug_loc     0x000000000001bc90      0x767 /media/data_nvme/git/uboot/u-boot/build/rk3568/release/bl31/psci_setup.o
 .debug_loc     0x000000000001c3f7      0x5bb /media/data_nvme/git/uboot/u-boot/build/rk3568/release/bl31/psci_suspend.o
 .debug_loc     0x000000000001c9b2      0x122 /media/data_nvme/git/uboot/u-boot/build/rk3568/release/bl31/psci_system_off.o
 .debug_loc     0x000000000001cad4      0xb2a /media/data_nvme/git/uboot/u-boot/build/rk3568/release/bl31/plat_gicv3.o
 .debug_loc     0x000000000001d5fe      0x133 /media/data_nvme/git/uboot/u-boot/build/rk3568/release/bl31/platform_common.o
 .debug_loc     0x000000000001d731      0x1af /media/data_nvme/git/uboot/u-boot/build/rk3568/release/bl31/bl31_plat_setup.o
 .debug_loc     0x000000000001d8e0      0x655 /media/data_nvme/git/uboot/u-boot/build/rk3568/release/bl31/params_setup.o
 .debug_loc     0x000000000001df35      0xa2c /media/data_nvme/git/uboot/u-boot/build/rk3568/release/bl31/plat_pm.o
 .debug_loc     0x000000000001e961       0xe1 /media/data_nvme/git/uboot/u-boot/build/rk3568/release/bl31/plat_topology.o
 .debug_loc     0x000000000001ea42       0x3d /media/data_nvme/git/uboot/u-boot/build/rk3568/release/bl31/rockchip_gicv3.o
 .debug_loc     0x000000000001ea7f      0x5ef /media/data_nvme/git/uboot/u-boot/build/rk3568/release/bl31/rockchip_sip_svc.o
 .debug_loc     0x000000000001f06e     0x2140 /media/data_nvme/git/uboot/u-boot/build/rk3568/release/bl31/pmu.o
 .debug_loc     0x00000000000211ae      0x89d /media/data_nvme/git/uboot/u-boot/build/rk3568/release/bl31/soc.o
 .debug_loc     0x0000000000021a4b      0xd7b /media/data_nvme/git/uboot/u-boot/build/rk3568/release/bl31/arm_arch_svc_setup.o
 .debug_loc     0x00000000000227c6      0x372 /media/data_nvme/git/uboot/u-boot/build/rk3568/release/bl31/std_svc_setup.o
 .debug_loc     0x0000000000022b38      0x347 /media/data_nvme/git/uboot/u-boot/build/rk3568/release/bl31/bl_common.o
 .debug_loc     0x0000000000022e7f      0x1b7 /media/data_nvme/git/uboot/u-boot/build/rk3568/release/bl31/tf_log.o
 .debug_loc     0x0000000000023036      0x447 /media/data_nvme/git/uboot/u-boot/build/rk3568/release/bl31/multi_console.o
 .debug_loc     0x000000000002347d      0x26f /media/data_nvme/git/uboot/u-boot/build/rk3568/release/bl31/pmuv3.o
 .debug_loc     0x00000000000236ec      0x2db /media/data_nvme/git/uboot/u-boot/build/rk3568/release/bl31/plat_bl_common.o
 .debug_loc     0x00000000000239c7       0xd6 /media/data_nvme/git/uboot/u-boot/build/rk3568/release/bl31/plat_log_common.o
 .debug_loc     0x0000000000023a9d      0x2b3 /media/data_nvme/git/uboot/u-boot/build/rk3568/release/bl31/plat_common.o
 .debug_loc     0x0000000000023d50      0xa2f /media/data_nvme/git/uboot/u-boot/build/rk3568/release/bl31/xlat_tables_arch.o
 .debug_loc     0x000000000002477f      0x6e7 /media/data_nvme/git/uboot/u-boot/build/rk3568/release/bl31/xlat_tables_context.o
 .debug_loc     0x0000000000024e66     0x1d35 /media/data_nvme/git/uboot/u-boot/build/rk3568/release/bl31/xlat_tables_core.o
 .debug_loc     0x0000000000026b9b      0xd08 /media/data_nvme/git/uboot/u-boot/build/rk3568/release/bl31/xlat_tables_utils.o
 .debug_loc     0x00000000000278a3      0x997 /media/data_nvme/git/uboot/u-boot/build/rk3568/release/bl31/desc_image_load.o
 .debug_loc     0x000000000002823a       0xf3 /media/data_nvme/git/uboot/u-boot/build/rk3568/release/bl31/bl_aux_params.o
 .debug_loc     0x000000000002832d      0x185 /media/data_nvme/git/uboot/u-boot/build/rk3568/release/bl31/plat_psci_common.o
 .debug_loc     0x00000000000284b2      0x10b /media/data_nvme/git/uboot/u-boot/build/rk3568/release/lib/libc.a(memchr.o)
 .debug_loc     0x00000000000285bd      0x29e /media/data_nvme/git/uboot/u-boot/build/rk3568/release/lib/libc.a(memcmp.o)
 .debug_loc     0x000000000002885b      0x15e /media/data_nvme/git/uboot/u-boot/build/rk3568/release/lib/libc.a(memcpy.o)
 .debug_loc     0x00000000000289b9      0x1ff /media/data_nvme/git/uboot/u-boot/build/rk3568/release/lib/libc.a(memmove.o)
 .debug_loc     0x0000000000028bb8      0x3e7 /media/data_nvme/git/uboot/u-boot/build/rk3568/release/lib/libc.a(memset.o)
 .debug_loc     0x0000000000028f9f     0x186d /media/data_nvme/git/uboot/u-boot/build/rk3568/release/lib/libc.a(printf.o)
 .debug_loc     0x000000000002a80c       0x9c /media/data_nvme/git/uboot/u-boot/build/rk3568/release/lib/libc.a(strchr.o)
 .debug_loc     0x000000000002a8a8       0x8c /media/data_nvme/git/uboot/u-boot/build/rk3568/release/lib/libc.a(strlen.o)
 .debug_loc     0x000000000002a934      0x1ae /media/data_nvme/git/uboot/u-boot/build/rk3568/release/lib/libc.a(strncmp.o)
 .debug_loc     0x000000000002aae2       0xd7 /media/data_nvme/git/uboot/u-boot/build/rk3568/release/lib/libc.a(strrchr.o)

.debug_ranges   0x0000000000000000     0x8010
 .debug_ranges  0x0000000000000000       0x50 /media/data_nvme/git/uboot/u-boot/build/rk3568/release/bl31/bl31_context_mgmt.o
 .debug_ranges  0x0000000000000050      0x110 /media/data_nvme/git/uboot/u-boot/build/rk3568/release/bl31/bl31_main.o
 .debug_ranges  0x0000000000000160       0x20 /media/data_nvme/git/uboot/u-boot/build/rk3568/release/bl31/bl31_traps.o
 .debug_ranges  0x0000000000000180       0xf0 /media/data_nvme/git/uboot/u-boot/build/rk3568/release/bl31/interrupt_mgmt.o
 .debug_ranges  0x0000000000000270      0x170 /media/data_nvme/git/uboot/u-boot/build/rk3568/release/bl31/runtime_svc.o
 .debug_ranges  0x00000000000003e0      0x280 /media/data_nvme/git/uboot/u-boot/build/rk3568/release/bl31/gic-x00.o
 .debug_ranges  0x0000000000000660      0x850 /media/data_nvme/git/uboot/u-boot/build/rk3568/release/bl31/gicdv3_helpers.o
 .debug_ranges  0x0000000000000eb0      0x490 /media/data_nvme/git/uboot/u-boot/build/rk3568/release/bl31/gicrv3_helpers.o
 .debug_ranges  0x0000000000001340      0x490 /media/data_nvme/git/uboot/u-boot/build/rk3568/release/bl31/gicv3_helpers.o
 .debug_ranges  0x00000000000017d0     0x15c0 /media/data_nvme/git/uboot/u-boot/build/rk3568/release/bl31/gicv3_main.o
 .debug_ranges  0x0000000000002d90       0x40 /media/data_nvme/git/uboot/u-boot/build/rk3568/release/bl31/delay_timer.o
 .debug_ranges  0x0000000000002dd0       0x40 /media/data_nvme/git/uboot/u-boot/build/rk3568/release/bl31/generic_delay_timer.o
 .debug_ranges  0x0000000000002e10       0x20 /media/data_nvme/git/uboot/u-boot/build/rk3568/release/bl31/errata_report.o
 .debug_ranges  0x0000000000002e30      0x5a0 /media/data_nvme/git/uboot/u-boot/build/rk3568/release/bl31/context_mgmt.o
 .debug_ranges  0x00000000000033d0      0x100 /media/data_nvme/git/uboot/u-boot/build/rk3568/release/bl31/spe.o
 .debug_ranges  0x00000000000034d0       0x30 /media/data_nvme/git/uboot/u-boot/build/rk3568/release/bl31/sve.o
 .debug_ranges  0x0000000000003500      0x200 /media/data_nvme/git/uboot/u-boot/build/rk3568/release/bl31/fdt.o
 .debug_ranges  0x0000000000003700      0x620 /media/data_nvme/git/uboot/u-boot/build/rk3568/release/bl31/fdt_ro.o
 .debug_ranges  0x0000000000003d20      0x840 /media/data_nvme/git/uboot/u-boot/build/rk3568/release/bl31/fdt_rw.o
 .debug_ranges  0x0000000000004560      0x490 /media/data_nvme/git/uboot/u-boot/build/rk3568/release/bl31/psci_common.o
 .debug_ranges  0x00000000000049f0      0x1d0 /media/data_nvme/git/uboot/u-boot/build/rk3568/release/bl31/psci_main.o
 .debug_ranges  0x0000000000004bc0       0x30 /media/data_nvme/git/uboot/u-boot/build/rk3568/release/bl31/psci_mem_protect.o
 .debug_ranges  0x0000000000004bf0       0x50 /media/data_nvme/git/uboot/u-boot/build/rk3568/release/bl31/psci_off.o
 .debug_ranges  0x0000000000004c40      0x110 /media/data_nvme/git/uboot/u-boot/build/rk3568/release/bl31/psci_on.o
 .debug_ranges  0x0000000000004d50      0x240 /media/data_nvme/git/uboot/u-boot/build/rk3568/release/bl31/psci_setup.o
 .debug_ranges  0x0000000000004f90      0x150 /media/data_nvme/git/uboot/u-boot/build/rk3568/release/bl31/psci_suspend.o
 .debug_ranges  0x00000000000050e0       0x40 /media/data_nvme/git/uboot/u-boot/build/rk3568/release/bl31/psci_system_off.o
 .debug_ranges  0x0000000000005120      0x1c0 /media/data_nvme/git/uboot/u-boot/build/rk3568/release/bl31/plat_gicv3.o
 .debug_ranges  0x00000000000052e0       0x40 /media/data_nvme/git/uboot/u-boot/build/rk3568/release/bl31/platform_common.o
 .debug_ranges  0x0000000000005320       0x60 /media/data_nvme/git/uboot/u-boot/build/rk3568/release/bl31/bl31_plat_setup.o
 .debug_ranges  0x0000000000005380      0x190 /media/data_nvme/git/uboot/u-boot/build/rk3568/release/bl31/params_setup.o
 .debug_ranges  0x0000000000005510      0x210 /media/data_nvme/git/uboot/u-boot/build/rk3568/release/bl31/plat_pm.o
 .debug_ranges  0x0000000000005720       0x30 /media/data_nvme/git/uboot/u-boot/build/rk3568/release/bl31/plat_topology.o
 .debug_ranges  0x0000000000005750       0x70 /media/data_nvme/git/uboot/u-boot/build/rk3568/release/bl31/rockchip_gicv3.o
 .debug_ranges  0x00000000000057c0       0xa0 /media/data_nvme/git/uboot/u-boot/build/rk3568/release/bl31/rockchip_sip_svc.o
 .debug_ranges  0x0000000000005860      0x9e0 /media/data_nvme/git/uboot/u-boot/build/rk3568/release/bl31/pmu.o
 .debug_ranges  0x0000000000006240      0x490 /media/data_nvme/git/uboot/u-boot/build/rk3568/release/bl31/soc.o
 .debug_ranges  0x00000000000066d0       0x50 /media/data_nvme/git/uboot/u-boot/build/rk3568/release/bl31/arm_arch_svc_setup.o
 .debug_ranges  0x0000000000006720       0x60 /media/data_nvme/git/uboot/u-boot/build/rk3568/release/bl31/std_svc_setup.o
 .debug_ranges  0x0000000000006780       0x90 /media/data_nvme/git/uboot/u-boot/build/rk3568/release/bl31/bl_common.o
 .debug_ranges  0x0000000000006810       0x40 /media/data_nvme/git/uboot/u-boot/build/rk3568/release/bl31/tf_log.o
 .debug_ranges  0x0000000000006850      0x100 /media/data_nvme/git/uboot/u-boot/build/rk3568/release/bl31/multi_console.o
 .debug_ranges  0x0000000000006950      0x100 /media/data_nvme/git/uboot/u-boot/build/rk3568/release/bl31/pmuv3.o
 .debug_ranges  0x0000000000006a50       0x90 /media/data_nvme/git/uboot/u-boot/build/rk3568/release/bl31/plat_bl_common.o
 .debug_ranges  0x0000000000006ae0       0x20 /media/data_nvme/git/uboot/u-boot/build/rk3568/release/bl31/plat_log_common.o
 .debug_ranges  0x0000000000006b00       0x80 /media/data_nvme/git/uboot/u-boot/build/rk3568/release/bl31/plat_common.o
 .debug_ranges  0x0000000000006b80      0x120 /media/data_nvme/git/uboot/u-boot/build/rk3568/release/bl31/xlat_tables_arch.o
 .debug_ranges  0x0000000000006ca0       0xc0 /media/data_nvme/git/uboot/u-boot/build/rk3568/release/bl31/xlat_tables_context.o
 .debug_ranges  0x0000000000006d60      0x460 /media/data_nvme/git/uboot/u-boot/build/rk3568/release/bl31/xlat_tables_core.o
 .debug_ranges  0x00000000000071c0      0x1b0 /media/data_nvme/git/uboot/u-boot/build/rk3568/release/bl31/xlat_tables_utils.o
 .debug_ranges  0x0000000000007370       0x90 /media/data_nvme/git/uboot/u-boot/build/rk3568/release/bl31/desc_image_load.o
 .debug_ranges  0x0000000000007400       0x20 /media/data_nvme/git/uboot/u-boot/build/rk3568/release/bl31/bl_aux_params.o
 .debug_ranges  0x0000000000007420       0x20 /media/data_nvme/git/uboot/u-boot/build/rk3568/release/bl31/plat_psci_common.o
 .debug_ranges  0x0000000000007440       0x40 /media/data_nvme/git/uboot/u-boot/build/rk3568/release/bl31/bl31_entrypoint.o
 .debug_ranges  0x0000000000007480       0x40 /media/data_nvme/git/uboot/u-boot/build/rk3568/release/bl31/crash_reporting.o
 .debug_ranges  0x00000000000074c0       0x80 /media/data_nvme/git/uboot/u-boot/build/rk3568/release/bl31/ea_delegate.o
 .debug_ranges  0x0000000000007540       0x40 /media/data_nvme/git/uboot/u-boot/build/rk3568/release/bl31/runtime_exceptions.o
 .debug_ranges  0x0000000000007580       0xa0 /media/data_nvme/git/uboot/u-boot/build/rk3568/release/bl31/16550_console.o
 .debug_ranges  0x0000000000007620      0x130 /media/data_nvme/git/uboot/u-boot/build/rk3568/release/bl31/cortex_a55.o
 .debug_ranges  0x0000000000007750       0xd0 /media/data_nvme/git/uboot/u-boot/build/rk3568/release/bl31/cpu_helpers.o
 .debug_ranges  0x0000000000007820       0x80 /media/data_nvme/git/uboot/u-boot/build/rk3568/release/bl31/context.o
 .debug_ranges  0x00000000000078a0       0x40 /media/data_nvme/git/uboot/u-boot/build/rk3568/release/bl31/cpu_data.o
 .debug_ranges  0x00000000000078e0       0x40 /media/data_nvme/git/uboot/u-boot/build/rk3568/release/bl31/spinlock.o
 .debug_ranges  0x0000000000007920       0x50 /media/data_nvme/git/uboot/u-boot/build/rk3568/release/bl31/psci_helpers.o
 .debug_ranges  0x0000000000007970       0x40 /media/data_nvme/git/uboot/u-boot/build/rk3568/release/bl31/platform_mp_stack.o
 .debug_ranges  0x00000000000079b0       0x80 /media/data_nvme/git/uboot/u-boot/build/rk3568/release/bl31/plat_helpers.o
 .debug_ranges  0x0000000000007a30       0x70 /media/data_nvme/git/uboot/u-boot/build/rk3568/release/bl31/debug.o
 .debug_ranges  0x0000000000007aa0       0xc0 /media/data_nvme/git/uboot/u-boot/build/rk3568/release/bl31/cache_helpers.o
 .debug_ranges  0x0000000000007b60       0xc0 /media/data_nvme/git/uboot/u-boot/build/rk3568/release/bl31/misc_helpers.o
 .debug_ranges  0x0000000000007c20       0xc0 /media/data_nvme/git/uboot/u-boot/build/rk3568/release/bl31/platform_helpers.o
 .debug_ranges  0x0000000000007ce0       0x50 /media/data_nvme/git/uboot/u-boot/build/rk3568/release/bl31/enable_mmu.o
 .debug_ranges  0x0000000000007d30       0x50 /media/data_nvme/git/uboot/u-boot/build/rk3568/release/bl31/crash_console_helpers.o
 .debug_ranges  0x0000000000007d80       0x20 /media/data_nvme/git/uboot/u-boot/build/rk3568/release/lib/libc.a(memchr.o)
 .debug_ranges  0x0000000000007da0       0x20 /media/data_nvme/git/uboot/u-boot/build/rk3568/release/lib/libc.a(memcmp.o)
 .debug_ranges  0x0000000000007dc0       0x20 /media/data_nvme/git/uboot/u-boot/build/rk3568/release/lib/libc.a(memcpy.o)
 .debug_ranges  0x0000000000007de0       0x50 /media/data_nvme/git/uboot/u-boot/build/rk3568/release/lib/libc.a(memmove.o)
 .debug_ranges  0x0000000000007e30       0x20 /media/data_nvme/git/uboot/u-boot/build/rk3568/release/lib/libc.a(memset.o)
 .debug_ranges  0x0000000000007e50      0x140 /media/data_nvme/git/uboot/u-boot/build/rk3568/release/lib/libc.a(printf.o)
 .debug_ranges  0x0000000000007f90       0x20 /media/data_nvme/git/uboot/u-boot/build/rk3568/release/lib/libc.a(strchr.o)
 .debug_ranges  0x0000000000007fb0       0x20 /media/data_nvme/git/uboot/u-boot/build/rk3568/release/lib/libc.a(strlen.o)
 .debug_ranges  0x0000000000007fd0       0x20 /media/data_nvme/git/uboot/u-boot/build/rk3568/release/lib/libc.a(strncmp.o)
 .debug_ranges  0x0000000000007ff0       0x20 /media/data_nvme/git/uboot/u-boot/build/rk3568/release/lib/libc.a(strrchr.o)

.debug_frame    0x0000000000000000      0xce8
 .debug_frame   0x0000000000000000       0x40 /media/data_nvme/git/uboot/u-boot/build/rk3568/release/bl31/bl31_entrypoint.o
 .debug_frame   0x0000000000000040       0x40 /media/data_nvme/git/uboot/u-boot/build/rk3568/release/bl31/crash_reporting.o
 .debug_frame   0x0000000000000080       0xa0 /media/data_nvme/git/uboot/u-boot/build/rk3568/release/bl31/ea_delegate.o
 .debug_frame   0x0000000000000120      0x1a8 /media/data_nvme/git/uboot/u-boot/build/rk3568/release/bl31/runtime_exceptions.o
 .debug_frame   0x00000000000002c8       0xd0 /media/data_nvme/git/uboot/u-boot/build/rk3568/release/bl31/16550_console.o
 .debug_frame   0x0000000000000398      0x1a8 /media/data_nvme/git/uboot/u-boot/build/rk3568/release/bl31/cortex_a55.o
 .debug_frame   0x0000000000000540      0x118 /media/data_nvme/git/uboot/u-boot/build/rk3568/release/bl31/cpu_helpers.o
 .debug_frame   0x0000000000000658       0xa0 /media/data_nvme/git/uboot/u-boot/build/rk3568/release/bl31/context.o
 .debug_frame   0x00000000000006f8       0x40 /media/data_nvme/git/uboot/u-boot/build/rk3568/release/bl31/cpu_data.o
 .debug_frame   0x0000000000000738       0x40 /media/data_nvme/git/uboot/u-boot/build/rk3568/release/bl31/spinlock.o
 .debug_frame   0x0000000000000778       0x58 /media/data_nvme/git/uboot/u-boot/build/rk3568/release/bl31/psci_helpers.o
 .debug_frame   0x00000000000007d0       0x40 /media/data_nvme/git/uboot/u-boot/build/rk3568/release/bl31/platform_mp_stack.o
 .debug_frame   0x0000000000000810       0xa0 /media/data_nvme/git/uboot/u-boot/build/rk3568/release/bl31/plat_helpers.o
 .debug_frame   0x00000000000008b0       0x88 /media/data_nvme/git/uboot/u-boot/build/rk3568/release/bl31/debug.o
 .debug_frame   0x0000000000000938      0x100 /media/data_nvme/git/uboot/u-boot/build/rk3568/release/bl31/cache_helpers.o
 .debug_frame   0x0000000000000a38      0x100 /media/data_nvme/git/uboot/u-boot/build/rk3568/release/bl31/misc_helpers.o
 .debug_frame   0x0000000000000b38      0x100 /media/data_nvme/git/uboot/u-boot/build/rk3568/release/bl31/platform_helpers.o
 .debug_frame   0x0000000000000c38       0x58 /media/data_nvme/git/uboot/u-boot/build/rk3568/release/bl31/enable_mmu.o
 .debug_frame   0x0000000000000c90       0x58 /media/data_nvme/git/uboot/u-boot/build/rk3568/release/bl31/crash_console_helpers.o
