
/media/data_nvme/git/uboot/u-boot/build/rk3568/release/bl31/bl31.elf:     file format elf64-littleaarch64
/media/data_nvme/git/uboot/u-boot/build/rk3568/release/bl31/bl31.elf
architecture: aarch64, flags 0x00000112:
EXEC_P, HAS_SYMS, D_PAGED
start address 0x0000000000040000

Program Header:
    LOAD off    0x0000000000010000 vaddr 0x0000000000040000 paddr 0x0000000000040000 align 2**16
         filesz 0x00000000000180de memsz 0x000000000004e000 flags rwx
    LOAD off    0x0000000000029000 vaddr 0x00000000fdcd0000 paddr 0x00000000fdcd0000 align 2**16
         filesz 0x0000000000000070 memsz 0x0000000000000070 flags r-x
   STACK off    0x0000000000000000 vaddr 0x0000000000000000 paddr 0x0000000000000000 align 2**4
         filesz 0x0000000000000000 memsz 0x0000000000000000 flags rw-
private flags = 0x0:

Sections:
Idx Name          Size      VMA               LMA               File off  Algn
  0 .pmusram      00000070  00000000fdcd0000  00000000fdcd0000  00029000  2**3
                  CONTENTS, ALLOC, LOAD, READONLY, CODE
  1 .ro           00018000  0000000000040000  0000000000040000  00010000  2**16
                  CONTENTS, ALLOC, LOAD, CODE
  2 .data         000000de  0000000000058000  0000000000058000  00028000  2**3
                  CONTENTS, ALLOC, LOAD, DATA
  3 .stacks       00002000  0000000000058100  0000000000058100  000280de  2**6
                  ALLOC
  4 .bss          000211e0  000000000005a100  000000000005a100  000280de  2**6
                  ALLOC
  5 .xlat_table   00012000  000000000007c000  000000000007c000  000280de  2**12
                  ALLOC
  6 .debug_info   0002848b  0000000000000000  0000000000000000  00029070  2**0
                  CONTENTS, READONLY, DEBUGGING, OCTETS
  7 .debug_abbrev 00008e14  0000000000000000  0000000000000000  000514fb  2**0
                  CONTENTS, READONLY, DEBUGGING, OCTETS
  8 .debug_aranges 00002d50  0000000000000000  0000000000000000  0005a310  2**4
                  CONTENTS, READONLY, DEBUGGING, OCTETS
  9 .debug_line   00012cd7  0000000000000000  0000000000000000  0005d060  2**0
                  CONTENTS, READONLY, DEBUGGING, OCTETS
 10 .debug_str    00007188  0000000000000000  0000000000000000  0006fd37  2**0
                  CONTENTS, READONLY, DEBUGGING, OCTETS
 11 .comment      0000002b  0000000000000000  0000000000000000  00076ebf  2**0
                  CONTENTS, READONLY
 12 .debug_loc    0002abb9  0000000000000000  0000000000000000  00076eea  2**0
                  CONTENTS, READONLY, DEBUGGING, OCTETS
 13 .debug_ranges 00008010  0000000000000000  0000000000000000  000a1ab0  2**4
                  CONTENTS, READONLY, DEBUGGING, OCTETS
 14 .debug_frame  00000ce8  0000000000000000  0000000000000000  000a9ac0  2**3
                  CONTENTS, READONLY, DEBUGGING, OCTETS
SYMBOL TABLE:
00000000fdcd0000 l    d  .pmusram	0000000000000000 .pmusram
0000000000040000 l    d  .ro	0000000000000000 .ro
0000000000058000 l    d  .data	0000000000000000 .data
0000000000058100 l    d  .stacks	0000000000000000 .stacks
000000000005a100 l    d  .bss	0000000000000000 .bss
000000000007c000 l    d  .xlat_table	0000000000000000 .xlat_table
0000000000000000 l    d  .debug_info	0000000000000000 .debug_info
0000000000000000 l    d  .debug_abbrev	0000000000000000 .debug_abbrev
0000000000000000 l    d  .debug_aranges	0000000000000000 .debug_aranges
0000000000000000 l    d  .debug_line	0000000000000000 .debug_line
0000000000000000 l    d  .debug_str	0000000000000000 .debug_str
0000000000000000 l    d  .comment	0000000000000000 .comment
0000000000000000 l    d  .debug_loc	0000000000000000 .debug_loc
0000000000000000 l    d  .debug_ranges	0000000000000000 .debug_ranges
0000000000000000 l    d  .debug_frame	0000000000000000 .debug_frame
0000000000000000 l    df *ABS*	0000000000000000 cpus_on_fixed_addr.o
00000000fdcd0014 l       .pmusram	0000000000000000 sys_resume_sp
00000000fdcd0020 l       .pmusram	0000000000000000 ddr_resume
00000000fdcd0030 l       .pmusram	0000000000000000 sys_resume
0000000000000000 l    df *ABS*	0000000000000000 bl31_entrypoint.o
0000000000000000 l    df *ABS*	0000000000000000 plat_helpers.o
0000000000055afc l       .ro	0000000000000000 handler_a72
0000000000055b08 l       .ro	0000000000000000 handler_end
0000000000050038 l       .ro	0000000000000000 boot_entry
0000000000050030 l       .ro	0000000000000000 wfe_loop
0000000000000000 l    df *ABS*	0000000000000000 bl31_context_mgmt.c
0000000000000000 l    df *ABS*	0000000000000000 bl31_main.c
000000000005ab00 l     O .bss	0000000000000008 bl32_init
00000000000580b8 l     O .data	0000000000000004 next_image_type
00000000000565b0 l     O .ro	0000000000000010 psci_args.0
0000000000000000 l    df *ABS*	0000000000000000 bl31_traps.c
0000000000000000 l    df *ABS*	0000000000000000 interrupt_mgmt.c
000000000005ab08 l     O .bss	0000000000000060 intr_type_descs
0000000000000000 l    df *ABS*	0000000000000000 runtime_svc.c
0000000000000000 l    df *ABS*	0000000000000000 gic-x00.c
0000000000050340 l     F .ro	0000000000000014 gicr_wait_group_not_in_transit
0000000000050354 l     F .ro	0000000000000038 gicv3_redists_need_power_mgmt
000000000007b290 l     O .bss	0000000000000001 gic600_errata_wa_2384374
0000000000000000 l    df *ABS*	0000000000000000 gicdv3_helpers.c
0000000000000000 l    df *ABS*	0000000000000000 gicrv3_helpers.c
0000000000000000 l    df *ABS*	0000000000000000 gicv3_helpers.c
0000000000000000 l    df *ABS*	0000000000000000 gicv3_main.c
00000000000509e8 l     F .ro	000000000000000c gicd_wait_for_pending_write
00000000000509e8 l     F .ro	000000000000000c gicr_wait_for_upstream_pending_write
0000000000000000 l    df *ABS*	0000000000000000 delay_timer.c
000000000005ab70 l     O .bss	0000000000000008 timer_ops
0000000000000000 l    df *ABS*	0000000000000000 generic_delay_timer.c
0000000000050c5c l     F .ro	000000000000000c get_timer_value
000000000005ab78 l     O .bss	0000000000000010 ops
0000000000000000 l    df *ABS*	0000000000000000 errata_report.c
0000000000000000 l    df *ABS*	0000000000000000 context_mgmt.c
0000000000000000 l    df *ABS*	0000000000000000 spe.c
0000000000051044 l     F .ro	0000000000000024 spe_drain_buffers_hook
0000000000000000 l    df *ABS*	0000000000000000 sve.c
0000000000000000 l    df *ABS*	0000000000000000 fdt.c
00000000000510d4 l     F .ro	0000000000000024 fdt32_ld
0000000000000000 l    df *ABS*	0000000000000000 fdt_ro.c
00000000000514fc l     F .ro	0000000000000024 fdt32_ld
0000000000051520 l     F .ro	0000000000000058 fdt_mem_rsv
0000000000051578 l     F .ro	0000000000000064 nextprop_
00000000000515dc l     F .ro	0000000000000008 fdt64_ld_.isra.0
00000000000515e4 l     F .ro	0000000000000008 fdt32_ld_.isra.0
00000000000515ec l     F .ro	0000000000000068 fdt_get_property_by_offset_
00000000000519b0 l     F .ro	00000000000000d8 fdt_get_property_namelen_
0000000000000000 l    df *ABS*	0000000000000000 fdt_rw.c
0000000000051cd8 l     F .ro	0000000000000008 cpu_to_fdt32
0000000000051ce0 l     F .ro	0000000000000024 fdt32_ld
0000000000051d04 l     F .ro	0000000000000088 fdt_blocks_misordered_
0000000000051d8c l     F .ro	00000000000000d0 fdt_packblocks_
0000000000000000 l    df *ABS*	0000000000000000 psci_common.c
000000000005201c l     F .ro	0000000000000034 psci_set_req_local_pwr_state
000000000007b291 l     O .bss	0000000000000008 psci_req_local_pwr_states
0000000000000000 l    df *ABS*	0000000000000000 psci_main.c
0000000000000000 l    df *ABS*	0000000000000000 psci_mem_protect.c
0000000000000000 l    df *ABS*	0000000000000000 psci_off.c
0000000000000000 l    df *ABS*	0000000000000000 psci_on.c
0000000000000000 l    df *ABS*	0000000000000000 psci_setup.c
000000000005a200 l     O .bss	0000000000000900 psci_ns_context
0000000000000000 l    df *ABS*	0000000000000000 psci_suspend.c
0000000000000000 l    df *ABS*	0000000000000000 psci_system_off.c
0000000000000000 l    df *ABS*	0000000000000000 plat_gicv3.c
0000000000056929 l     O .ro	0000000000000004 CSWTCH.13
0000000000000000 l    df *ABS*	0000000000000000 platform_common.c
0000000000000000 l    df *ABS*	0000000000000000 bl31_plat_setup.c
000000000005abd8 l     O .bss	0000000000000058 bl32_ep_info
000000000005ac30 l     O .bss	0000000000000058 bl33_ep_info
000000000005ac88 l     O .bss	0000000000000030 console.0
0000000000000000 l    df *ABS*	0000000000000000 params_setup.c
0000000000053860 l     F .ro	00000000000000d8 rk_aux_param_handler
000000000005acb8 l     O .bss	0000000000020000 fdt_buffer
000000000007b299 l     O .bss	0000000000000001 suspend_apio
000000000007b1b8 l     O .bss	0000000000000050 suspend_gpio
00000000000580bc l     O .data	0000000000000008 poweroff_gpio
00000000000580c4 l     O .data	0000000000000004 rk_uart_base
00000000000580c8 l     O .data	0000000000000004 rk_uart_baudrate
00000000000580cc l     O .data	0000000000000008 rst_gpio
000000000005677c l     O .ro	000000000000000c CSWTCH.7
0000000000000000 l    df *ABS*	0000000000000000 plat_pm.c
0000000000053cf8 l     F .ro	000000000000000c rockchip_system_reset
0000000000053d08 l     F .ro	000000000000000c rockchip_system_poweroff
0000000000053d2c l     F .ro	000000000000001c rockchip_pd_pwr_down_wfi
000000000007acb8 l     O .bss	0000000000000008 rockchip_sec_entrypoint
0000000000000000 l    df *ABS*	0000000000000000 plat_topology.c
0000000000000000 l    df *ABS*	0000000000000000 rockchip_gicv3.c
0000000000053d84 l     F .ro	0000000000000004 plat_rockchip_mpidr_to_core_pos
0000000000056788 l     O .ro	0000000000000008 g01s_interrupt_props
0000000000000000 l    df *ABS*	0000000000000000 rockchip_sip_svc.c
00000000000569a2 l     O .ro	000000000000001a __func__.0
0000000000056b50 l     O .ro	0000000000000020 __svc_desc_rockchip_sip_svc
0000000000000000 l    df *ABS*	0000000000000000 pmu.c
0000000000053eb8 l     F .ro	0000000000000020 cpus_pd_req_enter_wfi
0000000000053ec8 l       .ro	0000000000000000 wfi_loop
000000000007b20c l     O .bss	0000000000000004 grf_ddr_con3
0000000000000000 l    df *ABS*	0000000000000000 soc.c
0000000000000000 l    df *ABS*	0000000000000000 arm_arch_svc_setup.c
00000000000545a0 l     F .ro	000000000000013c arm_arch_svc_smc_handler
0000000000056b70 l     O .ro	0000000000000020 __svc_desc_arm_arch_svc
0000000000000000 l    df *ABS*	0000000000000000 std_svc_setup.c
00000000000546dc l     F .ro	00000000000000b4 std_svc_smc_handler
0000000000054790 l     F .ro	0000000000000024 std_svc_setup
0000000000056b90 l     O .ro	0000000000000020 __svc_desc_std_svc
0000000000000000 l    df *ABS*	0000000000000000 bl_common.c
0000000000000000 l    df *ABS*	0000000000000000 tf_log.c
00000000000580d4 l     O .data	0000000000000004 max_log_level
0000000000000000 l    df *ABS*	0000000000000000 multi_console.c
00000000000580dc l     O .data	0000000000000001 console_state
0000000000000000 l    df *ABS*	0000000000000000 pmuv3.c
0000000000000000 l    df *ABS*	0000000000000000 plat_bl_common.c
0000000000000000 l    df *ABS*	0000000000000000 plat_log_common.c
0000000000056718 l     O .ro	0000000000000028 plat_prefix_str
0000000000000000 l    df *ABS*	0000000000000000 plat_common.c
0000000000000000 l    df *ABS*	0000000000000000 xlat_tables_arch.c
0000000000000000 l    df *ABS*	0000000000000000 xlat_tables_context.c
000000000007b2c0 l     O .bss	0000000000000020 tf_base_xlat_table
000000000007ad00 l     O .bss	0000000000000460 tf_mmap
0000000000058000 l     O .data	0000000000000060 tf_xlat_ctx
000000000007c000 l     O .xlat_table	0000000000012000 tf_xlat_tables
0000000000000000 l    df *ABS*	0000000000000000 xlat_tables_core.c
0000000000054df0 l     F .ro	00000000000001e4 xlat_tables_map_region
0000000000000000 l    df *ABS*	0000000000000000 xlat_tables_utils.c
0000000000000000 l    df *ABS*	0000000000000000 desc_image_load.c
0000000000000000 l    df *ABS*	0000000000000000 bl_aux_params.c
0000000000000000 l    df *ABS*	0000000000000000 plat_psci_common.c
0000000000000000 l    df *ABS*	0000000000000000 crash_reporting.o
0000000000000000 l    df *ABS*	0000000000000000 ea_delegate.o
00000000000554f0 l     F .ro	0000000000000068 ea_proceed
00000000000554e8 l     F .ro	0000000000000004 delegate_sync_ea
00000000000554ec l     F .ro	0000000000000004 delegate_async_ea
0000000000000000 l    df *ABS*	0000000000000000 runtime_exceptions.o
0000000000055558 l       .ro	0000000000000000 smc_handler32
000000000005555c l       .ro	0000000000000000 sync_handler64
00000000000574ec l       .ro	0000000000000000 interrupt_exit_irq_aarch64
000000000005756c l       .ro	0000000000000000 interrupt_exit_fiq_aarch64
00000000000576ec l       .ro	0000000000000000 interrupt_exit_irq_aarch32
000000000005776c l       .ro	0000000000000000 interrupt_exit_fiq_aarch32
0000000000055558 l     F .ro	00000000000000e0 sync_exception_handler
0000000000055620 l       .ro	0000000000000000 smc_prohibited
00000000000555e4 l       .ro	0000000000000000 sysreg_handler64
0000000000055614 l       .ro	0000000000000000 smc_unknown
0000000000000000 l    df *ABS*	0000000000000000 16550_console.o
00000000000556a0 l       .ro	0000000000000000 init_fail
00000000000556fc l       .ro	0000000000000000 register_fail
00000000000556c4 l       .ro	0000000000000000 register_16550
0000000000055750 l       .ro	0000000000000000 no_char
0000000000000000 l    df *ABS*	0000000000000000 cortex_a55.o
0000000000056b39 l       .ro	0000000000000000 cortex_a55_errata_list_start
0000000000056b39 l       .ro	0000000000000000 cortex_a55_errata_list_end
0000000000000000 l    df *ABS*	0000000000000000 cpu_helpers.o
0000000000055850 l       .ro	0000000000000000 search_def_ptr
0000000000000000 l    df *ABS*	0000000000000000 context.o
0000000000055a2c l       .ro	0000000000000000 sve_not_enabled
0000000000000000 l    df *ABS*	0000000000000000 cpu_data.o
0000000000000000 l    df *ABS*	0000000000000000 spinlock.o
0000000000055a90 l       .ro	0000000000000000 l1
0000000000055a94 l       .ro	0000000000000000 l2
0000000000000000 l    df *ABS*	0000000000000000 psci_helpers.o
0000000000000000 l    df *ABS*	0000000000000000 platform_mp_stack.o
0000000000058100 l       .stacks	0000000000000000 platform_normal_stacks
0000000000000006 l       *ABS*	0000000000000000 TZ_COUNT
0000000000000000 l    df *ABS*	0000000000000000 debug.o
0000000000056b39 l       .ro	0000000000000000 panic_msg
0000000000055b80 l       .ro	0000000000000000 panic_common
0000000000055ba8 l       .ro	0000000000000000 _panic_handler
0000000000000000 l    df *ABS*	0000000000000000 cache_helpers.o
0000000000055be4 l       .ro	0000000000000000 exit_loop_civac
0000000000055bd0 l       .ro	0000000000000000 loop_civac
0000000000055c1c l       .ro	0000000000000000 exit_loop_cvac
0000000000055c08 l       .ro	0000000000000000 loop_cvac
0000000000055c54 l       .ro	0000000000000000 exit_loop_ivac
0000000000055c40 l       .ro	0000000000000000 loop_ivac
0000000000000000 l    df *ABS*	0000000000000000 misc_helpers.o
0000000000055c60 l     F .ro	00000000000000e8 zeromem_dczva
0000000000000000 l    df *ABS*	0000000000000000 platform_helpers.o
0000000000000000 l    df *ABS*	0000000000000000 enable_mmu.o
0000000000000000 l    df *ABS*	0000000000000000 crash_console_helpers.o
00000000000580d8 l       .data	0000000000000000 crash_console_spinlock
00000000000580dd l       .data	0000000000000000 crash_console_triggered
0000000000058090 l       .data	0000000000000000 crash_console_reg_stash
0000000000055dcc l       .ro	0000000000000000 skip_spinlock
0000000000055de8 l       .ro	0000000000000000 init_error
0000000000055e14 l       .ro	0000000000000000 putc_loop
0000000000055e60 l       .ro	0000000000000000 putc_done
0000000000055e58 l       .ro	0000000000000000 putc_continue
0000000000055e4c l       .ro	0000000000000000 putc
0000000000055e90 l       .ro	0000000000000000 flush_loop
0000000000055eb8 l       .ro	0000000000000000 flush_done
0000000000055eb0 l       .ro	0000000000000000 flush_continue
0000000000000000 l    df *ABS*	0000000000000000 memchr.c
0000000000000000 l    df *ABS*	0000000000000000 memcmp.c
0000000000000000 l    df *ABS*	0000000000000000 memcpy.c
0000000000000000 l    df *ABS*	0000000000000000 memmove.c
0000000000000000 l    df *ABS*	0000000000000000 memset.c
0000000000000000 l    df *ABS*	0000000000000000 printf.c
0000000000055ff8 l     F .ro	00000000000000d0 unsigned_num_print.part.0
0000000000000000 l    df *ABS*	0000000000000000 strchr.c
0000000000000000 l    df *ABS*	0000000000000000 strlen.c
0000000000000000 l    df *ABS*	0000000000000000 strncmp.c
0000000000000000 l    df *ABS*	0000000000000000 strrchr.c
0000000000000000 l    df *ABS*	0000000000000000 
0000000000000000 l    df *ABS*	0000000000000000 cpu_data_array.c
0000000000054974 g     F .ro	0000000000000028 putchar
00000000000506f0 g     F .ro	000000000000001c gicv3_get_spi_limit
0000000000050f58 g     F .ro	00000000000000e4 cm_prepare_el3_exit
00000000000509d0 g     F .ro	0000000000000018 gicv3_get_component_prodid_rev
0000000000054a6c  w    F .ro	0000000000000008 plat_is_smccc_feature_available
00000000000511a4 g     F .ro	0000000000000088 fdt_offset_ptr
000000000007b2c0 g       .bss	0000000000000000 __PMF_TIMESTAMP_START__
00000000000536c0  w    F .ro	0000000000000034 plat_ic_get_pending_interrupt_type
0000000000050ebc g     F .ro	000000000000007c cm_el1_sysregs_context_restore
000000000005395c g     F .ro	0000000000000114 params_early_setup
0000000000052a28 g     F .ro	0000000000000028 psci_migrate_info_up_cpu
000000000008e000 g       .xlat_table	0000000000000000 __BL31_END__
0000000000054898 g     F .ro	0000000000000034 console_register
00000000000527d0 g     F .ro	00000000000000f0 psci_cpu_suspend
0000000000053944 g     F .ro	000000000000000c rockchip_get_uart_baudrate
00000000000557b0 g     F .ro	0000000000000020 reset_handler
0000000000055774 g     F .ro	0000000000000008 console_16550_flush
0000000000057600 g     F .ro	0000000000000000 sync_exception_aarch32
0000000000055c58 g     F .ro	0000000000000008 zeromem
00000000000567de g     O .ro	0000000000000029 version_string
0000000000055b74 g     F .ro	0000000000000008 asm_print_newline
0000000000056c00 g       .ro	0000000000000000 __pubsub_psci_suspend_pwrdown_finish_end
000000000005258c g     F .ro	00000000000000f4 psci_validate_entry_point
0000000000055204 g     F .ro	000000000000003c mmap_add_ctx
00000000000547b4 g     F .ro	0000000000000004 print_entry_point_info
0000000000050048 g     F .ro	0000000000000014 cm_get_context
0000000000050000 g     F .ro	0000000000000048 platform_cpu_warmboot
000000000007ace8 g     O .bss	0000000000000018 mmu_cfg_params
0000000000055328 g     F .ro	0000000000000004 xlat_tables_print
0000000000052514 g     F .ro	0000000000000058 psci_release_pwr_domain_locks
0000000000053d70 g     F .ro	0000000000000014 plat_core_pos_by_mpidr
0000000000052050 g     F .ro	0000000000000028 psci_validate_power_state
0000000000058000 g       .ro	0000000000000000 __RW_START__
0000000000055700 g     F .ro	0000000000000038 console_16550_core_putc
0000000000053764 g     F .ro	0000000000000004 plat_cci_disable
0000000000053b18 g     F .ro	000000000000000c rockchip_pwr_domain_on
0000000000053c18  w    F .ro	0000000000000008 rockchip_soc_hlvl_pwr_dm_on_finish
0000000000053510 g     F .ro	000000000000009c psci_cpu_suspend_finish
0000000000054aac g     F .ro	0000000000000034 get_el_str
000000000007c000 g       .xlat_table	0000000000000000 __XLAT_TABLE_START__
0000000000051a88 g     F .ro	000000000000006c fdt_getprop_namelen
0000000000051940 g     F .ro	0000000000000038 fdt_first_property_offset
0000000000055738 g     F .ro	0000000000000008 console_16550_putc
0000000000053768 g     F .ro	0000000000000028 bl31_plat_get_next_image_ep_info
0000000000053ed8 g     F .ro	0000000000000004 rockchip_plat_mmu_el3
00000000000503f4 g     F .ro	0000000000000054 gicv3_check_erratas_applies
0000000000055f4c g     F .ro	0000000000000034 memmove
000000000007b210 g     O .bss	0000000000000080 rt_svc_descs_indices
0000000000053d48 g     F .ro	000000000000001c plat_setup_psci_ops
0000000000057200 g     F .ro	0000000000000000 sync_exception_sp_elx
0000000000054bc8 g     F .ro	000000000000007c setup_mmu_cfg
000000000005103c g     F .ro	0000000000000008 cm_prepare_el3_exit_ns
0000000000057000 g     F .ro	0000000000000000 sync_exception_sp_el0
0000000000055ab0 g     F .ro	000000000000000c psci_power_down_wfi
000000000005375c g     F .ro	0000000000000004 plat_cci_init
0000000000050be4 g     F .ro	0000000000000060 gicv3_cpuif_disable
000000000005293c g     F .ro	0000000000000058 psci_affinity_info
0000000000051ca4 g     F .ro	0000000000000034 fdt_path_offset
0000000000054a74  w    F .ro	0000000000000030 plat_log_get_prefix
0000000000052994 g     F .ro	000000000000007c psci_migrate
0000000000050684 g     F .ro	000000000000006c gicv3_rdistif_base_addrs_probe
00000000000565c0 g     O .ro	00000000000000b0 plat_rockchip_psci_pm_ops
00000000000567c0 g     O .ro	000000000000001e build_message
000000000007b208 g     O .bss	0000000000000004 suspend_gpio_cnt
0000000000055a08 g     F .ro	0000000000000054 el3_exit
0000000000053064 g     F .ro	0000000000000314 psci_setup
0000000000054c88 g     F .ro	000000000000003c init_xlat_tables
0000000000054aa4  w    F .ro	0000000000000008 bl31_plat_runtime_setup
0000000000058000 g       .data	0000000000000000 __DATA_START__
000000000007b160 g     O .bss	0000000000000010 psci_locks
0000000000051654 g     F .ro	0000000000000114 fdt_get_string
0000000000053d88  w    F .ro	000000000000000c plat_rockchip_gic_driver_init
00000000000514a0 g     F .ro	000000000000005c fdt_move
0000000000052474 g     F .ro	0000000000000034 psci_find_target_suspend_lvl
0000000000054ba8 g     F .ro	0000000000000014 xlat_arch_regime_get_xn_desc
00000000000504e8 g     F .ro	000000000000001c gicd_set_isenabler
0000000000053044 g     F .ro	0000000000000020 psci_arch_setup
0000000000055864 g     F .ro	0000000000000020 check_wa_cve_2017_5715
00000000fdcd0048 g       .pmusram	0000000000000000 __bl31_pmusram_text_start
00000000000535e4 g     F .ro	0000000000000038 psci_system_reset
00000000000549f4 g     F .ro	000000000000003c pmuv3_disable_el3
0000000000050504 g     F .ro	0000000000000014 gicd_set_ipriorityr
0000000000055f2c g     F .ro	0000000000000020 memcpy
000000000005256c g     F .ro	0000000000000020 psci_validate_mpidr
00000000000528c0 g     F .ro	0000000000000074 psci_system_suspend
0000000000057380 g     F .ro	0000000000000000 serror_sp_elx
0000000000050e5c g     F .ro	0000000000000030 cm_init_context_by_index
0000000000050a40 g     F .ro	0000000000000084 gicv3_distif_init
0000000000053eec g     F .ro	00000000000002f8 rockchip_soc_sys_pwr_dm_suspend
0000000000057080 g     F .ro	0000000000000000 irq_sp_el0
0000000000055c60 g     F .ro	00000000000000e8 zero_normalmem
0000000000052258 g     F .ro	0000000000000048 psci_get_parent_pwr_domain_nodes
00000000000509f4 g     F .ro	000000000000004c gicv3_driver_init
0000000000053dc8  w    F .ro	0000000000000014 plat_rockchip_gic_cpuif_disable
0000000000056c00 g     O .ro	0000000000000008 __cb_func_spe_drain_buffers_hookcm_entering_secure_world
0000000000054ae0  w    F .ro	0000000000000068 plat_ea_handler
00000000000541e4 g     F .ro	0000000000000088 rockchip_soc_sys_pwr_dm_resume
0000000000053db4  w    F .ro	0000000000000014 plat_rockchip_gic_cpuif_enable
00000000000535ac g     F .ro	0000000000000038 psci_system_off
00000000fdcd0048 g       .pmusram	0000000000000000 __bl31_pmusram_text_end
0000000000056c08 g       .ro	0000000000000000 __pubsub_cm_exited_secure_world_end
0000000000054c78 g     F .ro	0000000000000010 mmap_add
00000000000400fc g     F .ro	0000000000000080 bl31_warm_entrypoint
0000000000053750 g     F .ro	000000000000000c plat_get_syscnt_freq2
0000000000055b20 g     F .ro	000000000000000c plat_panic_handler
0000000000056b50 g       .ro	0000000000000000 __RT_SVC_DESCS_START__
0000000000051858 g     F .ro	00000000000000e8 fdt_subnode_offset_namelen
000000000005a100 g       .stacks	0000000000000000 __STACKS_END__
0000000000050668 g     F .ro	000000000000001c gicv3_rdistif_mark_core_asleep
0000000000056c00 g       .ro	0000000000000000 __pubsub_psci_suspend_pwrdown_start_end
0000000000055884 g     F .ro	0000000000000020 check_smccc_arch_wa3_applies
000000000007b2c0 g       .bss	0000000000000000 __PERCPU_BAKERY_LOCK_END__
0000000000055be8 g     F .ro	0000000000000038 clean_dcache_range
0000000000053df0  w    F .ro	0000000000000040 rockchip_plat_sip_handler
00000000000557d0 g     F .ro	0000000000000024 prepare_cpu_pwr_dwn
0000000000053d20  w    F .ro	000000000000000c rockchip_soc_sys_pd_pwr_dn_wfi
0000000000051768 g     F .ro	0000000000000044 fdt_num_mem_rsv
00000000000559b8 g     F .ro	0000000000000050 restore_gp_pmcr_pauth_regs
0000000000052680 g     F .ro	00000000000000c8 psci_warmboot_entrypoint
000000000005064c g     F .ro	000000000000001c gicv3_rdistif_mark_core_awake
0000000000056c08 g       .ro	0000000000000000 __pubsub_cm_exited_normal_world_start
0000000000055ad8  w    F .ro	0000000000000010 plat_set_my_stack
0000000000050088 g     F .ro	0000000000000030 cm_set_context_by_index
0000000000056bb0 g       .ro	0000000000000000 __RT_SVC_DESCS_END__
000000000005426c g     F .ro	00000000000000a4 rockchip_soc_cores_pwr_dm_on
0000000000051370 g     F .ro	0000000000000040 fdt_check_node_offset_
000000000005578c g     F .ro	0000000000000014 cortex_a55_core_pwr_dwn
0000000000055b44 g     F .ro	0000000000000030 asm_print_hex
0000000000053824 g     F .ro	000000000000003c bl31_plat_arch_setup
000000000005014c g     F .ro	0000000000000068 bl31_main
0000000000053a70 g     F .ro	0000000000000074 rockchip_validate_power_state
0000000000058080 g       .data	0000000000000000 cpuson_flags
000000000005ab88 g     O .bss	0000000000000040 psci_cpu_pd_nodes
0000000000052770 g     F .ro	0000000000000004 psci_pwrdown_cpu
0000000000055b2c g     F .ro	0000000000000018 asm_print_str
0000000000055d48  w    F .ro	0000000000000004 bl31_plat_enable_mmu
0000000000055760 g     F .ro	0000000000000014 console_16550_core_flush
0000000000050cd0 g     F .ro	0000000000000004 cm_init
0000000000055e78 g     F .ro	0000000000000054 plat_crash_console_flush
0000000000057000 g       .ro	0000000000000000 runtime_exceptions
000000000007acc0 g     O .bss	0000000000000020 rdistif_base_addrs
0000000000050550 g     F .ro	0000000000000014 gicr_write_ipriorityr
0000000000056c08 g       .ro	0000000000000000 __pubsub_cm_exited_secure_world_start
0000000000053c20 g     F .ro	0000000000000054 rockchip_pwr_domain_on_finish
0000000000052748 g     F .ro	0000000000000024 psci_spd_migrate_info
0000000000051af4 g     F .ro	000000000000004c fdt_getprop
0000000000055a70 g     F .ro	0000000000000018 _cpu_data_by_index
000000000005276c g     F .ro	0000000000000004 psci_print_power_domain_map
0000000000057800 g       .ro	0000000000000000 __RO_END_UNALIGNED__
0000000000040000 g       .pmusram	0000000000000000 RAM_REGION_START
0000000000055438 g     F .ro	0000000000000028 plat_get_target_pwr_state
00000000000548d8 g     F .ro	000000000000009c console_putc
0000000000050614 g     F .ro	0000000000000038 gicr_set_icfgr
0000000000050518 g     F .ro	0000000000000014 gicd_write_icfgr
0000000000055d50  w    F .ro	0000000000000004 plat_handle_el3_ea
0000000000056584 g     F .ro	0000000000000028 strrchr
000000000005208c g     F .ro	0000000000000070 psci_is_last_on_cpu
0000000000053b90 g     F .ro	0000000000000088 rockchip_pwr_domain_suspend
0000000000055dac g     F .ro	0000000000000048 plat_crash_console_init
0000000000057680 g     F .ro	0000000000000000 irq_aarch32
0000000000055bb0 g     F .ro	0000000000000038 flush_dcache_range
0000000000050c50 g     F .ro	000000000000000c timer_init
0000000000053790 g     F .ro	0000000000000074 bl31_early_platform_setup2
00000000fdcd0000 g     F .pmusram	0000000000000038 pmu_cpuson_entrypoint
0000000000055740 g     F .ro	0000000000000018 console_16550_core_getc
0000000000056bb0 g       .ro	0000000000000000 __PMF_SVC_DESCS_END__
00000000000580e0 g       .data	0000000000000000 __RELA_END__
00000000000580e0 g       .data	0000000000000000 __RELA_START__
000000000008e000 g       .xlat_table	0000000000000000 RAM_REGION_END
0000000000057180 g     F .ro	0000000000000000 serror_sp_el0
000000000005577c g     F .ro	0000000000000010 cortex_a55_reset_func
00000000000560c8 g     F .ro	0000000000000444 vprintf
0000000000054398 g     F .ro	0000000000000110 plat_rockchip_pmu_init
0000000000054310 g     F .ro	000000000000004c rockchip_soc_cores_pwr_dm_off
0000000000055460 g     F .ro	0000000000000004 report_unhandled_exception
0000000000052f74 g     F .ro	00000000000000d0 psci_cpu_on_finish
0000000000052934 g     F .ro	0000000000000008 psci_cpu_off
0000000000056670 g     O .ro	0000000000000030 rockchip_gic_data
0000000000055ae8 g     F .ro	0000000000000024 plat_reset_handler
0000000000055d54 g     F .ro	0000000000000058 enable_mmu_direct_el3
0000000000050ac4 g     F .ro	0000000000000090 gicv3_rdistif_init
0000000000053ee4 g     F .ro	0000000000000008 rockchip_soc_cores_pwr_dm_resume
0000000000056c08 g       .ro	0000000000000000 __pubsub_cm_entering_normal_world_end
0000000000055814 g     F .ro	0000000000000040 get_cpu_ops_ptr
00000000000503d0 g     F .ro	0000000000000024 gicv3_apply_errata_wa_2384374
0000000000040000 g     F .ro	00000000000000fc bl31_entrypoint
000000000005005c g     F .ro	000000000000002c cm_get_context_by_index
0000000000050564 g     F .ro	0000000000000018 gicr_set_ipriorityr
0000000000050e8c g     F .ro	0000000000000030 cm_init_my_context
0000000000057580 g     F .ro	0000000000000000 serror_aarch64
0000000000055ecc g     F .ro	000000000000002c memchr
000000000005057c g     F .ro	0000000000000028 gicr_clr_igroupr
0000000000055a5c g     F .ro	0000000000000014 init_cpu_data_ptr
0000000000053c7c g     F .ro	000000000000007c rockchip_pwr_domain_suspend_finish
0000000000054bbc g     F .ro	000000000000000c xlat_arch_current_el
00000000000507a4 g     F .ro	00000000000000f0 gicv3_secure_spis_config_props
0000000000053ae4 g     F .ro	0000000000000014 rockchip_get_sys_suspend_power_state
0000000000000000 g       *ABS*	0000000000000000 __PERCPU_BAKERY_LOCK_SIZE__
0000000000054508 g     F .ro	0000000000000098 plat_rockchip_soc_init
0000000000054b48 g     F .ro	0000000000000014 xlat_arch_get_pas
0000000000052d00 g     F .ro	0000000000000114 psci_do_cpu_off
000000000007b1b4 g     O .bss	0000000000000004 psci_caps
00000000000501b4 g     F .ro	0000000000000008 handle_sysreg_trap
0000000000050cd4 g     F .ro	0000000000000184 cm_setup_context
0000000000040000 g       .ro	0000000000000000 __BL31_START__
0000000000057280 g     F .ro	0000000000000000 irq_sp_elx
000000000007b2c0 g       .bss	0000000000000000 __PMF_PERCPU_TIMESTAMP_END__
0000000000057100 g     F .ro	0000000000000000 fiq_sp_el0
000000000005654c g     F .ro	0000000000000038 strncmp
00000000000580de g       .data	0000000000000000 __DATA_END__
0000000000055b48 g       .ro	0000000000000000 asm_print_hex_bits
000000000007b2c0 g       .bss	0000000000000000 __BASE_XLAT_TABLE_START__
00000000000504a0 g     F .ro	0000000000000024 gicd_set_igrpmodr
0000000000056bb0 g       .ro	0000000000000000 __CPU_OPS_START__
00000000fdcd0070 g       .pmusram	0000000000000000 __bl31_pmusram_data_end
00000000000513b0 g     F .ro	0000000000000040 fdt_check_prop_offset_
0000000000054b5c g     F .ro	000000000000004c tcr_physical_addr_size_bits
0000000000050894 g     F .ro	0000000000000070 gicv3_ppi_sgi_config_defaults
0000000000055c20 g     F .ro	0000000000000038 inv_dcache_range
0000000000053b24  w    F .ro	0000000000000008 rockchip_soc_hlvl_pwr_dm_off
00000000fdcd0048 g       .pmusram	0000000000000000 __bl31_pmusram_data_start
00000000000553d8 g     F .ro	0000000000000060 bl_aux_params_parse
0000000000055464 g     F .ro	000000000000006c handle_lower_el_sync_ea
0000000000052b10 g     F .ro	000000000000014c psci_smc_handler
0000000000053ddc  w    F .ro	0000000000000014 plat_rockchip_gic_pcpu_init
0000000000050c88 g     F .ro	0000000000000044 generic_delay_timer_init
0000000000053378 g     F .ro	0000000000000198 psci_cpu_suspend_start
00000000000520fc g     F .ro	0000000000000058 psci_init_req_local_pwr_states
0000000000056c08 g       .ro	0000000000000000 __pubsub_cm_entering_secure_world_end
0000000000050c68 g     F .ro	0000000000000020 generic_delay_timer_init_args
000000000007b2c0 g       .bss	0000000000000000 __BAKERY_LOCK_END__
00000000000521e4 g     F .ro	0000000000000074 psci_set_target_local_pwr_states
0000000000055ef8 g     F .ro	0000000000000034 memcmp
0000000000055854 g     F .ro	0000000000000010 cpu_get_rev_var
0000000000052e14 g     F .ro	0000000000000160 psci_cpu_on_start
0000000000052438 g     F .ro	000000000000003c psci_find_max_off_lvl
0000000000054d0c g     F .ro	00000000000000e4 xlat_desc
0000000000051ba4 g     F .ro	0000000000000100 fdt_path_offset_namelen
0000000000051978 g     F .ro	0000000000000038 fdt_next_property_offset
0000000000050448 g     F .ro	0000000000000034 gicd_set_icfgr
00000000000544a8 g     F .ro	0000000000000060 rockchip_soc_soft_reset
000000000007b170 g     O .bss	0000000000000040 psci_non_cpu_pd_nodes
0000000000055b7c g     F .ro	0000000000000004 elx_panic
000000000007b2e0 g       .bss	0000000000000000 __BSS_END__
0000000000056c00 g       .ro	0000000000000000 __CPU_OPS_END__
0000000000053b88  w    F .ro	0000000000000008 rockchip_soc_hlvl_pwr_dm_suspend
0000000000053e30 g     F .ro	0000000000000088 sip_smc_handler
0000000000050f38 g     F .ro	0000000000000020 cm_set_next_eret_context
0000000000056c00 g       .ro	0000000000000000 __pubsub_cm_entering_secure_world_start
0000000000052774 g     F .ro	000000000000005c psci_cpu_on
00000000000500d8 g     F .ro	0000000000000074 bl31_prepare_next_image_entry
0000000000053d94  w    F .ro	0000000000000020 plat_rockchip_gic_init
000000000007b1b0 g     O .bss	0000000000000004 psci_plat_core_count
0000000000052aa8 g     F .ro	0000000000000068 psci_features
0000000000056c00 g       .ro	0000000000000000 __GOT_END__
0000000000055f80 g     F .ro	0000000000000078 memset
00000000000556a8 g     F .ro	0000000000000058 console_16550_register
0000000000056bb0 g       .ro	0000000000000000 __PARSER_LIB_DESCS_END__
000000000007b2c0 g       .bss	0000000000000000 __BAKERY_LOCK_START__
0000000000052154 g     F .ro	0000000000000090 psci_get_target_local_pwr_states
0000000000053c74  w    F .ro	0000000000000008 rockchip_soc_hlvl_pwr_dm_resume
0000000000056c08 g       .ro	0000000000000000 __pubsub_cm_exited_normal_world_end
0000000000054a30 g     F .ro	000000000000002c pmuv3_init_el2_unused
000000000005abc8 g     O .bss	0000000000000008 psci_plat_pm_ops
0000000000054a64  w    F .ro	0000000000000008 plat_get_soc_revision
00000000000500c4 g     F .ro	0000000000000014 bl31_setup
0000000000056c00 g       .ro	0000000000000000 __pubsub_psci_suspend_pwrdown_start_start
00000000000566a0 g     O .ro	0000000000000078 plat_rk_mmap
0000000000056c00 g       .ro	0000000000000000 __GOT_START__
000000000005484c g     F .ro	0000000000000020 tf_log_newline
00000000000554d0 g     F .ro	0000000000000018 handle_lower_el_async_ea
00000000000505cc g     F .ro	0000000000000028 gicr_clr_igrpmodr
00000000000500b8 g     F .ro	000000000000000c get_arm_std_svc_args
0000000000056c08 g       .ro	0000000000000000 __pubsub_cm_entering_normal_world_start
0000000000000000 g       *ABS*	0000000000000000 __PERCPU_TIMESTAMP_SIZE__
0000000000054ae0 g     F .ro	0000000000000068 plat_default_ea_handler
0000000000052c5c g     F .ro	000000000000005c psci_mem_protect
0000000000051e5c g     F .ro	00000000000001c0 fdt_open_into
0000000000056bb0 g       .ro	0000000000000000 __FCONF_POPULATOR_END__
00000000000501ec g     F .ro	0000000000000024 get_interrupt_type_handler
00000000000536f4 g     F .ro	000000000000005c plat_configure_mmu_el3
0000000000053d64 g     F .ro	000000000000000c plat_get_power_domain_tree_desc
0000000000050540 g     F .ro	0000000000000010 gicd_write_ipriorityr
0000000000053d14  w    F .ro	000000000000000c rockchip_soc_cores_pd_pwr_dn_wfi
0000000000050e58 g     F .ro	0000000000000004 cm_manage_extensions_el3
0000000000052a50 g     F .ro	0000000000000058 psci_node_hw_state
000000000007b2e0 g       .bss	0000000000000000 __BASE_XLAT_TABLE_END__
00000000000557f4 g     F .ro	0000000000000020 init_cpu_ops
000000000005499c g     F .ro	0000000000000054 console_flush
0000000000057300 g     F .ro	0000000000000000 fiq_sp_elx
0000000000058000 g       .ro	0000000000000000 __RO_END__
00000000000517ac g     F .ro	00000000000000ac fdt_get_name
0000000000057400 g     F .ro	0000000000000000 sync_exception_aarch64
0000000000057500 g     F .ro	0000000000000000 fiq_aarch64
00000000000548cc g     F .ro	000000000000000c console_switch_state
0000000000053950 g     F .ro	000000000000000c rockchip_get_uart_clock
0000000000050ccc g     F .ro	0000000000000004 print_errata_status
0000000000055aa8 g     F .ro	0000000000000008 spin_unlock
0000000000055950 g     F .ro	0000000000000068 prepare_el3_entry
000000000005a100 g       .bss	0000000000000000 __BSS_START__
0000000000040000 g       .ro	0000000000000000 __RO_START__
0000000000054fd4 g     F .ro	0000000000000230 mmap_add_region_ctx
00000000000569e5 g     O .ro	0000000000000003 rockchip_power_domain_tree_desc
0000000000051068 g     F .ro	0000000000000034 spe_enable
0000000000056bb0 g       .ro	0000000000000000 __PMF_SVC_DESCS_START__
0000000000055df4 g     F .ro	0000000000000084 plat_crash_console_putc
000000000005a100 g     O .bss	0000000000000100 percpu_data
00000000000513f0 g     F .ro	00000000000000b0 fdt_next_node
000000000005038c g     F .ro	0000000000000044 gicv3_rdistif_on
0000000000055a88 g     F .ro	0000000000000020 spin_lock
000000000005486c g     F .ro	000000000000002c console_is_registered
0000000000050c44 g     F .ro	000000000000000c gicv3_get_pending_interrupt_type
00000000000505f4 g     F .ro	0000000000000020 gicr_set_isenabler
0000000000052078 g     F .ro	0000000000000014 psci_query_sys_suspend_pwrstate
00000000000547b8 g     F .ro	0000000000000094 tf_log
00000000000505a4 g     F .ro	0000000000000028 gicr_set_igrpmodr
0000000000056c00 g       .ro	0000000000000000 __pubsub_psci_cpu_on_finish_start
0000000000056bb0 g       .ro	0000000000000000 __FCONF_POPULATOR_START__
00000000000c0000 g       *ABS*	0000000000000000 RAM_REGION_LENGTH
00000000000501bc g     F .ro	0000000000000030 get_scr_el3_from_routing_model
000000000008e000 g       .xlat_table	0000000000000000 __RW_END__
0000000000053804 g     F .ro	0000000000000020 bl31_platform_setup
0000000000055758 g     F .ro	0000000000000008 console_16550_getc
0000000000058100 g       .stacks	0000000000000000 __STACKS_START__
0000000000052320 g     F .ro	0000000000000118 psci_do_state_coordination
000000000005361c g     F .ro	00000000000000a4 psci_system_reset2
0000000000054cc4 g     F .ro	0000000000000048 enable_mmu_el3
0000000000057780 g     F .ro	0000000000000000 serror_aarch32
000000000005122c g     F .ro	0000000000000144 fdt_next_tag
0000000000055d4c  w    F .ro	0000000000000004 plat_handle_double_fault
00000000000549f0 g     F .ro	0000000000000004 pmuv3_enable
000000000007b2c0 g       .bss	0000000000000000 __PMF_TIMESTAMP_END__
000000000005109c g     F .ro	0000000000000020 sve_enable
0000000000055240 g     F .ro	00000000000000e4 init_xlat_tables_ctx
0000000000056c00 g       .ro	0000000000000000 __pubsub_psci_suspend_pwrdown_finish_start
000000000005070c g     F .ro	0000000000000098 gicv3_spis_config_defaults
00000000000504c4 g     F .ro	0000000000000024 gicd_clr_igrpmodr
000000000008e000 g       .xlat_table	0000000000000000 __XLAT_TABLE_END__
0000000000055b0c g     F .ro	0000000000000014 plat_my_core_pos
0000000000051b40 g     F .ro	0000000000000064 fdt_get_alias_namelen
0000000000050904 g     F .ro	00000000000000cc gicv3_secure_ppi_sgi_config_props
0000000000053b2c g     F .ro	000000000000005c rockchip_pwr_domain_off
0000000000050210 g     F .ro	0000000000000130 runtime_svc_init
0000000000058060 g       .data	0000000000000000 cpuson_entry_point
0000000000056530 g     F .ro	000000000000001c strlen
0000000000057480 g     F .ro	0000000000000000 irq_aarch64
0000000000053938 g     F .ro	000000000000000c rockchip_get_uart_base
0000000000052a10 g     F .ro	0000000000000018 psci_migrate_info_type
0000000000054a5c  w    F .ro	0000000000000008 plat_get_soc_version
0000000000052cb8 g     F .ro	0000000000000048 psci_mem_chk_range
0000000000055b80 g     F .ro	0000000000000030 el3_panic
000000000005047c g     F .ro	0000000000000024 gicd_clr_igroupr
000000000005650c g     F .ro	0000000000000024 strchr
00000000000557a0 g     F .ro	0000000000000010 cortex_a55_dsu_pwr_dwn
000000000005ab68 g     O .bss	0000000000000008 gicv3_driver_data
00000000fdcd0048 g       .pmusram	0000000000000000 sys_sleep_flag_sram
0000000000055324 g     F .ro	0000000000000004 xlat_mmap_print
0000000000055638 g     F .ro	0000000000000070 console_16550_core_init
000000000005435c g     F .ro	000000000000003c rockchip_soc_cores_pwr_dm_on_finish
0000000000053760 g     F .ro	0000000000000004 plat_cci_enable
00000000000510bc g     F .ro	0000000000000018 sve_disable
00000000000510f8 g     F .ro	00000000000000ac fdt_ro_probe_
00000000000524a8 g     F .ro	000000000000006c psci_acquire_pwr_domain_locks
0000000000056c00 g       .ro	0000000000000000 __pubsub_psci_cpu_on_finish_end
00000000000558a4 g     F .ro	00000000000000ac el1_sysregs_context_restore
000000000005532c g     F .ro	00000000000000ac bl31_params_parse_helper
000000000007ace0 g     O .bss	0000000000000008 console_list
00000000000522a0 g     F .ro	0000000000000080 psci_set_pwr_domains_to_run
0000000000050b54 g     F .ro	0000000000000090 gicv3_cpuif_enable
0000000000053d04  w    F .ro	0000000000000004 rockchip_soc_system_off
000000000005052c g     F .ro	0000000000000014 gicd_write_igroupr
0000000000055460 g       .ro	0000000000000000 report_unhandled_interrupt
0000000000057700 g     F .ro	0000000000000000 fiq_aarch32
0000000000053edc g     F .ro	0000000000000008 rockchip_soc_cores_pwr_dm_suspend
000000000007b2c0 g       .bss	0000000000000000 __PERCPU_BAKERY_LOCK_START__
0000000000055abc  w    F .ro	000000000000001c plat_get_my_stack
0000000000054c44 g     F .ro	0000000000000034 mmap_add_region
0000000000056bb0 g       .ro	0000000000000000 __PARSER_LIB_DESCS_START__
000000000005abd0 g     O .bss	0000000000000008 psci_spd_pm
0000000000053af8 g     F .ro	0000000000000020 rockchip_cpu_standby



Disassembly of section .pmusram:

00000000fdcd0000 <pmu_cpuson_entrypoint>:
    fdcd0000:	10000245 	adr	x5, fdcd0048 <__bl31_pmusram_data_start>
    fdcd0004:	b94020a2 	ldr	w2, [x5, #32]
    fdcd0008:	36000062 	tbz	w2, #0, fdcd0014 <sys_resume_sp>
    fdcd000c:	58000161 	ldr	x1, fdcd0038 <sys_resume+0x8>
    fdcd0010:	d61f0020 	br	x1

00000000fdcd0014 <sys_resume_sp>:
    fdcd0014:	100001a5 	adr	x5, fdcd0048 <__bl31_pmusram_data_start>
    fdcd0018:	f94000a1 	ldr	x1, [x5]
    fdcd001c:	9100003f 	mov	sp, x1

00000000fdcd0020 <ddr_resume>:
    fdcd0020:	f94004a1 	ldr	x1, [x5, #8]
    fdcd0024:	f100003f 	cmp	x1, #0x0
    fdcd0028:	54000040 	b.eq	fdcd0030 <sys_resume>  // b.none
    fdcd002c:	d63f0020 	blr	x1

00000000fdcd0030 <sys_resume>:
    fdcd0030:	58000081 	ldr	x1, fdcd0040 <sys_resume+0x10>
    fdcd0034:	d61f0020 	br	x1
    fdcd0038:	00050000 	.word	0x00050000
    fdcd003c:	00000000 	.word	0x00000000
    fdcd0040:	000400fc 	.word	0x000400fc
    fdcd0044:	00000000 	.word	0x00000000

00000000fdcd0048 <__bl31_pmusram_data_start>:
	...

Disassembly of section .ro:

0000000000040000 <bl31_entrypoint>:
   40000:	aa0003f4 	mov	x20, x0
   40004:	aa0103f5 	mov	x21, x1
   40008:	aa0203f6 	mov	x22, x2
   4000c:	aa0303f7 	mov	x23, x3
   40010:	100b7f80 	adr	x0, 57000 <sync_exception_sp_el0>
   40014:	d51ec000 	msr	vbar_el3, x0
   40018:	d5033fdf 	isb
   4001c:	940055e5 	bl	557b0 <reset_handler>
   40020:	d2820141 	mov	x1, #0x100a                	// #4106
   40024:	d53e1000 	mrs	x0, sctlr_el3
   40028:	aa010000 	orr	x0, x0, x1
   4002c:	d51e1000 	msr	sctlr_el3, x0
   40030:	d5033fdf 	isb
   40034:	9400568a 	bl	55a5c <init_cpu_data_ptr>
   40038:	d2804700 	mov	x0, #0x238                 	// #568
   4003c:	d51e1100 	msr	scr_el3, x0
   40040:	d2900000 	mov	x0, #0x8000                	// #32768
   40044:	f2a20020 	movk	x0, #0x1001, lsl #16
   40048:	d5380501 	mrs	x1, id_aa64dfr0_el1
   4004c:	d368ac21 	ubfx	x1, x1, #40, #4
   40050:	b4000041 	cbz	x1, 40058 <bl31_entrypoint+0x58>
   40054:	b26d0000 	orr	x0, x0, #0x80000
   40058:	d51e1320 	msr	mdcr_el3, x0
   4005c:	d50344ff 	msr	daifclr, #0x4
   40060:	d2a80000 	mov	x0, #0x40000000            	// #1073741824
   40064:	d5380501 	mrs	x1, id_aa64dfr0_el1
   40068:	d3441c21 	ubfx	x1, x1, #4, #4
   4006c:	b4000041 	cbz	x1, 40074 <bl31_entrypoint+0x74>
   40070:	b26c0000 	orr	x0, x0, #0x100000
   40074:	d51e1140 	msr	cptr_el3, x0
   40078:	900000c0 	adrp	x0, 58000 <__RO_END__>
   4007c:	91000000 	add	x0, x0, #0x0
   40080:	d0000261 	adrp	x1, 8e000 <RAM_REGION_END>
   40084:	91000021 	add	x1, x1, #0x0
   40088:	cb000021 	sub	x1, x1, x0
   4008c:	940056e5 	bl	55c20 <inv_dcache_range>
   40090:	d00000c0 	adrp	x0, 5a000 <__STACKS_START__+0x1f00>
   40094:	91040000 	add	x0, x0, #0x100
   40098:	f00001c1 	adrp	x1, 7b000 <tf_mmap+0x300>
   4009c:	910b8021 	add	x1, x1, #0x2e0
   400a0:	cb000021 	sub	x1, x1, x0
   400a4:	940056ed 	bl	55c58 <zeromem>
   400a8:	d50040bf 	msr	spsel, #0x0
   400ac:	9400568b 	bl	55ad8 <plat_set_my_stack>
   400b0:	aa1403e0 	mov	x0, x20
   400b4:	aa1503e1 	mov	x1, x21
   400b8:	aa1603e2 	mov	x2, x22
   400bc:	aa1703e3 	mov	x3, x23
   400c0:	94004001 	bl	500c4 <bl31_setup>
   400c4:	94004022 	bl	5014c <bl31_main>
   400c8:	900000c0 	adrp	x0, 58000 <__RO_END__>
   400cc:	91000000 	add	x0, x0, #0x0
   400d0:	900000c1 	adrp	x1, 58000 <__RO_END__>
   400d4:	91037821 	add	x1, x1, #0xde
   400d8:	cb000021 	sub	x1, x1, x0
   400dc:	940056c3 	bl	55be8 <clean_dcache_range>
   400e0:	d00000c0 	adrp	x0, 5a000 <__STACKS_START__+0x1f00>
   400e4:	91040000 	add	x0, x0, #0x100
   400e8:	f00001c1 	adrp	x1, 7b000 <tf_mmap+0x300>
   400ec:	910b8021 	add	x1, x1, #0x2e0
   400f0:	cb000021 	sub	x1, x1, x0
   400f4:	940056bd 	bl	55be8 <clean_dcache_range>
   400f8:	14005644 	b	55a08 <el3_exit>

00000000000400fc <bl31_warm_entrypoint>:
   400fc:	100b7820 	adr	x0, 57000 <sync_exception_sp_el0>
   40100:	d51ec000 	msr	vbar_el3, x0
   40104:	d5033fdf 	isb
   40108:	940055aa 	bl	557b0 <reset_handler>
   4010c:	d2820141 	mov	x1, #0x100a                	// #4106
   40110:	d53e1000 	mrs	x0, sctlr_el3
   40114:	aa010000 	orr	x0, x0, x1
   40118:	d51e1000 	msr	sctlr_el3, x0
   4011c:	d5033fdf 	isb
   40120:	9400564f 	bl	55a5c <init_cpu_data_ptr>
   40124:	d2804700 	mov	x0, #0x238                 	// #568
   40128:	d51e1100 	msr	scr_el3, x0
   4012c:	d2900000 	mov	x0, #0x8000                	// #32768
   40130:	f2a20020 	movk	x0, #0x1001, lsl #16
   40134:	d5380501 	mrs	x1, id_aa64dfr0_el1
   40138:	d368ac21 	ubfx	x1, x1, #40, #4
   4013c:	b4000041 	cbz	x1, 40144 <bl31_warm_entrypoint+0x48>
   40140:	b26d0000 	orr	x0, x0, #0x80000
   40144:	d51e1320 	msr	mdcr_el3, x0
   40148:	d50344ff 	msr	daifclr, #0x4
   4014c:	d2a80000 	mov	x0, #0x40000000            	// #1073741824
   40150:	d5380501 	mrs	x1, id_aa64dfr0_el1
   40154:	d3441c21 	ubfx	x1, x1, #4, #4
   40158:	b4000041 	cbz	x1, 40160 <bl31_warm_entrypoint+0x64>
   4015c:	b26c0000 	orr	x0, x0, #0x100000
   40160:	d51e1140 	msr	cptr_el3, x0
   40164:	d50040bf 	msr	spsel, #0x0
   40168:	9400565c 	bl	55ad8 <plat_set_my_stack>
   4016c:	aa1f03e0 	mov	x0, xzr
   40170:	940056f6 	bl	55d48 <bl31_plat_enable_mmu>
   40174:	94004943 	bl	52680 <psci_warmboot_entrypoint>
   40178:	14005624 	b	55a08 <el3_exit>
	...

0000000000050000 <platform_cpu_warmboot>:
   50000:	d53800a0 	mrs	x0, mpidr_el1
   50004:	92401c13 	and	x19, x0, #0xff
   50008:	92781c14 	and	x20, x0, #0xff00
   5000c:	aa1403e0 	mov	x0, x20
   50010:	8b542275 	add	x21, x19, x20, lsr #8
   50014:	10040364 	adr	x4, 58080 <cpuson_flags>
   50018:	8b150884 	add	x4, x4, x21, lsl #2
   5001c:	b9400081 	ldr	w1, [x4]
   50020:	7103c03f 	cmp	w1, #0xf0
   50024:	540000a0 	b.eq	50038 <boot_entry>  // b.none
   50028:	713c003f 	cmp	w1, #0xf00
   5002c:	54000060 	b.eq	50038 <boot_entry>  // b.none

0000000000050030 <wfe_loop>:
   50030:	d503205f 	wfe
   50034:	17ffffff 	b	50030 <wfe_loop>

0000000000050038 <boot_entry>:
   50038:	b900009f 	str	wzr, [x4]
   5003c:	10040125 	adr	x5, 58060 <cpuson_entry_point>
   50040:	f87578a2 	ldr	x2, [x5, x21, lsl #3]
   50044:	d61f0040 	br	x2

0000000000050048 <cm_get_context>:
   50048:	d53ed041 	mrs	x1, tpidr_el3
   5004c:	7100001f 	cmp	w0, #0x0
   50050:	9a9f07e0 	cset	x0, ne  // ne = any
   50054:	f8607820 	ldr	x0, [x1, x0, lsl #3]
   50058:	d65f03c0 	ret

000000000005005c <cm_get_context_by_index>:
   5005c:	a9be7bfd 	stp	x29, x30, [sp, #-32]!
   50060:	910003fd 	mov	x29, sp
   50064:	f9000bf3 	str	x19, [sp, #16]
   50068:	2a0103f3 	mov	w19, w1
   5006c:	94001681 	bl	55a70 <_cpu_data_by_index>
   50070:	7100027f 	cmp	w19, #0x0
   50074:	9a9f07e1 	cset	x1, ne  // ne = any
   50078:	f9400bf3 	ldr	x19, [sp, #16]
   5007c:	a8c27bfd 	ldp	x29, x30, [sp], #32
   50080:	f8617800 	ldr	x0, [x0, x1, lsl #3]
   50084:	d65f03c0 	ret

0000000000050088 <cm_set_context_by_index>:
   50088:	a9be7bfd 	stp	x29, x30, [sp, #-32]!
   5008c:	910003fd 	mov	x29, sp
   50090:	a90153f3 	stp	x19, x20, [sp, #16]
   50094:	aa0103f3 	mov	x19, x1
   50098:	2a0203f4 	mov	w20, w2
   5009c:	94001675 	bl	55a70 <_cpu_data_by_index>
   500a0:	7100029f 	cmp	w20, #0x0
   500a4:	9a9f07e1 	cset	x1, ne  // ne = any
   500a8:	f8217813 	str	x19, [x0, x1, lsl #3]
   500ac:	a94153f3 	ldp	x19, x20, [sp, #16]
   500b0:	a8c27bfd 	ldp	x29, x30, [sp], #32
   500b4:	d65f03c0 	ret

00000000000500b8 <get_arm_std_svc_args>:
   500b8:	d0000020 	adrp	x0, 56000 <unsigned_num_print.part.0+0x8>
   500bc:	9116c000 	add	x0, x0, #0x5b0
   500c0:	d65f03c0 	ret

00000000000500c4 <bl31_setup>:
   500c4:	a9bf7bfd 	stp	x29, x30, [sp, #-16]!
   500c8:	910003fd 	mov	x29, sp
   500cc:	94000db1 	bl	53790 <bl31_early_platform_setup2>
   500d0:	a8c17bfd 	ldp	x29, x30, [sp], #16
   500d4:	14000dd4 	b	53824 <bl31_plat_arch_setup>

00000000000500d8 <bl31_prepare_next_image_entry>:
   500d8:	a9be7bfd 	stp	x29, x30, [sp, #-32]!
   500dc:	d5380400 	mrs	x0, id_aa64pfr0_el1
   500e0:	910003fd 	mov	x29, sp
   500e4:	d3441c00 	ubfx	x0, x0, #4, #4
   500e8:	a90153f3 	stp	x19, x20, [sp, #16]
   500ec:	f100041f 	cmp	x0, #0x1
   500f0:	540000c1 	b.ne	50108 <bl31_prepare_next_image_entry+0x30>  // b.any
   500f4:	d0000020 	adrp	x0, 56000 <unsigned_num_print.part.0+0x8>
   500f8:	91201c00 	add	x0, x0, #0x807
   500fc:	940011af 	bl	547b8 <tf_log>
   50100:	94001227 	bl	5499c <console_flush>
   50104:	9400169f 	bl	55b80 <el3_panic>
   50108:	90000040 	adrp	x0, 58000 <__RO_END__>
   5010c:	b940b813 	ldr	w19, [x0, #184]
   50110:	2a1303e0 	mov	w0, w19
   50114:	94000d95 	bl	53768 <bl31_plat_get_next_image_ep_info>
   50118:	aa0003f4 	mov	x20, x0
   5011c:	940011a6 	bl	547b4 <print_entry_point_info>
   50120:	aa1403e0 	mov	x0, x20
   50124:	9400035a 	bl	50e8c <cm_init_my_context>
   50128:	7100067f 	cmp	w19, #0x1
   5012c:	54000081 	b.ne	5013c <bl31_prepare_next_image_entry+0x64>  // b.any
   50130:	a94153f3 	ldp	x19, x20, [sp, #16]
   50134:	a8c27bfd 	ldp	x29, x30, [sp], #32
   50138:	140003c1 	b	5103c <cm_prepare_el3_exit_ns>
   5013c:	2a1303e0 	mov	w0, w19
   50140:	a94153f3 	ldp	x19, x20, [sp, #16]
   50144:	a8c27bfd 	ldp	x29, x30, [sp], #32
   50148:	14000384 	b	50f58 <cm_prepare_el3_exit>

000000000005014c <bl31_main>:
   5014c:	a9be7bfd 	stp	x29, x30, [sp, #-32]!
   50150:	910003fd 	mov	x29, sp
   50154:	f9000bf3 	str	x19, [sp, #16]
   50158:	94000340 	bl	50e58 <cm_manage_extensions_el3>
   5015c:	d0000033 	adrp	x19, 56000 <unsigned_num_print.part.0+0x8>
   50160:	91215e73 	add	x19, x19, #0x857
   50164:	aa1303e0 	mov	x0, x19
   50168:	d0000021 	adrp	x1, 56000 <unsigned_num_print.part.0+0x8>
   5016c:	911f7821 	add	x1, x1, #0x7de
   50170:	94001192 	bl	547b8 <tf_log>
   50174:	aa1303e0 	mov	x0, x19
   50178:	d0000021 	adrp	x1, 56000 <unsigned_num_print.part.0+0x8>
   5017c:	911f0021 	add	x1, x1, #0x7c0
   50180:	9400118e 	bl	547b8 <tf_log>
   50184:	94000da0 	bl	53804 <bl31_platform_setup>
   50188:	940002d2 	bl	50cd0 <cm_init>
   5018c:	94000021 	bl	50210 <runtime_svc_init>
   50190:	d0000040 	adrp	x0, 5a000 <__STACKS_START__+0x1f00>
   50194:	f9458000 	ldr	x0, [x0, #2816]
   50198:	b4000040 	cbz	x0, 501a0 <bl31_main+0x54>
   5019c:	d63f0000 	blr	x0
   501a0:	97ffffce 	bl	500d8 <bl31_prepare_next_image_entry>
   501a4:	940011fe 	bl	5499c <console_flush>
   501a8:	f9400bf3 	ldr	x19, [sp, #16]
   501ac:	a8c27bfd 	ldp	x29, x30, [sp], #32
   501b0:	1400123d 	b	54aa4 <bl31_plat_runtime_setup>

00000000000501b4 <handle_sysreg_trap>:
   501b4:	12800000 	mov	w0, #0xffffffff            	// #-1
   501b8:	d65f03c0 	ret

00000000000501bc <get_scr_el3_from_routing_model>:
   501bc:	d0000041 	adrp	x1, 5a000 <__STACKS_START__+0x1f00>
   501c0:	912c2022 	add	x2, x1, #0xb08
   501c4:	2a0003e1 	mov	w1, w0
   501c8:	8b010c40 	add	x0, x2, x1, lsl #3
   501cc:	8b010c43 	add	x3, x2, x1, lsl #3
   501d0:	8b010c41 	add	x1, x2, x1, lsl #3
   501d4:	f9400463 	ldr	x3, [x3, #8]
   501d8:	f9402400 	ldr	x0, [x0, #72]
   501dc:	f9401421 	ldr	x1, [x1, #40]
   501e0:	aa030000 	orr	x0, x0, x3
   501e4:	aa010000 	orr	x0, x0, x1
   501e8:	d65f03c0 	ret

00000000000501ec <get_interrupt_type_handler>:
   501ec:	7100081f 	cmp	w0, #0x2
   501f0:	540000c8 	b.hi	50208 <get_interrupt_type_handler+0x1c>  // b.pmore
   501f4:	d37b7c00 	ubfiz	x0, x0, #5, #32
   501f8:	d0000041 	adrp	x1, 5a000 <__STACKS_START__+0x1f00>
   501fc:	912c2021 	add	x1, x1, #0xb08
   50200:	f8606820 	ldr	x0, [x1, x0]
   50204:	d65f03c0 	ret
   50208:	d2800000 	mov	x0, #0x0                   	// #0
   5020c:	17fffffe 	b	50204 <get_interrupt_type_handler+0x18>

0000000000050210 <runtime_svc_init>:
   50210:	a9bb7bfd 	stp	x29, x30, [sp, #-80]!
   50214:	910003fd 	mov	x29, sp
   50218:	a90153f3 	stp	x19, x20, [sp, #16]
   5021c:	d0000033 	adrp	x19, 56000 <unsigned_num_print.part.0+0x8>
   50220:	912ec273 	add	x19, x19, #0xbb0
   50224:	a9025bf5 	stp	x21, x22, [sp, #32]
   50228:	d0000036 	adrp	x22, 56000 <unsigned_num_print.part.0+0x8>
   5022c:	912d42d6 	add	x22, x22, #0xb50
   50230:	cb160273 	sub	x19, x19, x22
   50234:	a90363f7 	stp	x23, x24, [sp, #48]
   50238:	f90023f9 	str	x25, [sp, #64]
   5023c:	f1007e7f 	cmp	x19, #0x1f
   50240:	540001a9 	b.ls	50274 <runtime_svc_init+0x64>  // b.plast
   50244:	d0000038 	adrp	x24, 56000 <unsigned_num_print.part.0+0x8>
   50248:	d345fe73 	lsr	x19, x19, #5
   5024c:	91222b18 	add	x24, x24, #0x88a
   50250:	52800015 	mov	w21, #0x0                   	// #0
   50254:	f0000157 	adrp	x23, 7b000 <tf_mmap+0x300>
   50258:	910842f7 	add	x23, x23, #0x210
   5025c:	aa1703e0 	mov	x0, x23
   50260:	d2801002 	mov	x2, #0x80                  	// #128
   50264:	12800001 	mov	w1, #0xffffffff            	// #-1
   50268:	94001746 	bl	55f80 <memset>
   5026c:	eb35027f 	cmp	x19, w21, uxtb
   50270:	540000e8 	b.hi	5028c <runtime_svc_init+0x7c>  // b.pmore
   50274:	a94153f3 	ldp	x19, x20, [sp, #16]
   50278:	a9425bf5 	ldp	x21, x22, [sp, #32]
   5027c:	a94363f7 	ldp	x23, x24, [sp, #48]
   50280:	f94023f9 	ldr	x25, [sp, #64]
   50284:	a8c57bfd 	ldp	x29, x30, [sp], #80
   50288:	d65f03c0 	ret
   5028c:	d37b1eb9 	ubfiz	x25, x21, #5, #8
   50290:	8b1902d4 	add	x20, x22, x25
   50294:	38796ac1 	ldrb	w1, [x22, x25]
   50298:	39400680 	ldrb	w0, [x20, #1]
   5029c:	6b00003f 	cmp	w1, w0
   502a0:	54000148 	b.hi	502c8 <runtime_svc_init+0xb8>  // b.pmore
   502a4:	7100fc1f 	cmp	w0, #0x3f
   502a8:	54000108 	b.hi	502c8 <runtime_svc_init+0xb8>  // b.pmore
   502ac:	39400a80 	ldrb	w0, [x20, #2]
   502b0:	7100041f 	cmp	w0, #0x1
   502b4:	540000a8 	b.hi	502c8 <runtime_svc_init+0xb8>  // b.pmore
   502b8:	f9400a80 	ldr	x0, [x20, #16]
   502bc:	b5000120 	cbnz	x0, 502e0 <runtime_svc_init+0xd0>
   502c0:	f9400e80 	ldr	x0, [x20, #24]
   502c4:	b50001e0 	cbnz	x0, 50300 <runtime_svc_init+0xf0>
   502c8:	aa1403e1 	mov	x1, x20
   502cc:	d0000020 	adrp	x0, 56000 <unsigned_num_print.part.0+0x8>
   502d0:	91218800 	add	x0, x0, #0x862
   502d4:	94001139 	bl	547b8 <tf_log>
   502d8:	940011b1 	bl	5499c <console_flush>
   502dc:	94001629 	bl	55b80 <el3_panic>
   502e0:	d63f0000 	blr	x0
   502e4:	340000e0 	cbz	w0, 50300 <runtime_svc_init+0xf0>
   502e8:	f9400681 	ldr	x1, [x20, #8]
   502ec:	aa1803e0 	mov	x0, x24
   502f0:	94001132 	bl	547b8 <tf_log>
   502f4:	110006b5 	add	w21, w21, #0x1
   502f8:	12001eb5 	and	w21, w21, #0xff
   502fc:	17ffffdc 	b	5026c <runtime_svc_init+0x5c>
   50300:	39400a81 	ldrb	w1, [x20, #2]
   50304:	38796ac2 	ldrb	w2, [x22, x25]
   50308:	531a0023 	ubfiz	w3, w1, #6, #1
   5030c:	39400681 	ldrb	w1, [x20, #1]
   50310:	12001442 	and	w2, w2, #0x3f
   50314:	2a030040 	orr	w0, w2, w3
   50318:	12001421 	and	w1, w1, #0x3f
   5031c:	2a0003e2 	mov	w2, w0
   50320:	2a030021 	orr	w1, w1, w3
   50324:	8b0002e0 	add	x0, x23, x0
   50328:	6b01005f 	cmp	w2, w1
   5032c:	54fffe48 	b.hi	502f4 <runtime_svc_init+0xe4>  // b.pmore
   50330:	11000442 	add	w2, w2, #0x1
   50334:	38001415 	strb	w21, [x0], #1
   50338:	12001c42 	and	w2, w2, #0xff
   5033c:	17fffffb 	b	50328 <runtime_svc_init+0x118>

0000000000050340 <gicr_wait_group_not_in_transit>:
   50340:	b9402401 	ldr	w1, [x0, #36]
   50344:	53037c22 	lsr	w2, w1, #3
   50348:	4a410841 	eor	w1, w2, w1, lsr #2
   5034c:	3707ffa1 	tbnz	w1, #0, 50340 <gicr_wait_group_not_in_transit>
   50350:	d65f03c0 	ret

0000000000050354 <gicv3_redists_need_power_mgmt>:
   50354:	b9400400 	ldr	w0, [x0, #4]
   50358:	52808761 	mov	w1, #0x43b                 	// #1083
   5035c:	72a04001 	movk	w1, #0x200, lsl #16
   50360:	12074802 	and	w2, w0, #0xfe000fff
   50364:	6b01005f 	cmp	w2, w1
   50368:	540000e0 	b.eq	50384 <gicv3_redists_need_power_mgmt+0x30>  // b.none
   5036c:	12084c00 	and	w0, w0, #0xff000fff
   50370:	52808761 	mov	w1, #0x43b                 	// #1083
   50374:	72a08001 	movk	w1, #0x400, lsl #16
   50378:	6b01001f 	cmp	w0, w1
   5037c:	1a9f17e0 	cset	w0, eq  // eq = none
   50380:	d65f03c0 	ret
   50384:	52800020 	mov	w0, #0x1                   	// #1
   50388:	17fffffe 	b	50380 <gicv3_redists_need_power_mgmt+0x2c>

000000000005038c <gicv3_rdistif_on>:
   5038c:	a9bf7bfd 	stp	x29, x30, [sp, #-16]!
   50390:	d0000041 	adrp	x1, 5a000 <__STACKS_START__+0x1f00>
   50394:	910003fd 	mov	x29, sp
   50398:	f945b421 	ldr	x1, [x1, #2920]
   5039c:	f9401021 	ldr	x1, [x1, #32]
   503a0:	f8605823 	ldr	x3, [x1, w0, uxtw #3]
   503a4:	aa0303e0 	mov	x0, x3
   503a8:	97ffffeb 	bl	50354 <gicv3_redists_need_power_mgmt>
   503ac:	72001c1f 	tst	w0, #0xff
   503b0:	540000c0 	b.eq	503c8 <gicv3_rdistif_on+0x3c>  // b.none
   503b4:	aa0303e0 	mov	x0, x3
   503b8:	97ffffe2 	bl	50340 <gicr_wait_group_not_in_transit>
   503bc:	b900247f 	str	wzr, [x3, #36]
   503c0:	b9402460 	ldr	w0, [x3, #36]
   503c4:	3707ff80 	tbnz	w0, #0, 503b4 <gicv3_rdistif_on+0x28>
   503c8:	a8c17bfd 	ldp	x29, x30, [sp], #16
   503cc:	d65f03c0 	ret

00000000000503d0 <gicv3_apply_errata_wa_2384374>:
   503d0:	f0000141 	adrp	x1, 7b000 <tf_mmap+0x300>
   503d4:	394a4021 	ldrb	w1, [x1, #656]
   503d8:	340000c1 	cbz	w1, 503f0 <gicv3_apply_errata_wa_2384374+0x20>
   503dc:	b9400001 	ldr	w1, [x0]
   503e0:	32080822 	orr	w2, w1, #0x7000000
   503e4:	b9000002 	str	w2, [x0]
   503e8:	12057021 	and	w1, w1, #0xf8ffffff
   503ec:	b9000001 	str	w1, [x0]
   503f0:	d65f03c0 	ret

00000000000503f4 <gicv3_check_erratas_applies>:
   503f4:	a9be7bfd 	stp	x29, x30, [sp, #-32]!
   503f8:	910003fd 	mov	x29, sp
   503fc:	910073e1 	add	x1, sp, #0x1c
   50400:	91006fe2 	add	x2, sp, #0x1b
   50404:	94000173 	bl	509d0 <gicv3_get_component_prodid_rev>
   50408:	b9401fe0 	ldr	w0, [sp, #28]
   5040c:	51000801 	sub	w1, w0, #0x2
   50410:	7100043f 	cmp	w1, #0x1
   50414:	54000128 	b.hi	50438 <gicv3_check_erratas_applies+0x44>  // b.pmore
   50418:	7100081f 	cmp	w0, #0x2
   5041c:	39406fe0 	ldrb	w0, [sp, #27]
   50420:	54000101 	b.ne	50440 <gicv3_check_erratas_applies+0x4c>  // b.any
   50424:	71005c1f 	cmp	w0, #0x17
   50428:	54000088 	b.hi	50438 <gicv3_check_erratas_applies+0x44>  // b.pmore
   5042c:	f0000140 	adrp	x0, 7b000 <tf_mmap+0x300>
   50430:	52800021 	mov	w1, #0x1                   	// #1
   50434:	390a4001 	strb	w1, [x0, #656]
   50438:	a8c27bfd 	ldp	x29, x30, [sp], #32
   5043c:	d65f03c0 	ret
   50440:	7100101f 	cmp	w0, #0x4
   50444:	17fffff9 	b	50428 <gicv3_check_erratas_applies+0x34>

0000000000050448 <gicd_set_icfgr>:
   50448:	531f0c24 	ubfiz	w4, w1, #1, #4
   5044c:	53047c21 	lsr	w1, w1, #4
   50450:	91300000 	add	x0, x0, #0xc00
   50454:	12000442 	and	w2, w2, #0x3
   50458:	d37ef421 	lsl	x1, x1, #2
   5045c:	52800063 	mov	w3, #0x3                   	// #3
   50460:	1ac42063 	lsl	w3, w3, w4
   50464:	1ac42042 	lsl	w2, w2, w4
   50468:	b8606825 	ldr	w5, [x1, x0]
   5046c:	0a2300a3 	bic	w3, w5, w3
   50470:	2a020063 	orr	w3, w3, w2
   50474:	b8206823 	str	w3, [x1, x0]
   50478:	d65f03c0 	ret

000000000005047c <gicd_clr_igroupr>:
   5047c:	53057c23 	lsr	w3, w1, #5
   50480:	91020000 	add	x0, x0, #0x80
   50484:	52800022 	mov	w2, #0x1                   	// #1
   50488:	d37ef463 	lsl	x3, x3, #2
   5048c:	1ac12041 	lsl	w1, w2, w1
   50490:	b8606864 	ldr	w4, [x3, x0]
   50494:	0a210081 	bic	w1, w4, w1
   50498:	b8206861 	str	w1, [x3, x0]
   5049c:	d65f03c0 	ret

00000000000504a0 <gicd_set_igrpmodr>:
   504a0:	53057c23 	lsr	w3, w1, #5
   504a4:	91340000 	add	x0, x0, #0xd00
   504a8:	52800022 	mov	w2, #0x1                   	// #1
   504ac:	d37ef463 	lsl	x3, x3, #2
   504b0:	1ac12041 	lsl	w1, w2, w1
   504b4:	b8606864 	ldr	w4, [x3, x0]
   504b8:	2a040021 	orr	w1, w1, w4
   504bc:	b8206861 	str	w1, [x3, x0]
   504c0:	d65f03c0 	ret

00000000000504c4 <gicd_clr_igrpmodr>:
   504c4:	53057c23 	lsr	w3, w1, #5
   504c8:	91340000 	add	x0, x0, #0xd00
   504cc:	52800022 	mov	w2, #0x1                   	// #1
   504d0:	d37ef463 	lsl	x3, x3, #2
   504d4:	1ac12041 	lsl	w1, w2, w1
   504d8:	b8606864 	ldr	w4, [x3, x0]
   504dc:	0a210081 	bic	w1, w4, w1
   504e0:	b8206861 	str	w1, [x3, x0]
   504e4:	d65f03c0 	ret

00000000000504e8 <gicd_set_isenabler>:
   504e8:	52800022 	mov	w2, #0x1                   	// #1
   504ec:	91040000 	add	x0, x0, #0x100
   504f0:	1ac12042 	lsl	w2, w2, w1
   504f4:	53057c21 	lsr	w1, w1, #5
   504f8:	d37ef421 	lsl	x1, x1, #2
   504fc:	b8206822 	str	w2, [x1, x0]
   50500:	d65f03c0 	ret

0000000000050504 <gicd_set_ipriorityr>:
   50504:	91100000 	add	x0, x0, #0x400
   50508:	2a0103e1 	mov	w1, w1
   5050c:	12001c42 	and	w2, w2, #0xff
   50510:	38216802 	strb	w2, [x0, x1]
   50514:	d65f03c0 	ret

0000000000050518 <gicd_write_icfgr>:
   50518:	53047c21 	lsr	w1, w1, #4
   5051c:	91300000 	add	x0, x0, #0xc00
   50520:	d37ef421 	lsl	x1, x1, #2
   50524:	b8206822 	str	w2, [x1, x0]
   50528:	d65f03c0 	ret

000000000005052c <gicd_write_igroupr>:
   5052c:	53057c21 	lsr	w1, w1, #5
   50530:	91020000 	add	x0, x0, #0x80
   50534:	d37ef421 	lsl	x1, x1, #2
   50538:	b8206822 	str	w2, [x1, x0]
   5053c:	d65f03c0 	ret

0000000000050540 <gicd_write_ipriorityr>:
   50540:	927e7421 	and	x1, x1, #0xfffffffc
   50544:	91100000 	add	x0, x0, #0x400
   50548:	b8206822 	str	w2, [x1, x0]
   5054c:	d65f03c0 	ret

0000000000050550 <gicr_write_ipriorityr>:
   50550:	91404000 	add	x0, x0, #0x10, lsl #12
   50554:	927e7421 	and	x1, x1, #0xfffffffc
   50558:	91100000 	add	x0, x0, #0x400
   5055c:	b8206822 	str	w2, [x1, x0]
   50560:	d65f03c0 	ret

0000000000050564 <gicr_set_ipriorityr>:
   50564:	91404000 	add	x0, x0, #0x10, lsl #12
   50568:	2a0103e1 	mov	w1, w1
   5056c:	91100000 	add	x0, x0, #0x400
   50570:	12001c42 	and	w2, w2, #0xff
   50574:	38216802 	strb	w2, [x0, x1]
   50578:	d65f03c0 	ret

000000000005057c <gicr_clr_igroupr>:
   5057c:	53057c23 	lsr	w3, w1, #5
   50580:	91404000 	add	x0, x0, #0x10, lsl #12
   50584:	91020000 	add	x0, x0, #0x80
   50588:	52800022 	mov	w2, #0x1                   	// #1
   5058c:	d37ef463 	lsl	x3, x3, #2
   50590:	1ac12041 	lsl	w1, w2, w1
   50594:	b8606864 	ldr	w4, [x3, x0]
   50598:	0a210081 	bic	w1, w4, w1
   5059c:	b8206861 	str	w1, [x3, x0]
   505a0:	d65f03c0 	ret

00000000000505a4 <gicr_set_igrpmodr>:
   505a4:	53057c23 	lsr	w3, w1, #5
   505a8:	91404000 	add	x0, x0, #0x10, lsl #12
   505ac:	91340000 	add	x0, x0, #0xd00
   505b0:	52800022 	mov	w2, #0x1                   	// #1
   505b4:	d37ef463 	lsl	x3, x3, #2
   505b8:	1ac12041 	lsl	w1, w2, w1
   505bc:	b8606864 	ldr	w4, [x3, x0]
   505c0:	2a040021 	orr	w1, w1, w4
   505c4:	b8206861 	str	w1, [x3, x0]
   505c8:	d65f03c0 	ret

00000000000505cc <gicr_clr_igrpmodr>:
   505cc:	53057c23 	lsr	w3, w1, #5
   505d0:	91404000 	add	x0, x0, #0x10, lsl #12
   505d4:	91340000 	add	x0, x0, #0xd00
   505d8:	52800022 	mov	w2, #0x1                   	// #1
   505dc:	d37ef463 	lsl	x3, x3, #2
   505e0:	1ac12041 	lsl	w1, w2, w1
   505e4:	b8606864 	ldr	w4, [x3, x0]
   505e8:	0a210081 	bic	w1, w4, w1
   505ec:	b8206861 	str	w1, [x3, x0]
   505f0:	d65f03c0 	ret

00000000000505f4 <gicr_set_isenabler>:
   505f4:	52800022 	mov	w2, #0x1                   	// #1
   505f8:	91404000 	add	x0, x0, #0x10, lsl #12
   505fc:	1ac12042 	lsl	w2, w2, w1
   50600:	53057c21 	lsr	w1, w1, #5
   50604:	91040000 	add	x0, x0, #0x100
   50608:	d37ef421 	lsl	x1, x1, #2
   5060c:	b8206822 	str	w2, [x1, x0]
   50610:	d65f03c0 	ret

0000000000050614 <gicr_set_icfgr>:
   50614:	531f0c24 	ubfiz	w4, w1, #1, #4
   50618:	53047c21 	lsr	w1, w1, #4
   5061c:	91404000 	add	x0, x0, #0x10, lsl #12
   50620:	12000442 	and	w2, w2, #0x3
   50624:	d37ef421 	lsl	x1, x1, #2
   50628:	91300000 	add	x0, x0, #0xc00
   5062c:	52800063 	mov	w3, #0x3                   	// #3
   50630:	1ac42042 	lsl	w2, w2, w4
   50634:	1ac42063 	lsl	w3, w3, w4
   50638:	b8606825 	ldr	w5, [x1, x0]
   5063c:	0a2300a3 	bic	w3, w5, w3
   50640:	2a020063 	orr	w3, w3, w2
   50644:	b8206823 	str	w3, [x1, x0]
   50648:	d65f03c0 	ret

000000000005064c <gicv3_rdistif_mark_core_awake>:
   5064c:	b9401401 	ldr	w1, [x0, #20]
   50650:	91005002 	add	x2, x0, #0x14
   50654:	121e7821 	and	w1, w1, #0xfffffffd
   50658:	b9001401 	str	w1, [x0, #20]
   5065c:	b9400040 	ldr	w0, [x2]
   50660:	3717ffe0 	tbnz	w0, #2, 5065c <gicv3_rdistif_mark_core_awake+0x10>
   50664:	d65f03c0 	ret

0000000000050668 <gicv3_rdistif_mark_core_asleep>:
   50668:	b9401401 	ldr	w1, [x0, #20]
   5066c:	91005002 	add	x2, x0, #0x14
   50670:	321f0021 	orr	w1, w1, #0x2
   50674:	b9001401 	str	w1, [x0, #20]
   50678:	b9400040 	ldr	w0, [x2]
   5067c:	3617ffe0 	tbz	w0, #2, 50678 <gicv3_rdistif_mark_core_asleep+0x10>
   50680:	d65f03c0 	ret

0000000000050684 <gicv3_rdistif_base_addrs_probe>:
   50684:	a9bc7bfd 	stp	x29, x30, [sp, #-64]!
   50688:	910003fd 	mov	x29, sp
   5068c:	a90153f3 	stp	x19, x20, [sp, #16]
   50690:	aa0203f3 	mov	x19, x2
   50694:	a9025bf5 	stp	x21, x22, [sp, #32]
   50698:	aa0003f6 	mov	x22, x0
   5069c:	aa0303f5 	mov	x21, x3
   506a0:	f9001bf7 	str	x23, [sp, #48]
   506a4:	2a0103f7 	mov	w23, w1
   506a8:	f9400674 	ldr	x20, [x19, #8]
   506ac:	b40001f5 	cbz	x21, 506e8 <gicv3_rdistif_base_addrs_probe+0x64>
   506b0:	d360de81 	ubfx	x1, x20, #32, #24
   506b4:	d378fe80 	lsr	x0, x20, #56
   506b8:	aa008020 	orr	x0, x1, x0, lsl #32
   506bc:	d63f02a0 	blr	x21
   506c0:	6b17001f 	cmp	w0, w23
   506c4:	54000042 	b.cs	506cc <gicv3_rdistif_base_addrs_probe+0x48>  // b.hs, b.nlast
   506c8:	f8205ad3 	str	x19, [x22, w0, uxtw #3]
   506cc:	91408273 	add	x19, x19, #0x20, lsl #12
   506d0:	3627fed4 	tbz	w20, #4, 506a8 <gicv3_rdistif_base_addrs_probe+0x24>
   506d4:	a94153f3 	ldp	x19, x20, [sp, #16]
   506d8:	a9425bf5 	ldp	x21, x22, [sp, #32]
   506dc:	f9401bf7 	ldr	x23, [sp, #48]
   506e0:	a8c47bfd 	ldp	x29, x30, [sp], #64
   506e4:	d65f03c0 	ret
   506e8:	53085e80 	ubfx	w0, w20, #8, #16
   506ec:	17fffff5 	b	506c0 <gicv3_rdistif_base_addrs_probe+0x3c>

00000000000506f0 <gicv3_get_spi_limit>:
   506f0:	b9400400 	ldr	w0, [x0, #4]
   506f4:	52807f81 	mov	w1, #0x3fc                 	// #1020
   506f8:	531b1000 	ubfiz	w0, w0, #5, #5
   506fc:	11008000 	add	w0, w0, #0x20
   50700:	710ff01f 	cmp	w0, #0x3fc
   50704:	1a819000 	csel	w0, w0, w1, ls  // ls = plast
   50708:	d65f03c0 	ret

000000000005070c <gicv3_spis_config_defaults>:
   5070c:	a9bd7bfd 	stp	x29, x30, [sp, #-48]!
   50710:	910003fd 	mov	x29, sp
   50714:	a90153f3 	stp	x19, x20, [sp, #16]
   50718:	aa0003f4 	mov	x20, x0
   5071c:	f90013f5 	str	x21, [sp, #32]
   50720:	97fffff4 	bl	506f0 <gicv3_get_spi_limit>
   50724:	2a0003f3 	mov	w19, w0
   50728:	52800415 	mov	w21, #0x20                  	// #32
   5072c:	6b1302bf 	cmp	w21, w19
   50730:	54000163 	b.cc	5075c <gicv3_spis_config_defaults+0x50>  // b.lo, b.ul, b.last
   50734:	52800415 	mov	w21, #0x20                  	// #32
   50738:	6b1302bf 	cmp	w21, w19
   5073c:	540001c3 	b.cc	50774 <gicv3_spis_config_defaults+0x68>  // b.lo, b.ul, b.last
   50740:	52800415 	mov	w21, #0x20                  	// #32
   50744:	6b1302bf 	cmp	w21, w19
   50748:	54000223 	b.cc	5078c <gicv3_spis_config_defaults+0x80>  // b.lo, b.ul, b.last
   5074c:	a94153f3 	ldp	x19, x20, [sp, #16]
   50750:	f94013f5 	ldr	x21, [sp, #32]
   50754:	a8c37bfd 	ldp	x29, x30, [sp], #48
   50758:	d65f03c0 	ret
   5075c:	2a1503e1 	mov	w1, w21
   50760:	aa1403e0 	mov	x0, x20
   50764:	12800002 	mov	w2, #0xffffffff            	// #-1
   50768:	110082b5 	add	w21, w21, #0x20
   5076c:	97ffff70 	bl	5052c <gicd_write_igroupr>
   50770:	17ffffef 	b	5072c <gicv3_spis_config_defaults+0x20>
   50774:	2a1503e1 	mov	w1, w21
   50778:	aa1403e0 	mov	x0, x20
   5077c:	3201c3e2 	mov	w2, #0x80808080            	// #-2139062144
   50780:	110012b5 	add	w21, w21, #0x4
   50784:	97ffff6f 	bl	50540 <gicd_write_ipriorityr>
   50788:	17ffffec 	b	50738 <gicv3_spis_config_defaults+0x2c>
   5078c:	2a1503e1 	mov	w1, w21
   50790:	aa1403e0 	mov	x0, x20
   50794:	52800002 	mov	w2, #0x0                   	// #0
   50798:	110042b5 	add	w21, w21, #0x10
   5079c:	97ffff5f 	bl	50518 <gicd_write_icfgr>
   507a0:	17ffffe9 	b	50744 <gicv3_spis_config_defaults+0x38>

00000000000507a4 <gicv3_secure_spis_config_props>:
   507a4:	a9bb7bfd 	stp	x29, x30, [sp, #-80]!
   507a8:	910003fd 	mov	x29, sp
   507ac:	a90153f3 	stp	x19, x20, [sp, #16]
   507b0:	aa0103f3 	mov	x19, x1
   507b4:	a9025bf5 	stp	x21, x22, [sp, #32]
   507b8:	aa0003f5 	mov	x21, x0
   507bc:	52800016 	mov	w22, #0x0                   	// #0
   507c0:	a90363f7 	stp	x23, x24, [sp, #48]
   507c4:	8b224837 	add	x23, x1, w2, uxtw #2
   507c8:	a9046bf9 	stp	x25, x26, [sp, #64]
   507cc:	b2405ff9 	mov	x25, #0xffffff              	// #16777215
   507d0:	9140181a 	add	x26, x0, #0x6, lsl #12
   507d4:	f2c01ff9 	movk	x25, #0xff, lsl #32
   507d8:	eb17027f 	cmp	x19, x23
   507dc:	54000101 	b.ne	507fc <gicv3_secure_spis_config_props+0x58>  // b.any
   507e0:	2a1603e0 	mov	w0, w22
   507e4:	a94153f3 	ldp	x19, x20, [sp, #16]
   507e8:	a9425bf5 	ldp	x21, x22, [sp, #32]
   507ec:	a94363f7 	ldp	x23, x24, [sp, #48]
   507f0:	a9446bf9 	ldp	x25, x26, [sp, #64]
   507f4:	a8c57bfd 	ldp	x29, x30, [sp], #80
   507f8:	d65f03c0 	ret
   507fc:	b9400274 	ldr	w20, [x19]
   50800:	d3403298 	ubfx	x24, x20, #0, #13
   50804:	12003294 	and	w20, w20, #0x1fff
   50808:	51008280 	sub	w0, w20, #0x20
   5080c:	710f6c1f 	cmp	w0, #0x3db
   50810:	54000388 	b.hi	50880 <gicv3_secure_spis_config_props+0xdc>  // b.pmore
   50814:	2a1403e1 	mov	w1, w20
   50818:	aa1503e0 	mov	x0, x21
   5081c:	97ffff18 	bl	5047c <gicd_clr_igroupr>
   50820:	b9400260 	ldr	w0, [x19]
   50824:	2a1403e1 	mov	w1, w20
   50828:	720b041f 	tst	w0, #0x600000
   5082c:	aa1503e0 	mov	x0, x21
   50830:	540002c1 	b.ne	50888 <gicv3_secure_spis_config_props+0xe4>  // b.any
   50834:	321e02d6 	orr	w22, w22, #0x4
   50838:	97ffff1a 	bl	504a0 <gicd_set_igrpmodr>
   5083c:	b9400262 	ldr	w2, [x19]
   50840:	2a1403e1 	mov	w1, w20
   50844:	aa1503e0 	mov	x0, x21
   50848:	d3576042 	ubfx	x2, x2, #23, #2
   5084c:	97fffeff 	bl	50448 <gicd_set_icfgr>
   50850:	b9400262 	ldr	w2, [x19]
   50854:	2a1403e1 	mov	w1, w20
   50858:	aa1503e0 	mov	x0, x21
   5085c:	d34d5042 	ubfx	x2, x2, #13, #8
   50860:	97ffff29 	bl	50504 <gicd_set_ipriorityr>
   50864:	d53800a0 	mrs	x0, mpidr_el1
   50868:	d37d3318 	ubfiz	x24, x24, #3, #13
   5086c:	8a190000 	and	x0, x0, x25
   50870:	2a1403e1 	mov	w1, w20
   50874:	f8386b40 	str	x0, [x26, x24]
   50878:	aa1503e0 	mov	x0, x21
   5087c:	97ffff1b 	bl	504e8 <gicd_set_isenabler>
   50880:	91001273 	add	x19, x19, #0x4
   50884:	17ffffd5 	b	507d8 <gicv3_secure_spis_config_props+0x34>
   50888:	320002d6 	orr	w22, w22, #0x1
   5088c:	97ffff0e 	bl	504c4 <gicd_clr_igrpmodr>
   50890:	17ffffeb 	b	5083c <gicv3_secure_spis_config_props+0x98>

0000000000050894 <gicv3_ppi_sgi_config_defaults>:
   50894:	a9be7bfd 	stp	x29, x30, [sp, #-32]!
   50898:	12800001 	mov	w1, #0xffffffff            	// #-1
   5089c:	910003fd 	mov	x29, sp
   508a0:	a90153f3 	stp	x19, x20, [sp, #16]
   508a4:	aa0003f3 	mov	x19, x0
   508a8:	d2803000 	mov	x0, #0x180                 	// #384
   508ac:	f2a00020 	movk	x0, #0x1, lsl #16
   508b0:	b8206a61 	str	w1, [x19, x0]
   508b4:	b9400260 	ldr	w0, [x19]
   508b8:	121d0014 	and	w20, w0, #0x8
   508bc:	371fffc0 	tbnz	w0, #3, 508b4 <gicv3_ppi_sgi_config_defaults+0x20>
   508c0:	d2801000 	mov	x0, #0x80                  	// #128
   508c4:	12800001 	mov	w1, #0xffffffff            	// #-1
   508c8:	f2a00020 	movk	x0, #0x1, lsl #16
   508cc:	b8206a61 	str	w1, [x19, x0]
   508d0:	2a1403e1 	mov	w1, w20
   508d4:	aa1303e0 	mov	x0, x19
   508d8:	3201c3e2 	mov	w2, #0x80808080            	// #-2139062144
   508dc:	11001294 	add	w20, w20, #0x4
   508e0:	97ffff1c 	bl	50550 <gicr_write_ipriorityr>
   508e4:	7100829f 	cmp	w20, #0x20
   508e8:	54ffff41 	b.ne	508d0 <gicv3_ppi_sgi_config_defaults+0x3c>  // b.any
   508ec:	d2818080 	mov	x0, #0xc04                 	// #3076
   508f0:	f2a00020 	movk	x0, #0x1, lsl #16
   508f4:	b8206a7f 	str	wzr, [x19, x0]
   508f8:	a94153f3 	ldp	x19, x20, [sp, #16]
   508fc:	a8c27bfd 	ldp	x29, x30, [sp], #32
   50900:	d65f03c0 	ret

0000000000050904 <gicv3_secure_ppi_sgi_config_props>:
   50904:	a9bc7bfd 	stp	x29, x30, [sp, #-64]!
   50908:	910003fd 	mov	x29, sp
   5090c:	a90153f3 	stp	x19, x20, [sp, #16]
   50910:	aa0103f3 	mov	x19, x1
   50914:	a9025bf5 	stp	x21, x22, [sp, #32]
   50918:	aa0003f5 	mov	x21, x0
   5091c:	52800016 	mov	w22, #0x0                   	// #0
   50920:	f9001bf7 	str	x23, [sp, #48]
   50924:	8b224837 	add	x23, x1, w2, uxtw #2
   50928:	eb17027f 	cmp	x19, x23
   5092c:	540000e1 	b.ne	50948 <gicv3_secure_ppi_sgi_config_props+0x44>  // b.any
   50930:	2a1603e0 	mov	w0, w22
   50934:	a94153f3 	ldp	x19, x20, [sp, #16]
   50938:	a9425bf5 	ldp	x21, x22, [sp, #32]
   5093c:	f9401bf7 	ldr	x23, [sp, #48]
   50940:	a8c47bfd 	ldp	x29, x30, [sp], #64
   50944:	d65f03c0 	ret
   50948:	b9400274 	ldr	w20, [x19]
   5094c:	12003294 	and	w20, w20, #0x1fff
   50950:	71007e9f 	cmp	w20, #0x1f
   50954:	54000348 	b.hi	509bc <gicv3_secure_ppi_sgi_config_props+0xb8>  // b.pmore
   50958:	2a1403e1 	mov	w1, w20
   5095c:	aa1503e0 	mov	x0, x21
   50960:	97ffff07 	bl	5057c <gicr_clr_igroupr>
   50964:	b9400260 	ldr	w0, [x19]
   50968:	2a1403e1 	mov	w1, w20
   5096c:	720b041f 	tst	w0, #0x600000
   50970:	aa1503e0 	mov	x0, x21
   50974:	54000281 	b.ne	509c4 <gicv3_secure_ppi_sgi_config_props+0xc0>  // b.any
   50978:	321e02d6 	orr	w22, w22, #0x4
   5097c:	97ffff0a 	bl	505a4 <gicr_set_igrpmodr>
   50980:	b9400262 	ldr	w2, [x19]
   50984:	2a1403e1 	mov	w1, w20
   50988:	aa1503e0 	mov	x0, x21
   5098c:	d34d5042 	ubfx	x2, x2, #13, #8
   50990:	97fffef5 	bl	50564 <gicr_set_ipriorityr>
   50994:	71003e9f 	cmp	w20, #0xf
   50998:	540000c9 	b.ls	509b0 <gicv3_secure_ppi_sgi_config_props+0xac>  // b.plast
   5099c:	b9400262 	ldr	w2, [x19]
   509a0:	2a1403e1 	mov	w1, w20
   509a4:	aa1503e0 	mov	x0, x21
   509a8:	d3576042 	ubfx	x2, x2, #23, #2
   509ac:	97ffff1a 	bl	50614 <gicr_set_icfgr>
   509b0:	2a1403e1 	mov	w1, w20
   509b4:	aa1503e0 	mov	x0, x21
   509b8:	97ffff0f 	bl	505f4 <gicr_set_isenabler>
   509bc:	91001273 	add	x19, x19, #0x4
   509c0:	17ffffda 	b	50928 <gicv3_secure_ppi_sgi_config_props+0x24>
   509c4:	320002d6 	orr	w22, w22, #0x1
   509c8:	97ffff01 	bl	505cc <gicr_clr_igrpmodr>
   509cc:	17ffffed 	b	50980 <gicv3_secure_ppi_sgi_config_props+0x7c>

00000000000509d0 <gicv3_get_component_prodid_rev>:
   509d0:	b9400800 	ldr	w0, [x0, #8]
   509d4:	53187c03 	lsr	w3, w0, #24
   509d8:	b9000023 	str	w3, [x1]
   509dc:	d34c4c00 	ubfx	x0, x0, #12, #8
   509e0:	39000040 	strb	w0, [x2]
   509e4:	d65f03c0 	ret

00000000000509e8 <gicd_wait_for_pending_write>:
   509e8:	b9400001 	ldr	w1, [x0]
   509ec:	37ffffe1 	tbnz	w1, #31, 509e8 <gicd_wait_for_pending_write>
   509f0:	d65f03c0 	ret

00000000000509f4 <gicv3_driver_init>:
   509f4:	a9be7bfd 	stp	x29, x30, [sp, #-32]!
   509f8:	d29ffd01 	mov	x1, #0xffe8                	// #65512
   509fc:	910003fd 	mov	x29, sp
   50a00:	f9000bf3 	str	x19, [sp, #16]
   50a04:	aa0003f3 	mov	x19, x0
   50a08:	f9400000 	ldr	x0, [x0]
   50a0c:	f9400662 	ldr	x2, [x19, #8]
   50a10:	b8616801 	ldr	w1, [x0, x1]
   50a14:	b9400000 	ldr	w0, [x0]
   50a18:	b4000082 	cbz	x2, 50a28 <gicv3_driver_init+0x34>
   50a1c:	a9420e60 	ldp	x0, x3, [x19, #32]
   50a20:	b9401e61 	ldr	w1, [x19, #28]
   50a24:	97ffff18 	bl	50684 <gicv3_rdistif_base_addrs_probe>
   50a28:	d0000040 	adrp	x0, 5a000 <__STACKS_START__+0x1f00>
   50a2c:	f905b413 	str	x19, [x0, #2920]
   50a30:	f9400260 	ldr	x0, [x19]
   50a34:	f9400bf3 	ldr	x19, [sp, #16]
   50a38:	a8c27bfd 	ldp	x29, x30, [sp], #32
   50a3c:	17fffe6e 	b	503f4 <gicv3_check_erratas_applies>

0000000000050a40 <gicv3_distif_init>:
   50a40:	a9be7bfd 	stp	x29, x30, [sp, #-32]!
   50a44:	910003fd 	mov	x29, sp
   50a48:	f9000bf3 	str	x19, [sp, #16]
   50a4c:	d0000053 	adrp	x19, 5a000 <__STACKS_START__+0x1f00>
   50a50:	f945b660 	ldr	x0, [x19, #2920]
   50a54:	f9400000 	ldr	x0, [x0]
   50a58:	b9400001 	ldr	w1, [x0]
   50a5c:	121d7021 	and	w1, w1, #0xfffffff8
   50a60:	b9000001 	str	w1, [x0]
   50a64:	97ffffe1 	bl	509e8 <gicd_wait_for_pending_write>
   50a68:	f945b660 	ldr	x0, [x19, #2920]
   50a6c:	f9400000 	ldr	x0, [x0]
   50a70:	b9400001 	ldr	w1, [x0]
   50a74:	321c0421 	orr	w1, w1, #0x30
   50a78:	b9000001 	str	w1, [x0]
   50a7c:	97ffffdb 	bl	509e8 <gicd_wait_for_pending_write>
   50a80:	f945b660 	ldr	x0, [x19, #2920]
   50a84:	f9400000 	ldr	x0, [x0]
   50a88:	97ffff21 	bl	5070c <gicv3_spis_config_defaults>
   50a8c:	f945b660 	ldr	x0, [x19, #2920]
   50a90:	b9401802 	ldr	w2, [x0, #24]
   50a94:	f9400801 	ldr	x1, [x0, #16]
   50a98:	f9400000 	ldr	x0, [x0]
   50a9c:	97ffff42 	bl	507a4 <gicv3_secure_spis_config_props>
   50aa0:	f945b661 	ldr	x1, [x19, #2920]
   50aa4:	f9400bf3 	ldr	x19, [sp, #16]
   50aa8:	f9400021 	ldr	x1, [x1]
   50aac:	b9400022 	ldr	w2, [x1]
   50ab0:	2a020000 	orr	w0, w0, w2
   50ab4:	b9000020 	str	w0, [x1]
   50ab8:	aa0103e0 	mov	x0, x1
   50abc:	a8c27bfd 	ldp	x29, x30, [sp], #32
   50ac0:	17ffffca 	b	509e8 <gicd_wait_for_pending_write>

0000000000050ac4 <gicv3_rdistif_init>:
   50ac4:	a9bd7bfd 	stp	x29, x30, [sp, #-48]!
   50ac8:	910003fd 	mov	x29, sp
   50acc:	a90153f3 	stp	x19, x20, [sp, #16]
   50ad0:	d0000053 	adrp	x19, 5a000 <__STACKS_START__+0x1f00>
   50ad4:	2a0003f4 	mov	w20, w0
   50ad8:	f945b661 	ldr	x1, [x19, #2920]
   50adc:	f9400021 	ldr	x1, [x1]
   50ae0:	f90013f5 	str	x21, [sp, #32]
   50ae4:	b9400035 	ldr	w21, [x1]
   50ae8:	97fffe29 	bl	5038c <gicv3_rdistif_on>
   50aec:	f945b660 	ldr	x0, [x19, #2920]
   50af0:	f9401000 	ldr	x0, [x0, #32]
   50af4:	f8745814 	ldr	x20, [x0, w20, uxtw #3]
   50af8:	aa1403e0 	mov	x0, x20
   50afc:	97ffff66 	bl	50894 <gicv3_ppi_sgi_config_defaults>
   50b00:	f945b660 	ldr	x0, [x19, #2920]
   50b04:	b9401802 	ldr	w2, [x0, #24]
   50b08:	f9400801 	ldr	x1, [x0, #16]
   50b0c:	aa1403e0 	mov	x0, x20
   50b10:	97ffff7d 	bl	50904 <gicv3_secure_ppi_sgi_config_props>
   50b14:	6a35001f 	bics	wzr, w0, w21
   50b18:	54000160 	b.eq	50b44 <gicv3_rdistif_init+0x80>  // b.none
   50b1c:	2a0003e1 	mov	w1, w0
   50b20:	f945b660 	ldr	x0, [x19, #2920]
   50b24:	a94153f3 	ldp	x19, x20, [sp, #16]
   50b28:	f9400000 	ldr	x0, [x0]
   50b2c:	f94013f5 	ldr	x21, [sp, #32]
   50b30:	b9400002 	ldr	w2, [x0]
   50b34:	2a020021 	orr	w1, w1, w2
   50b38:	b9000001 	str	w1, [x0]
   50b3c:	a8c37bfd 	ldp	x29, x30, [sp], #48
   50b40:	17ffffaa 	b	509e8 <gicd_wait_for_pending_write>
   50b44:	a94153f3 	ldp	x19, x20, [sp, #16]
   50b48:	f94013f5 	ldr	x21, [sp, #32]
   50b4c:	a8c37bfd 	ldp	x29, x30, [sp], #48
   50b50:	d65f03c0 	ret

0000000000050b54 <gicv3_cpuif_enable>:
   50b54:	a9bf7bfd 	stp	x29, x30, [sp, #-16]!
   50b58:	d0000041 	adrp	x1, 5a000 <__STACKS_START__+0x1f00>
   50b5c:	910003fd 	mov	x29, sp
   50b60:	f945b421 	ldr	x1, [x1, #2920]
   50b64:	f9401021 	ldr	x1, [x1, #32]
   50b68:	f8605820 	ldr	x0, [x1, w0, uxtw #3]
   50b6c:	97fffeb8 	bl	5064c <gicv3_rdistif_mark_core_awake>
   50b70:	d53ecca0 	mrs	x0, icc_sre_el3
   50b74:	b2400c00 	orr	x0, x0, #0xf
   50b78:	d51ecca0 	msr	icc_sre_el3, x0
   50b7c:	d53e1100 	mrs	x0, scr_el3
   50b80:	b2400001 	orr	x1, x0, #0x1
   50b84:	d51e1101 	msr	scr_el3, x1
   50b88:	d5033fdf 	isb
   50b8c:	d53cc9a1 	mrs	x1, icc_sre_el2
   50b90:	b2400c21 	orr	x1, x1, #0xf
   50b94:	d51cc9a1 	msr	icc_sre_el2, x1
   50b98:	d2800021 	mov	x1, #0x1                   	// #1
   50b9c:	d518cca1 	msr	icc_sre_el1, x1
   50ba0:	d5033fdf 	isb
   50ba4:	927ff802 	and	x2, x0, #0xfffffffffffffffe
   50ba8:	d51e1102 	msr	scr_el3, x2
   50bac:	d5033fdf 	isb
   50bb0:	d518cca1 	msr	icc_sre_el1, x1
   50bb4:	d5033fdf 	isb
   50bb8:	d2801fe2 	mov	x2, #0xff                  	// #255
   50bbc:	d5184602 	msr	icc_pmr_el1, x2
   50bc0:	d518ccc1 	msr	icc_igrpen0_el1, x1
   50bc4:	d53ecce1 	mrs	x1, icc_igrpen1_el3
   50bc8:	b27f0021 	orr	x1, x1, #0x2
   50bcc:	d51ecce1 	msr	icc_igrpen1_el3, x1
   50bd0:	d51e1100 	msr	scr_el3, x0
   50bd4:	d5033fdf 	isb
   50bd8:	d5033f9f 	dsb	sy
   50bdc:	a8c17bfd 	ldp	x29, x30, [sp], #16
   50be0:	d65f03c0 	ret

0000000000050be4 <gicv3_cpuif_disable>:
   50be4:	a9be7bfd 	stp	x29, x30, [sp, #-32]!
   50be8:	910003fd 	mov	x29, sp
   50bec:	f9000bf3 	str	x19, [sp, #16]
   50bf0:	d53ecca1 	mrs	x1, icc_sre_el3
   50bf4:	b27f0421 	orr	x1, x1, #0x6
   50bf8:	d51ecca1 	msr	icc_sre_el3, x1
   50bfc:	d538ccc1 	mrs	x1, icc_igrpen0_el1
   50c00:	927f7821 	and	x1, x1, #0xfffffffe
   50c04:	d518ccc1 	msr	icc_igrpen0_el1, x1
   50c08:	d53ecce1 	mrs	x1, icc_igrpen1_el3
   50c0c:	927e7421 	and	x1, x1, #0xfffffffc
   50c10:	d51ecce1 	msr	icc_igrpen1_el3, x1
   50c14:	d5033fdf 	isb
   50c18:	d5033f9f 	dsb	sy
   50c1c:	d0000041 	adrp	x1, 5a000 <__STACKS_START__+0x1f00>
   50c20:	f945b421 	ldr	x1, [x1, #2920]
   50c24:	f9401021 	ldr	x1, [x1, #32]
   50c28:	f8605833 	ldr	x19, [x1, w0, uxtw #3]
   50c2c:	aa1303e0 	mov	x0, x19
   50c30:	97fffde8 	bl	503d0 <gicv3_apply_errata_wa_2384374>
   50c34:	aa1303e0 	mov	x0, x19
   50c38:	f9400bf3 	ldr	x19, [sp, #16]
   50c3c:	a8c27bfd 	ldp	x29, x30, [sp], #32
   50c40:	17fffe8a 	b	50668 <gicv3_rdistif_mark_core_asleep>

0000000000050c44 <gicv3_get_pending_interrupt_type>:
   50c44:	d538c840 	mrs	x0, icc_hppir0_el1
   50c48:	12005c00 	and	w0, w0, #0xffffff
   50c4c:	d65f03c0 	ret

0000000000050c50 <timer_init>:
   50c50:	d0000041 	adrp	x1, 5a000 <__STACKS_START__+0x1f00>
   50c54:	f905b820 	str	x0, [x1, #2928]
   50c58:	d65f03c0 	ret

0000000000050c5c <get_timer_value>:
   50c5c:	d53be020 	mrs	x0, cntpct_el0
   50c60:	2a2003e0 	mvn	w0, w0
   50c64:	d65f03c0 	ret

0000000000050c68 <generic_delay_timer_init_args>:
   50c68:	2a0003e4 	mov	w4, w0
   50c6c:	d0000043 	adrp	x3, 5a000 <__STACKS_START__+0x1f00>
   50c70:	912de060 	add	x0, x3, #0xb78
   50c74:	90000002 	adrp	x2, 50000 <platform_cpu_warmboot>
   50c78:	91317042 	add	x2, x2, #0xc5c
   50c7c:	f905bc62 	str	x2, [x3, #2936]
   50c80:	29010404 	stp	w4, w1, [x0, #8]
   50c84:	17fffff3 	b	50c50 <timer_init>

0000000000050c88 <generic_delay_timer_init>:
   50c88:	a9bf7bfd 	stp	x29, x30, [sp, #-16]!
   50c8c:	910003fd 	mov	x29, sp
   50c90:	94000ab0 	bl	53750 <plat_get_syscnt_freq2>
   50c94:	2a0003e1 	mov	w1, w0
   50c98:	52884800 	mov	w0, #0x4240                	// #16960
   50c9c:	528000c3 	mov	w3, #0x6                   	// #6
   50ca0:	72a001e0 	movk	w0, #0xf, lsl #16
   50ca4:	52800142 	mov	w2, #0xa                   	// #10
   50ca8:	1ac20824 	udiv	w4, w1, w2
   50cac:	1b028485 	msub	w5, w4, w2, w1
   50cb0:	350000a5 	cbnz	w5, 50cc4 <generic_delay_timer_init+0x3c>
   50cb4:	1ac20800 	udiv	w0, w0, w2
   50cb8:	2a0403e1 	mov	w1, w4
   50cbc:	71000463 	subs	w3, w3, #0x1
   50cc0:	54ffff41 	b.ne	50ca8 <generic_delay_timer_init+0x20>  // b.any
   50cc4:	a8c17bfd 	ldp	x29, x30, [sp], #16
   50cc8:	17ffffe8 	b	50c68 <generic_delay_timer_init_args>

0000000000050ccc <print_errata_status>:
   50ccc:	d65f03c0 	ret

0000000000050cd0 <cm_init>:
   50cd0:	d65f03c0 	ret

0000000000050cd4 <cm_setup_context>:
   50cd4:	a9bd7bfd 	stp	x29, x30, [sp, #-48]!
   50cd8:	910003fd 	mov	x29, sp
   50cdc:	a90153f3 	stp	x19, x20, [sp, #16]
   50ce0:	aa0003f3 	mov	x19, x0
   50ce4:	aa0103f4 	mov	x20, x1
   50ce8:	d2804801 	mov	x1, #0x240                 	// #576
   50cec:	f90013f5 	str	x21, [sp, #32]
   50cf0:	940013da 	bl	55c58 <zeromem>
   50cf4:	d53e1100 	mrs	x0, scr_el3
   50cf8:	9281a1e1 	mov	x1, #0xfffffffffffff2f0    	// #-3344
   50cfc:	f2f7ffe1 	movk	x1, #0xbfff, lsl #48
   50d00:	8a010000 	and	x0, x0, x1
   50d04:	b9401281 	ldr	w1, [x20, #16]
   50d08:	d3441022 	ubfx	x2, x1, #4, #1
   50d0c:	37200041 	tbnz	w1, #4, 50d14 <cm_setup_context+0x40>
   50d10:	b2760000 	orr	x0, x0, #0x400
   50d14:	b9400683 	ldr	w3, [x20, #4]
   50d18:	36100043 	tbz	w3, #2, 50d20 <cm_setup_context+0x4c>
   50d1c:	b2750000 	orr	x0, x0, #0x800
   50d20:	d53e1143 	mrs	x3, cptr_el3
   50d24:	f9009e63 	str	x3, [x19, #312]
   50d28:	35000302 	cbnz	w2, 50d88 <cm_setup_context+0xb4>
   50d2c:	d3420c22 	ubfx	x2, x1, #2, #2
   50d30:	7100085f 	cmp	w2, #0x2
   50d34:	54000041 	b.ne	50d3c <cm_setup_context+0x68>  // b.any
   50d38:	b2780000 	orr	x0, x0, #0x100
   50d3c:	f9008260 	str	x0, [x19, #256]
   50d40:	2a0103e1 	mov	w1, w1
   50d44:	f9400680 	ldr	x0, [x20, #8]
   50d48:	a9118261 	stp	x1, x0, [x19, #280]
   50d4c:	d2800802 	mov	x2, #0x40                  	// #64
   50d50:	91006281 	add	x1, x20, #0x18
   50d54:	aa1303e0 	mov	x0, x19
   50d58:	94001475 	bl	55f2c <memcpy>
   50d5c:	b9400680 	ldr	w0, [x20, #4]
   50d60:	52800421 	mov	w1, #0x21                  	// #33
   50d64:	6a010000 	ands	w0, w0, w1
   50d68:	54000160 	b.eq	50d94 <cm_setup_context+0xc0>  // b.none
   50d6c:	7100041f 	cmp	w0, #0x1
   50d70:	54000360 	b.eq	50ddc <cm_setup_context+0x108>  // b.none
   50d74:	d0000020 	adrp	x0, 56000 <unsigned_num_print.part.0+0x8>
   50d78:	9122c800 	add	x0, x0, #0x8b2
   50d7c:	94000e8f 	bl	547b8 <tf_log>
   50d80:	94000f07 	bl	5499c <console_flush>
   50d84:	9400137f 	bl	55b80 <el3_panic>
   50d88:	12000c22 	and	w2, w1, #0xf
   50d8c:	7100285f 	cmp	w2, #0xa
   50d90:	17ffffe9 	b	50d34 <cm_setup_context+0x60>
   50d94:	f9408274 	ldr	x20, [x19, #256]
   50d98:	52800000 	mov	w0, #0x0                   	// #0
   50d9c:	97fffd08 	bl	501bc <get_scr_el3_from_routing_model>
   50da0:	d5380421 	mrs	x1, id_aa64pfr1_el1
   50da4:	53082c21 	ubfx	w1, w1, #8, #4
   50da8:	aa000280 	orr	x0, x20, x0
   50dac:	7100043f 	cmp	w1, #0x1
   50db0:	54000041 	b.ne	50db8 <cm_setup_context+0xe4>  // b.any
   50db4:	b2660000 	orr	x0, x0, #0x4000000
   50db8:	f9008260 	str	x0, [x19, #256]
   50dbc:	d5380400 	mrs	x0, id_aa64pfr0_el1
   50dc0:	f2600c1f 	tst	x0, #0xf00000000
   50dc4:	54000420 	b.eq	50e48 <cm_setup_context+0x174>  // b.none
   50dc8:	aa1303e0 	mov	x0, x19
   50dcc:	a94153f3 	ldp	x19, x20, [sp, #16]
   50dd0:	f94013f5 	ldr	x21, [sp, #32]
   50dd4:	a8c37bfd 	ldp	x29, x30, [sp], #48
   50dd8:	140000b9 	b	510bc <sve_disable>
   50ddc:	f9408275 	ldr	x21, [x19, #256]
   50de0:	97fffcf7 	bl	501bc <get_scr_el3_from_routing_model>
   50de4:	b9401282 	ldr	w2, [x20, #16]
   50de8:	d2810001 	mov	x1, #0x800                 	// #2048
   50dec:	aa0002b5 	orr	x21, x21, x0
   50df0:	d2800020 	mov	x0, #0x1                   	// #1
   50df4:	f2a08060 	movk	x0, #0x403, lsl #16
   50df8:	aa0002b5 	orr	x21, x21, x0
   50dfc:	b9400680 	ldr	w0, [x20, #4]
   50e00:	d2810703 	mov	x3, #0x838                 	// #2104
   50e04:	f27c005f 	tst	x2, #0x10
   50e08:	f2a018a3 	movk	x3, #0xc5, lsl #16
   50e0c:	f2a61a01 	movk	x1, #0x30d0, lsl #16
   50e10:	f9008275 	str	x21, [x19, #256]
   50e14:	d3689c00 	lsl	x0, x0, #24
   50e18:	92670000 	and	x0, x0, #0x2000000
   50e1c:	aa010001 	orr	x1, x0, x1
   50e20:	aa030000 	orr	x0, x0, x3
   50e24:	9a811000 	csel	x0, x0, x1, ne  // ne = any
   50e28:	f900b260 	str	x0, [x19, #352]
   50e2c:	d5381020 	mrs	x0, actlr_el1
   50e30:	f94013f5 	ldr	x21, [sp, #32]
   50e34:	f900da60 	str	x0, [x19, #432]
   50e38:	aa1303e0 	mov	x0, x19
   50e3c:	a94153f3 	ldp	x19, x20, [sp, #16]
   50e40:	a8c37bfd 	ldp	x29, x30, [sp], #48
   50e44:	14000eeb 	b	549f0 <pmuv3_enable>
   50e48:	a94153f3 	ldp	x19, x20, [sp, #16]
   50e4c:	f94013f5 	ldr	x21, [sp, #32]
   50e50:	a8c37bfd 	ldp	x29, x30, [sp], #48
   50e54:	d65f03c0 	ret

0000000000050e58 <cm_manage_extensions_el3>:
   50e58:	14000ee7 	b	549f4 <pmuv3_disable_el3>

0000000000050e5c <cm_init_context_by_index>:
   50e5c:	a9be7bfd 	stp	x29, x30, [sp, #-32]!
   50e60:	910003fd 	mov	x29, sp
   50e64:	f9000bf3 	str	x19, [sp, #16]
   50e68:	aa0103f3 	mov	x19, x1
   50e6c:	52800421 	mov	w1, #0x21                  	// #33
   50e70:	b9400662 	ldr	w2, [x19, #4]
   50e74:	0a010041 	and	w1, w2, w1
   50e78:	97fffc79 	bl	5005c <cm_get_context_by_index>
   50e7c:	aa1303e1 	mov	x1, x19
   50e80:	f9400bf3 	ldr	x19, [sp, #16]
   50e84:	a8c27bfd 	ldp	x29, x30, [sp], #32
   50e88:	17ffff93 	b	50cd4 <cm_setup_context>

0000000000050e8c <cm_init_my_context>:
   50e8c:	a9be7bfd 	stp	x29, x30, [sp, #-32]!
   50e90:	910003fd 	mov	x29, sp
   50e94:	f9000bf3 	str	x19, [sp, #16]
   50e98:	aa0003f3 	mov	x19, x0
   50e9c:	52800420 	mov	w0, #0x21                  	// #33
   50ea0:	b9400661 	ldr	w1, [x19, #4]
   50ea4:	0a000020 	and	w0, w1, w0
   50ea8:	97fffc68 	bl	50048 <cm_get_context>
   50eac:	aa1303e1 	mov	x1, x19
   50eb0:	f9400bf3 	ldr	x19, [sp, #16]
   50eb4:	a8c27bfd 	ldp	x29, x30, [sp], #32
   50eb8:	17ffff87 	b	50cd4 <cm_setup_context>

0000000000050ebc <cm_el1_sysregs_context_restore>:
   50ebc:	a9be7bfd 	stp	x29, x30, [sp, #-32]!
   50ec0:	910003fd 	mov	x29, sp
   50ec4:	a90153f3 	stp	x19, x20, [sp, #16]
   50ec8:	2a0003f3 	mov	w19, w0
   50ecc:	97fffc5f 	bl	50048 <cm_get_context>
   50ed0:	91054000 	add	x0, x0, #0x150
   50ed4:	94001274 	bl	558a4 <el1_sysregs_context_restore>
   50ed8:	34000273 	cbz	w19, 50f24 <cm_el1_sysregs_context_restore+0x68>
   50edc:	d0000033 	adrp	x19, 56000 <unsigned_num_print.part.0+0x8>
   50ee0:	d0000034 	adrp	x20, 56000 <unsigned_num_print.part.0+0x8>
   50ee4:	91302273 	add	x19, x19, #0xc08
   50ee8:	91302294 	add	x20, x20, #0xc08
   50eec:	eb14027f 	cmp	x19, x20
   50ef0:	54000142 	b.cs	50f18 <cm_el1_sysregs_context_restore+0x5c>  // b.hs, b.nlast
   50ef4:	f8408661 	ldr	x1, [x19], #8
   50ef8:	d2800000 	mov	x0, #0x0                   	// #0
   50efc:	d63f0020 	blr	x1
   50f00:	17fffffb 	b	50eec <cm_el1_sysregs_context_restore+0x30>
   50f04:	f8408661 	ldr	x1, [x19], #8
   50f08:	d2800000 	mov	x0, #0x0                   	// #0
   50f0c:	d63f0020 	blr	x1
   50f10:	eb14027f 	cmp	x19, x20
   50f14:	54ffff83 	b.cc	50f04 <cm_el1_sysregs_context_restore+0x48>  // b.lo, b.ul, b.last
   50f18:	a94153f3 	ldp	x19, x20, [sp, #16]
   50f1c:	a8c27bfd 	ldp	x29, x30, [sp], #32
   50f20:	d65f03c0 	ret
   50f24:	d0000033 	adrp	x19, 56000 <unsigned_num_print.part.0+0x8>
   50f28:	d0000034 	adrp	x20, 56000 <unsigned_num_print.part.0+0x8>
   50f2c:	91300273 	add	x19, x19, #0xc00
   50f30:	91302294 	add	x20, x20, #0xc08
   50f34:	17fffff7 	b	50f10 <cm_el1_sysregs_context_restore+0x54>

0000000000050f38 <cm_set_next_eret_context>:
   50f38:	a9bf7bfd 	stp	x29, x30, [sp, #-16]!
   50f3c:	910003fd 	mov	x29, sp
   50f40:	97fffc42 	bl	50048 <cm_get_context>
   50f44:	d50041bf 	msr	spsel, #0x1
   50f48:	9100001f 	mov	sp, x0
   50f4c:	d50040bf 	msr	spsel, #0x0
   50f50:	a8c17bfd 	ldp	x29, x30, [sp], #16
   50f54:	d65f03c0 	ret

0000000000050f58 <cm_prepare_el3_exit>:
   50f58:	a9be7bfd 	stp	x29, x30, [sp, #-32]!
   50f5c:	910003fd 	mov	x29, sp
   50f60:	a90153f3 	stp	x19, x20, [sp, #16]
   50f64:	2a0003f3 	mov	w19, w0
   50f68:	97fffc38 	bl	50048 <cm_get_context>
   50f6c:	7100067f 	cmp	w19, #0x1
   50f70:	540005a1 	b.ne	51024 <cm_prepare_el3_exit+0xcc>  // b.any
   50f74:	f9408001 	ldr	x1, [x0, #256]
   50f78:	aa0003f4 	mov	x20, x0
   50f7c:	d5380402 	mrs	x2, id_aa64pfr0_el1
   50f80:	92780020 	and	x0, x1, #0x100
   50f84:	36400121 	tbz	w1, #8, 50fa8 <cm_prepare_el3_exit+0x50>
   50f88:	f940b280 	ldr	x0, [x20, #352]
   50f8c:	d2810601 	mov	x1, #0x830                 	// #2096
   50f90:	f2a618a1 	movk	x1, #0x30c5, lsl #16
   50f94:	92670000 	and	x0, x0, #0x2000000
   50f98:	aa010000 	orr	x0, x0, x1
   50f9c:	d51c1000 	msr	sctlr_el2, x0
   50fa0:	52800000 	mov	w0, #0x0                   	// #0
   50fa4:	14000017 	b	51000 <cm_prepare_el3_exit+0xa8>
   50fa8:	f2780c5f 	tst	x2, #0xf00
   50fac:	54ffffa0 	b.eq	50fa0 <cm_prepare_el3_exit+0x48>  // b.none
   50fb0:	f2760021 	ands	x1, x1, #0x400
   50fb4:	d2b00002 	mov	x2, #0x80000000            	// #2147483648
   50fb8:	9a820021 	csel	x1, x1, x2, eq  // eq = none
   50fbc:	b2580421 	orr	x1, x1, #0x30000000000
   50fc0:	d51c1101 	msr	hcr_el2, x1
   50fc4:	d2867fe1 	mov	x1, #0x33ff                	// #13311
   50fc8:	d51c1141 	msr	cptr_el2, x1
   50fcc:	d2800061 	mov	x1, #0x3                   	// #3
   50fd0:	d51ce101 	msr	cnthctl_el2, x1
   50fd4:	d51ce060 	msr	cntvoff_el2, x0
   50fd8:	d5380001 	mrs	x1, midr_el1
   50fdc:	d51c0001 	msr	vpidr_el2, x1
   50fe0:	d53800a1 	mrs	x1, mpidr_el1
   50fe4:	d51c00a1 	msr	vmpidr_el2, x1
   50fe8:	d51c2100 	msr	vttbr_el2, x0
   50fec:	d51c1120 	msr	mdcr_el2, x0
   50ff0:	d51c1160 	msr	hstr_el2, x0
   50ff4:	d51ce220 	msr	cnthp_ctl_el2, x0
   50ff8:	94000e8e 	bl	54a30 <pmuv3_init_el2_unused>
   50ffc:	2a1303e0 	mov	w0, w19
   51000:	d5380501 	mrs	x1, id_aa64dfr0_el1
   51004:	f2600c3f 	tst	x1, #0xf00000000
   51008:	54000040 	b.eq	51010 <cm_prepare_el3_exit+0xb8>  // b.none
   5100c:	94000017 	bl	51068 <spe_enable>
   51010:	d5380400 	mrs	x0, id_aa64pfr0_el1
   51014:	f2600c1f 	tst	x0, #0xf00000000
   51018:	54000060 	b.eq	51024 <cm_prepare_el3_exit+0xcc>  // b.none
   5101c:	aa1403e0 	mov	x0, x20
   51020:	9400001f 	bl	5109c <sve_enable>
   51024:	2a1303e0 	mov	w0, w19
   51028:	97ffffa5 	bl	50ebc <cm_el1_sysregs_context_restore>
   5102c:	2a1303e0 	mov	w0, w19
   51030:	a94153f3 	ldp	x19, x20, [sp, #16]
   51034:	a8c27bfd 	ldp	x29, x30, [sp], #32
   51038:	17ffffc0 	b	50f38 <cm_set_next_eret_context>

000000000005103c <cm_prepare_el3_exit_ns>:
   5103c:	52800020 	mov	w0, #0x1                   	// #1
   51040:	17ffffc6 	b	50f58 <cm_prepare_el3_exit>

0000000000051044 <spe_drain_buffers_hook>:
   51044:	d5380500 	mrs	x0, id_aa64dfr0_el1
   51048:	f2600c1f 	tst	x0, #0xf00000000
   5104c:	540000a0 	b.eq	51060 <spe_drain_buffers_hook+0x1c>  // b.none
   51050:	d503223f 	psb	csync
   51054:	d503379f 	dsb	nsh
   51058:	d2800000 	mov	x0, #0x0                   	// #0
   5105c:	d65f03c0 	ret
   51060:	92800000 	mov	x0, #0xffffffffffffffff    	// #-1
   51064:	17fffffe 	b	5105c <spe_drain_buffers_hook+0x18>

0000000000051068 <spe_enable>:
   51068:	72001c1f 	tst	w0, #0xff
   5106c:	540000c0 	b.eq	51084 <spe_enable+0x1c>  // b.none
   51070:	d53c1120 	mrs	x0, mdcr_el2
   51074:	92407c00 	and	x0, x0, #0xffffffff
   51078:	9271f800 	and	x0, x0, #0xffffffffffffbfff
   5107c:	b2740400 	orr	x0, x0, #0x3000
   51080:	d51c1120 	msr	mdcr_el2, x0
   51084:	d53e1320 	mrs	x0, mdcr_el3
   51088:	d2860001 	mov	x1, #0x3000                	// #12288
   5108c:	f2c00201 	movk	x1, #0x10, lsl #32
   51090:	aa010000 	orr	x0, x0, x1
   51094:	d51e1320 	msr	mdcr_el3, x0
   51098:	d65f03c0 	ret

000000000005109c <sve_enable>:
   5109c:	f9409c01 	ldr	x1, [x0, #312]
   510a0:	1280a002 	mov	w2, #0xfffffaff            	// #-1281
   510a4:	8a020021 	and	x1, x1, x2
   510a8:	b2780021 	orr	x1, x1, #0x100
   510ac:	f9009c01 	str	x1, [x0, #312]
   510b0:	d28001e1 	mov	x1, #0xf                   	// #15
   510b4:	f900a001 	str	x1, [x0, #320]
   510b8:	d65f03c0 	ret

00000000000510bc <sve_disable>:
   510bc:	f9409c01 	ldr	x1, [x0, #312]
   510c0:	92407c21 	and	x1, x1, #0xffffffff
   510c4:	9277f821 	and	x1, x1, #0xfffffffffffffeff
   510c8:	b2760021 	orr	x1, x1, #0x400
   510cc:	f9009c01 	str	x1, [x0, #312]
   510d0:	d65f03c0 	ret

00000000000510d4 <fdt32_ld>:
   510d4:	39400401 	ldrb	w1, [x0, #1]
   510d8:	39400002 	ldrb	w2, [x0]
   510dc:	aa012042 	orr	x2, x2, x1, lsl #8
   510e0:	39400801 	ldrb	w1, [x0, #2]
   510e4:	39400c00 	ldrb	w0, [x0, #3]
   510e8:	aa014041 	orr	x1, x2, x1, lsl #16
   510ec:	aa006020 	orr	x0, x1, x0, lsl #24
   510f0:	5ac00800 	rev	w0, w0
   510f4:	d65f03c0 	ret

00000000000510f8 <fdt_ro_probe_>:
   510f8:	a9bf7bfd 	stp	x29, x30, [sp, #-16]!
   510fc:	aa0003e4 	mov	x4, x0
   51100:	91001000 	add	x0, x0, #0x4
   51104:	910003fd 	mov	x29, sp
   51108:	97fffff3 	bl	510d4 <fdt32_ld>
   5110c:	f240089f 	tst	x4, #0x7
   51110:	540003e1 	b.ne	5118c <fdt_ro_probe_+0x94>  // b.any
   51114:	2a0003e3 	mov	w3, w0
   51118:	aa0403e0 	mov	x0, x4
   5111c:	97ffffee 	bl	510d4 <fdt32_ld>
   51120:	529fdda1 	mov	w1, #0xfeed                	// #65261
   51124:	72ba01a1 	movk	w1, #0xd00d, lsl #16
   51128:	6b01001f 	cmp	w0, w1
   5112c:	54000161 	b.ne	51158 <fdt_ro_probe_+0x60>  // b.any
   51130:	91005080 	add	x0, x4, #0x14
   51134:	97ffffe8 	bl	510d4 <fdt32_ld>
   51138:	7100041f 	cmp	w0, #0x1
   5113c:	540000a9 	b.ls	51150 <fdt_ro_probe_+0x58>  // b.plast
   51140:	91006080 	add	x0, x4, #0x18
   51144:	97ffffe4 	bl	510d4 <fdt32_ld>
   51148:	7100441f 	cmp	w0, #0x11
   5114c:	54000149 	b.ls	51174 <fdt_ro_probe_+0x7c>  // b.plast
   51150:	12800120 	mov	w0, #0xfffffff6            	// #-10
   51154:	1400000c 	b	51184 <fdt_ro_probe_+0x8c>
   51158:	52802241 	mov	w1, #0x112                 	// #274
   5115c:	72a5fe41 	movk	w1, #0x2ff2, lsl #16
   51160:	6b01001f 	cmp	w0, w1
   51164:	54000181 	b.ne	51194 <fdt_ro_probe_+0x9c>  // b.any
   51168:	91009080 	add	x0, x4, #0x24
   5116c:	97ffffda 	bl	510d4 <fdt32_ld>
   51170:	34000160 	cbz	w0, 5119c <fdt_ro_probe_+0xa4>
   51174:	321f77e0 	mov	w0, #0x7ffffffe            	// #2147483646
   51178:	6b00007f 	cmp	w3, w0
   5117c:	128000e0 	mov	w0, #0xfffffff8            	// #-8
   51180:	1a809060 	csel	w0, w3, w0, ls  // ls = plast
   51184:	a8c17bfd 	ldp	x29, x30, [sp], #16
   51188:	d65f03c0 	ret
   5118c:	12800240 	mov	w0, #0xffffffed            	// #-19
   51190:	17fffffd 	b	51184 <fdt_ro_probe_+0x8c>
   51194:	12800100 	mov	w0, #0xfffffff7            	// #-9
   51198:	17fffffb 	b	51184 <fdt_ro_probe_+0x8c>
   5119c:	128000c0 	mov	w0, #0xfffffff9            	// #-7
   511a0:	17fffff9 	b	51184 <fdt_ro_probe_+0x8c>

00000000000511a4 <fdt_offset_ptr>:
   511a4:	a9bf7bfd 	stp	x29, x30, [sp, #-16]!
   511a8:	93407c24 	sxtw	x4, w1
   511ac:	aa0003e3 	mov	x3, x0
   511b0:	910003fd 	mov	x29, sp
   511b4:	2a0203e6 	mov	w6, w2
   511b8:	91002000 	add	x0, x0, #0x8
   511bc:	97ffffc6 	bl	510d4 <fdt32_ld>
   511c0:	2a0003e5 	mov	w5, w0
   511c4:	2b040000 	adds	w0, w0, w4
   511c8:	1a9f37e1 	cset	w1, cs  // cs = hs, nlast
   511cc:	37f80104 	tbnz	w4, #31, 511ec <fdt_offset_ptr+0x48>
   511d0:	350000e1 	cbnz	w1, 511ec <fdt_offset_ptr+0x48>
   511d4:	2b060007 	adds	w7, w0, w6
   511d8:	540000a2 	b.cs	511ec <fdt_offset_ptr+0x48>  // b.hs, b.nlast
   511dc:	91001060 	add	x0, x3, #0x4
   511e0:	97ffffbd 	bl	510d4 <fdt32_ld>
   511e4:	6b0000ff 	cmp	w7, w0
   511e8:	54000069 	b.ls	511f4 <fdt_offset_ptr+0x50>  // b.plast
   511ec:	d2800000 	mov	x0, #0x0                   	// #0
   511f0:	1400000d 	b	51224 <fdt_offset_ptr+0x80>
   511f4:	91005060 	add	x0, x3, #0x14
   511f8:	97ffffb7 	bl	510d4 <fdt32_ld>
   511fc:	7100401f 	cmp	w0, #0x10
   51200:	540000e9 	b.ls	5121c <fdt_offset_ptr+0x78>  // b.plast
   51204:	2b060086 	adds	w6, w4, w6
   51208:	54ffff22 	b.cs	511ec <fdt_offset_ptr+0x48>  // b.hs, b.nlast
   5120c:	91009060 	add	x0, x3, #0x24
   51210:	97ffffb1 	bl	510d4 <fdt32_ld>
   51214:	6b0000df 	cmp	w6, w0
   51218:	54fffea8 	b.hi	511ec <fdt_offset_ptr+0x48>  // b.pmore
   5121c:	8b254080 	add	x0, x4, w5, uxtw
   51220:	8b000060 	add	x0, x3, x0
   51224:	a8c17bfd 	ldp	x29, x30, [sp], #16
   51228:	d65f03c0 	ret

000000000005122c <fdt_next_tag>:
   5122c:	a9bf7bfd 	stp	x29, x30, [sp, #-16]!
   51230:	aa0203ec 	mov	x12, x2
   51234:	128000e2 	mov	w2, #0xfffffff8            	// #-8
   51238:	910003fd 	mov	x29, sp
   5123c:	b9000182 	str	w2, [x12]
   51240:	aa0003eb 	mov	x11, x0
   51244:	2a0103ed 	mov	w13, w1
   51248:	52800082 	mov	w2, #0x4                   	// #4
   5124c:	97ffffd6 	bl	511a4 <fdt_offset_ptr>
   51250:	b5000060 	cbnz	x0, 5125c <fdt_next_tag+0x30>
   51254:	5280012a 	mov	w10, #0x9                   	// #9
   51258:	14000026 	b	512f0 <fdt_next_tag+0xc4>
   5125c:	b9400000 	ldr	w0, [x0]
   51260:	110011a9 	add	w9, w13, #0x4
   51264:	2a0903e8 	mov	w8, w9
   51268:	d3505c01 	ubfx	x1, x0, #16, #8
   5126c:	d3483c0a 	ubfx	x10, x0, #8, #8
   51270:	53185c21 	lsl	w1, w1, #8
   51274:	2a0a402a 	orr	w10, w1, w10, lsl #16
   51278:	53187c01 	lsr	w1, w0, #24
   5127c:	2a006020 	orr	w0, w1, w0, lsl #24
   51280:	2a00014a 	orr	w10, w10, w0
   51284:	12800140 	mov	w0, #0xfffffff5            	// #-11
   51288:	51000541 	sub	w1, w10, #0x1
   5128c:	b9000180 	str	w0, [x12]
   51290:	7100203f 	cmp	w1, #0x8
   51294:	54fffe08 	b.hi	51254 <fdt_next_tag+0x28>  // b.pmore
   51298:	b0000020 	adrp	x0, 56000 <unsigned_num_print.part.0+0x8>
   5129c:	911d0000 	add	x0, x0, #0x740
   512a0:	38614800 	ldrb	w0, [x0, w1, uxtw]
   512a4:	10000061 	adr	x1, 512b0 <fdt_next_tag+0x84>
   512a8:	8b208820 	add	x0, x1, w0, sxtb #2
   512ac:	d61f0000 	br	x0
   512b0:	2a0803e1 	mov	w1, w8
   512b4:	52800022 	mov	w2, #0x1                   	// #1
   512b8:	aa0b03e0 	mov	x0, x11
   512bc:	0b020108 	add	w8, w8, w2
   512c0:	97ffffb9 	bl	511a4 <fdt_offset_ptr>
   512c4:	b4fffc80 	cbz	x0, 51254 <fdt_next_tag+0x28>
   512c8:	39400000 	ldrb	w0, [x0]
   512cc:	35ffff20 	cbnz	w0, 512b0 <fdt_next_tag+0x84>
   512d0:	4b0d0102 	sub	w2, w8, w13
   512d4:	2a0d03e1 	mov	w1, w13
   512d8:	aa0b03e0 	mov	x0, x11
   512dc:	97ffffb2 	bl	511a4 <fdt_offset_ptr>
   512e0:	b4fffba0 	cbz	x0, 51254 <fdt_next_tag+0x28>
   512e4:	11000d08 	add	w8, w8, #0x3
   512e8:	121e7508 	and	w8, w8, #0xfffffffc
   512ec:	b9000188 	str	w8, [x12]
   512f0:	2a0a03e0 	mov	w0, w10
   512f4:	a8c17bfd 	ldp	x29, x30, [sp], #16
   512f8:	d65f03c0 	ret
   512fc:	2a0903e1 	mov	w1, w9
   51300:	aa0b03e0 	mov	x0, x11
   51304:	52800082 	mov	w2, #0x4                   	// #4
   51308:	97ffffa7 	bl	511a4 <fdt_offset_ptr>
   5130c:	b4fffa40 	cbz	x0, 51254 <fdt_next_tag+0x28>
   51310:	b9400000 	ldr	w0, [x0]
   51314:	d3505c01 	ubfx	x1, x0, #16, #8
   51318:	d3483c03 	ubfx	x3, x0, #8, #8
   5131c:	53185c21 	lsl	w1, w1, #8
   51320:	2a034023 	orr	w3, w1, w3, lsl #16
   51324:	53187c01 	lsr	w1, w0, #24
   51328:	2a006020 	orr	w0, w1, w0, lsl #24
   5132c:	2a000063 	orr	w3, w3, w0
   51330:	321f77e0 	mov	w0, #0x7ffffffe            	// #2147483646
   51334:	2b030129 	adds	w9, w9, w3
   51338:	7a403122 	ccmp	w9, w0, #0x2, cc  // cc = lo, ul, last
   5133c:	54fff8c8 	b.hi	51254 <fdt_next_tag+0x28>  // b.pmore
   51340:	11002128 	add	w8, w9, #0x8
   51344:	91005160 	add	x0, x11, #0x14
   51348:	97ffff63 	bl	510d4 <fdt32_ld>
   5134c:	71003c1f 	cmp	w0, #0xf
   51350:	54fffc08 	b.hi	512d0 <fdt_next_tag+0xa4>  // b.pmore
   51354:	71001c7f 	cmp	w3, #0x7
   51358:	54fffbc9 	b.ls	512d0 <fdt_next_tag+0xa4>  // b.plast
   5135c:	4b030103 	sub	w3, w8, w3
   51360:	f240087f 	tst	x3, #0x7
   51364:	54fffb60 	b.eq	512d0 <fdt_next_tag+0xa4>  // b.none
   51368:	11003128 	add	w8, w9, #0xc
   5136c:	17ffffd9 	b	512d0 <fdt_next_tag+0xa4>

0000000000051370 <fdt_check_node_offset_>:
   51370:	a9be7bfd 	stp	x29, x30, [sp, #-32]!
   51374:	910003fd 	mov	x29, sp
   51378:	b9001fe1 	str	w1, [sp, #28]
   5137c:	36f80081 	tbz	w1, #31, 5138c <fdt_check_node_offset_+0x1c>
   51380:	12800060 	mov	w0, #0xfffffffc            	// #-4
   51384:	a8c27bfd 	ldp	x29, x30, [sp], #32
   51388:	d65f03c0 	ret
   5138c:	2a0103e2 	mov	w2, w1
   51390:	f240045f 	tst	x2, #0x3
   51394:	54ffff61 	b.ne	51380 <fdt_check_node_offset_+0x10>  // b.any
   51398:	910073e2 	add	x2, sp, #0x1c
   5139c:	97ffffa4 	bl	5122c <fdt_next_tag>
   513a0:	7100041f 	cmp	w0, #0x1
   513a4:	54fffee1 	b.ne	51380 <fdt_check_node_offset_+0x10>  // b.any
   513a8:	b9401fe0 	ldr	w0, [sp, #28]
   513ac:	17fffff6 	b	51384 <fdt_check_node_offset_+0x14>

00000000000513b0 <fdt_check_prop_offset_>:
   513b0:	a9be7bfd 	stp	x29, x30, [sp, #-32]!
   513b4:	910003fd 	mov	x29, sp
   513b8:	b9001fe1 	str	w1, [sp, #28]
   513bc:	36f80081 	tbz	w1, #31, 513cc <fdt_check_prop_offset_+0x1c>
   513c0:	12800060 	mov	w0, #0xfffffffc            	// #-4
   513c4:	a8c27bfd 	ldp	x29, x30, [sp], #32
   513c8:	d65f03c0 	ret
   513cc:	2a0103e2 	mov	w2, w1
   513d0:	f240045f 	tst	x2, #0x3
   513d4:	54ffff61 	b.ne	513c0 <fdt_check_prop_offset_+0x10>  // b.any
   513d8:	910073e2 	add	x2, sp, #0x1c
   513dc:	97ffff94 	bl	5122c <fdt_next_tag>
   513e0:	71000c1f 	cmp	w0, #0x3
   513e4:	54fffee1 	b.ne	513c0 <fdt_check_prop_offset_+0x10>  // b.any
   513e8:	b9401fe0 	ldr	w0, [sp, #28]
   513ec:	17fffff6 	b	513c4 <fdt_check_prop_offset_+0x14>

00000000000513f0 <fdt_next_node>:
   513f0:	a9be7bfd 	stp	x29, x30, [sp, #-32]!
   513f4:	aa0003f2 	mov	x18, x0
   513f8:	aa0203ef 	mov	x15, x2
   513fc:	910003fd 	mov	x29, sp
   51400:	b9001fff 	str	wzr, [sp, #28]
   51404:	37f800a1 	tbnz	w1, #31, 51418 <fdt_next_node+0x28>
   51408:	97ffffda 	bl	51370 <fdt_check_node_offset_>
   5140c:	b9001fe0 	str	w0, [sp, #28]
   51410:	2a0003ee 	mov	w14, w0
   51414:	37f80200 	tbnz	w0, #31, 51454 <fdt_next_node+0x64>
   51418:	b9401fee 	ldr	w14, [sp, #28]
   5141c:	910073e2 	add	x2, sp, #0x1c
   51420:	aa1203e0 	mov	x0, x18
   51424:	2a0e03e1 	mov	w1, w14
   51428:	97ffff81 	bl	5122c <fdt_next_tag>
   5142c:	7100081f 	cmp	w0, #0x2
   51430:	54000180 	b.eq	51460 <fdt_next_node+0x70>  // b.none
   51434:	7100241f 	cmp	w0, #0x9
   51438:	54000220 	b.eq	5147c <fdt_next_node+0x8c>  // b.none
   5143c:	7100041f 	cmp	w0, #0x1
   51440:	54fffec1 	b.ne	51418 <fdt_next_node+0x28>  // b.any
   51444:	b400008f 	cbz	x15, 51454 <fdt_next_node+0x64>
   51448:	b94001e0 	ldr	w0, [x15]
   5144c:	11000400 	add	w0, w0, #0x1
   51450:	b90001e0 	str	w0, [x15]
   51454:	2a0e03e0 	mov	w0, w14
   51458:	a8c27bfd 	ldp	x29, x30, [sp], #32
   5145c:	d65f03c0 	ret
   51460:	b4fffdcf 	cbz	x15, 51418 <fdt_next_node+0x28>
   51464:	b94001e1 	ldr	w1, [x15]
   51468:	51000421 	sub	w1, w1, #0x1
   5146c:	b90001e1 	str	w1, [x15]
   51470:	36fffd41 	tbz	w1, #31, 51418 <fdt_next_node+0x28>
   51474:	b9401fee 	ldr	w14, [sp, #28]
   51478:	17fffff7 	b	51454 <fdt_next_node+0x64>
   5147c:	b9401fee 	ldr	w14, [sp, #28]
   51480:	36f800ce 	tbz	w14, #31, 51498 <fdt_next_node+0xa8>
   51484:	310021df 	cmn	w14, #0x8
   51488:	54fffe61 	b.ne	51454 <fdt_next_node+0x64>  // b.any
   5148c:	f10001ff 	cmp	x15, #0x0
   51490:	5a9f11ce 	csinv	w14, w14, wzr, ne  // ne = any
   51494:	17fffff0 	b	51454 <fdt_next_node+0x64>
   51498:	1280000e 	mov	w14, #0xffffffff            	// #-1
   5149c:	17ffffee 	b	51454 <fdt_next_node+0x64>

00000000000514a0 <fdt_move>:
   514a0:	37f80262 	tbnz	w2, #31, 514ec <fdt_move+0x4c>
   514a4:	a9bf7bfd 	stp	x29, x30, [sp, #-16]!
   514a8:	aa0003e5 	mov	x5, x0
   514ac:	aa0103e7 	mov	x7, x1
   514b0:	910003fd 	mov	x29, sp
   514b4:	2a0203e6 	mov	w6, w2
   514b8:	97ffff10 	bl	510f8 <fdt_ro_probe_>
   514bc:	37f80140 	tbnz	w0, #31, 514e4 <fdt_move+0x44>
   514c0:	910010a0 	add	x0, x5, #0x4
   514c4:	97ffff04 	bl	510d4 <fdt32_ld>
   514c8:	6b06001f 	cmp	w0, w6
   514cc:	54000148 	b.hi	514f4 <fdt_move+0x54>  // b.pmore
   514d0:	2a0003e2 	mov	w2, w0
   514d4:	aa0503e1 	mov	x1, x5
   514d8:	aa0703e0 	mov	x0, x7
   514dc:	9400129c 	bl	55f4c <memmove>
   514e0:	52800000 	mov	w0, #0x0                   	// #0
   514e4:	a8c17bfd 	ldp	x29, x30, [sp], #16
   514e8:	d65f03c0 	ret
   514ec:	12800040 	mov	w0, #0xfffffffd            	// #-3
   514f0:	d65f03c0 	ret
   514f4:	12800040 	mov	w0, #0xfffffffd            	// #-3
   514f8:	17fffffb 	b	514e4 <fdt_move+0x44>

00000000000514fc <fdt32_ld>:
   514fc:	39400401 	ldrb	w1, [x0, #1]
   51500:	39400002 	ldrb	w2, [x0]
   51504:	aa012042 	orr	x2, x2, x1, lsl #8
   51508:	39400801 	ldrb	w1, [x0, #2]
   5150c:	39400c00 	ldrb	w0, [x0, #3]
   51510:	aa014041 	orr	x1, x2, x1, lsl #16
   51514:	aa006020 	orr	x0, x1, x0, lsl #24
   51518:	5ac00800 	rev	w0, w0
   5151c:	d65f03c0 	ret

0000000000051520 <fdt_mem_rsv>:
   51520:	a9bf7bfd 	stp	x29, x30, [sp, #-16]!
   51524:	2a0103e5 	mov	w5, w1
   51528:	aa0003e3 	mov	x3, x0
   5152c:	910003fd 	mov	x29, sp
   51530:	91004000 	add	x0, x0, #0x10
   51534:	97fffff2 	bl	514fc <fdt32_ld>
   51538:	2a0003e4 	mov	w4, w0
   5153c:	531c6ca0 	lsl	w0, w5, #4
   51540:	2b000086 	adds	w6, w4, w0
   51544:	54000162 	b.cs	51570 <fdt_mem_rsv+0x50>  // b.hs, b.nlast
   51548:	91001060 	add	x0, x3, #0x4
   5154c:	97ffffec 	bl	514fc <fdt32_ld>
   51550:	2a0003e1 	mov	w1, w0
   51554:	8b25d080 	add	x0, x4, w5, sxtw #4
   51558:	d1004021 	sub	x1, x1, #0x10
   5155c:	8b000060 	add	x0, x3, x0
   51560:	eb26403f 	cmp	x1, w6, uxtw
   51564:	9a9f2000 	csel	x0, x0, xzr, cs  // cs = hs, nlast
   51568:	a8c17bfd 	ldp	x29, x30, [sp], #16
   5156c:	d65f03c0 	ret
   51570:	d2800000 	mov	x0, #0x0                   	// #0
   51574:	17fffffd 	b	51568 <fdt_mem_rsv+0x48>

0000000000051578 <nextprop_>:
   51578:	a9bd7bfd 	stp	x29, x30, [sp, #-48]!
   5157c:	910003fd 	mov	x29, sp
   51580:	a90153f3 	stp	x19, x20, [sp, #16]
   51584:	aa0003f4 	mov	x20, x0
   51588:	2a0103f3 	mov	w19, w1
   5158c:	9100b3e2 	add	x2, sp, #0x2c
   51590:	2a1303e1 	mov	w1, w19
   51594:	aa1403e0 	mov	x0, x20
   51598:	97ffff25 	bl	5122c <fdt_next_tag>
   5159c:	71000c1f 	cmp	w0, #0x3
   515a0:	540000e0 	b.eq	515bc <nextprop_+0x44>  // b.none
   515a4:	b9402ff3 	ldr	w19, [sp, #44]
   515a8:	7100241f 	cmp	w0, #0x9
   515ac:	54000101 	b.ne	515cc <nextprop_+0x54>  // b.any
   515b0:	7100027f 	cmp	w19, #0x0
   515b4:	12800141 	mov	w1, #0xfffffff5            	// #-11
   515b8:	1a81b273 	csel	w19, w19, w1, lt  // lt = tstop
   515bc:	2a1303e0 	mov	w0, w19
   515c0:	a94153f3 	ldp	x19, x20, [sp, #16]
   515c4:	a8c37bfd 	ldp	x29, x30, [sp], #48
   515c8:	d65f03c0 	ret
   515cc:	7100101f 	cmp	w0, #0x4
   515d0:	54fffde0 	b.eq	5158c <nextprop_+0x14>  // b.none
   515d4:	12800013 	mov	w19, #0xffffffff            	// #-1
   515d8:	17fffff9 	b	515bc <nextprop_+0x44>

00000000000515dc <fdt64_ld_.isra.0>:
   515dc:	dac00c00 	rev	x0, x0
   515e0:	d65f03c0 	ret

00000000000515e4 <fdt32_ld_.isra.0>:
   515e4:	5ac00800 	rev	w0, w0
   515e8:	d65f03c0 	ret

00000000000515ec <fdt_get_property_by_offset_>:
   515ec:	a9bd7bfd 	stp	x29, x30, [sp, #-48]!
   515f0:	910003fd 	mov	x29, sp
   515f4:	a90153f3 	stp	x19, x20, [sp, #16]
   515f8:	aa0003f3 	mov	x19, x0
   515fc:	aa0203f4 	mov	x20, x2
   51600:	f90013f5 	str	x21, [sp, #32]
   51604:	93407c35 	sxtw	x21, w1
   51608:	97ffff6a 	bl	513b0 <fdt_check_prop_offset_>
   5160c:	36f800a0 	tbz	w0, #31, 51620 <fdt_get_property_by_offset_+0x34>
   51610:	b4000054 	cbz	x20, 51618 <fdt_get_property_by_offset_+0x2c>
   51614:	b9000280 	str	w0, [x20]
   51618:	d2800013 	mov	x19, #0x0                   	// #0
   5161c:	14000009 	b	51640 <fdt_get_property_by_offset_+0x54>
   51620:	91002260 	add	x0, x19, #0x8
   51624:	97ffffb6 	bl	514fc <fdt32_ld>
   51628:	8b2042b5 	add	x21, x21, w0, uxtw
   5162c:	8b150273 	add	x19, x19, x21
   51630:	b4000094 	cbz	x20, 51640 <fdt_get_property_by_offset_+0x54>
   51634:	b9400660 	ldr	w0, [x19, #4]
   51638:	97ffffeb 	bl	515e4 <fdt32_ld_.isra.0>
   5163c:	b9000280 	str	w0, [x20]
   51640:	aa1303e0 	mov	x0, x19
   51644:	a94153f3 	ldp	x19, x20, [sp, #16]
   51648:	f94013f5 	ldr	x21, [sp, #32]
   5164c:	a8c37bfd 	ldp	x29, x30, [sp], #48
   51650:	d65f03c0 	ret

0000000000051654 <fdt_get_string>:
   51654:	a9bd7bfd 	stp	x29, x30, [sp, #-48]!
   51658:	910003fd 	mov	x29, sp
   5165c:	a90153f3 	stp	x19, x20, [sp, #16]
   51660:	2a0103f4 	mov	w20, w1
   51664:	a9025bf5 	stp	x21, x22, [sp, #32]
   51668:	aa0003f5 	mov	x21, x0
   5166c:	aa0203f6 	mov	x22, x2
   51670:	97fffea2 	bl	510f8 <fdt_ro_probe_>
   51674:	2a0003e3 	mov	w3, w0
   51678:	37f806c0 	tbnz	w0, #31, 51750 <fdt_get_string+0xfc>
   5167c:	910032a0 	add	x0, x21, #0xc
   51680:	97ffff9f 	bl	514fc <fdt32_ld>
   51684:	0b140013 	add	w19, w0, w20
   51688:	6b13007f 	cmp	w3, w19
   5168c:	540005c9 	b.ls	51744 <fdt_get_string+0xf0>  // b.plast
   51690:	aa1503e0 	mov	x0, x21
   51694:	97ffff9a 	bl	514fc <fdt32_ld>
   51698:	529fdda1 	mov	w1, #0xfeed                	// #65261
   5169c:	4b130064 	sub	w4, w3, w19
   516a0:	72ba01a1 	movk	w1, #0xd00d, lsl #16
   516a4:	4b130063 	sub	w3, w3, w19
   516a8:	6b01001f 	cmp	w0, w1
   516ac:	54000381 	b.ne	5171c <fdt_get_string+0xc8>  // b.any
   516b0:	37f804b4 	tbnz	w20, #31, 51744 <fdt_get_string+0xf0>
   516b4:	910052a0 	add	x0, x21, #0x14
   516b8:	97ffff91 	bl	514fc <fdt32_ld>
   516bc:	7100401f 	cmp	w0, #0x10
   516c0:	54000129 	b.ls	516e4 <fdt_get_string+0x90>  // b.plast
   516c4:	910082a0 	add	x0, x21, #0x20
   516c8:	97ffff8d 	bl	514fc <fdt32_ld>
   516cc:	6b00029f 	cmp	w20, w0
   516d0:	540003a2 	b.cs	51744 <fdt_get_string+0xf0>  // b.hs, b.nlast
   516d4:	4b140014 	sub	w20, w0, w20
   516d8:	6b14009f 	cmp	w4, w20
   516dc:	54000049 	b.ls	516e4 <fdt_get_string+0x90>  // b.plast
   516e0:	2a1403e3 	mov	w3, w20
   516e4:	8b3342b3 	add	x19, x21, w19, uxtw
   516e8:	aa0303e2 	mov	x2, x3
   516ec:	aa1303e0 	mov	x0, x19
   516f0:	52800001 	mov	w1, #0x0                   	// #0
   516f4:	940011f6 	bl	55ecc <memchr>
   516f8:	b4000340 	cbz	x0, 51760 <fdt_get_string+0x10c>
   516fc:	b4000076 	cbz	x22, 51708 <fdt_get_string+0xb4>
   51700:	cb130000 	sub	x0, x0, x19
   51704:	b90002c0 	str	w0, [x22]
   51708:	aa1303e0 	mov	x0, x19
   5170c:	a94153f3 	ldp	x19, x20, [sp, #16]
   51710:	a9425bf5 	ldp	x21, x22, [sp, #32]
   51714:	a8c37bfd 	ldp	x29, x30, [sp], #48
   51718:	d65f03c0 	ret
   5171c:	52802241 	mov	w1, #0x112                 	// #274
   51720:	72a5fe41 	movk	w1, #0x2ff2, lsl #16
   51724:	6b01001f 	cmp	w0, w1
   51728:	54000121 	b.ne	5174c <fdt_get_string+0xf8>  // b.any
   5172c:	36f800d4 	tbz	w20, #31, 51744 <fdt_get_string+0xf0>
   51730:	4b1403f4 	neg	w20, w20
   51734:	910082a0 	add	x0, x21, #0x20
   51738:	97ffff71 	bl	514fc <fdt32_ld>
   5173c:	6b14001f 	cmp	w0, w20
   51740:	54fffcc2 	b.cs	516d8 <fdt_get_string+0x84>  // b.hs, b.nlast
   51744:	12800063 	mov	w3, #0xfffffffc            	// #-4
   51748:	14000002 	b	51750 <fdt_get_string+0xfc>
   5174c:	12800183 	mov	w3, #0xfffffff3            	// #-13
   51750:	b4000056 	cbz	x22, 51758 <fdt_get_string+0x104>
   51754:	b90002c3 	str	w3, [x22]
   51758:	d2800013 	mov	x19, #0x0                   	// #0
   5175c:	17ffffeb 	b	51708 <fdt_get_string+0xb4>
   51760:	128000e3 	mov	w3, #0xfffffff8            	// #-8
   51764:	17fffffb 	b	51750 <fdt_get_string+0xfc>

0000000000051768 <fdt_num_mem_rsv>:
   51768:	aa0003e8 	mov	x8, x0
   5176c:	a9bf7bfd 	stp	x29, x30, [sp, #-16]!
   51770:	52800007 	mov	w7, #0x0                   	// #0
   51774:	910003fd 	mov	x29, sp
   51778:	2a0703e1 	mov	w1, w7
   5177c:	aa0803e0 	mov	x0, x8
   51780:	97ffff68 	bl	51520 <fdt_mem_rsv>
   51784:	b50000a0 	cbnz	x0, 51798 <fdt_num_mem_rsv+0x30>
   51788:	128000e7 	mov	w7, #0xfffffff8            	// #-8
   5178c:	2a0703e0 	mov	w0, w7
   51790:	a8c17bfd 	ldp	x29, x30, [sp], #16
   51794:	d65f03c0 	ret
   51798:	f9400400 	ldr	x0, [x0, #8]
   5179c:	97ffff90 	bl	515dc <fdt64_ld_.isra.0>
   517a0:	b4ffff60 	cbz	x0, 5178c <fdt_num_mem_rsv+0x24>
   517a4:	110004e7 	add	w7, w7, #0x1
   517a8:	17fffff4 	b	51778 <fdt_num_mem_rsv+0x10>

00000000000517ac <fdt_get_name>:
   517ac:	a9bd7bfd 	stp	x29, x30, [sp, #-48]!
   517b0:	910003fd 	mov	x29, sp
   517b4:	a90153f3 	stp	x19, x20, [sp, #16]
   517b8:	aa0203f4 	mov	x20, x2
   517bc:	a9025bf5 	stp	x21, x22, [sp, #32]
   517c0:	aa0003f5 	mov	x21, x0
   517c4:	93407c36 	sxtw	x22, w1
   517c8:	91002000 	add	x0, x0, #0x8
   517cc:	97ffff4c 	bl	514fc <fdt32_ld>
   517d0:	2a0003f3 	mov	w19, w0
   517d4:	aa1503e0 	mov	x0, x21
   517d8:	97fffe48 	bl	510f8 <fdt_ro_probe_>
   517dc:	37f80360 	tbnz	w0, #31, 51848 <fdt_get_name+0x9c>
   517e0:	2a1603e1 	mov	w1, w22
   517e4:	aa1503e0 	mov	x0, x21
   517e8:	97fffee2 	bl	51370 <fdt_check_node_offset_>
   517ec:	37f802e0 	tbnz	w0, #31, 51848 <fdt_get_name+0x9c>
   517f0:	8b3342d3 	add	x19, x22, w19, uxtw
   517f4:	910052a0 	add	x0, x21, #0x14
   517f8:	8b1302b3 	add	x19, x21, x19
   517fc:	91001273 	add	x19, x19, #0x4
   51800:	97ffff3f 	bl	514fc <fdt32_ld>
   51804:	71003c1f 	cmp	w0, #0xf
   51808:	540000c8 	b.hi	51820 <fdt_get_name+0x74>  // b.pmore
   5180c:	aa1303e0 	mov	x0, x19
   51810:	528005e1 	mov	w1, #0x2f                  	// #47
   51814:	9400135c 	bl	56584 <strrchr>
   51818:	b4000160 	cbz	x0, 51844 <fdt_get_name+0x98>
   5181c:	91000413 	add	x19, x0, #0x1
   51820:	b4000094 	cbz	x20, 51830 <fdt_get_name+0x84>
   51824:	aa1303e0 	mov	x0, x19
   51828:	94001342 	bl	56530 <strlen>
   5182c:	b9000280 	str	w0, [x20]
   51830:	aa1303e0 	mov	x0, x19
   51834:	a94153f3 	ldp	x19, x20, [sp, #16]
   51838:	a9425bf5 	ldp	x21, x22, [sp, #32]
   5183c:	a8c37bfd 	ldp	x29, x30, [sp], #48
   51840:	d65f03c0 	ret
   51844:	12800140 	mov	w0, #0xfffffff5            	// #-11
   51848:	b4000054 	cbz	x20, 51850 <fdt_get_name+0xa4>
   5184c:	b9000280 	str	w0, [x20]
   51850:	d2800013 	mov	x19, #0x0                   	// #0
   51854:	17fffff7 	b	51830 <fdt_get_name+0x84>

0000000000051858 <fdt_subnode_offset_namelen>:
   51858:	a9bb7bfd 	stp	x29, x30, [sp, #-80]!
   5185c:	910003fd 	mov	x29, sp
   51860:	a90153f3 	stp	x19, x20, [sp, #16]
   51864:	2a0103f4 	mov	w20, w1
   51868:	a9025bf5 	stp	x21, x22, [sp, #32]
   5186c:	aa0003f5 	mov	x21, x0
   51870:	aa0203f6 	mov	x22, x2
   51874:	a90363f7 	stp	x23, x24, [sp, #48]
   51878:	2a0303f7 	mov	w23, w3
   5187c:	97fffe1f 	bl	510f8 <fdt_ro_probe_>
   51880:	2a0003f3 	mov	w19, w0
   51884:	37f80140 	tbnz	w0, #31, 518ac <fdt_subnode_offset_namelen+0x54>
   51888:	2a1403f3 	mov	w19, w20
   5188c:	93407ef8 	sxtw	x24, w23
   51890:	b9004bff 	str	wzr, [sp, #72]
   51894:	b9404be0 	ldr	w0, [sp, #72]
   51898:	7100027f 	cmp	w19, #0x0
   5189c:	7a40a801 	ccmp	w0, #0x0, #0x1, ge  // ge = tcont
   518a0:	5400012a 	b.ge	518c4 <fdt_subnode_offset_namelen+0x6c>  // b.tcont
   518a4:	7100001f 	cmp	w0, #0x0
   518a8:	5a9fa273 	csinv	w19, w19, wzr, ge  // ge = tcont
   518ac:	2a1303e0 	mov	w0, w19
   518b0:	a94153f3 	ldp	x19, x20, [sp, #16]
   518b4:	a9425bf5 	ldp	x21, x22, [sp, #32]
   518b8:	a94363f7 	ldp	x23, x24, [sp, #48]
   518bc:	a8c57bfd 	ldp	x29, x30, [sp], #80
   518c0:	d65f03c0 	ret
   518c4:	7100041f 	cmp	w0, #0x1
   518c8:	54000301 	b.ne	51928 <fdt_subnode_offset_namelen+0xd0>  // b.any
   518cc:	910133e2 	add	x2, sp, #0x4c
   518d0:	2a1303e1 	mov	w1, w19
   518d4:	aa1503e0 	mov	x0, x21
   518d8:	97ffffb5 	bl	517ac <fdt_get_name>
   518dc:	aa0003f4 	mov	x20, x0
   518e0:	b4000240 	cbz	x0, 51928 <fdt_subnode_offset_namelen+0xd0>
   518e4:	b9404fe1 	ldr	w1, [sp, #76]
   518e8:	6b0102ff 	cmp	w23, w1
   518ec:	540001ec 	b.gt	51928 <fdt_subnode_offset_namelen+0xd0>
   518f0:	aa1803e2 	mov	x2, x24
   518f4:	aa1603e1 	mov	x1, x22
   518f8:	94001180 	bl	55ef8 <memcmp>
   518fc:	35000160 	cbnz	w0, 51928 <fdt_subnode_offset_namelen+0xd0>
   51900:	38786a80 	ldrb	w0, [x20, x24]
   51904:	34fffd40 	cbz	w0, 518ac <fdt_subnode_offset_namelen+0x54>
   51908:	aa1803e2 	mov	x2, x24
   5190c:	aa1603e0 	mov	x0, x22
   51910:	52800801 	mov	w1, #0x40                  	// #64
   51914:	9400116e 	bl	55ecc <memchr>
   51918:	b5000080 	cbnz	x0, 51928 <fdt_subnode_offset_namelen+0xd0>
   5191c:	38786a80 	ldrb	w0, [x20, x24]
   51920:	7101001f 	cmp	w0, #0x40
   51924:	54fffc40 	b.eq	518ac <fdt_subnode_offset_namelen+0x54>  // b.none
   51928:	2a1303e1 	mov	w1, w19
   5192c:	910123e2 	add	x2, sp, #0x48
   51930:	aa1503e0 	mov	x0, x21
   51934:	97fffeaf 	bl	513f0 <fdt_next_node>
   51938:	2a0003f3 	mov	w19, w0
   5193c:	17ffffd6 	b	51894 <fdt_subnode_offset_namelen+0x3c>

0000000000051940 <fdt_first_property_offset>:
   51940:	a9be7bfd 	stp	x29, x30, [sp, #-32]!
   51944:	910003fd 	mov	x29, sp
   51948:	f9000bf3 	str	x19, [sp, #16]
   5194c:	aa0003f3 	mov	x19, x0
   51950:	97fffe88 	bl	51370 <fdt_check_node_offset_>
   51954:	37f800c0 	tbnz	w0, #31, 5196c <fdt_first_property_offset+0x2c>
   51958:	2a0003e1 	mov	w1, w0
   5195c:	aa1303e0 	mov	x0, x19
   51960:	f9400bf3 	ldr	x19, [sp, #16]
   51964:	a8c27bfd 	ldp	x29, x30, [sp], #32
   51968:	17ffff04 	b	51578 <nextprop_>
   5196c:	f9400bf3 	ldr	x19, [sp, #16]
   51970:	a8c27bfd 	ldp	x29, x30, [sp], #32
   51974:	d65f03c0 	ret

0000000000051978 <fdt_next_property_offset>:
   51978:	a9be7bfd 	stp	x29, x30, [sp, #-32]!
   5197c:	910003fd 	mov	x29, sp
   51980:	f9000bf3 	str	x19, [sp, #16]
   51984:	aa0003f3 	mov	x19, x0
   51988:	97fffe8a 	bl	513b0 <fdt_check_prop_offset_>
   5198c:	37f800c0 	tbnz	w0, #31, 519a4 <fdt_next_property_offset+0x2c>
   51990:	2a0003e1 	mov	w1, w0
   51994:	aa1303e0 	mov	x0, x19
   51998:	f9400bf3 	ldr	x19, [sp, #16]
   5199c:	a8c27bfd 	ldp	x29, x30, [sp], #32
   519a0:	17fffef6 	b	51578 <nextprop_>
   519a4:	f9400bf3 	ldr	x19, [sp, #16]
   519a8:	a8c27bfd 	ldp	x29, x30, [sp], #32
   519ac:	d65f03c0 	ret

00000000000519b0 <fdt_get_property_namelen_>:
   519b0:	a9ba7bfd 	stp	x29, x30, [sp, #-96]!
   519b4:	910003fd 	mov	x29, sp
   519b8:	a9046bf9 	stp	x25, x26, [sp, #64]
   519bc:	93407c7a 	sxtw	x26, w3
   519c0:	aa0203f9 	mov	x25, x2
   519c4:	a90153f3 	stp	x19, x20, [sp, #16]
   519c8:	a9025bf5 	stp	x21, x22, [sp, #32]
   519cc:	aa0003f6 	mov	x22, x0
   519d0:	aa0403f5 	mov	x21, x4
   519d4:	a90363f7 	stp	x23, x24, [sp, #48]
   519d8:	aa1a03f7 	mov	x23, x26
   519dc:	aa0503f8 	mov	x24, x5
   519e0:	97ffffd8 	bl	51940 <fdt_first_property_offset>
   519e4:	2a0003f3 	mov	w19, w0
   519e8:	36f800a0 	tbz	w0, #31, 519fc <fdt_get_property_namelen_+0x4c>
   519ec:	b4000055 	cbz	x21, 519f4 <fdt_get_property_namelen_+0x44>
   519f0:	b90002b3 	str	w19, [x21]
   519f4:	d2800014 	mov	x20, #0x0                   	// #0
   519f8:	1400001b 	b	51a64 <fdt_get_property_namelen_+0xb4>
   519fc:	aa1503e2 	mov	x2, x21
   51a00:	2a1303e1 	mov	w1, w19
   51a04:	aa1603e0 	mov	x0, x22
   51a08:	97fffef9 	bl	515ec <fdt_get_property_by_offset_>
   51a0c:	aa0003f4 	mov	x20, x0
   51a10:	b4000380 	cbz	x0, 51a80 <fdt_get_property_namelen_+0xd0>
   51a14:	b9400800 	ldr	w0, [x0, #8]
   51a18:	910173e2 	add	x2, sp, #0x5c
   51a1c:	97fffef2 	bl	515e4 <fdt32_ld_.isra.0>
   51a20:	2a0003e1 	mov	w1, w0
   51a24:	aa1603e0 	mov	x0, x22
   51a28:	97ffff0b 	bl	51654 <fdt_get_string>
   51a2c:	b50000a0 	cbnz	x0, 51a40 <fdt_get_property_namelen_+0x90>
   51a30:	2a1303e1 	mov	w1, w19
   51a34:	aa1603e0 	mov	x0, x22
   51a38:	97ffffd0 	bl	51978 <fdt_next_property_offset>
   51a3c:	17ffffea 	b	519e4 <fdt_get_property_namelen_+0x34>
   51a40:	b9405fe1 	ldr	w1, [sp, #92]
   51a44:	6b0102ff 	cmp	w23, w1
   51a48:	54ffff41 	b.ne	51a30 <fdt_get_property_namelen_+0x80>  // b.any
   51a4c:	aa1a03e2 	mov	x2, x26
   51a50:	aa1903e1 	mov	x1, x25
   51a54:	94001129 	bl	55ef8 <memcmp>
   51a58:	35fffec0 	cbnz	w0, 51a30 <fdt_get_property_namelen_+0x80>
   51a5c:	b4000058 	cbz	x24, 51a64 <fdt_get_property_namelen_+0xb4>
   51a60:	b9000313 	str	w19, [x24]
   51a64:	aa1403e0 	mov	x0, x20
   51a68:	a94153f3 	ldp	x19, x20, [sp, #16]
   51a6c:	a9425bf5 	ldp	x21, x22, [sp, #32]
   51a70:	a94363f7 	ldp	x23, x24, [sp, #48]
   51a74:	a9446bf9 	ldp	x25, x26, [sp, #64]
   51a78:	a8c67bfd 	ldp	x29, x30, [sp], #96
   51a7c:	d65f03c0 	ret
   51a80:	12800193 	mov	w19, #0xfffffff3            	// #-13
   51a84:	17ffffda 	b	519ec <fdt_get_property_namelen_+0x3c>

0000000000051a88 <fdt_getprop_namelen>:
   51a88:	a9bd7bfd 	stp	x29, x30, [sp, #-48]!
   51a8c:	910003fd 	mov	x29, sp
   51a90:	9100b3e5 	add	x5, sp, #0x2c
   51a94:	f9000bf3 	str	x19, [sp, #16]
   51a98:	aa0003f3 	mov	x19, x0
   51a9c:	97ffffc5 	bl	519b0 <fdt_get_property_namelen_>
   51aa0:	aa0003e3 	mov	x3, x0
   51aa4:	b40001c0 	cbz	x0, 51adc <fdt_getprop_namelen+0x54>
   51aa8:	91005260 	add	x0, x19, #0x14
   51aac:	97fffe94 	bl	514fc <fdt32_ld>
   51ab0:	71003c1f 	cmp	w0, #0xf
   51ab4:	540001c8 	b.hi	51aec <fdt_getprop_namelen+0x64>  // b.pmore
   51ab8:	b9802fe0 	ldrsw	x0, [sp, #44]
   51abc:	91003000 	add	x0, x0, #0xc
   51ac0:	f240081f 	tst	x0, #0x7
   51ac4:	54000140 	b.eq	51aec <fdt_getprop_namelen+0x64>  // b.none
   51ac8:	b9400460 	ldr	w0, [x3, #4]
   51acc:	97fffec6 	bl	515e4 <fdt32_ld_.isra.0>
   51ad0:	71001c1f 	cmp	w0, #0x7
   51ad4:	540000c9 	b.ls	51aec <fdt_getprop_namelen+0x64>  // b.plast
   51ad8:	91004063 	add	x3, x3, #0x10
   51adc:	aa0303e0 	mov	x0, x3
   51ae0:	f9400bf3 	ldr	x19, [sp, #16]
   51ae4:	a8c37bfd 	ldp	x29, x30, [sp], #48
   51ae8:	d65f03c0 	ret
   51aec:	91003063 	add	x3, x3, #0xc
   51af0:	17fffffb 	b	51adc <fdt_getprop_namelen+0x54>

0000000000051af4 <fdt_getprop>:
   51af4:	a9bd7bfd 	stp	x29, x30, [sp, #-48]!
   51af8:	910003fd 	mov	x29, sp
   51afc:	a90153f3 	stp	x19, x20, [sp, #16]
   51b00:	aa0003f4 	mov	x20, x0
   51b04:	aa0203f3 	mov	x19, x2
   51b08:	aa0203e0 	mov	x0, x2
   51b0c:	a9025bf5 	stp	x21, x22, [sp, #32]
   51b10:	aa0303f6 	mov	x22, x3
   51b14:	2a0103f5 	mov	w21, w1
   51b18:	94001286 	bl	56530 <strlen>
   51b1c:	aa1603e4 	mov	x4, x22
   51b20:	2a0003e3 	mov	w3, w0
   51b24:	aa1303e2 	mov	x2, x19
   51b28:	2a1503e1 	mov	w1, w21
   51b2c:	aa1403e0 	mov	x0, x20
   51b30:	a94153f3 	ldp	x19, x20, [sp, #16]
   51b34:	a9425bf5 	ldp	x21, x22, [sp, #32]
   51b38:	a8c37bfd 	ldp	x29, x30, [sp], #48
   51b3c:	17ffffd3 	b	51a88 <fdt_getprop_namelen>

0000000000051b40 <fdt_get_alias_namelen>:
   51b40:	a9bd7bfd 	stp	x29, x30, [sp, #-48]!
   51b44:	910003fd 	mov	x29, sp
   51b48:	a90153f3 	stp	x19, x20, [sp, #16]
   51b4c:	aa0103f4 	mov	x20, x1
   51b50:	aa0003f3 	mov	x19, x0
   51b54:	b0000021 	adrp	x1, 56000 <unsigned_num_print.part.0+0x8>
   51b58:	91232c21 	add	x1, x1, #0x8cb
   51b5c:	f90013f5 	str	x21, [sp, #32]
   51b60:	2a0203f5 	mov	w21, w2
   51b64:	94000050 	bl	51ca4 <fdt_path_offset>
   51b68:	37f80140 	tbnz	w0, #31, 51b90 <fdt_get_alias_namelen+0x50>
   51b6c:	2a0003e1 	mov	w1, w0
   51b70:	2a1503e3 	mov	w3, w21
   51b74:	aa1403e2 	mov	x2, x20
   51b78:	aa1303e0 	mov	x0, x19
   51b7c:	a94153f3 	ldp	x19, x20, [sp, #16]
   51b80:	d2800004 	mov	x4, #0x0                   	// #0
   51b84:	f94013f5 	ldr	x21, [sp, #32]
   51b88:	a8c37bfd 	ldp	x29, x30, [sp], #48
   51b8c:	17ffffbf 	b	51a88 <fdt_getprop_namelen>
   51b90:	d2800000 	mov	x0, #0x0                   	// #0
   51b94:	a94153f3 	ldp	x19, x20, [sp, #16]
   51b98:	f94013f5 	ldr	x21, [sp, #32]
   51b9c:	a8c37bfd 	ldp	x29, x30, [sp], #48
   51ba0:	d65f03c0 	ret

0000000000051ba4 <fdt_path_offset_namelen>:
   51ba4:	a9bc7bfd 	stp	x29, x30, [sp, #-64]!
   51ba8:	910003fd 	mov	x29, sp
   51bac:	a90153f3 	stp	x19, x20, [sp, #16]
   51bb0:	aa0103f3 	mov	x19, x1
   51bb4:	a9025bf5 	stp	x21, x22, [sp, #32]
   51bb8:	2a0203f5 	mov	w21, w2
   51bbc:	f9001bf7 	str	x23, [sp, #48]
   51bc0:	aa0003f7 	mov	x23, x0
   51bc4:	97fffd4d 	bl	510f8 <fdt_ro_probe_>
   51bc8:	2a0003f4 	mov	w20, w0
   51bcc:	37f80580 	tbnz	w0, #31, 51c7c <fdt_path_offset_namelen+0xd8>
   51bd0:	39400260 	ldrb	w0, [x19]
   51bd4:	93407ea2 	sxtw	x2, w21
   51bd8:	8b35c275 	add	x21, x19, w21, sxtw
   51bdc:	7100bc1f 	cmp	w0, #0x2f
   51be0:	540005a0 	b.eq	51c94 <fdt_path_offset_namelen+0xf0>  // b.none
   51be4:	528005e1 	mov	w1, #0x2f                  	// #47
   51be8:	aa1303e0 	mov	x0, x19
   51bec:	940010b8 	bl	55ecc <memchr>
   51bf0:	f100001f 	cmp	x0, #0x0
   51bf4:	9a951016 	csel	x22, x0, x21, ne  // ne = any
   51bf8:	aa1303e1 	mov	x1, x19
   51bfc:	4b1302c2 	sub	w2, w22, w19
   51c00:	aa1703e0 	mov	x0, x23
   51c04:	97ffffcf 	bl	51b40 <fdt_get_alias_namelen>
   51c08:	aa0003e1 	mov	x1, x0
   51c0c:	b4000480 	cbz	x0, 51c9c <fdt_path_offset_namelen+0xf8>
   51c10:	aa1703e0 	mov	x0, x23
   51c14:	aa1603f3 	mov	x19, x22
   51c18:	94000023 	bl	51ca4 <fdt_path_offset>
   51c1c:	2a0003f4 	mov	w20, w0
   51c20:	eb15027f 	cmp	x19, x21
   51c24:	540002c2 	b.cs	51c7c <fdt_path_offset_namelen+0xd8>  // b.hs, b.nlast
   51c28:	aa1303f6 	mov	x22, x19
   51c2c:	394002c0 	ldrb	w0, [x22]
   51c30:	7100bc1f 	cmp	w0, #0x2f
   51c34:	540001e0 	b.eq	51c70 <fdt_path_offset_namelen+0xcc>  // b.none
   51c38:	cb1602a2 	sub	x2, x21, x22
   51c3c:	528005e1 	mov	w1, #0x2f                  	// #47
   51c40:	aa1603e0 	mov	x0, x22
   51c44:	940010a2 	bl	55ecc <memchr>
   51c48:	f100001f 	cmp	x0, #0x0
   51c4c:	2a1403e1 	mov	w1, w20
   51c50:	9a951013 	csel	x19, x0, x21, ne  // ne = any
   51c54:	aa1603e2 	mov	x2, x22
   51c58:	4b160263 	sub	w3, w19, w22
   51c5c:	aa1703e0 	mov	x0, x23
   51c60:	97fffefe 	bl	51858 <fdt_subnode_offset_namelen>
   51c64:	2a0003f4 	mov	w20, w0
   51c68:	36fffdc0 	tbz	w0, #31, 51c20 <fdt_path_offset_namelen+0x7c>
   51c6c:	14000004 	b	51c7c <fdt_path_offset_namelen+0xd8>
   51c70:	910006d6 	add	x22, x22, #0x1
   51c74:	eb1602bf 	cmp	x21, x22
   51c78:	54fffda1 	b.ne	51c2c <fdt_path_offset_namelen+0x88>  // b.any
   51c7c:	2a1403e0 	mov	w0, w20
   51c80:	a94153f3 	ldp	x19, x20, [sp, #16]
   51c84:	a9425bf5 	ldp	x21, x22, [sp, #32]
   51c88:	f9401bf7 	ldr	x23, [sp, #48]
   51c8c:	a8c47bfd 	ldp	x29, x30, [sp], #64
   51c90:	d65f03c0 	ret
   51c94:	52800014 	mov	w20, #0x0                   	// #0
   51c98:	17ffffe2 	b	51c20 <fdt_path_offset_namelen+0x7c>
   51c9c:	12800094 	mov	w20, #0xfffffffb            	// #-5
   51ca0:	17fffff7 	b	51c7c <fdt_path_offset_namelen+0xd8>

0000000000051ca4 <fdt_path_offset>:
   51ca4:	a9be7bfd 	stp	x29, x30, [sp, #-32]!
   51ca8:	910003fd 	mov	x29, sp
   51cac:	a90153f3 	stp	x19, x20, [sp, #16]
   51cb0:	aa0003f4 	mov	x20, x0
   51cb4:	aa0103f3 	mov	x19, x1
   51cb8:	aa0103e0 	mov	x0, x1
   51cbc:	9400121d 	bl	56530 <strlen>
   51cc0:	aa1303e1 	mov	x1, x19
   51cc4:	2a0003e2 	mov	w2, w0
   51cc8:	aa1403e0 	mov	x0, x20
   51ccc:	a94153f3 	ldp	x19, x20, [sp, #16]
   51cd0:	a8c27bfd 	ldp	x29, x30, [sp], #32
   51cd4:	17ffffb4 	b	51ba4 <fdt_path_offset_namelen>

0000000000051cd8 <cpu_to_fdt32>:
   51cd8:	5ac00800 	rev	w0, w0
   51cdc:	d65f03c0 	ret

0000000000051ce0 <fdt32_ld>:
   51ce0:	39400401 	ldrb	w1, [x0, #1]
   51ce4:	39400002 	ldrb	w2, [x0]
   51ce8:	aa012042 	orr	x2, x2, x1, lsl #8
   51cec:	39400801 	ldrb	w1, [x0, #2]
   51cf0:	39400c00 	ldrb	w0, [x0, #3]
   51cf4:	aa014041 	orr	x1, x2, x1, lsl #16
   51cf8:	aa006020 	orr	x0, x1, x0, lsl #24
   51cfc:	5ac00800 	rev	w0, w0
   51d00:	d65f03c0 	ret

0000000000051d04 <fdt_blocks_misordered_>:
   51d04:	a9bf7bfd 	stp	x29, x30, [sp, #-16]!
   51d08:	aa0003e3 	mov	x3, x0
   51d0c:	2a0103e4 	mov	w4, w1
   51d10:	910003fd 	mov	x29, sp
   51d14:	2a0203e5 	mov	w5, w2
   51d18:	91004000 	add	x0, x0, #0x10
   51d1c:	97fffff1 	bl	51ce0 <fdt32_ld>
   51d20:	71009c1f 	cmp	w0, #0x27
   51d24:	54000309 	b.ls	51d84 <fdt_blocks_misordered_+0x80>  // b.plast
   51d28:	2a0003e7 	mov	w7, w0
   51d2c:	91002060 	add	x0, x3, #0x8
   51d30:	0b070084 	add	w4, w4, w7
   51d34:	97ffffeb 	bl	51ce0 <fdt32_ld>
   51d38:	2a0003e6 	mov	w6, w0
   51d3c:	6b04001f 	cmp	w0, w4
   51d40:	54000223 	b.cc	51d84 <fdt_blocks_misordered_+0x80>  // b.lo, b.ul, b.last
   51d44:	0b0600a5 	add	w5, w5, w6
   51d48:	91003060 	add	x0, x3, #0xc
   51d4c:	97ffffe5 	bl	51ce0 <fdt32_ld>
   51d50:	2a0003e4 	mov	w4, w0
   51d54:	6b05001f 	cmp	w0, w5
   51d58:	54000163 	b.cc	51d84 <fdt_blocks_misordered_+0x80>  // b.lo, b.ul, b.last
   51d5c:	91001060 	add	x0, x3, #0x4
   51d60:	97ffffe0 	bl	51ce0 <fdt32_ld>
   51d64:	2a0003e5 	mov	w5, w0
   51d68:	91008060 	add	x0, x3, #0x20
   51d6c:	97ffffdd 	bl	51ce0 <fdt32_ld>
   51d70:	0b000084 	add	w4, w4, w0
   51d74:	6b0400bf 	cmp	w5, w4
   51d78:	1a9f27e0 	cset	w0, cc  // cc = lo, ul, last
   51d7c:	a8c17bfd 	ldp	x29, x30, [sp], #16
   51d80:	d65f03c0 	ret
   51d84:	52800020 	mov	w0, #0x1                   	// #1
   51d88:	17fffffd 	b	51d7c <fdt_blocks_misordered_+0x78>

0000000000051d8c <fdt_packblocks_>:
   51d8c:	a9bc7bfd 	stp	x29, x30, [sp, #-64]!
   51d90:	2a0203e5 	mov	w5, w2
   51d94:	910003fd 	mov	x29, sp
   51d98:	a90153f3 	stp	x19, x20, [sp, #16]
   51d9c:	aa0103f3 	mov	x19, x1
   51da0:	aa0003f4 	mov	x20, x0
   51da4:	91004000 	add	x0, x0, #0x10
   51da8:	a9025bf5 	stp	x21, x22, [sp, #32]
   51dac:	2a0403f6 	mov	w22, w4
   51db0:	a90363f7 	stp	x23, x24, [sp, #48]
   51db4:	1100a057 	add	w23, w2, #0x28
   51db8:	97ffffca 	bl	51ce0 <fdt32_ld>
   51dbc:	93407ca2 	sxtw	x2, w5
   51dc0:	2a0303f5 	mov	w21, w3
   51dc4:	0b0302f8 	add	w24, w23, w3
   51dc8:	8b204281 	add	x1, x20, w0, uxtw
   51dcc:	9100a260 	add	x0, x19, #0x28
   51dd0:	9400105f 	bl	55f4c <memmove>
   51dd4:	8b37c263 	add	x3, x19, w23, sxtw
   51dd8:	52a50000 	mov	w0, #0x28000000            	// #671088640
   51ddc:	b9001260 	str	w0, [x19, #16]
   51de0:	91002280 	add	x0, x20, #0x8
   51de4:	97ffffbf 	bl	51ce0 <fdt32_ld>
   51de8:	8b204281 	add	x1, x20, w0, uxtw
   51dec:	93407ea2 	sxtw	x2, w21
   51df0:	aa0303e0 	mov	x0, x3
   51df4:	94001056 	bl	55f4c <memmove>
   51df8:	2a1703e0 	mov	w0, w23
   51dfc:	97ffffb7 	bl	51cd8 <cpu_to_fdt32>
   51e00:	b9000a60 	str	w0, [x19, #8]
   51e04:	8b38c263 	add	x3, x19, w24, sxtw
   51e08:	2a1503e0 	mov	w0, w21
   51e0c:	97ffffb3 	bl	51cd8 <cpu_to_fdt32>
   51e10:	b9002660 	str	w0, [x19, #36]
   51e14:	91003280 	add	x0, x20, #0xc
   51e18:	97ffffb2 	bl	51ce0 <fdt32_ld>
   51e1c:	8b204281 	add	x1, x20, w0, uxtw
   51e20:	93407ec2 	sxtw	x2, w22
   51e24:	aa0303e0 	mov	x0, x3
   51e28:	94001049 	bl	55f4c <memmove>
   51e2c:	2a1803e0 	mov	w0, w24
   51e30:	97ffffaa 	bl	51cd8 <cpu_to_fdt32>
   51e34:	b9000e60 	str	w0, [x19, #12]
   51e38:	91008280 	add	x0, x20, #0x20
   51e3c:	97ffffa9 	bl	51ce0 <fdt32_ld>
   51e40:	97ffffa6 	bl	51cd8 <cpu_to_fdt32>
   51e44:	a9425bf5 	ldp	x21, x22, [sp, #32]
   51e48:	a94363f7 	ldp	x23, x24, [sp, #48]
   51e4c:	b9002260 	str	w0, [x19, #32]
   51e50:	a94153f3 	ldp	x19, x20, [sp, #16]
   51e54:	a8c47bfd 	ldp	x29, x30, [sp], #64
   51e58:	d65f03c0 	ret

0000000000051e5c <fdt_open_into>:
   51e5c:	a9bb7bfd 	stp	x29, x30, [sp, #-80]!
   51e60:	910003fd 	mov	x29, sp
   51e64:	a90153f3 	stp	x19, x20, [sp, #16]
   51e68:	aa0003f4 	mov	x20, x0
   51e6c:	aa0103f3 	mov	x19, x1
   51e70:	91001000 	add	x0, x0, #0x4
   51e74:	a9025bf5 	stp	x21, x22, [sp, #32]
   51e78:	2a0203f6 	mov	w22, w2
   51e7c:	a90363f7 	stp	x23, x24, [sp, #48]
   51e80:	97ffff98 	bl	51ce0 <fdt32_ld>
   51e84:	2a0003f5 	mov	w21, w0
   51e88:	aa1403e0 	mov	x0, x20
   51e8c:	97fffc9b 	bl	510f8 <fdt_ro_probe_>
   51e90:	2a0003e3 	mov	w3, w0
   51e94:	37f80560 	tbnz	w0, #31, 51f40 <fdt_open_into+0xe4>
   51e98:	aa1403e0 	mov	x0, x20
   51e9c:	97fffe33 	bl	51768 <fdt_num_mem_rsv>
   51ea0:	11000417 	add	w23, w0, #0x1
   51ea4:	91005280 	add	x0, x20, #0x14
   51ea8:	531c6ef7 	lsl	w23, w23, #4
   51eac:	97ffff8d 	bl	51ce0 <fdt32_ld>
   51eb0:	7100401f 	cmp	w0, #0x10
   51eb4:	54000329 	b.ls	51f18 <fdt_open_into+0xbc>  // b.plast
   51eb8:	91009280 	add	x0, x20, #0x24
   51ebc:	97ffff89 	bl	51ce0 <fdt32_ld>
   51ec0:	b9004fe0 	str	w0, [sp, #76]
   51ec4:	b9404fe8 	ldr	w8, [sp, #76]
   51ec8:	2a1703e1 	mov	w1, w23
   51ecc:	aa1403e0 	mov	x0, x20
   51ed0:	2a0803e2 	mov	w2, w8
   51ed4:	97ffff8c 	bl	51d04 <fdt_blocks_misordered_>
   51ed8:	35000400 	cbnz	w0, 51f58 <fdt_open_into+0xfc>
   51edc:	2a1603e2 	mov	w2, w22
   51ee0:	aa1303e1 	mov	x1, x19
   51ee4:	aa1403e0 	mov	x0, x20
   51ee8:	97fffd6e 	bl	514a0 <fdt_move>
   51eec:	2a0003e3 	mov	w3, w0
   51ef0:	35000280 	cbnz	w0, 51f40 <fdt_open_into+0xe4>
   51ef4:	52a22000 	mov	w0, #0x11000000            	// #285212672
   51ef8:	b9001660 	str	w0, [x19, #20]
   51efc:	b9404fe0 	ldr	w0, [sp, #76]
   51f00:	97ffff76 	bl	51cd8 <cpu_to_fdt32>
   51f04:	b9002660 	str	w0, [x19, #36]
   51f08:	2a1603e0 	mov	w0, w22
   51f0c:	97ffff73 	bl	51cd8 <cpu_to_fdt32>
   51f10:	b9000660 	str	w0, [x19, #4]
   51f14:	1400000b 	b	51f40 <fdt_open_into+0xe4>
   51f18:	540007e1 	b.ne	52014 <fdt_open_into+0x1b8>  // b.any
   51f1c:	b9004fff 	str	wzr, [sp, #76]
   51f20:	b9404fe1 	ldr	w1, [sp, #76]
   51f24:	910133e2 	add	x2, sp, #0x4c
   51f28:	aa1403e0 	mov	x0, x20
   51f2c:	97fffcc0 	bl	5122c <fdt_next_tag>
   51f30:	7100241f 	cmp	w0, #0x9
   51f34:	54ffff61 	b.ne	51f20 <fdt_open_into+0xc4>  // b.any
   51f38:	b9404fe3 	ldr	w3, [sp, #76]
   51f3c:	36fffc43 	tbz	w3, #31, 51ec4 <fdt_open_into+0x68>
   51f40:	2a0303e0 	mov	w0, w3
   51f44:	a94153f3 	ldp	x19, x20, [sp, #16]
   51f48:	a9425bf5 	ldp	x21, x22, [sp, #32]
   51f4c:	a94363f7 	ldp	x23, x24, [sp, #48]
   51f50:	a8c57bfd 	ldp	x29, x30, [sp], #80
   51f54:	d65f03c0 	ret
   51f58:	91008280 	add	x0, x20, #0x20
   51f5c:	97ffff61 	bl	51ce0 <fdt32_ld>
   51f60:	1100a101 	add	w1, w8, #0x28
   51f64:	2a0003e4 	mov	w4, w0
   51f68:	0b0002e0 	add	w0, w23, w0
   51f6c:	0b000021 	add	w1, w1, w0
   51f70:	6b16003f 	cmp	w1, w22
   51f74:	5400018c 	b.gt	51fa4 <fdt_open_into+0x148>
   51f78:	93407c38 	sxtw	x24, w1
   51f7c:	8b21c261 	add	x1, x19, w1, sxtw
   51f80:	eb01029f 	cmp	x20, x1
   51f84:	54000142 	b.cs	51fac <fdt_open_into+0x150>  // b.hs, b.nlast
   51f88:	8b354295 	add	x21, x20, w21, uxtw
   51f8c:	eb1302bf 	cmp	x21, x19
   51f90:	540000e9 	b.ls	51fac <fdt_open_into+0x150>  // b.plast
   51f94:	8b1802a0 	add	x0, x21, x24
   51f98:	8b36c261 	add	x1, x19, w22, sxtw
   51f9c:	eb01001f 	cmp	x0, x1
   51fa0:	54000089 	b.ls	51fb0 <fdt_open_into+0x154>  // b.plast
   51fa4:	12800043 	mov	w3, #0xfffffffd            	// #-3
   51fa8:	17ffffe6 	b	51f40 <fdt_open_into+0xe4>
   51fac:	aa1303f5 	mov	x21, x19
   51fb0:	2a0803e3 	mov	w3, w8
   51fb4:	2a1703e2 	mov	w2, w23
   51fb8:	aa1503e1 	mov	x1, x21
   51fbc:	aa1403e0 	mov	x0, x20
   51fc0:	97ffff73 	bl	51d8c <fdt_packblocks_>
   51fc4:	aa1803e2 	mov	x2, x24
   51fc8:	aa1503e1 	mov	x1, x21
   51fcc:	aa1303e0 	mov	x0, x19
   51fd0:	94000fdf 	bl	55f4c <memmove>
   51fd4:	5281ba00 	mov	w0, #0xdd0                 	// #3536
   51fd8:	52800003 	mov	w3, #0x0                   	// #0
   51fdc:	72bdbfc0 	movk	w0, #0xedfe, lsl #16
   51fe0:	b9000260 	str	w0, [x19]
   51fe4:	2a1603e0 	mov	w0, w22
   51fe8:	97ffff3c 	bl	51cd8 <cpu_to_fdt32>
   51fec:	b9000660 	str	w0, [x19, #4]
   51ff0:	52a22000 	mov	w0, #0x11000000            	// #285212672
   51ff4:	b9001660 	str	w0, [x19, #20]
   51ff8:	52a20000 	mov	w0, #0x10000000            	// #268435456
   51ffc:	b9001a60 	str	w0, [x19, #24]
   52000:	91007280 	add	x0, x20, #0x1c
   52004:	97ffff37 	bl	51ce0 <fdt32_ld>
   52008:	97ffff34 	bl	51cd8 <cpu_to_fdt32>
   5200c:	b9001e60 	str	w0, [x19, #28]
   52010:	17ffffcc 	b	51f40 <fdt_open_into+0xe4>
   52014:	12800123 	mov	w3, #0xfffffff6            	// #-10
   52018:	17ffffca 	b	51f40 <fdt_open_into+0xe4>

000000000005201c <psci_set_req_local_pwr_state>:
   5201c:	51000400 	sub	w0, w0, #0x1
   52020:	12001c42 	and	w2, w2, #0xff
   52024:	7100041f 	cmp	w0, #0x1
   52028:	54000128 	b.hi	5204c <psci_set_req_local_pwr_state+0x30>  // b.pmore
   5202c:	b0000143 	adrp	x3, 7b000 <tf_mmap+0x300>
   52030:	b941b063 	ldr	w3, [x3, #432]
   52034:	6b01007f 	cmp	w3, w1
   52038:	540000a9 	b.ls	5204c <psci_set_req_local_pwr_state+0x30>  // b.plast
   5203c:	b0000143 	adrp	x3, 7b000 <tf_mmap+0x300>
   52040:	910a4463 	add	x3, x3, #0x291
   52044:	8b204860 	add	x0, x3, w0, uxtw #2
   52048:	38214802 	strb	w2, [x0, w1, uxtw]
   5204c:	d65f03c0 	ret

0000000000052050 <psci_validate_power_state>:
   52050:	52bf9fc2 	mov	w2, #0xfcfe0000            	// #-50462720
   52054:	6a02001f 	tst	w0, w2
   52058:	540000c1 	b.ne	52070 <psci_validate_power_state+0x20>  // b.any
   5205c:	90000042 	adrp	x2, 5a000 <__STACKS_START__+0x1f00>
   52060:	f945e442 	ldr	x2, [x2, #3016]
   52064:	f9403042 	ldr	x2, [x2, #96]
   52068:	aa0203f0 	mov	x16, x2
   5206c:	d61f0200 	br	x16
   52070:	12800020 	mov	w0, #0xfffffffe            	// #-2
   52074:	d65f03c0 	ret

0000000000052078 <psci_query_sys_suspend_pwrstate>:
   52078:	90000041 	adrp	x1, 5a000 <__STACKS_START__+0x1f00>
   5207c:	f945e421 	ldr	x1, [x1, #3016]
   52080:	f9403821 	ldr	x1, [x1, #112]
   52084:	aa0103f0 	mov	x16, x1
   52088:	d61f0200 	br	x16

000000000005208c <psci_is_last_on_cpu>:
   5208c:	a9bd7bfd 	stp	x29, x30, [sp, #-48]!
   52090:	910003fd 	mov	x29, sp
   52094:	a90153f3 	stp	x19, x20, [sp, #16]
   52098:	b0000154 	adrp	x20, 7b000 <tf_mmap+0x300>
   5209c:	9106c294 	add	x20, x20, #0x1b0
   520a0:	f90013f5 	str	x21, [sp, #32]
   520a4:	94000e9a 	bl	55b0c <plat_my_core_pos>
   520a8:	2a0003f5 	mov	w21, w0
   520ac:	52800013 	mov	w19, #0x0                   	// #0
   520b0:	b9400280 	ldr	w0, [x20]
   520b4:	6b13001f 	cmp	w0, w19
   520b8:	540000c8 	b.hi	520d0 <psci_is_last_on_cpu+0x44>  // b.pmore
   520bc:	52800020 	mov	w0, #0x1                   	// #1
   520c0:	a94153f3 	ldp	x19, x20, [sp, #16]
   520c4:	f94013f5 	ldr	x21, [sp, #32]
   520c8:	a8c37bfd 	ldp	x29, x30, [sp], #48
   520cc:	d65f03c0 	ret
   520d0:	6b15027f 	cmp	w19, w21
   520d4:	54000061 	b.ne	520e0 <psci_is_last_on_cpu+0x54>  // b.any
   520d8:	11000673 	add	w19, w19, #0x1
   520dc:	17fffff5 	b	520b0 <psci_is_last_on_cpu+0x24>
   520e0:	2a1303e0 	mov	w0, w19
   520e4:	94000e63 	bl	55a70 <_cpu_data_by_index>
   520e8:	b9401800 	ldr	w0, [x0, #24]
   520ec:	7100041f 	cmp	w0, #0x1
   520f0:	54ffff40 	b.eq	520d8 <psci_is_last_on_cpu+0x4c>  // b.none
   520f4:	52800000 	mov	w0, #0x0                   	// #0
   520f8:	17fffff2 	b	520c0 <psci_is_last_on_cpu+0x34>

00000000000520fc <psci_init_req_local_pwr_states>:
   520fc:	b0000140 	adrp	x0, 7b000 <tf_mmap+0x300>
   52100:	b0000141 	adrp	x1, 7b000 <tf_mmap+0x300>
   52104:	910a4421 	add	x1, x1, #0x291
   52108:	52800043 	mov	w3, #0x2                   	// #2
   5210c:	b941b002 	ldr	w2, [x0, #432]
   52110:	d2800000 	mov	x0, #0x0                   	// #0
   52114:	6b00005f 	cmp	w2, w0
   52118:	54000089 	b.ls	52128 <psci_init_req_local_pwr_states+0x2c>  // b.plast
   5211c:	38216803 	strb	w3, [x0, x1]
   52120:	91000400 	add	x0, x0, #0x1
   52124:	17fffffc 	b	52114 <psci_init_req_local_pwr_states+0x18>
   52128:	b0000141 	adrp	x1, 7b000 <tf_mmap+0x300>
   5212c:	910a4421 	add	x1, x1, #0x291
   52130:	d2800000 	mov	x0, #0x0                   	// #0
   52134:	52800044 	mov	w4, #0x2                   	// #2
   52138:	6b00005f 	cmp	w2, w0
   5213c:	540000a9 	b.ls	52150 <psci_init_req_local_pwr_states+0x54>  // b.plast
   52140:	8b000023 	add	x3, x1, x0
   52144:	91000400 	add	x0, x0, #0x1
   52148:	39001064 	strb	w4, [x3, #4]
   5214c:	17fffffb 	b	52138 <psci_init_req_local_pwr_states+0x3c>
   52150:	d65f03c0 	ret

0000000000052154 <psci_get_target_local_pwr_states>:
   52154:	a9be7bfd 	stp	x29, x30, [sp, #-32]!
   52158:	910003fd 	mov	x29, sp
   5215c:	a90153f3 	stp	x19, x20, [sp, #16]
   52160:	2a0003f4 	mov	w20, w0
   52164:	aa0103f3 	mov	x19, x1
   52168:	d53ed040 	mrs	x0, tpidr_el3
   5216c:	39408000 	ldrb	w0, [x0, #32]
   52170:	39000020 	strb	w0, [x1]
   52174:	94000e66 	bl	55b0c <plat_my_core_pos>
   52178:	d37c7c00 	ubfiz	x0, x0, #4, #32
   5217c:	90000041 	adrp	x1, 5a000 <__STACKS_START__+0x1f00>
   52180:	912e2021 	add	x1, x1, #0xb88
   52184:	8b000021 	add	x1, x1, x0
   52188:	b0000140 	adrp	x0, 7b000 <tf_mmap+0x300>
   5218c:	9105c000 	add	x0, x0, #0x170
   52190:	52800022 	mov	w2, #0x1                   	// #1
   52194:	b9400823 	ldr	w3, [x1, #8]
   52198:	6b14005f 	cmp	w2, w20
   5219c:	2a0203e1 	mov	w1, w2
   521a0:	540000e9 	b.ls	521bc <psci_get_target_local_pwr_states+0x68>  // b.plast
   521a4:	8b010273 	add	x19, x19, x1
   521a8:	7100085f 	cmp	w2, #0x2
   521ac:	54000169 	b.ls	521d8 <psci_get_target_local_pwr_states+0x84>  // b.plast
   521b0:	a94153f3 	ldp	x19, x20, [sp, #16]
   521b4:	a8c27bfd 	ldp	x29, x30, [sp], #32
   521b8:	d65f03c0 	ret
   521bc:	d37c7c63 	ubfiz	x3, x3, #4, #32
   521c0:	11000442 	add	w2, w2, #0x1
   521c4:	8b030003 	add	x3, x0, x3
   521c8:	39403064 	ldrb	w4, [x3, #12]
   521cc:	38216a64 	strb	w4, [x19, x1]
   521d0:	b9400863 	ldr	w3, [x3, #8]
   521d4:	17fffff1 	b	52198 <psci_get_target_local_pwr_states+0x44>
   521d8:	11000442 	add	w2, w2, #0x1
   521dc:	3800167f 	strb	wzr, [x19], #1
   521e0:	17fffff2 	b	521a8 <psci_get_target_local_pwr_states+0x54>

00000000000521e4 <psci_set_target_local_pwr_states>:
   521e4:	a9be7bfd 	stp	x29, x30, [sp, #-32]!
   521e8:	910003fd 	mov	x29, sp
   521ec:	a90153f3 	stp	x19, x20, [sp, #16]
   521f0:	aa0103f3 	mov	x19, x1
   521f4:	2a0003f4 	mov	w20, w0
   521f8:	39400021 	ldrb	w1, [x1]
   521fc:	d53ed040 	mrs	x0, tpidr_el3
   52200:	39008001 	strb	w1, [x0, #32]
   52204:	94000e42 	bl	55b0c <plat_my_core_pos>
   52208:	d37c7c00 	ubfiz	x0, x0, #4, #32
   5220c:	90000042 	adrp	x2, 5a000 <__STACKS_START__+0x1f00>
   52210:	912e2042 	add	x2, x2, #0xb88
   52214:	8b000042 	add	x2, x2, x0
   52218:	b0000140 	adrp	x0, 7b000 <tf_mmap+0x300>
   5221c:	9105c000 	add	x0, x0, #0x170
   52220:	52800023 	mov	w3, #0x1                   	// #1
   52224:	b9400842 	ldr	w2, [x2, #8]
   52228:	6b14007f 	cmp	w3, w20
   5222c:	54000089 	b.ls	5223c <psci_set_target_local_pwr_states+0x58>  // b.plast
   52230:	a94153f3 	ldp	x19, x20, [sp, #16]
   52234:	a8c27bfd 	ldp	x29, x30, [sp], #32
   52238:	d65f03c0 	ret
   5223c:	d37c7c42 	ubfiz	x2, x2, #4, #32
   52240:	38634a61 	ldrb	w1, [x19, w3, uxtw]
   52244:	8b020002 	add	x2, x0, x2
   52248:	11000463 	add	w3, w3, #0x1
   5224c:	39003041 	strb	w1, [x2, #12]
   52250:	b9400842 	ldr	w2, [x2, #8]
   52254:	17fffff5 	b	52228 <psci_set_target_local_pwr_states+0x44>

0000000000052258 <psci_get_parent_pwr_domain_nodes>:
   52258:	d37c7c03 	ubfiz	x3, x0, #4, #32
   5225c:	90000040 	adrp	x0, 5a000 <__STACKS_START__+0x1f00>
   52260:	912e2000 	add	x0, x0, #0xb88
   52264:	b0000144 	adrp	x4, 7b000 <tf_mmap+0x300>
   52268:	8b030000 	add	x0, x0, x3
   5226c:	d1001042 	sub	x2, x2, #0x4
   52270:	9105c084 	add	x4, x4, #0x170
   52274:	d2800003 	mov	x3, #0x0                   	// #0
   52278:	b9400800 	ldr	w0, [x0, #8]
   5227c:	91000463 	add	x3, x3, #0x1
   52280:	6b03003f 	cmp	w1, w3
   52284:	54000042 	b.cs	5228c <psci_get_parent_pwr_domain_nodes+0x34>  // b.hs, b.nlast
   52288:	d65f03c0 	ret
   5228c:	b8237840 	str	w0, [x2, x3, lsl #2]
   52290:	d37c7c00 	ubfiz	x0, x0, #4, #32
   52294:	8b000080 	add	x0, x4, x0
   52298:	b9400800 	ldr	w0, [x0, #8]
   5229c:	17fffff8 	b	5227c <psci_get_parent_pwr_domain_nodes+0x24>

00000000000522a0 <psci_set_pwr_domains_to_run>:
   522a0:	a9be7bfd 	stp	x29, x30, [sp, #-32]!
   522a4:	910003fd 	mov	x29, sp
   522a8:	f9000bf3 	str	x19, [sp, #16]
   522ac:	2a0003f3 	mov	w19, w0
   522b0:	94000e17 	bl	55b0c <plat_my_core_pos>
   522b4:	2a0003e1 	mov	w1, w0
   522b8:	90000042 	adrp	x2, 5a000 <__STACKS_START__+0x1f00>
   522bc:	912e2042 	add	x2, x2, #0xb88
   522c0:	d37c7c20 	ubfiz	x0, x1, #4, #32
   522c4:	b0000146 	adrp	x6, 7b000 <tf_mmap+0x300>
   522c8:	8b000042 	add	x2, x2, x0
   522cc:	9105c0c6 	add	x6, x6, #0x170
   522d0:	52800025 	mov	w5, #0x1                   	// #1
   522d4:	b9400844 	ldr	w4, [x2, #8]
   522d8:	6b1300bf 	cmp	w5, w19
   522dc:	54000109 	b.ls	522fc <psci_set_pwr_domains_to_run+0x5c>  // b.plast
   522e0:	d53ed040 	mrs	x0, tpidr_el3
   522e4:	b900181f 	str	wzr, [x0, #24]
   522e8:	d53ed040 	mrs	x0, tpidr_el3
   522ec:	3900801f 	strb	wzr, [x0, #32]
   522f0:	f9400bf3 	ldr	x19, [sp, #16]
   522f4:	a8c27bfd 	ldp	x29, x30, [sp], #32
   522f8:	d65f03c0 	ret
   522fc:	d37c7c84 	ubfiz	x4, x4, #4, #32
   52300:	2a0503e0 	mov	w0, w5
   52304:	8b0400c4 	add	x4, x6, x4
   52308:	52800002 	mov	w2, #0x0                   	// #0
   5230c:	110004a5 	add	w5, w5, #0x1
   52310:	3900309f 	strb	wzr, [x4, #12]
   52314:	97ffff42 	bl	5201c <psci_set_req_local_pwr_state>
   52318:	b9400884 	ldr	w4, [x4, #8]
   5231c:	17ffffef 	b	522d8 <psci_set_pwr_domains_to_run+0x38>

0000000000052320 <psci_do_state_coordination>:
   52320:	a9bb7bfd 	stp	x29, x30, [sp, #-80]!
   52324:	910003fd 	mov	x29, sp
   52328:	a90153f3 	stp	x19, x20, [sp, #16]
   5232c:	a9025bf5 	stp	x21, x22, [sp, #32]
   52330:	aa0103f5 	mov	x21, x1
   52334:	a90363f7 	stp	x23, x24, [sp, #48]
   52338:	2a0003f7 	mov	w23, w0
   5233c:	b0000158 	adrp	x24, 7b000 <tf_mmap+0x300>
   52340:	a9046bf9 	stp	x25, x26, [sp, #64]
   52344:	94000df2 	bl	55b0c <plat_my_core_pos>
   52348:	2a0003f6 	mov	w22, w0
   5234c:	90000040 	adrp	x0, 5a000 <__STACKS_START__+0x1f00>
   52350:	912e2000 	add	x0, x0, #0xb88
   52354:	d37c7ec1 	ubfiz	x1, x22, #4, #32
   52358:	b0000159 	adrp	x25, 7b000 <tf_mmap+0x300>
   5235c:	8b010000 	add	x0, x0, x1
   52360:	9105c318 	add	x24, x24, #0x170
   52364:	9106c339 	add	x25, x25, #0x1b0
   52368:	52800024 	mov	w4, #0x1                   	// #1
   5236c:	b9400814 	ldr	w20, [x0, #8]
   52370:	6b17009f 	cmp	w4, w23
   52374:	11000493 	add	w19, w4, #0x1
   52378:	54000129 	b.ls	5239c <psci_do_state_coordination+0x7c>  // b.plast
   5237c:	6b17027f 	cmp	w19, w23
   52380:	540004c9 	b.ls	52418 <psci_do_state_coordination+0xf8>  // b.plast
   52384:	a94153f3 	ldp	x19, x20, [sp, #16]
   52388:	a9425bf5 	ldp	x21, x22, [sp, #32]
   5238c:	a94363f7 	ldp	x23, x24, [sp, #48]
   52390:	a9446bf9 	ldp	x25, x26, [sp, #64]
   52394:	a8c57bfd 	ldp	x29, x30, [sp], #80
   52398:	d65f03c0 	ret
   5239c:	2a0403fa 	mov	w26, w4
   523a0:	2a1603e1 	mov	w1, w22
   523a4:	2a0403e0 	mov	w0, w4
   523a8:	2a1403f4 	mov	w20, w20
   523ac:	387a6aa2 	ldrb	w2, [x21, x26]
   523b0:	97ffff1b 	bl	5201c <psci_set_req_local_pwr_state>
   523b4:	51000481 	sub	w1, w4, #0x1
   523b8:	7100043f 	cmp	w1, #0x1
   523bc:	540002a8 	b.hi	52410 <psci_do_state_coordination+0xf0>  // b.pmore
   523c0:	d37cee80 	lsl	x0, x20, #4
   523c4:	b9400323 	ldr	w3, [x25]
   523c8:	b8606b02 	ldr	w2, [x24, x0]
   523cc:	2a0203e0 	mov	w0, w2
   523d0:	6b03005f 	cmp	w2, w3
   523d4:	8b214800 	add	x0, x0, w1, uxtw #2
   523d8:	b0000141 	adrp	x1, 7b000 <tf_mmap+0x300>
   523dc:	910a4421 	add	x1, x1, #0x291
   523e0:	8b000021 	add	x1, x1, x0
   523e4:	9a9f3021 	csel	x1, x1, xzr, cc  // cc = lo, ul, last
   523e8:	8b141314 	add	x20, x24, x20, lsl #4
   523ec:	2a0403e0 	mov	w0, w4
   523f0:	b9400682 	ldr	w2, [x20, #4]
   523f4:	94000c11 	bl	55438 <plat_get_target_pwr_state>
   523f8:	383a6aa0 	strb	w0, [x21, x26]
   523fc:	72001c1f 	tst	w0, #0xff
   52400:	54fffbe0 	b.eq	5237c <psci_do_state_coordination+0x5c>  // b.none
   52404:	b9400a94 	ldr	w20, [x20, #8]
   52408:	2a1303e4 	mov	w4, w19
   5240c:	17ffffd9 	b	52370 <psci_do_state_coordination+0x50>
   52410:	d2800001 	mov	x1, #0x0                   	// #0
   52414:	17fffff5 	b	523e8 <psci_do_state_coordination+0xc8>
   52418:	2a1303e5 	mov	w5, w19
   5241c:	2a1303e0 	mov	w0, w19
   52420:	2a1603e1 	mov	w1, w22
   52424:	11000673 	add	w19, w19, #0x1
   52428:	38656aa2 	ldrb	w2, [x21, x5]
   5242c:	97fffefc 	bl	5201c <psci_set_req_local_pwr_state>
   52430:	38256abf 	strb	wzr, [x21, x5]
   52434:	17ffffd2 	b	5237c <psci_do_state_coordination+0x5c>

0000000000052438 <psci_find_max_off_lvl>:
   52438:	aa0003e1 	mov	x1, x0
   5243c:	39400800 	ldrb	w0, [x0, #2]
   52440:	7100081f 	cmp	w0, #0x2
   52444:	54000120 	b.eq	52468 <psci_find_max_off_lvl+0x30>  // b.none
   52448:	39400420 	ldrb	w0, [x1, #1]
   5244c:	7100081f 	cmp	w0, #0x2
   52450:	540000e0 	b.eq	5246c <psci_find_max_off_lvl+0x34>  // b.none
   52454:	39400021 	ldrb	w1, [x1]
   52458:	52800060 	mov	w0, #0x3                   	// #3
   5245c:	7100083f 	cmp	w1, #0x2
   52460:	54000041 	b.ne	52468 <psci_find_max_off_lvl+0x30>  // b.any
   52464:	52800000 	mov	w0, #0x0                   	// #0
   52468:	d65f03c0 	ret
   5246c:	52800020 	mov	w0, #0x1                   	// #1
   52470:	17fffffe 	b	52468 <psci_find_max_off_lvl+0x30>

0000000000052474 <psci_find_target_suspend_lvl>:
   52474:	39400801 	ldrb	w1, [x0, #2]
   52478:	35000101 	cbnz	w1, 52498 <psci_find_target_suspend_lvl+0x24>
   5247c:	39400401 	ldrb	w1, [x0, #1]
   52480:	35000101 	cbnz	w1, 524a0 <psci_find_target_suspend_lvl+0x2c>
   52484:	39400001 	ldrb	w1, [x0]
   52488:	52800060 	mov	w0, #0x3                   	// #3
   5248c:	34000041 	cbz	w1, 52494 <psci_find_target_suspend_lvl+0x20>
   52490:	52800000 	mov	w0, #0x0                   	// #0
   52494:	d65f03c0 	ret
   52498:	52800040 	mov	w0, #0x2                   	// #2
   5249c:	17fffffe 	b	52494 <psci_find_target_suspend_lvl+0x20>
   524a0:	52800020 	mov	w0, #0x1                   	// #1
   524a4:	17fffffc 	b	52494 <psci_find_target_suspend_lvl+0x20>

00000000000524a8 <psci_acquire_pwr_domain_locks>:
   524a8:	a9bc7bfd 	stp	x29, x30, [sp, #-64]!
   524ac:	910003fd 	mov	x29, sp
   524b0:	a90153f3 	stp	x19, x20, [sp, #16]
   524b4:	2a0003f4 	mov	w20, w0
   524b8:	52800033 	mov	w19, #0x1                   	// #1
   524bc:	a9025bf5 	stp	x21, x22, [sp, #32]
   524c0:	b0000156 	adrp	x22, 7b000 <tf_mmap+0x300>
   524c4:	aa0103f5 	mov	x21, x1
   524c8:	910582d6 	add	x22, x22, #0x160
   524cc:	f9001bf7 	str	x23, [sp, #48]
   524d0:	b0000157 	adrp	x23, 7b000 <tf_mmap+0x300>
   524d4:	9105c2f7 	add	x23, x23, #0x170
   524d8:	6b14027f 	cmp	w19, w20
   524dc:	540000c9 	b.ls	524f4 <psci_acquire_pwr_domain_locks+0x4c>  // b.plast
   524e0:	a94153f3 	ldp	x19, x20, [sp, #16]
   524e4:	a9425bf5 	ldp	x21, x22, [sp, #32]
   524e8:	f9401bf7 	ldr	x23, [sp, #48]
   524ec:	a8c47bfd 	ldp	x29, x30, [sp], #64
   524f0:	d65f03c0 	ret
   524f4:	51000660 	sub	w0, w19, #0x1
   524f8:	11000673 	add	w19, w19, #0x1
   524fc:	b8607aa0 	ldr	w0, [x21, x0, lsl #2]
   52500:	8b0012e0 	add	x0, x23, x0, lsl #4
   52504:	79401c00 	ldrh	w0, [x0, #14]
   52508:	8b000ac0 	add	x0, x22, x0, lsl #2
   5250c:	94000d5f 	bl	55a88 <spin_lock>
   52510:	17fffff2 	b	524d8 <psci_acquire_pwr_domain_locks+0x30>

0000000000052514 <psci_release_pwr_domain_locks>:
   52514:	a9bd7bfd 	stp	x29, x30, [sp, #-48]!
   52518:	910003fd 	mov	x29, sp
   5251c:	a90153f3 	stp	x19, x20, [sp, #16]
   52520:	2a0003f3 	mov	w19, w0
   52524:	aa0103f4 	mov	x20, x1
   52528:	a9025bf5 	stp	x21, x22, [sp, #32]
   5252c:	b0000155 	adrp	x21, 7b000 <tf_mmap+0x300>
   52530:	b0000156 	adrp	x22, 7b000 <tf_mmap+0x300>
   52534:	910582b5 	add	x21, x21, #0x160
   52538:	9105c2d6 	add	x22, x22, #0x170
   5253c:	350000b3 	cbnz	w19, 52550 <psci_release_pwr_domain_locks+0x3c>
   52540:	a94153f3 	ldp	x19, x20, [sp, #16]
   52544:	a9425bf5 	ldp	x21, x22, [sp, #32]
   52548:	a8c37bfd 	ldp	x29, x30, [sp], #48
   5254c:	d65f03c0 	ret
   52550:	51000673 	sub	w19, w19, #0x1
   52554:	b8735a80 	ldr	w0, [x20, w19, uxtw #2]
   52558:	8b0012c0 	add	x0, x22, x0, lsl #4
   5255c:	79401c00 	ldrh	w0, [x0, #14]
   52560:	8b000aa0 	add	x0, x21, x0, lsl #2
   52564:	94000d51 	bl	55aa8 <spin_unlock>
   52568:	17fffff5 	b	5253c <psci_release_pwr_domain_locks+0x28>

000000000005256c <psci_validate_mpidr>:
   5256c:	a9bf7bfd 	stp	x29, x30, [sp, #-16]!
   52570:	910003fd 	mov	x29, sp
   52574:	940005ff 	bl	53d70 <plat_core_pos_by_mpidr>
   52578:	71000c1f 	cmp	w0, #0x3
   5257c:	a8c17bfd 	ldp	x29, x30, [sp], #16
   52580:	12800020 	mov	w0, #0xfffffffe            	// #-2
   52584:	1a9f8000 	csel	w0, w0, wzr, hi  // hi = pmore
   52588:	d65f03c0 	ret

000000000005258c <psci_validate_entry_point>:
   5258c:	a9bb7bfd 	stp	x29, x30, [sp, #-80]!
   52590:	910003fd 	mov	x29, sp
   52594:	a90153f3 	stp	x19, x20, [sp, #16]
   52598:	aa0003f4 	mov	x20, x0
   5259c:	90000040 	adrp	x0, 5a000 <__STACKS_START__+0x1f00>
   525a0:	aa0103f3 	mov	x19, x1
   525a4:	a9025bf5 	stp	x21, x22, [sp, #32]
   525a8:	f945e400 	ldr	x0, [x0, #3016]
   525ac:	a90363f7 	stp	x23, x24, [sp, #48]
   525b0:	aa0203f8 	mov	x24, x2
   525b4:	f9403401 	ldr	x1, [x0, #104]
   525b8:	f90023f9 	str	x25, [sp, #64]
   525bc:	b5000361 	cbnz	x1, 52628 <psci_validate_entry_point+0x9c>
   525c0:	d53e1117 	mrs	x23, scr_el3
   525c4:	d5381000 	mrs	x0, sctlr_el1
   525c8:	927802f9 	and	x25, x23, #0x100
   525cc:	37400437 	tbnz	w23, #8, 52650 <psci_validate_entry_point+0xc4>
   525d0:	f2670000 	ands	x0, x0, #0x2000000
   525d4:	52802021 	mov	w1, #0x101                 	// #257
   525d8:	72a00b01 	movk	w1, #0x58, lsl #16
   525dc:	d2800075 	mov	x21, #0x3                   	// #3
   525e0:	9a9f16a0 	csinc	x0, x21, xzr, ne  // ne = any
   525e4:	29000281 	stp	w1, w0, [x20]
   525e8:	f9000693 	str	x19, [x20, #8]
   525ec:	1a9f07f6 	cset	w22, ne  // ne = any
   525f0:	91006280 	add	x0, x20, #0x18
   525f4:	d2800801 	mov	x1, #0x40                  	// #64
   525f8:	94000d98 	bl	55c58 <zeromem>
   525fc:	f9000e98 	str	x24, [x20, #24]
   52600:	365002d7 	tbz	w23, #10, 52658 <psci_validate_entry_point+0xcc>
   52604:	37000193 	tbnz	w19, #0, 52634 <psci_validate_entry_point+0xa8>
   52608:	f100033f 	cmp	x25, #0x0
   5260c:	52807821 	mov	w1, #0x3c1                 	// #961
   52610:	1a9f07e0 	cset	w0, ne  // ne = any
   52614:	11000400 	add	w0, w0, #0x1
   52618:	2a000820 	orr	w0, w1, w0, lsl #2
   5261c:	b9001280 	str	w0, [x20, #16]
   52620:	52800000 	mov	w0, #0x0                   	// #0
   52624:	14000005 	b	52638 <psci_validate_entry_point+0xac>
   52628:	aa1303e0 	mov	x0, x19
   5262c:	d63f0020 	blr	x1
   52630:	34fffc80 	cbz	w0, 525c0 <psci_validate_entry_point+0x34>
   52634:	12800100 	mov	w0, #0xfffffff7            	// #-9
   52638:	a94153f3 	ldp	x19, x20, [sp, #16]
   5263c:	a9425bf5 	ldp	x21, x22, [sp, #32]
   52640:	a94363f7 	ldp	x23, x24, [sp, #48]
   52644:	f94023f9 	ldr	x25, [sp, #64]
   52648:	a8c57bfd 	ldp	x29, x30, [sp], #80
   5264c:	d65f03c0 	ret
   52650:	d53c1000 	mrs	x0, sctlr_el2
   52654:	17ffffdf 	b	525d0 <psci_validate_entry_point+0x44>
   52658:	52800140 	mov	w0, #0xa                   	// #10
   5265c:	f100033f 	cmp	x25, #0x0
   52660:	1a8002b5 	csel	w21, w21, w0, eq  // eq = none
   52664:	531b0273 	ubfiz	w19, w19, #5, #1
   52668:	52803a00 	mov	w0, #0x1d0                 	// #464
   5266c:	2a150273 	orr	w19, w19, w21
   52670:	2a162416 	orr	w22, w0, w22, lsl #9
   52674:	2a160273 	orr	w19, w19, w22
   52678:	b9001293 	str	w19, [x20, #16]
   5267c:	17ffffe9 	b	52620 <psci_validate_entry_point+0x94>

0000000000052680 <psci_warmboot_entrypoint>:
   52680:	a9bd7bfd 	stp	x29, x30, [sp, #-48]!
   52684:	910003fd 	mov	x29, sp
   52688:	a90153f3 	stp	x19, x20, [sp, #16]
   5268c:	94000d20 	bl	55b0c <plat_my_core_pos>
   52690:	2a0003f4 	mov	w20, w0
   52694:	790043ff 	strh	wzr, [sp, #32]
   52698:	39008bff 	strb	wzr, [sp, #34]
   5269c:	f90017ff 	str	xzr, [sp, #40]
   526a0:	97fff9ee 	bl	50e58 <cm_manage_extensions_el3>
   526a4:	d53ed040 	mrs	x0, tpidr_el3
   526a8:	b9401800 	ldr	w0, [x0, #24]
   526ac:	7100041f 	cmp	w0, #0x1
   526b0:	540000c1 	b.ne	526c8 <psci_warmboot_entrypoint+0x48>  // b.any
   526b4:	90000020 	adrp	x0, 56000 <unsigned_num_print.part.0+0x8>
   526b8:	91235000 	add	x0, x0, #0x8d4
   526bc:	9400083f 	bl	547b8 <tf_log>
   526c0:	940008b7 	bl	5499c <console_flush>
   526c4:	94000d2f 	bl	55b80 <el3_panic>
   526c8:	d53ed040 	mrs	x0, tpidr_el3
   526cc:	b9401c13 	ldr	w19, [x0, #28]
   526d0:	9100a3e2 	add	x2, sp, #0x28
   526d4:	52800040 	mov	w0, #0x2                   	// #2
   526d8:	71000e7f 	cmp	w19, #0x3
   526dc:	1a801273 	csel	w19, w19, w0, ne  // ne = any
   526e0:	2a1403e0 	mov	w0, w20
   526e4:	2a1303e1 	mov	w1, w19
   526e8:	97fffedc 	bl	52258 <psci_get_parent_pwr_domain_nodes>
   526ec:	9100a3e1 	add	x1, sp, #0x28
   526f0:	2a1303e0 	mov	w0, w19
   526f4:	97ffff6d 	bl	524a8 <psci_acquire_pwr_domain_locks>
   526f8:	910083e1 	add	x1, sp, #0x20
   526fc:	2a1303e0 	mov	w0, w19
   52700:	97fffe95 	bl	52154 <psci_get_target_local_pwr_states>
   52704:	d53ed040 	mrs	x0, tpidr_el3
   52708:	b9401800 	ldr	w0, [x0, #24]
   5270c:	910083e1 	add	x1, sp, #0x20
   52710:	7100081f 	cmp	w0, #0x2
   52714:	2a1403e0 	mov	w0, w20
   52718:	54000141 	b.ne	52740 <psci_warmboot_entrypoint+0xc0>  // b.any
   5271c:	94000216 	bl	52f74 <psci_cpu_on_finish>
   52720:	2a1303e0 	mov	w0, w19
   52724:	97fffedf 	bl	522a0 <psci_set_pwr_domains_to_run>
   52728:	9100a3e1 	add	x1, sp, #0x28
   5272c:	2a1303e0 	mov	w0, w19
   52730:	97ffff79 	bl	52514 <psci_release_pwr_domain_locks>
   52734:	a94153f3 	ldp	x19, x20, [sp, #16]
   52738:	a8c37bfd 	ldp	x29, x30, [sp], #48
   5273c:	d65f03c0 	ret
   52740:	94000374 	bl	53510 <psci_cpu_suspend_finish>
   52744:	17fffff7 	b	52720 <psci_warmboot_entrypoint+0xa0>

0000000000052748 <psci_spd_migrate_info>:
   52748:	90000041 	adrp	x1, 5a000 <__STACKS_START__+0x1f00>
   5274c:	f945e821 	ldr	x1, [x1, #3024]
   52750:	b40000a1 	cbz	x1, 52764 <psci_spd_migrate_info+0x1c>
   52754:	f9401821 	ldr	x1, [x1, #48]
   52758:	b4000061 	cbz	x1, 52764 <psci_spd_migrate_info+0x1c>
   5275c:	aa0103f0 	mov	x16, x1
   52760:	d61f0200 	br	x16
   52764:	12800000 	mov	w0, #0xffffffff            	// #-1
   52768:	d65f03c0 	ret

000000000005276c <psci_print_power_domain_map>:
   5276c:	d65f03c0 	ret

0000000000052770 <psci_pwrdown_cpu>:
   52770:	14000c18 	b	557d0 <prepare_cpu_pwr_dwn>

0000000000052774 <psci_cpu_on>:
   52774:	a9b77bfd 	stp	x29, x30, [sp, #-144]!
   52778:	910003fd 	mov	x29, sp
   5277c:	a90153f3 	stp	x19, x20, [sp, #16]
   52780:	aa0003f3 	mov	x19, x0
   52784:	aa0103f4 	mov	x20, x1
   52788:	f90013f5 	str	x21, [sp, #32]
   5278c:	aa0203f5 	mov	x21, x2
   52790:	97ffff77 	bl	5256c <psci_validate_mpidr>
   52794:	350001a0 	cbnz	w0, 527c8 <psci_cpu_on+0x54>
   52798:	aa1503e2 	mov	x2, x21
   5279c:	aa1403e1 	mov	x1, x20
   527a0:	9100e3e0 	add	x0, sp, #0x38
   527a4:	97ffff7a 	bl	5258c <psci_validate_entry_point>
   527a8:	35000080 	cbnz	w0, 527b8 <psci_cpu_on+0x44>
   527ac:	9100e3e1 	add	x1, sp, #0x38
   527b0:	aa1303e0 	mov	x0, x19
   527b4:	94000198 	bl	52e14 <psci_cpu_on_start>
   527b8:	a94153f3 	ldp	x19, x20, [sp, #16]
   527bc:	f94013f5 	ldr	x21, [sp, #32]
   527c0:	a8c97bfd 	ldp	x29, x30, [sp], #144
   527c4:	d65f03c0 	ret
   527c8:	12800020 	mov	w0, #0xfffffffe            	// #-2
   527cc:	17fffffb 	b	527b8 <psci_cpu_on+0x44>

00000000000527d0 <psci_cpu_suspend>:
   527d0:	a9b67bfd 	stp	x29, x30, [sp, #-160]!
   527d4:	910003fd 	mov	x29, sp
   527d8:	a90153f3 	stp	x19, x20, [sp, #16]
   527dc:	2a0003f4 	mov	w20, w0
   527e0:	a9025bf5 	stp	x21, x22, [sp, #32]
   527e4:	aa0103f6 	mov	x22, x1
   527e8:	910103e1 	add	x1, sp, #0x40
   527ec:	f9001bf7 	str	x23, [sp, #48]
   527f0:	aa0203f7 	mov	x23, x2
   527f4:	790083ff 	strh	wzr, [sp, #64]
   527f8:	39010bff 	strb	wzr, [sp, #66]
   527fc:	97fffe15 	bl	52050 <psci_validate_power_state>
   52800:	2a0003f3 	mov	w19, w0
   52804:	35000300 	cbnz	w0, 52864 <psci_cpu_suspend+0x94>
   52808:	910103e0 	add	x0, sp, #0x40
   5280c:	d3504294 	ubfx	x20, x20, #16, #1
   52810:	97ffff19 	bl	52474 <psci_find_target_suspend_lvl>
   52814:	2a0003f5 	mov	w21, w0
   52818:	71000c1f 	cmp	w0, #0x3
   5281c:	540000c1 	b.ne	52834 <psci_cpu_suspend+0x64>  // b.any
   52820:	90000020 	adrp	x0, 56000 <unsigned_num_print.part.0+0x8>
   52824:	9123d800 	add	x0, x0, #0x8f6
   52828:	940007e4 	bl	547b8 <tf_log>
   5282c:	9400085c 	bl	5499c <console_flush>
   52830:	94000cd4 	bl	55b80 <el3_panic>
   52834:	2a000280 	orr	w0, w20, w0
   52838:	35000220 	cbnz	w0, 5287c <psci_cpu_suspend+0xac>
   5283c:	90000040 	adrp	x0, 5a000 <__STACKS_START__+0x1f00>
   52840:	f945e400 	ldr	x0, [x0, #3016]
   52844:	f9400001 	ldr	x1, [x0]
   52848:	b4000381 	cbz	x1, 528b8 <psci_cpu_suspend+0xe8>
   5284c:	394103e0 	ldrb	w0, [sp, #64]
   52850:	d53ed042 	mrs	x2, tpidr_el3
   52854:	39008040 	strb	w0, [x2, #32]
   52858:	d63f0020 	blr	x1
   5285c:	d53ed040 	mrs	x0, tpidr_el3
   52860:	3900801f 	strb	wzr, [x0, #32]
   52864:	2a1303e0 	mov	w0, w19
   52868:	a94153f3 	ldp	x19, x20, [sp, #16]
   5286c:	a9425bf5 	ldp	x21, x22, [sp, #32]
   52870:	f9401bf7 	ldr	x23, [sp, #48]
   52874:	a8ca7bfd 	ldp	x29, x30, [sp], #160
   52878:	d65f03c0 	ret
   5287c:	35000114 	cbnz	w20, 5289c <psci_cpu_suspend+0xcc>
   52880:	2a1403e3 	mov	w3, w20
   52884:	910103e2 	add	x2, sp, #0x40
   52888:	2a1503e1 	mov	w1, w21
   5288c:	910123e0 	add	x0, sp, #0x48
   52890:	940002ba 	bl	53378 <psci_cpu_suspend_start>
   52894:	2a0003f3 	mov	w19, w0
   52898:	17fffff3 	b	52864 <psci_cpu_suspend+0x94>
   5289c:	aa1703e2 	mov	x2, x23
   528a0:	aa1603e1 	mov	x1, x22
   528a4:	910123e0 	add	x0, sp, #0x48
   528a8:	97ffff39 	bl	5258c <psci_validate_entry_point>
   528ac:	2a0003f3 	mov	w19, w0
   528b0:	34fffe80 	cbz	w0, 52880 <psci_cpu_suspend+0xb0>
   528b4:	17ffffec 	b	52864 <psci_cpu_suspend+0x94>
   528b8:	12800033 	mov	w19, #0xfffffffe            	// #-2
   528bc:	17ffffea 	b	52864 <psci_cpu_suspend+0x94>

00000000000528c0 <psci_system_suspend>:
   528c0:	a9b87bfd 	stp	x29, x30, [sp, #-128]!
   528c4:	910003fd 	mov	x29, sp
   528c8:	a90153f3 	stp	x19, x20, [sp, #16]
   528cc:	aa0003f3 	mov	x19, x0
   528d0:	aa0103f4 	mov	x20, x1
   528d4:	97fffdee 	bl	5208c <psci_is_last_on_cpu>
   528d8:	72001c1f 	tst	w0, #0xff
   528dc:	540000a1 	b.ne	528f0 <psci_system_suspend+0x30>  // b.any
   528e0:	12800040 	mov	w0, #0xfffffffd            	// #-3
   528e4:	a94153f3 	ldp	x19, x20, [sp, #16]
   528e8:	a8c87bfd 	ldp	x29, x30, [sp], #128
   528ec:	d65f03c0 	ret
   528f0:	aa1403e2 	mov	x2, x20
   528f4:	aa1303e1 	mov	x1, x19
   528f8:	9100a3e0 	add	x0, sp, #0x28
   528fc:	97ffff24 	bl	5258c <psci_validate_entry_point>
   52900:	35ffff20 	cbnz	w0, 528e4 <psci_system_suspend+0x24>
   52904:	910083e0 	add	x0, sp, #0x20
   52908:	97fffddc 	bl	52078 <psci_query_sys_suspend_pwrstate>
   5290c:	910083e0 	add	x0, sp, #0x20
   52910:	97fffed9 	bl	52474 <psci_find_target_suspend_lvl>
   52914:	7100041f 	cmp	w0, #0x1
   52918:	54fffe49 	b.ls	528e0 <psci_system_suspend+0x20>  // b.plast
   5291c:	910083e2 	add	x2, sp, #0x20
   52920:	9100a3e0 	add	x0, sp, #0x28
   52924:	52800023 	mov	w3, #0x1                   	// #1
   52928:	52800041 	mov	w1, #0x2                   	// #2
   5292c:	94000293 	bl	53378 <psci_cpu_suspend_start>
   52930:	17ffffed 	b	528e4 <psci_system_suspend+0x24>

0000000000052934 <psci_cpu_off>:
   52934:	52800040 	mov	w0, #0x2                   	// #2
   52938:	140000f2 	b	52d00 <psci_do_cpu_off>

000000000005293c <psci_affinity_info>:
   5293c:	340000e1 	cbz	w1, 52958 <psci_affinity_info+0x1c>
   52940:	12800020 	mov	w0, #0xfffffffe            	// #-2
   52944:	d65f03c0 	ret
   52948:	12800020 	mov	w0, #0xfffffffe            	// #-2
   5294c:	f9400bf3 	ldr	x19, [sp, #16]
   52950:	a8c27bfd 	ldp	x29, x30, [sp], #32
   52954:	d65f03c0 	ret
   52958:	a9be7bfd 	stp	x29, x30, [sp, #-32]!
   5295c:	910003fd 	mov	x29, sp
   52960:	f9000bf3 	str	x19, [sp, #16]
   52964:	94000503 	bl	53d70 <plat_core_pos_by_mpidr>
   52968:	2a0003f3 	mov	w19, w0
   5296c:	3100041f 	cmn	w0, #0x1
   52970:	54fffec0 	b.eq	52948 <psci_affinity_info+0xc>  // b.none
   52974:	94000c3f 	bl	55a70 <_cpu_data_by_index>
   52978:	91006000 	add	x0, x0, #0x18
   5297c:	d2800081 	mov	x1, #0x4                   	// #4
   52980:	94000c8c 	bl	55bb0 <flush_dcache_range>
   52984:	2a1303e0 	mov	w0, w19
   52988:	94000c3a 	bl	55a70 <_cpu_data_by_index>
   5298c:	b9401800 	ldr	w0, [x0, #24]
   52990:	17ffffef 	b	5294c <psci_affinity_info+0x10>

0000000000052994 <psci_migrate>:
   52994:	a9bd7bfd 	stp	x29, x30, [sp, #-48]!
   52998:	910003fd 	mov	x29, sp
   5299c:	f9000bf3 	str	x19, [sp, #16]
   529a0:	aa0003f3 	mov	x19, x0
   529a4:	9100a3e0 	add	x0, sp, #0x28
   529a8:	97ffff68 	bl	52748 <psci_spd_migrate_info>
   529ac:	340000e0 	cbz	w0, 529c8 <psci_migrate+0x34>
   529b0:	7100041f 	cmp	w0, #0x1
   529b4:	12800040 	mov	w0, #0xfffffffd            	// #-3
   529b8:	5a9f0000 	csinv	w0, w0, wzr, eq  // eq = none
   529bc:	f9400bf3 	ldr	x19, [sp, #16]
   529c0:	a8c37bfd 	ldp	x29, x30, [sp], #48
   529c4:	d65f03c0 	ret
   529c8:	d53800a0 	mrs	x0, mpidr_el1
   529cc:	f94017e1 	ldr	x1, [sp, #40]
   529d0:	eb00003f 	cmp	x1, x0
   529d4:	54000161 	b.ne	52a00 <psci_migrate+0x6c>  // b.any
   529d8:	aa1303e0 	mov	x0, x19
   529dc:	97fffee4 	bl	5256c <psci_validate_mpidr>
   529e0:	35000140 	cbnz	w0, 52a08 <psci_migrate+0x74>
   529e4:	d53800a0 	mrs	x0, mpidr_el1
   529e8:	90000041 	adrp	x1, 5a000 <__STACKS_START__+0x1f00>
   529ec:	f945e821 	ldr	x1, [x1, #3024]
   529f0:	f9401422 	ldr	x2, [x1, #40]
   529f4:	aa1303e1 	mov	x1, x19
   529f8:	d63f0040 	blr	x2
   529fc:	17fffff0 	b	529bc <psci_migrate+0x28>
   52a00:	128000c0 	mov	w0, #0xfffffff9            	// #-7
   52a04:	17ffffee 	b	529bc <psci_migrate+0x28>
   52a08:	12800020 	mov	w0, #0xfffffffe            	// #-2
   52a0c:	17ffffec 	b	529bc <psci_migrate+0x28>

0000000000052a10 <psci_migrate_info_type>:
   52a10:	a9be7bfd 	stp	x29, x30, [sp, #-32]!
   52a14:	910003fd 	mov	x29, sp
   52a18:	910063e0 	add	x0, sp, #0x18
   52a1c:	97ffff4b 	bl	52748 <psci_spd_migrate_info>
   52a20:	a8c27bfd 	ldp	x29, x30, [sp], #32
   52a24:	d65f03c0 	ret

0000000000052a28 <psci_migrate_info_up_cpu>:
   52a28:	a9be7bfd 	stp	x29, x30, [sp, #-32]!
   52a2c:	910003fd 	mov	x29, sp
   52a30:	910063e0 	add	x0, sp, #0x18
   52a34:	97ffff45 	bl	52748 <psci_spd_migrate_info>
   52a38:	f9400fe1 	ldr	x1, [sp, #24]
   52a3c:	7100041f 	cmp	w0, #0x1
   52a40:	a8c27bfd 	ldp	x29, x30, [sp], #32
   52a44:	92800020 	mov	x0, #0xfffffffffffffffe    	// #-2
   52a48:	9a809020 	csel	x0, x1, x0, ls  // ls = plast
   52a4c:	d65f03c0 	ret

0000000000052a50 <psci_node_hw_state>:
   52a50:	a9be7bfd 	stp	x29, x30, [sp, #-32]!
   52a54:	910003fd 	mov	x29, sp
   52a58:	a90153f3 	stp	x19, x20, [sp, #16]
   52a5c:	aa0003f4 	mov	x20, x0
   52a60:	2a0103f3 	mov	w19, w1
   52a64:	97fffec2 	bl	5256c <psci_validate_mpidr>
   52a68:	35000180 	cbnz	w0, 52a98 <psci_node_hw_state+0x48>
   52a6c:	71000a7f 	cmp	w19, #0x2
   52a70:	54000148 	b.hi	52a98 <psci_node_hw_state+0x48>  // b.pmore
   52a74:	90000040 	adrp	x0, 5a000 <__STACKS_START__+0x1f00>
   52a78:	2a1303e1 	mov	w1, w19
   52a7c:	f945e400 	ldr	x0, [x0, #3016]
   52a80:	f9404402 	ldr	x2, [x0, #136]
   52a84:	aa1403e0 	mov	x0, x20
   52a88:	a94153f3 	ldp	x19, x20, [sp, #16]
   52a8c:	aa0203f0 	mov	x16, x2
   52a90:	a8c27bfd 	ldp	x29, x30, [sp], #32
   52a94:	d61f0200 	br	x16
   52a98:	12800020 	mov	w0, #0xfffffffe            	// #-2
   52a9c:	a94153f3 	ldp	x19, x20, [sp, #16]
   52aa0:	a8c27bfd 	ldp	x29, x30, [sp], #32
   52aa4:	d65f03c0 	ret

0000000000052aa8 <psci_features>:
   52aa8:	b0000141 	adrp	x1, 7b000 <tf_mmap+0x300>
   52aac:	52b00002 	mov	w2, #0x80000000            	// #-2147483648
   52ab0:	b941b421 	ldr	w1, [x1, #436]
   52ab4:	6b02001f 	cmp	w0, w2
   52ab8:	54000240 	b.eq	52b00 <psci_features+0x58>  // b.none
   52abc:	36f00080 	tbz	w0, #30, 52acc <psci_features+0x24>
   52ac0:	528c1742 	mov	w2, #0x60ba                	// #24762
   52ac4:	72a002e2 	movk	w2, #0x17, lsl #16
   52ac8:	0a020021 	and	w1, w1, w2
   52acc:	d3587402 	ubfx	x2, x0, #24, #6
   52ad0:	7100105f 	cmp	w2, #0x4
   52ad4:	540001a1 	b.ne	52b08 <psci_features+0x60>  // b.any
   52ad8:	d3505c04 	ubfx	x4, x0, #16, #8
   52adc:	531f7c02 	lsr	w2, w0, #31
   52ae0:	36f80140 	tbz	w0, #31, 52b08 <psci_features+0x60>
   52ae4:	121b2803 	and	w3, w0, #0xffe0
   52ae8:	2a040063 	orr	w3, w3, w4
   52aec:	350000e3 	cbnz	w3, 52b08 <psci_features+0x60>
   52af0:	1ac02040 	lsl	w0, w2, w0
   52af4:	6a01001f 	tst	w0, w1
   52af8:	5a9f13e0 	csetm	w0, eq  // eq = none
   52afc:	d65f03c0 	ret
   52b00:	52800000 	mov	w0, #0x0                   	// #0
   52b04:	17fffffe 	b	52afc <psci_features+0x54>
   52b08:	12800000 	mov	w0, #0xffffffff            	// #-1
   52b0c:	17fffffc 	b	52afc <psci_features+0x54>

0000000000052b10 <psci_smc_handler>:
   52b10:	360009e7 	tbz	w7, #0, 52c4c <psci_smc_handler+0x13c>
   52b14:	b0000145 	adrp	x5, 7b000 <tf_mmap+0x300>
   52b18:	2a0003e4 	mov	w4, w0
   52b1c:	aa0103e0 	mov	x0, x1
   52b20:	aa0203e1 	mov	x1, x2
   52b24:	b941b4a5 	ldr	w5, [x5, #436]
   52b28:	aa0303e2 	mov	x2, x3
   52b2c:	52800023 	mov	w3, #0x1                   	// #1
   52b30:	1ac42063 	lsl	w3, w3, w4
   52b34:	6a05007f 	tst	w3, w5
   52b38:	540008a0 	b.eq	52c4c <psci_smc_handler+0x13c>  // b.none
   52b3c:	a9bf7bfd 	stp	x29, x30, [sp, #-16]!
   52b40:	910003fd 	mov	x29, sp
   52b44:	37f00704 	tbnz	w4, #30, 52c24 <psci_smc_handler+0x114>
   52b48:	52af8003 	mov	w3, #0x7c000000            	// #2080374784
   52b4c:	0b030084 	add	w4, w4, w3
   52b50:	7100509f 	cmp	w4, #0x14
   52b54:	54000808 	b.hi	52c54 <psci_smc_handler+0x144>  // b.pmore
   52b58:	90000023 	adrp	x3, 56000 <unsigned_num_print.part.0+0x8>
   52b5c:	911d3063 	add	x3, x3, #0x74c
   52b60:	38644863 	ldrb	w3, [x3, w4, uxtw]
   52b64:	10000064 	adr	x4, 52b70 <psci_smc_handler+0x60>
   52b68:	8b238883 	add	x3, x4, w3, sxtb #2
   52b6c:	d61f0060 	br	x3
   52b70:	320083e0 	mov	w0, #0x10001               	// #65537
   52b74:	a8c17bfd 	ldp	x29, x30, [sp], #16
   52b78:	d65f03c0 	ret
   52b7c:	97ffff6e 	bl	52934 <psci_cpu_off>
   52b80:	93407c00 	sxtw	x0, w0
   52b84:	17fffffc 	b	52b74 <psci_smc_handler+0x64>
   52b88:	2a0203e2 	mov	w2, w2
   52b8c:	2a0103e1 	mov	w1, w1
   52b90:	97ffff10 	bl	527d0 <psci_cpu_suspend>
   52b94:	17fffffb 	b	52b80 <psci_smc_handler+0x70>
   52b98:	2a0203e2 	mov	w2, w2
   52b9c:	2a0103e1 	mov	w1, w1
   52ba0:	2a0003e0 	mov	w0, w0
   52ba4:	97fffef4 	bl	52774 <psci_cpu_on>
   52ba8:	17fffff6 	b	52b80 <psci_smc_handler+0x70>
   52bac:	2a0003e0 	mov	w0, w0
   52bb0:	97ffff63 	bl	5293c <psci_affinity_info>
   52bb4:	17fffff3 	b	52b80 <psci_smc_handler+0x70>
   52bb8:	2a0003e0 	mov	w0, w0
   52bbc:	97ffff76 	bl	52994 <psci_migrate>
   52bc0:	17fffff0 	b	52b80 <psci_smc_handler+0x70>
   52bc4:	97ffff93 	bl	52a10 <psci_migrate_info_type>
   52bc8:	17ffffee 	b	52b80 <psci_smc_handler+0x70>
   52bcc:	a8c17bfd 	ldp	x29, x30, [sp], #16
   52bd0:	17ffff96 	b	52a28 <psci_migrate_info_up_cpu>
   52bd4:	2a0003e0 	mov	w0, w0
   52bd8:	97ffff9e 	bl	52a50 <psci_node_hw_state>
   52bdc:	17ffffe9 	b	52b80 <psci_smc_handler+0x70>
   52be0:	2a0103e1 	mov	w1, w1
   52be4:	2a0003e0 	mov	w0, w0
   52be8:	97ffff36 	bl	528c0 <psci_system_suspend>
   52bec:	17ffffe5 	b	52b80 <psci_smc_handler+0x70>
   52bf0:	9400026f 	bl	535ac <psci_system_off>
   52bf4:	9400027c 	bl	535e4 <psci_system_reset>
   52bf8:	97ffffac 	bl	52aa8 <psci_features>
   52bfc:	17ffffe1 	b	52b80 <psci_smc_handler+0x70>
   52c00:	a8c17bfd 	ldp	x29, x30, [sp], #16
   52c04:	14000016 	b	52c5c <psci_mem_protect>
   52c08:	2a0103e1 	mov	w1, w1
   52c0c:	2a0003e0 	mov	w0, w0
   52c10:	a8c17bfd 	ldp	x29, x30, [sp], #16
   52c14:	14000029 	b	52cb8 <psci_mem_chk_range>
   52c18:	2a0103e1 	mov	w1, w1
   52c1c:	a8c17bfd 	ldp	x29, x30, [sp], #16
   52c20:	1400027f 	b	5361c <psci_system_reset2>
   52c24:	12b88003 	mov	w3, #0x3bffffff            	// #1006632959
   52c28:	0b030084 	add	w4, w4, w3
   52c2c:	71004c9f 	cmp	w4, #0x13
   52c30:	54000128 	b.hi	52c54 <psci_smc_handler+0x144>  // b.pmore
   52c34:	90000023 	adrp	x3, 56000 <unsigned_num_print.part.0+0x8>
   52c38:	911d9063 	add	x3, x3, #0x764
   52c3c:	38644863 	ldrb	w3, [x3, w4, uxtw]
   52c40:	10000064 	adr	x4, 52c4c <psci_smc_handler+0x13c>
   52c44:	8b238883 	add	x3, x4, w3, sxtb #2
   52c48:	d61f0060 	br	x3
   52c4c:	92800000 	mov	x0, #0xffffffffffffffff    	// #-1
   52c50:	d65f03c0 	ret
   52c54:	92800000 	mov	x0, #0xffffffffffffffff    	// #-1
   52c58:	17ffffc7 	b	52b74 <psci_smc_handler+0x64>

0000000000052c5c <psci_mem_protect>:
   52c5c:	a9bd7bfd 	stp	x29, x30, [sp, #-48]!
   52c60:	910003fd 	mov	x29, sp
   52c64:	a90153f3 	stp	x19, x20, [sp, #16]
   52c68:	90000054 	adrp	x20, 5a000 <__STACKS_START__+0x1f00>
   52c6c:	2a0003f3 	mov	w19, w0
   52c70:	f945e680 	ldr	x0, [x20, #3016]
   52c74:	f9404c01 	ldr	x1, [x0, #152]
   52c78:	9100b3e0 	add	x0, sp, #0x2c
   52c7c:	d63f0020 	blr	x1
   52c80:	36f800a0 	tbz	w0, #31, 52c94 <psci_mem_protect+0x38>
   52c84:	92800000 	mov	x0, #0xffffffffffffffff    	// #-1
   52c88:	a94153f3 	ldp	x19, x20, [sp, #16]
   52c8c:	a8c37bfd 	ldp	x29, x30, [sp], #48
   52c90:	d65f03c0 	ret
   52c94:	f945e680 	ldr	x0, [x20, #3016]
   52c98:	f9405001 	ldr	x1, [x0, #160]
   52c9c:	2a1303e0 	mov	w0, w19
   52ca0:	d63f0020 	blr	x1
   52ca4:	37ffff00 	tbnz	w0, #31, 52c84 <psci_mem_protect+0x28>
   52ca8:	b9402fe0 	ldr	w0, [sp, #44]
   52cac:	7100001f 	cmp	w0, #0x0
   52cb0:	9a9f07e0 	cset	x0, ne  // ne = any
   52cb4:	17fffff5 	b	52c88 <psci_mem_protect+0x2c>

0000000000052cb8 <psci_mem_chk_range>:
   52cb8:	b50000c1 	cbnz	x1, 52cd0 <psci_mem_chk_range+0x18>
   52cbc:	92800040 	mov	x0, #0xfffffffffffffffd    	// #-3
   52cc0:	d65f03c0 	ret
   52cc4:	92800040 	mov	x0, #0xfffffffffffffffd    	// #-3
   52cc8:	a8c17bfd 	ldp	x29, x30, [sp], #16
   52ccc:	d65f03c0 	ret
   52cd0:	cb0103e2 	neg	x2, x1
   52cd4:	eb00005f 	cmp	x2, x0
   52cd8:	54ffff23 	b.cc	52cbc <psci_mem_chk_range+0x4>  // b.lo, b.ul, b.last
   52cdc:	a9bf7bfd 	stp	x29, x30, [sp, #-16]!
   52ce0:	90000042 	adrp	x2, 5a000 <__STACKS_START__+0x1f00>
   52ce4:	910003fd 	mov	x29, sp
   52ce8:	f945e442 	ldr	x2, [x2, #3016]
   52cec:	f9404842 	ldr	x2, [x2, #144]
   52cf0:	d63f0040 	blr	x2
   52cf4:	37fffe80 	tbnz	w0, #31, 52cc4 <psci_mem_chk_range+0xc>
   52cf8:	d2800000 	mov	x0, #0x0                   	// #0
   52cfc:	17fffff3 	b	52cc8 <psci_mem_chk_range+0x10>

0000000000052d00 <psci_do_cpu_off>:
   52d00:	a9bc7bfd 	stp	x29, x30, [sp, #-64]!
   52d04:	910003fd 	mov	x29, sp
   52d08:	a90153f3 	stp	x19, x20, [sp, #16]
   52d0c:	2a0003f4 	mov	w20, w0
   52d10:	a9025bf5 	stp	x21, x22, [sp, #32]
   52d14:	94000b7e 	bl	55b0c <plat_my_core_pos>
   52d18:	90000055 	adrp	x21, 5a000 <__STACKS_START__+0x1f00>
   52d1c:	2a0003f6 	mov	w22, w0
   52d20:	52800040 	mov	w0, #0x2                   	// #2
   52d24:	3900c3e0 	strb	w0, [sp, #48]
   52d28:	3900c7e0 	strb	w0, [sp, #49]
   52d2c:	3900cbe0 	strb	w0, [sp, #50]
   52d30:	f945e6a0 	ldr	x0, [x21, #3016]
   52d34:	f9001fff 	str	xzr, [sp, #56]
   52d38:	f9400c01 	ldr	x1, [x0, #24]
   52d3c:	b4000161 	cbz	x1, 52d68 <psci_do_cpu_off+0x68>
   52d40:	9100c3e0 	add	x0, sp, #0x30
   52d44:	d63f0020 	blr	x1
   52d48:	2a0003f3 	mov	w19, w0
   52d4c:	31000c1f 	cmn	w0, #0x3
   52d50:	540000e1 	b.ne	52d6c <psci_do_cpu_off+0x6c>  // b.any
   52d54:	2a1303e0 	mov	w0, w19
   52d58:	a94153f3 	ldp	x19, x20, [sp, #16]
   52d5c:	a9425bf5 	ldp	x21, x22, [sp, #32]
   52d60:	a8c47bfd 	ldp	x29, x30, [sp], #64
   52d64:	d65f03c0 	ret
   52d68:	52800013 	mov	w19, #0x0                   	// #0
   52d6c:	9100e3e2 	add	x2, sp, #0x38
   52d70:	2a1403e1 	mov	w1, w20
   52d74:	2a1603e0 	mov	w0, w22
   52d78:	97fffd38 	bl	52258 <psci_get_parent_pwr_domain_nodes>
   52d7c:	2a1403e0 	mov	w0, w20
   52d80:	9100e3e1 	add	x1, sp, #0x38
   52d84:	97fffdc9 	bl	524a8 <psci_acquire_pwr_domain_locks>
   52d88:	90000040 	adrp	x0, 5a000 <__STACKS_START__+0x1f00>
   52d8c:	f945e800 	ldr	x0, [x0, #3024]
   52d90:	b40000e0 	cbz	x0, 52dac <psci_do_cpu_off+0xac>
   52d94:	f9400401 	ldr	x1, [x0, #8]
   52d98:	b40000a1 	cbz	x1, 52dac <psci_do_cpu_off+0xac>
   52d9c:	d2800000 	mov	x0, #0x0                   	// #0
   52da0:	d63f0020 	blr	x1
   52da4:	2a0003f3 	mov	w19, w0
   52da8:	350001c0 	cbnz	w0, 52de0 <psci_do_cpu_off+0xe0>
   52dac:	9100c3e1 	add	x1, sp, #0x30
   52db0:	2a1403e0 	mov	w0, w20
   52db4:	97fffd5b 	bl	52320 <psci_do_state_coordination>
   52db8:	9100c3e1 	add	x1, sp, #0x30
   52dbc:	2a1403e0 	mov	w0, w20
   52dc0:	97fffd09 	bl	521e4 <psci_set_target_local_pwr_states>
   52dc4:	9100c3e0 	add	x0, sp, #0x30
   52dc8:	97fffd9c 	bl	52438 <psci_find_max_off_lvl>
   52dcc:	97fffe69 	bl	52770 <psci_pwrdown_cpu>
   52dd0:	f945e6a0 	ldr	x0, [x21, #3016]
   52dd4:	f9400801 	ldr	x1, [x0, #16]
   52dd8:	9100c3e0 	add	x0, sp, #0x30
   52ddc:	d63f0020 	blr	x1
   52de0:	9100e3e1 	add	x1, sp, #0x38
   52de4:	2a1403e0 	mov	w0, w20
   52de8:	97fffdcb 	bl	52514 <psci_release_pwr_domain_locks>
   52dec:	35fffb53 	cbnz	w19, 52d54 <psci_do_cpu_off+0x54>
   52df0:	d53ed040 	mrs	x0, tpidr_el3
   52df4:	52800021 	mov	w1, #0x1                   	// #1
   52df8:	b9001801 	str	w1, [x0, #24]
   52dfc:	f945e6a0 	ldr	x0, [x21, #3016]
   52e00:	f9402401 	ldr	x1, [x0, #72]
   52e04:	b4000061 	cbz	x1, 52e10 <psci_do_cpu_off+0x110>
   52e08:	9100c3e0 	add	x0, sp, #0x30
   52e0c:	d63f0020 	blr	x1
   52e10:	94000b28 	bl	55ab0 <psci_power_down_wfi>

0000000000052e14 <psci_cpu_on_start>:
   52e14:	a9bc7bfd 	stp	x29, x30, [sp, #-64]!
   52e18:	910003fd 	mov	x29, sp
   52e1c:	a90153f3 	stp	x19, x20, [sp, #16]
   52e20:	aa0003f4 	mov	x20, x0
   52e24:	a9025bf5 	stp	x21, x22, [sp, #32]
   52e28:	aa0103f6 	mov	x22, x1
   52e2c:	d2800195 	mov	x21, #0xc                   	// #12
   52e30:	f9001bf7 	str	x23, [sp, #48]
   52e34:	940003cf 	bl	53d70 <plat_core_pos_by_mpidr>
   52e38:	90000042 	adrp	x2, 5a000 <__STACKS_START__+0x1f00>
   52e3c:	912e2042 	add	x2, x2, #0xb88
   52e40:	8b2052b5 	add	x21, x21, w0, uxtw #4
   52e44:	2a0003f3 	mov	w19, w0
   52e48:	8b0202b5 	add	x21, x21, x2
   52e4c:	aa1503e0 	mov	x0, x21
   52e50:	94000b0e 	bl	55a88 <spin_lock>
   52e54:	2a1303e0 	mov	w0, w19
   52e58:	94000b06 	bl	55a70 <_cpu_data_by_index>
   52e5c:	d2800081 	mov	x1, #0x4                   	// #4
   52e60:	91006000 	add	x0, x0, #0x18
   52e64:	94000b53 	bl	55bb0 <flush_dcache_range>
   52e68:	2a1303e0 	mov	w0, w19
   52e6c:	94000b01 	bl	55a70 <_cpu_data_by_index>
   52e70:	b9401800 	ldr	w0, [x0, #24]
   52e74:	34000780 	cbz	w0, 52f64 <psci_cpu_on_start+0x150>
   52e78:	7100081f 	cmp	w0, #0x2
   52e7c:	54000780 	b.eq	52f6c <psci_cpu_on_start+0x158>  // b.none
   52e80:	90000040 	adrp	x0, 5a000 <__STACKS_START__+0x1f00>
   52e84:	f945e800 	ldr	x0, [x0, #3024]
   52e88:	b40000a0 	cbz	x0, 52e9c <psci_cpu_on_start+0x88>
   52e8c:	f9400001 	ldr	x1, [x0]
   52e90:	b4000061 	cbz	x1, 52e9c <psci_cpu_on_start+0x88>
   52e94:	aa1403e0 	mov	x0, x20
   52e98:	d63f0020 	blr	x1
   52e9c:	2a1303e0 	mov	w0, w19
   52ea0:	52800057 	mov	w23, #0x2                   	// #2
   52ea4:	94000af3 	bl	55a70 <_cpu_data_by_index>
   52ea8:	b9001817 	str	w23, [x0, #24]
   52eac:	2a1303e0 	mov	w0, w19
   52eb0:	94000af0 	bl	55a70 <_cpu_data_by_index>
   52eb4:	91006000 	add	x0, x0, #0x18
   52eb8:	d2800081 	mov	x1, #0x4                   	// #4
   52ebc:	94000b3d 	bl	55bb0 <flush_dcache_range>
   52ec0:	2a1303e0 	mov	w0, w19
   52ec4:	94000aeb 	bl	55a70 <_cpu_data_by_index>
   52ec8:	b9401800 	ldr	w0, [x0, #24]
   52ecc:	6b17001f 	cmp	w0, w23
   52ed0:	54000120 	b.eq	52ef4 <psci_cpu_on_start+0xe0>  // b.none
   52ed4:	2a1303e0 	mov	w0, w19
   52ed8:	94000ae6 	bl	55a70 <_cpu_data_by_index>
   52edc:	b9001817 	str	w23, [x0, #24]
   52ee0:	2a1303e0 	mov	w0, w19
   52ee4:	94000ae3 	bl	55a70 <_cpu_data_by_index>
   52ee8:	91006000 	add	x0, x0, #0x18
   52eec:	d2800081 	mov	x1, #0x4                   	// #4
   52ef0:	94000b30 	bl	55bb0 <flush_dcache_range>
   52ef4:	90000040 	adrp	x0, 5a000 <__STACKS_START__+0x1f00>
   52ef8:	f945e400 	ldr	x0, [x0, #3016]
   52efc:	f9400401 	ldr	x1, [x0, #8]
   52f00:	aa1403e0 	mov	x0, x20
   52f04:	d63f0020 	blr	x1
   52f08:	2a0003f4 	mov	w20, w0
   52f0c:	35000180 	cbnz	w0, 52f3c <psci_cpu_on_start+0x128>
   52f10:	aa1603e1 	mov	x1, x22
   52f14:	2a1303e0 	mov	w0, w19
   52f18:	97fff7d1 	bl	50e5c <cm_init_context_by_index>
   52f1c:	aa1503e0 	mov	x0, x21
   52f20:	94000ae2 	bl	55aa8 <spin_unlock>
   52f24:	2a1403e0 	mov	w0, w20
   52f28:	a94153f3 	ldp	x19, x20, [sp, #16]
   52f2c:	a9425bf5 	ldp	x21, x22, [sp, #32]
   52f30:	f9401bf7 	ldr	x23, [sp, #48]
   52f34:	a8c47bfd 	ldp	x29, x30, [sp], #64
   52f38:	d65f03c0 	ret
   52f3c:	2a1303e0 	mov	w0, w19
   52f40:	94000acc 	bl	55a70 <_cpu_data_by_index>
   52f44:	52800021 	mov	w1, #0x1                   	// #1
   52f48:	b9001801 	str	w1, [x0, #24]
   52f4c:	2a1303e0 	mov	w0, w19
   52f50:	94000ac8 	bl	55a70 <_cpu_data_by_index>
   52f54:	91006000 	add	x0, x0, #0x18
   52f58:	d2800081 	mov	x1, #0x4                   	// #4
   52f5c:	94000b15 	bl	55bb0 <flush_dcache_range>
   52f60:	17ffffef 	b	52f1c <psci_cpu_on_start+0x108>
   52f64:	12800074 	mov	w20, #0xfffffffc            	// #-4
   52f68:	17ffffed 	b	52f1c <psci_cpu_on_start+0x108>
   52f6c:	12800094 	mov	w20, #0xfffffffb            	// #-5
   52f70:	17ffffeb 	b	52f1c <psci_cpu_on_start+0x108>

0000000000052f74 <psci_cpu_on_finish>:
   52f74:	a9bd7bfd 	stp	x29, x30, [sp, #-48]!
   52f78:	910003fd 	mov	x29, sp
   52f7c:	a9025bf5 	stp	x21, x22, [sp, #32]
   52f80:	90000055 	adrp	x21, 5a000 <__STACKS_START__+0x1f00>
   52f84:	a90153f3 	stp	x19, x20, [sp, #16]
   52f88:	2a0003f3 	mov	w19, w0
   52f8c:	aa0103f4 	mov	x20, x1
   52f90:	f945e6a0 	ldr	x0, [x21, #3016]
   52f94:	f9401801 	ldr	x1, [x0, #48]
   52f98:	aa1403e0 	mov	x0, x20
   52f9c:	d63f0020 	blr	x1
   52fa0:	f945e6a0 	ldr	x0, [x21, #3016]
   52fa4:	f9401c01 	ldr	x1, [x0, #56]
   52fa8:	b4000061 	cbz	x1, 52fb4 <psci_cpu_on_finish+0x40>
   52fac:	aa1403e0 	mov	x0, x20
   52fb0:	d63f0020 	blr	x1
   52fb4:	d2800194 	mov	x20, #0xc                   	// #12
   52fb8:	90000055 	adrp	x21, 5a000 <__STACKS_START__+0x1f00>
   52fbc:	8b335294 	add	x20, x20, w19, uxtw #4
   52fc0:	912e22b5 	add	x21, x21, #0xb88
   52fc4:	8b150294 	add	x20, x20, x21
   52fc8:	9400001f 	bl	53044 <psci_arch_setup>
   52fcc:	aa1403e0 	mov	x0, x20
   52fd0:	94000aae 	bl	55a88 <spin_lock>
   52fd4:	aa1403e0 	mov	x0, x20
   52fd8:	94000ab4 	bl	55aa8 <spin_unlock>
   52fdc:	90000040 	adrp	x0, 5a000 <__STACKS_START__+0x1f00>
   52fe0:	f945e800 	ldr	x0, [x0, #3024]
   52fe4:	b40000a0 	cbz	x0, 52ff8 <psci_cpu_on_finish+0x84>
   52fe8:	f9400c01 	ldr	x1, [x0, #24]
   52fec:	b4000061 	cbz	x1, 52ff8 <psci_cpu_on_finish+0x84>
   52ff0:	d2800000 	mov	x0, #0x0                   	// #0
   52ff4:	d63f0020 	blr	x1
   52ff8:	90000034 	adrp	x20, 56000 <unsigned_num_print.part.0+0x8>
   52ffc:	90000036 	adrp	x22, 56000 <unsigned_num_print.part.0+0x8>
   53000:	91300294 	add	x20, x20, #0xc00
   53004:	913002d6 	add	x22, x22, #0xc00
   53008:	eb16029f 	cmp	x20, x22
   5300c:	54000143 	b.cc	53034 <psci_cpu_on_finish+0xc0>  // b.lo, b.ul, b.last
   53010:	d53800a1 	mrs	x1, mpidr_el1
   53014:	d37c7e73 	ubfiz	x19, x19, #4, #32
   53018:	92409c21 	and	x1, x1, #0xffffffffff
   5301c:	9260dc21 	and	x1, x1, #0xffffffff00ffffff
   53020:	f8336aa1 	str	x1, [x21, x19]
   53024:	a94153f3 	ldp	x19, x20, [sp, #16]
   53028:	a9425bf5 	ldp	x21, x22, [sp, #32]
   5302c:	a8c37bfd 	ldp	x29, x30, [sp], #48
   53030:	17fff803 	b	5103c <cm_prepare_el3_exit_ns>
   53034:	f8408681 	ldr	x1, [x20], #8
   53038:	d2800000 	mov	x0, #0x0                   	// #0
   5303c:	d63f0020 	blr	x1
   53040:	17fffff2 	b	53008 <psci_cpu_on_finish+0x94>

0000000000053044 <psci_arch_setup>:
   53044:	a9bf7bfd 	stp	x29, x30, [sp, #-16]!
   53048:	910003fd 	mov	x29, sp
   5304c:	940001c1 	bl	53750 <plat_get_syscnt_freq2>
   53050:	2a0003e0 	mov	w0, w0
   53054:	d51be000 	msr	cntfrq_el0, x0
   53058:	940009e7 	bl	557f4 <init_cpu_ops>
   5305c:	a8c17bfd 	ldp	x29, x30, [sp], #16
   53060:	17fff71b 	b	50ccc <print_errata_status>

0000000000053064 <psci_setup>:
   53064:	a9b87bfd 	stp	x29, x30, [sp, #-128]!
   53068:	910003fd 	mov	x29, sp
   5306c:	a90153f3 	stp	x19, x20, [sp, #16]
   53070:	52800013 	mov	w19, #0x0                   	// #0
   53074:	a9025bf5 	stp	x21, x22, [sp, #32]
   53078:	aa0003f5 	mov	x21, x0
   5307c:	f0000036 	adrp	x22, 5a000 <__STACKS_START__+0x1f00>
   53080:	a90363f7 	stp	x23, x24, [sp, #48]
   53084:	910802d6 	add	x22, x22, #0x200
   53088:	52800017 	mov	w23, #0x0                   	// #0
   5308c:	a9046bf9 	stp	x25, x26, [sp, #64]
   53090:	f000003a 	adrp	x26, 5a000 <__STACKS_START__+0x1f00>
   53094:	912e235a 	add	x26, x26, #0xb88
   53098:	a90573fb 	stp	x27, x28, [sp, #80]
   5309c:	97ffffea 	bl	53044 <psci_arch_setup>
   530a0:	94000331 	bl	53d64 <plat_get_power_domain_tree_desc>
   530a4:	aa0003fb 	mov	x27, x0
   530a8:	52800001 	mov	w1, #0x0                   	// #0
   530ac:	52800039 	mov	w25, #0x1                   	// #1
   530b0:	52800058 	mov	w24, #0x2                   	// #2
   530b4:	0b170323 	add	w3, w25, w23
   530b8:	52800019 	mov	w25, #0x0                   	// #0
   530bc:	14000009 	b	530e0 <psci_setup+0x7c>
   530c0:	38774b7c 	ldrb	w28, [x27, w23, uxtw]
   530c4:	2a0103f3 	mov	w19, w1
   530c8:	0b010384 	add	w4, w28, w1
   530cc:	6b04027f 	cmp	w19, w4
   530d0:	54000d03 	b.cc	53270 <psci_setup+0x20c>  // b.lo, b.ul, b.last
   530d4:	0b1c0339 	add	w25, w25, w28
   530d8:	110006f7 	add	w23, w23, #0x1
   530dc:	2a1303e1 	mov	w1, w19
   530e0:	6b17007f 	cmp	w3, w23
   530e4:	54fffee1 	b.ne	530c0 <psci_setup+0x5c>  // b.any
   530e8:	71000718 	subs	w24, w24, #0x1
   530ec:	540010a0 	b.eq	53300 <psci_setup+0x29c>  // b.none
   530f0:	3100071f 	cmn	w24, #0x1
   530f4:	54fffe01 	b.ne	530b4 <psci_setup+0x50>  // b.any
   530f8:	90000140 	adrp	x0, 7b000 <tf_mmap+0x300>
   530fc:	90000154 	adrp	x20, 7b000 <tf_mmap+0x300>
   53100:	9106c016 	add	x22, x0, #0x1b0
   53104:	9105c294 	add	x20, x20, #0x170
   53108:	b901b013 	str	w19, [x0, #432]
   5310c:	52800018 	mov	w24, #0x0                   	// #0
   53110:	52800017 	mov	w23, #0x0                   	// #0
   53114:	52800013 	mov	w19, #0x0                   	// #0
   53118:	b94002c0 	ldr	w0, [x22]
   5311c:	6b00027f 	cmp	w19, w0
   53120:	54000f43 	b.cc	53308 <psci_setup+0x2a4>  // b.lo, b.ul, b.last
   53124:	d53800b3 	mrs	x19, mpidr_el1
   53128:	94000a79 	bl	55b0c <plat_my_core_pos>
   5312c:	d37c7c00 	ubfiz	x0, x0, #4, #32
   53130:	f0000022 	adrp	x2, 5a000 <__STACKS_START__+0x1f00>
   53134:	912e2042 	add	x2, x2, #0xb88
   53138:	92409e61 	and	x1, x19, #0xffffffffff
   5313c:	f0000033 	adrp	x19, 5a000 <__STACKS_START__+0x1f00>
   53140:	9260dc21 	and	x1, x1, #0xffffffff00ffffff
   53144:	f8206841 	str	x1, [x2, x0]
   53148:	97fffbed 	bl	520fc <psci_init_req_local_pwr_states>
   5314c:	52800040 	mov	w0, #0x2                   	// #2
   53150:	97fffc54 	bl	522a0 <psci_set_pwr_domains_to_run>
   53154:	f94006a0 	ldr	x0, [x21, #8]
   53158:	912f2261 	add	x1, x19, #0xbc8
   5315c:	940002fb 	bl	53d48 <plat_setup_psci_ops>
   53160:	f945e661 	ldr	x1, [x19, #3016]
   53164:	52808223 	mov	w3, #0x411                 	// #1041
   53168:	90000140 	adrp	x0, 7b000 <tf_mmap+0x300>
   5316c:	f9400822 	ldr	x2, [x1, #16]
   53170:	f100005f 	cmp	x2, #0x0
   53174:	528082a2 	mov	w2, #0x415                 	// #1045
   53178:	1a831042 	csel	w2, w2, w3, ne  // ne = any
   5317c:	b901b402 	str	w2, [x0, #436]
   53180:	f9400423 	ldr	x3, [x1, #8]
   53184:	b40000a3 	cbz	x3, 53198 <psci_setup+0x134>
   53188:	f9401823 	ldr	x3, [x1, #48]
   5318c:	b4000063 	cbz	x3, 53198 <psci_setup+0x134>
   53190:	321d0042 	orr	w2, w2, #0x8
   53194:	b901b402 	str	w2, [x0, #436]
   53198:	f9401422 	ldr	x2, [x1, #40]
   5319c:	b40001a2 	cbz	x2, 531d0 <psci_setup+0x16c>
   531a0:	f9402022 	ldr	x2, [x1, #64]
   531a4:	b4000162 	cbz	x2, 531d0 <psci_setup+0x16c>
   531a8:	f9403022 	ldr	x2, [x1, #96]
   531ac:	b4000082 	cbz	x2, 531bc <psci_setup+0x158>
   531b0:	b941b402 	ldr	w2, [x0, #436]
   531b4:	321f0042 	orr	w2, w2, #0x2
   531b8:	b901b402 	str	w2, [x0, #436]
   531bc:	f9403822 	ldr	x2, [x1, #112]
   531c0:	b4000082 	cbz	x2, 531d0 <psci_setup+0x16c>
   531c4:	b941b402 	ldr	w2, [x0, #436]
   531c8:	32120042 	orr	w2, w2, #0x4000
   531cc:	b901b402 	str	w2, [x0, #436]
   531d0:	f9402822 	ldr	x2, [x1, #80]
   531d4:	b4000082 	cbz	x2, 531e4 <psci_setup+0x180>
   531d8:	b941b402 	ldr	w2, [x0, #436]
   531dc:	32180042 	orr	w2, w2, #0x100
   531e0:	b901b402 	str	w2, [x0, #436]
   531e4:	f9402c22 	ldr	x2, [x1, #88]
   531e8:	b4000082 	cbz	x2, 531f8 <psci_setup+0x194>
   531ec:	b941b402 	ldr	w2, [x0, #436]
   531f0:	32170042 	orr	w2, w2, #0x200
   531f4:	b901b402 	str	w2, [x0, #436]
   531f8:	f9404422 	ldr	x2, [x1, #136]
   531fc:	b4000082 	cbz	x2, 5320c <psci_setup+0x1a8>
   53200:	b941b402 	ldr	w2, [x0, #436]
   53204:	32130042 	orr	w2, w2, #0x2000
   53208:	b901b402 	str	w2, [x0, #436]
   5320c:	f9404c22 	ldr	x2, [x1, #152]
   53210:	b40000c2 	cbz	x2, 53228 <psci_setup+0x1c4>
   53214:	f9405022 	ldr	x2, [x1, #160]
   53218:	b4000082 	cbz	x2, 53228 <psci_setup+0x1c4>
   5321c:	b941b402 	ldr	w2, [x0, #436]
   53220:	320d0042 	orr	w2, w2, #0x80000
   53224:	b901b402 	str	w2, [x0, #436]
   53228:	f9404822 	ldr	x2, [x1, #144]
   5322c:	b4000082 	cbz	x2, 5323c <psci_setup+0x1d8>
   53230:	b941b402 	ldr	w2, [x0, #436]
   53234:	320c0042 	orr	w2, w2, #0x100000
   53238:	b901b402 	str	w2, [x0, #436]
   5323c:	f9405421 	ldr	x1, [x1, #168]
   53240:	b4000081 	cbz	x1, 53250 <psci_setup+0x1ec>
   53244:	b941b401 	ldr	w1, [x0, #436]
   53248:	320e0021 	orr	w1, w1, #0x40000
   5324c:	b901b401 	str	w1, [x0, #436]
   53250:	52800000 	mov	w0, #0x0                   	// #0
   53254:	a94153f3 	ldp	x19, x20, [sp, #16]
   53258:	a9425bf5 	ldp	x21, x22, [sp, #32]
   5325c:	a94363f7 	ldp	x23, x24, [sp, #48]
   53260:	a9446bf9 	ldp	x25, x26, [sp, #64]
   53264:	a94573fb 	ldp	x27, x28, [sp, #80]
   53268:	a8c87bfd 	ldp	x29, x30, [sp], #128
   5326c:	d65f03c0 	ret
   53270:	510006e2 	sub	w2, w23, #0x1
   53274:	12003e74 	and	w20, w19, #0xffff
   53278:	340001b8 	cbz	w24, 532ac <psci_setup+0x248>
   5327c:	90000141 	adrp	x1, 7b000 <tf_mmap+0x300>
   53280:	9105c021 	add	x1, x1, #0x170
   53284:	8b34d034 	add	x20, x1, w20, sxtw #4
   53288:	d37c3e60 	ubfiz	x0, x19, #4, #16
   5328c:	8b010001 	add	x1, x0, x1
   53290:	52800040 	mov	w0, #0x2                   	// #2
   53294:	39003698 	strb	w24, [x20, #13]
   53298:	79001c33 	strh	w19, [x1, #14]
   5329c:	b9000a82 	str	w2, [x20, #8]
   532a0:	39003280 	strb	w0, [x20, #12]
   532a4:	11000673 	add	w19, w19, #0x1
   532a8:	17ffff89 	b	530cc <psci_setup+0x68>
   532ac:	8b34d341 	add	x1, x26, w20, sxtw #4
   532b0:	937c7e80 	sbfiz	x0, x20, #4, #32
   532b4:	290d13e3 	stp	w3, w4, [sp, #104]
   532b8:	b9000822 	str	w2, [x1, #8]
   532bc:	92800001 	mov	x1, #0xffffffffffffffff    	// #-1
   532c0:	f8206b41 	str	x1, [x26, x0]
   532c4:	2a1403e0 	mov	w0, w20
   532c8:	940009ea 	bl	55a70 <_cpu_data_by_index>
   532cc:	91006001 	add	x1, x0, #0x18
   532d0:	52800022 	mov	w2, #0x1                   	// #1
   532d4:	b9001802 	str	w2, [x0, #24]
   532d8:	52800060 	mov	w0, #0x3                   	// #3
   532dc:	b9000420 	str	w0, [x1, #4]
   532e0:	52800040 	mov	w0, #0x2                   	// #2
   532e4:	39002020 	strb	w0, [x1, #8]
   532e8:	52804801 	mov	w1, #0x240                 	// #576
   532ec:	2a1403e0 	mov	w0, w20
   532f0:	9ba15a81 	umaddl	x1, w20, w1, x22
   532f4:	97fff365 	bl	50088 <cm_set_context_by_index>
   532f8:	294d13e3 	ldp	w3, w4, [sp, #104]
   532fc:	17ffffea 	b	532a4 <psci_setup+0x240>
   53300:	52800001 	mov	w1, #0x0                   	// #0
   53304:	17ffff6c 	b	530b4 <psci_setup+0x50>
   53308:	9101e3e2 	add	x2, sp, #0x78
   5330c:	2a1303e0 	mov	w0, w19
   53310:	52800041 	mov	w1, #0x2                   	// #2
   53314:	97fffbd1 	bl	52258 <psci_get_parent_pwr_domain_nodes>
   53318:	b9407fe2 	ldr	w2, [sp, #124]
   5331c:	6b02031f 	cmp	w24, w2
   53320:	2a0203e0 	mov	w0, w2
   53324:	54000060 	b.eq	53330 <psci_setup+0x2cc>  // b.none
   53328:	d37cec01 	lsl	x1, x0, #4
   5332c:	b8216a93 	str	w19, [x20, x1]
   53330:	8b001280 	add	x0, x20, x0, lsl #4
   53334:	b9400401 	ldr	w1, [x0, #4]
   53338:	11000421 	add	w1, w1, #0x1
   5333c:	b9000401 	str	w1, [x0, #4]
   53340:	b9407be0 	ldr	w0, [sp, #120]
   53344:	6b0002ff 	cmp	w23, w0
   53348:	2a0003e1 	mov	w1, w0
   5334c:	54000060 	b.eq	53358 <psci_setup+0x2f4>  // b.none
   53350:	d37cec23 	lsl	x3, x1, #4
   53354:	b8236a93 	str	w19, [x20, x3]
   53358:	8b011281 	add	x1, x20, x1, lsl #4
   5335c:	11000673 	add	w19, w19, #0x1
   53360:	2a0203f8 	mov	w24, w2
   53364:	2a0003f7 	mov	w23, w0
   53368:	b9400423 	ldr	w3, [x1, #4]
   5336c:	11000463 	add	w3, w3, #0x1
   53370:	b9000423 	str	w3, [x1, #4]
   53374:	17ffff69 	b	53118 <psci_setup+0xb4>

0000000000053378 <psci_cpu_suspend_start>:
   53378:	a9b97bfd 	stp	x29, x30, [sp, #-112]!
   5337c:	910003fd 	mov	x29, sp
   53380:	a90153f3 	stp	x19, x20, [sp, #16]
   53384:	2a0103f3 	mov	w19, w1
   53388:	aa0203f4 	mov	x20, x2
   5338c:	a9025bf5 	stp	x21, x22, [sp, #32]
   53390:	2a0303f6 	mov	w22, w3
   53394:	a90363f7 	stp	x23, x24, [sp, #48]
   53398:	a9046bf9 	stp	x25, x26, [sp, #64]
   5339c:	aa0003f9 	mov	x25, x0
   533a0:	940009db 	bl	55b0c <plat_my_core_pos>
   533a4:	910183e2 	add	x2, sp, #0x60
   533a8:	2a0003f8 	mov	w24, w0
   533ac:	2a1303e1 	mov	w1, w19
   533b0:	f90033ff 	str	xzr, [sp, #96]
   533b4:	97fffba9 	bl	52258 <psci_get_parent_pwr_domain_nodes>
   533b8:	910183e1 	add	x1, sp, #0x60
   533bc:	2a1303e0 	mov	w0, w19
   533c0:	97fffc3a 	bl	524a8 <psci_acquire_pwr_domain_locks>
   533c4:	d538c100 	mrs	x0, isr_el1
   533c8:	b5000660 	cbnz	x0, 53494 <psci_cpu_suspend_start+0x11c>
   533cc:	aa1403e1 	mov	x1, x20
   533d0:	2a1303e0 	mov	w0, w19
   533d4:	97fffbd3 	bl	52320 <psci_do_state_coordination>
   533d8:	aa1403e1 	mov	x1, x20
   533dc:	2a1303e0 	mov	w0, w19
   533e0:	97fffb81 	bl	521e4 <psci_set_target_local_pwr_states>
   533e4:	340002f6 	cbz	w22, 53440 <psci_cpu_suspend_start+0xc8>
   533e8:	aa1403e0 	mov	x0, x20
   533ec:	f0000015 	adrp	x21, 56000 <unsigned_num_print.part.0+0x8>
   533f0:	f000001a 	adrp	x26, 56000 <unsigned_num_print.part.0+0x8>
   533f4:	97fffc11 	bl	52438 <psci_find_max_off_lvl>
   533f8:	913002b5 	add	x21, x21, #0xc00
   533fc:	2a0003f7 	mov	w23, w0
   53400:	9130035a 	add	x26, x26, #0xc00
   53404:	eb1a02bf 	cmp	x21, x26
   53408:	540003e3 	b.cc	53484 <psci_cpu_suspend_start+0x10c>  // b.lo, b.ul, b.last
   5340c:	d53ed040 	mrs	x0, tpidr_el3
   53410:	b9001c13 	str	w19, [x0, #28]
   53414:	f0000020 	adrp	x0, 5a000 <__STACKS_START__+0x1f00>
   53418:	f945e800 	ldr	x0, [x0, #3024]
   5341c:	b40000a0 	cbz	x0, 53430 <psci_cpu_suspend_start+0xb8>
   53420:	f9400801 	ldr	x1, [x0, #16]
   53424:	b4000061 	cbz	x1, 53430 <psci_cpu_suspend_start+0xb8>
   53428:	2a1703e0 	mov	w0, w23
   5342c:	d63f0020 	blr	x1
   53430:	aa1903e0 	mov	x0, x25
   53434:	97fff696 	bl	50e8c <cm_init_my_context>
   53438:	2a1703e0 	mov	w0, w23
   5343c:	97fffccd 	bl	52770 <psci_pwrdown_cpu>
   53440:	f0000020 	adrp	x0, 5a000 <__STACKS_START__+0x1f00>
   53444:	52800015 	mov	w21, #0x0                   	// #0
   53448:	f945e400 	ldr	x0, [x0, #3016]
   5344c:	f9401401 	ldr	x1, [x0, #40]
   53450:	aa1403e0 	mov	x0, x20
   53454:	d63f0020 	blr	x1
   53458:	910183e1 	add	x1, sp, #0x60
   5345c:	2a1303e0 	mov	w0, w19
   53460:	97fffc2d 	bl	52514 <psci_release_pwr_domain_locks>
   53464:	35000495 	cbnz	w21, 534f4 <psci_cpu_suspend_start+0x17c>
   53468:	f0000035 	adrp	x21, 5a000 <__STACKS_START__+0x1f00>
   5346c:	340001b6 	cbz	w22, 534a0 <psci_cpu_suspend_start+0x128>
   53470:	f945e6a0 	ldr	x0, [x21, #3016]
   53474:	f9402401 	ldr	x1, [x0, #72]
   53478:	b4000121 	cbz	x1, 5349c <psci_cpu_suspend_start+0x124>
   5347c:	aa1403e0 	mov	x0, x20
   53480:	d63f0020 	blr	x1
   53484:	f84086a1 	ldr	x1, [x21], #8
   53488:	d2800000 	mov	x0, #0x0                   	// #0
   5348c:	d63f0020 	blr	x1
   53490:	17ffffdd 	b	53404 <psci_cpu_suspend_start+0x8c>
   53494:	52800035 	mov	w21, #0x1                   	// #1
   53498:	17fffff0 	b	53458 <psci_cpu_suspend_start+0xe0>
   5349c:	94000985 	bl	55ab0 <psci_power_down_wfi>
   534a0:	d503207f 	wfi
   534a4:	9101a3e2 	add	x2, sp, #0x68
   534a8:	2a1303e1 	mov	w1, w19
   534ac:	2a1803e0 	mov	w0, w24
   534b0:	f90037ff 	str	xzr, [sp, #104]
   534b4:	97fffb69 	bl	52258 <psci_get_parent_pwr_domain_nodes>
   534b8:	9101a3e1 	add	x1, sp, #0x68
   534bc:	2a1303e0 	mov	w0, w19
   534c0:	97fffbfa 	bl	524a8 <psci_acquire_pwr_domain_locks>
   534c4:	910163e1 	add	x1, sp, #0x58
   534c8:	2a1303e0 	mov	w0, w19
   534cc:	97fffb22 	bl	52154 <psci_get_target_local_pwr_states>
   534d0:	f945e6a0 	ldr	x0, [x21, #3016]
   534d4:	f9402001 	ldr	x1, [x0, #64]
   534d8:	910163e0 	add	x0, sp, #0x58
   534dc:	d63f0020 	blr	x1
   534e0:	2a1303e0 	mov	w0, w19
   534e4:	97fffb6f 	bl	522a0 <psci_set_pwr_domains_to_run>
   534e8:	9101a3e1 	add	x1, sp, #0x68
   534ec:	2a1303e0 	mov	w0, w19
   534f0:	97fffc09 	bl	52514 <psci_release_pwr_domain_locks>
   534f4:	52800000 	mov	w0, #0x0                   	// #0
   534f8:	a94153f3 	ldp	x19, x20, [sp, #16]
   534fc:	a9425bf5 	ldp	x21, x22, [sp, #32]
   53500:	a94363f7 	ldp	x23, x24, [sp, #48]
   53504:	a9446bf9 	ldp	x25, x26, [sp, #64]
   53508:	a8c77bfd 	ldp	x29, x30, [sp], #112
   5350c:	d65f03c0 	ret

0000000000053510 <psci_cpu_suspend_finish>:
   53510:	a9be7bfd 	stp	x29, x30, [sp, #-32]!
   53514:	f0000020 	adrp	x0, 5a000 <__STACKS_START__+0x1f00>
   53518:	910003fd 	mov	x29, sp
   5351c:	f945e400 	ldr	x0, [x0, #3016]
   53520:	a90153f3 	stp	x19, x20, [sp, #16]
   53524:	aa0103f3 	mov	x19, x1
   53528:	f9402001 	ldr	x1, [x0, #64]
   5352c:	aa1303e0 	mov	x0, x19
   53530:	d63f0020 	blr	x1
   53534:	94000087 	bl	53750 <plat_get_syscnt_freq2>
   53538:	2a0003e0 	mov	w0, w0
   5353c:	d51be000 	msr	cntfrq_el0, x0
   53540:	f0000034 	adrp	x20, 5a000 <__STACKS_START__+0x1f00>
   53544:	f945ea80 	ldr	x0, [x20, #3024]
   53548:	b4000120 	cbz	x0, 5356c <psci_cpu_suspend_finish+0x5c>
   5354c:	f9401000 	ldr	x0, [x0, #32]
   53550:	b40000e0 	cbz	x0, 5356c <psci_cpu_suspend_finish+0x5c>
   53554:	aa1303e0 	mov	x0, x19
   53558:	97fffbb8 	bl	52438 <psci_find_max_off_lvl>
   5355c:	f945ea81 	ldr	x1, [x20, #3024]
   53560:	2a0003e0 	mov	w0, w0
   53564:	f9401021 	ldr	x1, [x1, #32]
   53568:	d63f0020 	blr	x1
   5356c:	d53ed040 	mrs	x0, tpidr_el3
   53570:	f0000013 	adrp	x19, 56000 <unsigned_num_print.part.0+0x8>
   53574:	f0000014 	adrp	x20, 56000 <unsigned_num_print.part.0+0x8>
   53578:	91300273 	add	x19, x19, #0xc00
   5357c:	91300294 	add	x20, x20, #0xc00
   53580:	52800061 	mov	w1, #0x3                   	// #3
   53584:	b9001c01 	str	w1, [x0, #28]
   53588:	eb14027f 	cmp	x19, x20
   5358c:	54000083 	b.cc	5359c <psci_cpu_suspend_finish+0x8c>  // b.lo, b.ul, b.last
   53590:	a94153f3 	ldp	x19, x20, [sp, #16]
   53594:	a8c27bfd 	ldp	x29, x30, [sp], #32
   53598:	17fff6a9 	b	5103c <cm_prepare_el3_exit_ns>
   5359c:	f8408661 	ldr	x1, [x19], #8
   535a0:	d2800000 	mov	x0, #0x0                   	// #0
   535a4:	d63f0020 	blr	x1
   535a8:	17fffff8 	b	53588 <psci_cpu_suspend_finish+0x78>

00000000000535ac <psci_system_off>:
   535ac:	a9bf7bfd 	stp	x29, x30, [sp, #-16]!
   535b0:	910003fd 	mov	x29, sp
   535b4:	97fffc6e 	bl	5276c <psci_print_power_domain_map>
   535b8:	f0000020 	adrp	x0, 5a000 <__STACKS_START__+0x1f00>
   535bc:	f945e800 	ldr	x0, [x0, #3024]
   535c0:	b4000080 	cbz	x0, 535d0 <psci_system_off+0x24>
   535c4:	f9401c00 	ldr	x0, [x0, #56]
   535c8:	b4000040 	cbz	x0, 535d0 <psci_system_off+0x24>
   535cc:	d63f0000 	blr	x0
   535d0:	940004f3 	bl	5499c <console_flush>
   535d4:	f0000020 	adrp	x0, 5a000 <__STACKS_START__+0x1f00>
   535d8:	f945e400 	ldr	x0, [x0, #3016]
   535dc:	f9402800 	ldr	x0, [x0, #80]
   535e0:	d63f0000 	blr	x0

00000000000535e4 <psci_system_reset>:
   535e4:	a9bf7bfd 	stp	x29, x30, [sp, #-16]!
   535e8:	910003fd 	mov	x29, sp
   535ec:	97fffc60 	bl	5276c <psci_print_power_domain_map>
   535f0:	f0000020 	adrp	x0, 5a000 <__STACKS_START__+0x1f00>
   535f4:	f945e800 	ldr	x0, [x0, #3024]
   535f8:	b4000080 	cbz	x0, 53608 <psci_system_reset+0x24>
   535fc:	f9402000 	ldr	x0, [x0, #64]
   53600:	b4000040 	cbz	x0, 53608 <psci_system_reset+0x24>
   53604:	d63f0000 	blr	x0
   53608:	940004e5 	bl	5499c <console_flush>
   5360c:	f0000020 	adrp	x0, 5a000 <__STACKS_START__+0x1f00>
   53610:	f945e400 	ldr	x0, [x0, #3016]
   53614:	f9402c00 	ldr	x0, [x0, #88]
   53618:	d63f0000 	blr	x0

000000000005361c <psci_system_reset2>:
   5361c:	a9bd7bfd 	stp	x29, x30, [sp, #-48]!
   53620:	910003fd 	mov	x29, sp
   53624:	a90153f3 	stp	x19, x20, [sp, #16]
   53628:	2a0003f3 	mov	w19, w0
   5362c:	aa0103f4 	mov	x20, x1
   53630:	f90013f5 	str	x21, [sp, #32]
   53634:	531f7e75 	lsr	w21, w19, #31
   53638:	97fffc4d 	bl	5276c <psci_print_power_domain_map>
   5363c:	36f80233 	tbz	w19, #31, 53680 <psci_system_reset2+0x64>
   53640:	f0000020 	adrp	x0, 5a000 <__STACKS_START__+0x1f00>
   53644:	f945e800 	ldr	x0, [x0, #3024]
   53648:	b5000300 	cbnz	x0, 536a8 <psci_system_reset2+0x8c>
   5364c:	940004d4 	bl	5499c <console_flush>
   53650:	f0000020 	adrp	x0, 5a000 <__STACKS_START__+0x1f00>
   53654:	aa1403e2 	mov	x2, x20
   53658:	2a1303e1 	mov	w1, w19
   5365c:	f945e400 	ldr	x0, [x0, #3016]
   53660:	f9405403 	ldr	x3, [x0, #168]
   53664:	2a1503e0 	mov	w0, w21
   53668:	d63f0060 	blr	x3
   5366c:	93407c00 	sxtw	x0, w0
   53670:	a94153f3 	ldp	x19, x20, [sp, #16]
   53674:	f94013f5 	ldr	x21, [sp, #32]
   53678:	a8c37bfd 	ldp	x29, x30, [sp], #48
   5367c:	d65f03c0 	ret
   53680:	350001d3 	cbnz	w19, 536b8 <psci_system_reset2+0x9c>
   53684:	f0000020 	adrp	x0, 5a000 <__STACKS_START__+0x1f00>
   53688:	f945e400 	ldr	x0, [x0, #3016]
   5368c:	f9405001 	ldr	x1, [x0, #160]
   53690:	b4fffd81 	cbz	x1, 53640 <psci_system_reset2+0x24>
   53694:	52800000 	mov	w0, #0x0                   	// #0
   53698:	d63f0020 	blr	x1
   5369c:	36fffd20 	tbz	w0, #31, 53640 <psci_system_reset2+0x24>
   536a0:	92800000 	mov	x0, #0xffffffffffffffff    	// #-1
   536a4:	17fffff3 	b	53670 <psci_system_reset2+0x54>
   536a8:	f9402000 	ldr	x0, [x0, #64]
   536ac:	b4fffd00 	cbz	x0, 5364c <psci_system_reset2+0x30>
   536b0:	d63f0000 	blr	x0
   536b4:	17ffffe6 	b	5364c <psci_system_reset2+0x30>
   536b8:	92800020 	mov	x0, #0xfffffffffffffffe    	// #-2
   536bc:	17ffffed 	b	53670 <psci_system_reset2+0x54>

00000000000536c0 <plat_ic_get_pending_interrupt_type>:
   536c0:	a9bf7bfd 	stp	x29, x30, [sp, #-16]!
   536c4:	910003fd 	mov	x29, sp
   536c8:	97fff55f 	bl	50c44 <gicv3_get_pending_interrupt_type>
   536cc:	510ff000 	sub	w0, w0, #0x3fc
   536d0:	71000c1f 	cmp	w0, #0x3
   536d4:	540000c8 	b.hi	536ec <plat_ic_get_pending_interrupt_type+0x2c>  // b.pmore
   536d8:	f0000001 	adrp	x1, 56000 <unsigned_num_print.part.0+0x8>
   536dc:	9124a421 	add	x1, x1, #0x929
   536e0:	38604820 	ldrb	w0, [x1, w0, uxtw]
   536e4:	a8c17bfd 	ldp	x29, x30, [sp], #16
   536e8:	d65f03c0 	ret
   536ec:	52800020 	mov	w0, #0x1                   	// #1
   536f0:	17fffffd 	b	536e4 <plat_ic_get_pending_interrupt_type+0x24>

00000000000536f4 <plat_configure_mmu_el3>:
   536f4:	a9be7bfd 	stp	x29, x30, [sp, #-32]!
   536f8:	910003fd 	mov	x29, sp
   536fc:	a90153f3 	stp	x19, x20, [sp, #16]
   53700:	aa0203f3 	mov	x19, x2
   53704:	aa0303f4 	mov	x20, x3
   53708:	aa0103e2 	mov	x2, x1
   5370c:	52800143 	mov	w3, #0xa                   	// #10
   53710:	aa0003e1 	mov	x1, x0
   53714:	9400054c 	bl	54c44 <mmap_add_region>
   53718:	cb130282 	sub	x2, x20, x19
   5371c:	aa1303e1 	mov	x1, x19
   53720:	52800043 	mov	w3, #0x2                   	// #2
   53724:	aa1303e0 	mov	x0, x19
   53728:	94000547 	bl	54c44 <mmap_add_region>
   5372c:	f0000000 	adrp	x0, 56000 <unsigned_num_print.part.0+0x8>
   53730:	911a8000 	add	x0, x0, #0x6a0
   53734:	94000551 	bl	54c78 <mmap_add>
   53738:	940001e8 	bl	53ed8 <rockchip_plat_mmu_el3>
   5373c:	94000553 	bl	54c88 <init_xlat_tables>
   53740:	a94153f3 	ldp	x19, x20, [sp, #16]
   53744:	52800000 	mov	w0, #0x0                   	// #0
   53748:	a8c27bfd 	ldp	x29, x30, [sp], #32
   5374c:	1400055e 	b	54cc4 <enable_mmu_el3>

0000000000053750 <plat_get_syscnt_freq2>:
   53750:	5286c000 	mov	w0, #0x3600                	// #13824
   53754:	72a02dc0 	movk	w0, #0x16e, lsl #16
   53758:	d65f03c0 	ret

000000000005375c <plat_cci_init>:
   5375c:	d65f03c0 	ret

0000000000053760 <plat_cci_enable>:
   53760:	d65f03c0 	ret

0000000000053764 <plat_cci_disable>:
   53764:	d65f03c0 	ret

0000000000053768 <bl31_plat_get_next_image_ep_info>:
   53768:	7100041f 	cmp	w0, #0x1
   5376c:	f0000021 	adrp	x1, 5a000 <__STACKS_START__+0x1f00>
   53770:	f0000022 	adrp	x2, 5a000 <__STACKS_START__+0x1f00>
   53774:	9130c020 	add	x0, x1, #0xc30
   53778:	912f6042 	add	x2, x2, #0xbd8
   5377c:	9a820000 	csel	x0, x0, x2, eq  // eq = none
   53780:	f9400401 	ldr	x1, [x0, #8]
   53784:	f100003f 	cmp	x1, #0x0
   53788:	9a9f1000 	csel	x0, x0, xzr, ne  // ne = any
   5378c:	d65f03c0 	ret

0000000000053790 <bl31_early_platform_setup2>:
   53790:	a9bd7bfd 	stp	x29, x30, [sp, #-48]!
   53794:	910003fd 	mov	x29, sp
   53798:	a90153f3 	stp	x19, x20, [sp, #16]
   5379c:	aa0003f3 	mov	x19, x0
   537a0:	aa0103e0 	mov	x0, x1
   537a4:	f90013f5 	str	x21, [sp, #32]
   537a8:	9400006d 	bl	5395c <params_early_setup>
   537ac:	94000063 	bl	53938 <rockchip_get_uart_base>
   537b0:	34000180 	cbz	w0, 537e0 <bl31_early_platform_setup2+0x50>
   537b4:	94000061 	bl	53938 <rockchip_get_uart_base>
   537b8:	2a0003f4 	mov	w20, w0
   537bc:	94000065 	bl	53950 <rockchip_get_uart_clock>
   537c0:	2a0003f5 	mov	w21, w0
   537c4:	94000060 	bl	53944 <rockchip_get_uart_baudrate>
   537c8:	2a0003e2 	mov	w2, w0
   537cc:	f0000023 	adrp	x3, 5a000 <__STACKS_START__+0x1f00>
   537d0:	2a1503e1 	mov	w1, w21
   537d4:	91322063 	add	x3, x3, #0xc88
   537d8:	2a1403e0 	mov	w0, w20
   537dc:	940007b3 	bl	556a8 <console_16550_register>
   537e0:	aa1303e0 	mov	x0, x19
   537e4:	f0000022 	adrp	x2, 5a000 <__STACKS_START__+0x1f00>
   537e8:	a94153f3 	ldp	x19, x20, [sp, #16]
   537ec:	9130c042 	add	x2, x2, #0xc30
   537f0:	f94013f5 	ldr	x21, [sp, #32]
   537f4:	f0000021 	adrp	x1, 5a000 <__STACKS_START__+0x1f00>
   537f8:	a8c37bfd 	ldp	x29, x30, [sp], #48
   537fc:	912f6021 	add	x1, x1, #0xbd8
   53800:	140006cb 	b	5532c <bl31_params_parse_helper>

0000000000053804 <bl31_platform_setup>:
   53804:	a9bf7bfd 	stp	x29, x30, [sp, #-16]!
   53808:	910003fd 	mov	x29, sp
   5380c:	97fff51f 	bl	50c88 <generic_delay_timer_init>
   53810:	9400033e 	bl	54508 <plat_rockchip_soc_init>
   53814:	9400015d 	bl	53d88 <plat_rockchip_gic_driver_init>
   53818:	9400015f 	bl	53d94 <plat_rockchip_gic_init>
   5381c:	a8c17bfd 	ldp	x29, x30, [sp], #16
   53820:	140002de 	b	54398 <plat_rockchip_pmu_init>

0000000000053824 <bl31_plat_arch_setup>:
   53824:	a9bf7bfd 	stp	x29, x30, [sp, #-16]!
   53828:	910003fd 	mov	x29, sp
   5382c:	97ffffcc 	bl	5375c <plat_cci_init>
   53830:	97ffffcc 	bl	53760 <plat_cci_enable>
   53834:	a8c17bfd 	ldp	x29, x30, [sp], #16
   53838:	b0ffff60 	adrp	x0, 40000 <bl31_entrypoint>
   5383c:	f00001c1 	adrp	x1, 8e000 <RAM_REGION_END>
   53840:	91000000 	add	x0, x0, #0x0
   53844:	91000021 	add	x1, x1, #0x0
   53848:	b0000023 	adrp	x3, 58000 <__RO_END__>
   5384c:	cb000021 	sub	x1, x1, x0
   53850:	91000063 	add	x3, x3, #0x0
   53854:	b0ffff62 	adrp	x2, 40000 <bl31_entrypoint>
   53858:	91000042 	add	x2, x2, #0x0
   5385c:	17ffffa6 	b	536f4 <plat_configure_mmu_el3>

0000000000053860 <rk_aux_param_handler>:
   53860:	f9400001 	ldr	x1, [x0]
   53864:	d1000421 	sub	x1, x1, #0x1
   53868:	f1000c3f 	cmp	x1, #0x3
   5386c:	54000628 	b.hi	53930 <rk_aux_param_handler+0xd0>  // b.pmore
   53870:	71000c3f 	cmp	w1, #0x3
   53874:	540005e8 	b.hi	53930 <rk_aux_param_handler+0xd0>  // b.pmore
   53878:	f0000002 	adrp	x2, 56000 <unsigned_num_print.part.0+0x8>
   5387c:	911de042 	add	x2, x2, #0x778
   53880:	38614841 	ldrb	w1, [x2, w1, uxtw]
   53884:	10000062 	adr	x2, 53890 <rk_aux_param_handler+0x30>
   53888:	8b218841 	add	x1, x2, w1, sxtb #2
   5388c:	d61f0020 	br	x1
   53890:	b0000021 	adrp	x1, 58000 <__RO_END__>
   53894:	b9401003 	ldr	w3, [x0, #16]
   53898:	91033022 	add	x2, x1, #0xcc
   5389c:	b900cc23 	str	w3, [x1, #204]
   538a0:	b9401400 	ldr	w0, [x0, #20]
   538a4:	b9000440 	str	w0, [x2, #4]
   538a8:	52800020 	mov	w0, #0x1                   	// #1
   538ac:	d65f03c0 	ret
   538b0:	b0000021 	adrp	x1, 58000 <__RO_END__>
   538b4:	b9401003 	ldr	w3, [x0, #16]
   538b8:	9102f022 	add	x2, x1, #0xbc
   538bc:	b900bc23 	str	w3, [x1, #188]
   538c0:	17fffff8 	b	538a0 <rk_aux_param_handler+0x40>
   538c4:	90000142 	adrp	x2, 7b000 <tf_mmap+0x300>
   538c8:	b9420841 	ldr	w1, [x2, #520]
   538cc:	7100243f 	cmp	w1, #0x9
   538d0:	54000129 	b.ls	538f4 <rk_aux_param_handler+0x94>  // b.plast
   538d4:	a9bf7bfd 	stp	x29, x30, [sp, #-16]!
   538d8:	f0000000 	adrp	x0, 56000 <unsigned_num_print.part.0+0x8>
   538dc:	9124b400 	add	x0, x0, #0x92d
   538e0:	910003fd 	mov	x29, sp
   538e4:	940003b5 	bl	547b8 <tf_log>
   538e8:	52800020 	mov	w0, #0x1                   	// #1
   538ec:	a8c17bfd 	ldp	x29, x30, [sp], #16
   538f0:	d65f03c0 	ret
   538f4:	11000423 	add	w3, w1, #0x1
   538f8:	d37d7c21 	ubfiz	x1, x1, #3, #32
   538fc:	b9020843 	str	w3, [x2, #520]
   53900:	90000142 	adrp	x2, 7b000 <tf_mmap+0x300>
   53904:	9106e042 	add	x2, x2, #0x1b8
   53908:	b9401004 	ldr	w4, [x0, #16]
   5390c:	8b010043 	add	x3, x2, x1
   53910:	b8216844 	str	w4, [x2, x1]
   53914:	b9401400 	ldr	w0, [x0, #20]
   53918:	b9000460 	str	w0, [x3, #4]
   5391c:	17ffffe3 	b	538a8 <rk_aux_param_handler+0x48>
   53920:	39404001 	ldrb	w1, [x0, #16]
   53924:	90000140 	adrp	x0, 7b000 <tf_mmap+0x300>
   53928:	390a6401 	strb	w1, [x0, #665]
   5392c:	17ffffdf 	b	538a8 <rk_aux_param_handler+0x48>
   53930:	52800000 	mov	w0, #0x0                   	// #0
   53934:	d65f03c0 	ret

0000000000053938 <rockchip_get_uart_base>:
   53938:	b0000020 	adrp	x0, 58000 <__RO_END__>
   5393c:	b940c400 	ldr	w0, [x0, #196]
   53940:	d65f03c0 	ret

0000000000053944 <rockchip_get_uart_baudrate>:
   53944:	b0000020 	adrp	x0, 58000 <__RO_END__>
   53948:	b940c800 	ldr	w0, [x0, #200]
   5394c:	d65f03c0 	ret

0000000000053950 <rockchip_get_uart_clock>:
   53950:	5286c000 	mov	w0, #0x3600                	// #13824
   53954:	72a02dc0 	movk	w0, #0x16e, lsl #16
   53958:	d65f03c0 	ret

000000000005395c <params_early_setup>:
   5395c:	a9bd7bfd 	stp	x29, x30, [sp, #-48]!
   53960:	52a00042 	mov	w2, #0x20000               	// #131072
   53964:	910003fd 	mov	x29, sp
   53968:	a90153f3 	stp	x19, x20, [sp, #16]
   5396c:	f0000033 	adrp	x19, 5a000 <__STACKS_START__+0x1f00>
   53970:	9132e273 	add	x19, x19, #0xcb8
   53974:	aa0003f4 	mov	x20, x0
   53978:	aa1303e1 	mov	x1, x19
   5397c:	97fff938 	bl	51e5c <fdt_open_into>
   53980:	37f80680 	tbnz	w0, #31, 53a50 <params_early_setup+0xf4>
   53984:	f0000001 	adrp	x1, 56000 <unsigned_num_print.part.0+0x8>
   53988:	91256c21 	add	x1, x1, #0x95b
   5398c:	aa1303e0 	mov	x0, x19
   53990:	97fff8c5 	bl	51ca4 <fdt_path_offset>
   53994:	2a0003e1 	mov	w1, w0
   53998:	37f80440 	tbnz	w0, #31, 53a20 <params_early_setup+0xc4>
   5399c:	aa1303e0 	mov	x0, x19
   539a0:	9100b3e3 	add	x3, sp, #0x2c
   539a4:	f0000002 	adrp	x2, 56000 <unsigned_num_print.part.0+0x8>
   539a8:	91258c42 	add	x2, x2, #0x963
   539ac:	97fff852 	bl	51af4 <fdt_getprop>
   539b0:	aa0003f3 	mov	x19, x0
   539b4:	b4000360 	cbz	x0, 53a20 <params_early_setup+0xc4>
   539b8:	aa0003e1 	mov	x1, x0
   539bc:	d28000c2 	mov	x2, #0x6                   	// #6
   539c0:	f0000000 	adrp	x0, 56000 <unsigned_num_print.part.0+0x8>
   539c4:	9125bc00 	add	x0, x0, #0x96f
   539c8:	94000ae1 	bl	5654c <strncmp>
   539cc:	350002a0 	cbnz	w0, 53a20 <params_early_setup+0xc4>
   539d0:	39401a60 	ldrb	w0, [x19, #6]
   539d4:	5100c000 	sub	w0, w0, #0x30
   539d8:	7100081f 	cmp	w0, #0x2
   539dc:	54000228 	b.hi	53a20 <params_early_setup+0xc4>  // b.pmore
   539e0:	f0000001 	adrp	x1, 56000 <unsigned_num_print.part.0+0x8>
   539e4:	911df021 	add	x1, x1, #0x77c
   539e8:	b8605821 	ldr	w1, [x1, w0, uxtw #2]
   539ec:	b0000020 	adrp	x0, 58000 <__RO_END__>
   539f0:	b900c401 	str	w1, [x0, #196]
   539f4:	aa1303e0 	mov	x0, x19
   539f8:	52800741 	mov	w1, #0x3a                  	// #58
   539fc:	94000ac4 	bl	5650c <strchr>
   53a00:	b4000100 	cbz	x0, 53a20 <params_early_setup+0xc4>
   53a04:	91000400 	add	x0, x0, #0x1
   53a08:	52800001 	mov	w1, #0x0                   	// #0
   53a0c:	52800144 	mov	w4, #0xa                   	// #10
   53a10:	39400002 	ldrb	w2, [x0]
   53a14:	350000c2 	cbnz	w2, 53a2c <params_early_setup+0xd0>
   53a18:	b0000020 	adrp	x0, 58000 <__RO_END__>
   53a1c:	b900c801 	str	w1, [x0, #200]
   53a20:	a94153f3 	ldp	x19, x20, [sp, #16]
   53a24:	a8c37bfd 	ldp	x29, x30, [sp], #48
   53a28:	d65f03c0 	ret
   53a2c:	5101b843 	sub	w3, w2, #0x6e
   53a30:	7101945f 	cmp	w2, #0x65
   53a34:	12001c63 	and	w3, w3, #0xff
   53a38:	7a411860 	ccmp	w3, #0x1, #0x0, ne  // ne = any
   53a3c:	54fffee9 	b.ls	53a18 <params_early_setup+0xbc>  // b.plast
   53a40:	1b040821 	madd	w1, w1, w4, w2
   53a44:	91000400 	add	x0, x0, #0x1
   53a48:	5100c021 	sub	w1, w1, #0x30
   53a4c:	17fffff1 	b	53a10 <params_early_setup+0xb4>
   53a50:	3100241f 	cmn	w0, #0x9
   53a54:	54fffe61 	b.ne	53a20 <params_early_setup+0xc4>  // b.any
   53a58:	aa1403e0 	mov	x0, x20
   53a5c:	90000001 	adrp	x1, 53000 <psci_cpu_on_finish+0x8c>
   53a60:	a94153f3 	ldp	x19, x20, [sp, #16]
   53a64:	91218021 	add	x1, x1, #0x860
   53a68:	a8c37bfd 	ldp	x29, x30, [sp], #48
   53a6c:	1400065b 	b	553d8 <bl_aux_params_parse>

0000000000053a70 <rockchip_validate_power_state>:
   53a70:	2a0003e3 	mov	w3, w0
   53a74:	d3586462 	ubfx	x2, x3, #24, #2
   53a78:	d3504060 	ubfx	x0, x3, #16, #1
   53a7c:	71000c5f 	cmp	w2, #0x3
   53a80:	54000100 	b.eq	53aa0 <rockchip_validate_power_state+0x30>  // b.none
   53a84:	35000120 	cbnz	w0, 53aa8 <rockchip_validate_power_state+0x38>
   53a88:	350000c2 	cbnz	w2, 53aa0 <rockchip_validate_power_state+0x30>
   53a8c:	52800020 	mov	w0, #0x1                   	// #1
   53a90:	39000020 	strb	w0, [x1]
   53a94:	52800000 	mov	w0, #0x0                   	// #0
   53a98:	72003c7f 	tst	w3, #0xffff
   53a9c:	54000040 	b.eq	53aa4 <rockchip_validate_power_state+0x34>  // b.none
   53aa0:	12800020 	mov	w0, #0xfffffffe            	// #-2
   53aa4:	d65f03c0 	ret
   53aa8:	52800040 	mov	w0, #0x2                   	// #2
   53aac:	39000020 	strb	w0, [x1]
   53ab0:	340000a2 	cbz	w2, 53ac4 <rockchip_validate_power_state+0x54>
   53ab4:	39000420 	strb	w0, [x1, #1]
   53ab8:	7100085f 	cmp	w2, #0x2
   53abc:	54000041 	b.ne	53ac4 <rockchip_validate_power_state+0x54>  // b.any
   53ac0:	39000822 	strb	w2, [x1, #2]
   53ac4:	11000442 	add	w2, w2, #0x1
   53ac8:	52800020 	mov	w0, #0x1                   	// #1
   53acc:	93407c42 	sxtw	x2, w2
   53ad0:	71000c5f 	cmp	w2, #0x3
   53ad4:	54fffe00 	b.eq	53a94 <rockchip_validate_power_state+0x24>  // b.none
   53ad8:	38226820 	strb	w0, [x1, x2]
   53adc:	91000442 	add	x2, x2, #0x1
   53ae0:	17fffffc 	b	53ad0 <rockchip_validate_power_state+0x60>

0000000000053ae4 <rockchip_get_sys_suspend_power_state>:
   53ae4:	52800041 	mov	w1, #0x2                   	// #2
   53ae8:	39000001 	strb	w1, [x0]
   53aec:	39000401 	strb	w1, [x0, #1]
   53af0:	39000801 	strb	w1, [x0, #2]
   53af4:	d65f03c0 	ret

0000000000053af8 <rockchip_cpu_standby>:
   53af8:	d53e1100 	mrs	x0, scr_el3
   53afc:	b27f0001 	orr	x1, x0, #0x2
   53b00:	d51e1101 	msr	scr_el3, x1
   53b04:	d5033fdf 	isb
   53b08:	d5033f9f 	dsb	sy
   53b0c:	d503207f 	wfi
   53b10:	d51e1100 	msr	scr_el3, x0
   53b14:	d65f03c0 	ret

0000000000053b18 <rockchip_pwr_domain_on>:
   53b18:	f0000121 	adrp	x1, 7a000 <fdt_buffer+0x1f348>
   53b1c:	f9465c21 	ldr	x1, [x1, #3256]
   53b20:	140001d3 	b	5426c <rockchip_soc_cores_pwr_dm_on>

0000000000053b24 <rockchip_soc_hlvl_pwr_dm_off>:
   53b24:	12800000 	mov	w0, #0xffffffff            	// #-1
   53b28:	d65f03c0 	ret

0000000000053b2c <rockchip_pwr_domain_off>:
   53b2c:	a9be7bfd 	stp	x29, x30, [sp, #-32]!
   53b30:	910003fd 	mov	x29, sp
   53b34:	f9000bf3 	str	x19, [sp, #16]
   53b38:	aa0003f3 	mov	x19, x0
   53b3c:	940000a3 	bl	53dc8 <plat_rockchip_gic_cpuif_disable>
   53b40:	39400660 	ldrb	w0, [x19, #1]
   53b44:	7100081f 	cmp	w0, #0x2
   53b48:	54000041 	b.ne	53b50 <rockchip_pwr_domain_off+0x24>  // b.any
   53b4c:	97ffff06 	bl	53764 <plat_cci_disable>
   53b50:	940001f0 	bl	54310 <rockchip_soc_cores_pwr_dm_off>
   53b54:	39400661 	ldrb	w1, [x19, #1]
   53b58:	52800020 	mov	w0, #0x1                   	// #1
   53b5c:	97fffff2 	bl	53b24 <rockchip_soc_hlvl_pwr_dm_off>
   53b60:	3100041f 	cmn	w0, #0x1
   53b64:	540000c0 	b.eq	53b7c <rockchip_pwr_domain_off+0x50>  // b.none
   53b68:	39400a61 	ldrb	w1, [x19, #2]
   53b6c:	52800040 	mov	w0, #0x2                   	// #2
   53b70:	f9400bf3 	ldr	x19, [sp, #16]
   53b74:	a8c27bfd 	ldp	x29, x30, [sp], #32
   53b78:	17ffffeb 	b	53b24 <rockchip_soc_hlvl_pwr_dm_off>
   53b7c:	f9400bf3 	ldr	x19, [sp, #16]
   53b80:	a8c27bfd 	ldp	x29, x30, [sp], #32
   53b84:	d65f03c0 	ret

0000000000053b88 <rockchip_soc_hlvl_pwr_dm_suspend>:
   53b88:	12800000 	mov	w0, #0xffffffff            	// #-1
   53b8c:	d65f03c0 	ret

0000000000053b90 <rockchip_pwr_domain_suspend>:
   53b90:	a9be7bfd 	stp	x29, x30, [sp, #-32]!
   53b94:	910003fd 	mov	x29, sp
   53b98:	f9000bf3 	str	x19, [sp, #16]
   53b9c:	aa0003f3 	mov	x19, x0
   53ba0:	39400000 	ldrb	w0, [x0]
   53ba4:	7100081f 	cmp	w0, #0x2
   53ba8:	54000321 	b.ne	53c0c <rockchip_pwr_domain_suspend+0x7c>  // b.any
   53bac:	94000087 	bl	53dc8 <plat_rockchip_gic_cpuif_disable>
   53bb0:	39400a60 	ldrb	w0, [x19, #2]
   53bb4:	7100081f 	cmp	w0, #0x2
   53bb8:	54000261 	b.ne	53c04 <rockchip_pwr_domain_suspend+0x74>  // b.any
   53bbc:	940000cc 	bl	53eec <rockchip_soc_sys_pwr_dm_suspend>
   53bc0:	39400660 	ldrb	w0, [x19, #1]
   53bc4:	7100081f 	cmp	w0, #0x2
   53bc8:	54000041 	b.ne	53bd0 <rockchip_pwr_domain_suspend+0x40>  // b.any
   53bcc:	97fffee6 	bl	53764 <plat_cci_disable>
   53bd0:	39400a60 	ldrb	w0, [x19, #2]
   53bd4:	7100081f 	cmp	w0, #0x2
   53bd8:	540001a0 	b.eq	53c0c <rockchip_pwr_domain_suspend+0x7c>  // b.none
   53bdc:	39400661 	ldrb	w1, [x19, #1]
   53be0:	52800020 	mov	w0, #0x1                   	// #1
   53be4:	97ffffe9 	bl	53b88 <rockchip_soc_hlvl_pwr_dm_suspend>
   53be8:	3100041f 	cmn	w0, #0x1
   53bec:	54000100 	b.eq	53c0c <rockchip_pwr_domain_suspend+0x7c>  // b.none
   53bf0:	39400a61 	ldrb	w1, [x19, #2]
   53bf4:	52800040 	mov	w0, #0x2                   	// #2
   53bf8:	f9400bf3 	ldr	x19, [sp, #16]
   53bfc:	a8c27bfd 	ldp	x29, x30, [sp], #32
   53c00:	17ffffe2 	b	53b88 <rockchip_soc_hlvl_pwr_dm_suspend>
   53c04:	940000b6 	bl	53edc <rockchip_soc_cores_pwr_dm_suspend>
   53c08:	17ffffee 	b	53bc0 <rockchip_pwr_domain_suspend+0x30>
   53c0c:	f9400bf3 	ldr	x19, [sp, #16]
   53c10:	a8c27bfd 	ldp	x29, x30, [sp], #32
   53c14:	d65f03c0 	ret

0000000000053c18 <rockchip_soc_hlvl_pwr_dm_on_finish>:
   53c18:	12800000 	mov	w0, #0xffffffff            	// #-1
   53c1c:	d65f03c0 	ret

0000000000053c20 <rockchip_pwr_domain_on_finish>:
   53c20:	a9be7bfd 	stp	x29, x30, [sp, #-32]!
   53c24:	910003fd 	mov	x29, sp
   53c28:	f9000bf3 	str	x19, [sp, #16]
   53c2c:	aa0003f3 	mov	x19, x0
   53c30:	39400401 	ldrb	w1, [x0, #1]
   53c34:	52800020 	mov	w0, #0x1                   	// #1
   53c38:	97fffff8 	bl	53c18 <rockchip_soc_hlvl_pwr_dm_on_finish>
   53c3c:	3100041f 	cmn	w0, #0x1
   53c40:	54000080 	b.eq	53c50 <rockchip_pwr_domain_on_finish+0x30>  // b.none
   53c44:	39400a61 	ldrb	w1, [x19, #2]
   53c48:	52800040 	mov	w0, #0x2                   	// #2
   53c4c:	97fffff3 	bl	53c18 <rockchip_soc_hlvl_pwr_dm_on_finish>
   53c50:	940001c3 	bl	5435c <rockchip_soc_cores_pwr_dm_on_finish>
   53c54:	39400660 	ldrb	w0, [x19, #1]
   53c58:	7100081f 	cmp	w0, #0x2
   53c5c:	54000041 	b.ne	53c64 <rockchip_pwr_domain_on_finish+0x44>  // b.any
   53c60:	97fffec0 	bl	53760 <plat_cci_enable>
   53c64:	9400005e 	bl	53ddc <plat_rockchip_gic_pcpu_init>
   53c68:	f9400bf3 	ldr	x19, [sp, #16]
   53c6c:	a8c27bfd 	ldp	x29, x30, [sp], #32
   53c70:	14000051 	b	53db4 <plat_rockchip_gic_cpuif_enable>

0000000000053c74 <rockchip_soc_hlvl_pwr_dm_resume>:
   53c74:	12800000 	mov	w0, #0xffffffff            	// #-1
   53c78:	d65f03c0 	ret

0000000000053c7c <rockchip_pwr_domain_suspend_finish>:
   53c7c:	a9be7bfd 	stp	x29, x30, [sp, #-32]!
   53c80:	910003fd 	mov	x29, sp
   53c84:	a90153f3 	stp	x19, x20, [sp, #16]
   53c88:	39400014 	ldrb	w20, [x0]
   53c8c:	71000a9f 	cmp	w20, #0x2
   53c90:	540002e1 	b.ne	53cec <rockchip_pwr_domain_suspend_finish+0x70>  // b.any
   53c94:	aa0003f3 	mov	x19, x0
   53c98:	39400800 	ldrb	w0, [x0, #2]
   53c9c:	7100081f 	cmp	w0, #0x2
   53ca0:	54000180 	b.eq	53cd0 <rockchip_pwr_domain_suspend_finish+0x54>  // b.none
   53ca4:	39400661 	ldrb	w1, [x19, #1]
   53ca8:	52800020 	mov	w0, #0x1                   	// #1
   53cac:	97fffff2 	bl	53c74 <rockchip_soc_hlvl_pwr_dm_resume>
   53cb0:	3100041f 	cmn	w0, #0x1
   53cb4:	54000080 	b.eq	53cc4 <rockchip_pwr_domain_suspend_finish+0x48>  // b.none
   53cb8:	39400a61 	ldrb	w1, [x19, #2]
   53cbc:	2a1403e0 	mov	w0, w20
   53cc0:	97ffffed 	bl	53c74 <rockchip_soc_hlvl_pwr_dm_resume>
   53cc4:	94000088 	bl	53ee4 <rockchip_soc_cores_pwr_dm_resume>
   53cc8:	9400003b 	bl	53db4 <plat_rockchip_gic_cpuif_enable>
   53ccc:	14000002 	b	53cd4 <rockchip_pwr_domain_suspend_finish+0x58>
   53cd0:	94000145 	bl	541e4 <rockchip_soc_sys_pwr_dm_resume>
   53cd4:	39400660 	ldrb	w0, [x19, #1]
   53cd8:	7100081f 	cmp	w0, #0x2
   53cdc:	54000081 	b.ne	53cec <rockchip_pwr_domain_suspend_finish+0x70>  // b.any
   53ce0:	a94153f3 	ldp	x19, x20, [sp, #16]
   53ce4:	a8c27bfd 	ldp	x29, x30, [sp], #32
   53ce8:	17fffe9e 	b	53760 <plat_cci_enable>
   53cec:	a94153f3 	ldp	x19, x20, [sp, #16]
   53cf0:	a8c27bfd 	ldp	x29, x30, [sp], #32
   53cf4:	d65f03c0 	ret

0000000000053cf8 <rockchip_system_reset>:
   53cf8:	a9bf7bfd 	stp	x29, x30, [sp, #-16]!
   53cfc:	910003fd 	mov	x29, sp
   53d00:	940001ea 	bl	544a8 <rockchip_soc_soft_reset>

0000000000053d04 <rockchip_soc_system_off>:
   53d04:	14000000 	b	53d04 <rockchip_soc_system_off>

0000000000053d08 <rockchip_system_poweroff>:
   53d08:	a9bf7bfd 	stp	x29, x30, [sp, #-16]!
   53d0c:	910003fd 	mov	x29, sp
   53d10:	97fffffd 	bl	53d04 <rockchip_soc_system_off>

0000000000053d14 <rockchip_soc_cores_pd_pwr_dn_wfi>:
   53d14:	a9bf7bfd 	stp	x29, x30, [sp, #-16]!
   53d18:	910003fd 	mov	x29, sp
   53d1c:	94000765 	bl	55ab0 <psci_power_down_wfi>

0000000000053d20 <rockchip_soc_sys_pd_pwr_dn_wfi>:
   53d20:	a9bf7bfd 	stp	x29, x30, [sp, #-16]!
   53d24:	910003fd 	mov	x29, sp
   53d28:	94000762 	bl	55ab0 <psci_power_down_wfi>

0000000000053d2c <rockchip_pd_pwr_down_wfi>:
   53d2c:	a9bf7bfd 	stp	x29, x30, [sp, #-16]!
   53d30:	910003fd 	mov	x29, sp
   53d34:	39400801 	ldrb	w1, [x0, #2]
   53d38:	7100083f 	cmp	w1, #0x2
   53d3c:	54000041 	b.ne	53d44 <rockchip_pd_pwr_down_wfi+0x18>  // b.any
   53d40:	97fffff8 	bl	53d20 <rockchip_soc_sys_pd_pwr_dn_wfi>
   53d44:	97fffff4 	bl	53d14 <rockchip_soc_cores_pd_pwr_dn_wfi>

0000000000053d48 <plat_setup_psci_ops>:
   53d48:	f0000002 	adrp	x2, 56000 <unsigned_num_print.part.0+0x8>
   53d4c:	91170042 	add	x2, x2, #0x5c0
   53d50:	f9000022 	str	x2, [x1]
   53d54:	f0000121 	adrp	x1, 7a000 <fdt_buffer+0x1f348>
   53d58:	f9065c20 	str	x0, [x1, #3256]
   53d5c:	52800000 	mov	w0, #0x0                   	// #0
   53d60:	d65f03c0 	ret

0000000000053d64 <plat_get_power_domain_tree_desc>:
   53d64:	f0000000 	adrp	x0, 56000 <unsigned_num_print.part.0+0x8>
   53d68:	91279400 	add	x0, x0, #0x9e5
   53d6c:	d65f03c0 	ret

0000000000053d70 <plat_core_pos_by_mpidr>:
   53d70:	53083c01 	ubfx	w1, w0, #8, #8
   53d74:	0b200020 	add	w0, w1, w0, uxtb
   53d78:	71000c1f 	cmp	w0, #0x3
   53d7c:	5a9f9000 	csinv	w0, w0, wzr, ls  // ls = plast
   53d80:	d65f03c0 	ret

0000000000053d84 <plat_rockchip_mpidr_to_core_pos>:
   53d84:	17fffffb 	b	53d70 <plat_core_pos_by_mpidr>

0000000000053d88 <plat_rockchip_gic_driver_init>:
   53d88:	f0000000 	adrp	x0, 56000 <unsigned_num_print.part.0+0x8>
   53d8c:	9119c000 	add	x0, x0, #0x670
   53d90:	17fff319 	b	509f4 <gicv3_driver_init>

0000000000053d94 <plat_rockchip_gic_init>:
   53d94:	a9bf7bfd 	stp	x29, x30, [sp, #-16]!
   53d98:	910003fd 	mov	x29, sp
   53d9c:	97fff329 	bl	50a40 <gicv3_distif_init>
   53da0:	9400075b 	bl	55b0c <plat_my_core_pos>
   53da4:	97fff348 	bl	50ac4 <gicv3_rdistif_init>
   53da8:	94000759 	bl	55b0c <plat_my_core_pos>
   53dac:	a8c17bfd 	ldp	x29, x30, [sp], #16
   53db0:	17fff369 	b	50b54 <gicv3_cpuif_enable>

0000000000053db4 <plat_rockchip_gic_cpuif_enable>:
   53db4:	a9bf7bfd 	stp	x29, x30, [sp, #-16]!
   53db8:	910003fd 	mov	x29, sp
   53dbc:	94000754 	bl	55b0c <plat_my_core_pos>
   53dc0:	a8c17bfd 	ldp	x29, x30, [sp], #16
   53dc4:	17fff364 	b	50b54 <gicv3_cpuif_enable>

0000000000053dc8 <plat_rockchip_gic_cpuif_disable>:
   53dc8:	a9bf7bfd 	stp	x29, x30, [sp, #-16]!
   53dcc:	910003fd 	mov	x29, sp
   53dd0:	9400074f 	bl	55b0c <plat_my_core_pos>
   53dd4:	a8c17bfd 	ldp	x29, x30, [sp], #16
   53dd8:	17fff383 	b	50be4 <gicv3_cpuif_disable>

0000000000053ddc <plat_rockchip_gic_pcpu_init>:
   53ddc:	a9bf7bfd 	stp	x29, x30, [sp, #-16]!
   53de0:	910003fd 	mov	x29, sp
   53de4:	9400074a 	bl	55b0c <plat_my_core_pos>
   53de8:	a8c17bfd 	ldp	x29, x30, [sp], #16
   53dec:	17fff336 	b	50ac4 <gicv3_rdistif_init>

0000000000053df0 <rockchip_plat_sip_handler>:
   53df0:	a9be7bfd 	stp	x29, x30, [sp, #-32]!
   53df4:	2a0003e2 	mov	w2, w0
   53df8:	f0000001 	adrp	x1, 56000 <unsigned_num_print.part.0+0x8>
   53dfc:	910003fd 	mov	x29, sp
   53e00:	f9000bf3 	str	x19, [sp, #16]
   53e04:	aa0603f3 	mov	x19, x6
   53e08:	91268821 	add	x1, x1, #0x9a2
   53e0c:	f0000000 	adrp	x0, 56000 <unsigned_num_print.part.0+0x8>
   53e10:	9125d800 	add	x0, x0, #0x976
   53e14:	94000269 	bl	547b8 <tf_log>
   53e18:	92800000 	mov	x0, #0xffffffffffffffff    	// #-1
   53e1c:	f9000260 	str	x0, [x19]
   53e20:	aa1303e0 	mov	x0, x19
   53e24:	f9400bf3 	ldr	x19, [sp, #16]
   53e28:	a8c27bfd 	ldp	x29, x30, [sp], #32
   53e2c:	d65f03c0 	ret

0000000000053e30 <sip_smc_handler>:
   53e30:	aa0603e8 	mov	x8, x6
   53e34:	370000a7 	tbnz	w7, #0, 53e48 <sip_smc_handler+0x18>
   53e38:	92800000 	mov	x0, #0xffffffffffffffff    	// #-1
   53e3c:	f9000100 	str	x0, [x8]
   53e40:	aa0803e0 	mov	x0, x8
   53e44:	d65f03c0 	ret
   53e48:	529fe02a 	mov	w10, #0xff01                	// #65281
   53e4c:	72b0400a 	movk	w10, #0x8200, lsl #16
   53e50:	6b0a001f 	cmp	w0, w10
   53e54:	54000120 	b.eq	53e78 <sip_smc_handler+0x48>  // b.none
   53e58:	1100094a 	add	w10, w10, #0x2
   53e5c:	6b0a001f 	cmp	w0, w10
   53e60:	54000240 	b.eq	53ea8 <sip_smc_handler+0x78>  // b.none
   53e64:	51000d4a 	sub	w10, w10, #0x3
   53e68:	6b0a001f 	cmp	w0, w10
   53e6c:	54000241 	b.ne	53eb4 <sip_smc_handler+0x84>  // b.any
   53e70:	d2800060 	mov	x0, #0x3                   	// #3
   53e74:	17fffff2 	b	53e3c <sip_smc_handler+0xc>
   53e78:	d28e9dc0 	mov	x0, #0x74ee                	// #29934
   53e7c:	f2ae4f60 	movk	x0, #0x727b, lsl #16
   53e80:	f9000cc0 	str	x0, [x6, #24]
   53e84:	d281b6e0 	mov	x0, #0xdb7                 	// #3511
   53e88:	f2b111e0 	movk	x0, #0x888f, lsl #16
   53e8c:	f90008c0 	str	x0, [x6, #16]
   53e90:	d28627c0 	mov	x0, #0x313e                	// #12606
   53e94:	f2a23cc0 	movk	x0, #0x11e6, lsl #16
   53e98:	f90004c0 	str	x0, [x6, #8]
   53e9c:	d298fc40 	mov	x0, #0xc7e2                	// #51170
   53ea0:	f2bd0de0 	movk	x0, #0xe86f, lsl #16
   53ea4:	17ffffe6 	b	53e3c <sip_smc_handler+0xc>
   53ea8:	d2800020 	mov	x0, #0x1                   	// #1
   53eac:	a90000df 	stp	xzr, x0, [x6]
   53eb0:	17ffffe4 	b	53e40 <sip_smc_handler+0x10>
   53eb4:	17ffffcf 	b	53df0 <rockchip_plat_sip_handler>

0000000000053eb8 <cpus_pd_req_enter_wfi>:
   53eb8:	d510149f 	msr	dbgprcr_el1, xzr
   53ebc:	d538f2e0 	mrs	x0, s3_0_c15_c2_7
   53ec0:	b2400000 	orr	x0, x0, #0x1
   53ec4:	d518f2e0 	msr	s3_0_c15_c2_7, x0

0000000000053ec8 <wfi_loop>:
   53ec8:	d5033fdf 	isb
   53ecc:	d503207f 	wfi
   53ed0:	17fffffe 	b	53ec8 <wfi_loop>
   53ed4:	d65f03c0 	ret

0000000000053ed8 <rockchip_plat_mmu_el3>:
   53ed8:	d65f03c0 	ret

0000000000053edc <rockchip_soc_cores_pwr_dm_suspend>:
   53edc:	52800000 	mov	w0, #0x0                   	// #0
   53ee0:	d65f03c0 	ret

0000000000053ee4 <rockchip_soc_cores_pwr_dm_resume>:
   53ee4:	52800000 	mov	w0, #0x0                   	// #0
   53ee8:	d65f03c0 	ret

0000000000053eec <rockchip_soc_sys_pwr_dm_suspend>:
   53eec:	a9be7bfd 	stp	x29, x30, [sp, #-32]!
   53ef0:	b07ee3e0 	adrp	x0, fdcd0000 <pmu_cpuson_entrypoint>
   53ef4:	d2800081 	mov	x1, #0x4                   	// #4
   53ef8:	910003fd 	mov	x29, sp
   53efc:	b900681f 	str	wzr, [x0, #104]
   53f00:	9101a000 	add	x0, x0, #0x68
   53f04:	a90153f3 	stp	x19, x20, [sp, #16]
   53f08:	9400072a 	bl	55bb0 <flush_dcache_range>
   53f0c:	d2802000 	mov	x0, #0x100                 	// #256
   53f10:	f2bfb840 	movk	x0, #0xfdc2, lsl #16
   53f14:	320983e1 	mov	w1, #0x800080              	// #8388736
   53f18:	d2800094 	mov	x20, #0x4                   	// #4
   53f1c:	d2802582 	mov	x2, #0x12c                 	// #300
   53f20:	b9000001 	str	w1, [x0]
   53f24:	d2bfb840 	mov	x0, #0xfdc20000            	// #4257349632
   53f28:	52802001 	mov	w1, #0x100                 	// #256
   53f2c:	f2bfbb34 	movk	x20, #0xfdd9, lsl #16
   53f30:	72a0e001 	movk	w1, #0x700, lsl #16
   53f34:	b9000001 	str	w1, [x0]
   53f38:	d2800180 	mov	x0, #0xc                   	// #12
   53f3c:	320083e1 	mov	w1, #0x10001               	// #65537
   53f40:	f2bfbb20 	movk	x0, #0xfdd9, lsl #16
   53f44:	f2bfbb22 	movk	x2, #0xfdd9, lsl #16
   53f48:	d1047042 	sub	x2, x2, #0x11c
   53f4c:	b9000001 	str	w1, [x0]
   53f50:	d2802001 	mov	x1, #0x100                 	// #256
   53f54:	f2bfbb21 	movk	x1, #0xfdd9, lsl #16
   53f58:	5289efc0 	mov	w0, #0x4f7e                	// #20350
   53f5c:	72a00fc0 	movk	w0, #0x7e, lsl #16
   53f60:	b9000280 	str	w0, [x20]
   53f64:	52803000 	mov	w0, #0x180                 	// #384
   53f68:	b9000020 	str	w0, [x1]
   53f6c:	b9000420 	str	w0, [x1, #4]
   53f70:	b9000820 	str	w0, [x1, #8]
   53f74:	b9000c20 	str	w0, [x1, #12]
   53f78:	b9001020 	str	w0, [x1, #16]
   53f7c:	b9001820 	str	w0, [x1, #24]
   53f80:	b9001c20 	str	w0, [x1, #28]
   53f84:	b9002020 	str	w0, [x1, #32]
   53f88:	b9002420 	str	w0, [x1, #36]
   53f8c:	b9002820 	str	w0, [x1, #40]
   53f90:	b9011c40 	str	w0, [x2, #284]
   53f94:	b9012040 	str	w0, [x2, #288]
   53f98:	320c83e0 	mov	w0, #0x100010              	// #1048592
   53f9c:	b9000040 	str	w0, [x2]
   53fa0:	52870002 	mov	w2, #0x3800                	// #14336
   53fa4:	72a39382 	movk	w2, #0x1c9c, lsl #16
   53fa8:	b9002822 	str	w2, [x1, #40]
   53fac:	b81b0020 	stur	w0, [x1, #-80]
   53fb0:	b81b0020 	stur	w0, [x1, #-80]
   53fb4:	d2806380 	mov	x0, #0x31c                 	// #796
   53fb8:	f2bfbb20 	movk	x0, #0xfdd9, lsl #16
   53fbc:	b9400013 	ldr	w19, [x0]
   53fc0:	940005f3 	bl	5578c <cortex_a55_core_pwr_dwn>
   53fc4:	d2801800 	mov	x0, #0xc0                  	// #192
   53fc8:	52803fa1 	mov	w1, #0x1fd                 	// #509
   53fcc:	f2bfbb20 	movk	x0, #0xfdd9, lsl #16
   53fd0:	72a03fa1 	movk	w1, #0x1fd, lsl #16
   53fd4:	53180e73 	ubfiz	w19, w19, #8, #4
   53fd8:	52800043 	mov	w3, #0x2                   	// #2
   53fdc:	32080e73 	orr	w19, w19, #0xf000000
   53fe0:	b9000293 	str	w19, [x20]
   53fe4:	b9000001 	str	w1, [x0]
   53fe8:	b85d8001 	ldur	w1, [x0, #-40]
   53fec:	2a2103e1 	mvn	w1, w1
   53ff0:	72000020 	ands	w0, w1, #0x1
   53ff4:	12002422 	and	w2, w1, #0x3ff
   53ff8:	1a830000 	csel	w0, w0, w3, eq  // eq = none
   53ffc:	36080041 	tbz	w1, #1, 54004 <rockchip_soc_sys_pwr_dm_suspend+0x118>
   54000:	321e0000 	orr	w0, w0, #0x4
   54004:	36180041 	tbz	w1, #3, 5400c <rockchip_soc_sys_pwr_dm_suspend+0x120>
   54008:	32190000 	orr	w0, w0, #0x80
   5400c:	36200041 	tbz	w1, #4, 54014 <rockchip_soc_sys_pwr_dm_suspend+0x128>
   54010:	32180000 	orr	w0, w0, #0x100
   54014:	36280041 	tbz	w1, #5, 5401c <rockchip_soc_sys_pwr_dm_suspend+0x130>
   54018:	321b0000 	orr	w0, w0, #0x20
   5401c:	36300041 	tbz	w1, #6, 54024 <rockchip_soc_sys_pwr_dm_suspend+0x138>
   54020:	321d0000 	orr	w0, w0, #0x8
   54024:	36380041 	tbz	w1, #7, 5402c <rockchip_soc_sys_pwr_dm_suspend+0x140>
   54028:	321c0000 	orr	w0, w0, #0x10
   5402c:	36400041 	tbz	w1, #8, 54034 <rockchip_soc_sys_pwr_dm_suspend+0x148>
   54030:	32150000 	orr	w0, w0, #0x800
   54034:	529ec021 	mov	w1, #0xf601                	// #62977
   54038:	2a010000 	orr	w0, w0, w1
   5403c:	32102041 	orr	w1, w2, #0x1ff0000
   54040:	d2801202 	mov	x2, #0x90                  	// #144
   54044:	f2bfbb22 	movk	x2, #0xfdd9, lsl #16
   54048:	2a004000 	orr	w0, w0, w0, lsl #16
   5404c:	320f83f3 	mov	w19, #0x20002               	// #131074
   54050:	f0000123 	adrp	x3, 7b000 <tf_mmap+0x300>
   54054:	b9000041 	str	w1, [x2]
   54058:	d2800801 	mov	x1, #0x40                  	// #64
   5405c:	f2bfbb21 	movk	x1, #0xfdd9, lsl #16
   54060:	528002e2 	mov	w2, #0x17                  	// #23
   54064:	72a002e2 	movk	w2, #0x17, lsl #16
   54068:	b9000020 	str	w0, [x1]
   5406c:	d2800880 	mov	x0, #0x44                  	// #68
   54070:	f2bfbb20 	movk	x0, #0xfdd9, lsl #16
   54074:	12800001 	mov	w1, #0xffffffff            	// #-1
   54078:	b900001f 	str	wzr, [x0]
   5407c:	b9002c01 	str	w1, [x0, #44]
   54080:	32008be1 	mov	w1, #0x70007               	// #458759
   54084:	b9003001 	str	w1, [x0, #48]
   54088:	52a00801 	mov	w1, #0x400000              	// #4194304
   5408c:	b9006413 	str	w19, [x0, #100]
   54090:	b81c0001 	stur	w1, [x0, #-64]
   54094:	52a00201 	mov	w1, #0x100000              	// #1048576
   54098:	b81c0001 	stur	w1, [x0, #-64]
   5409c:	d2801001 	mov	x1, #0x80                  	// #128
   540a0:	f2bfbb21 	movk	x1, #0xfdd9, lsl #16
   540a4:	b9000022 	str	w2, [x1]
   540a8:	d2801802 	mov	x2, #0xc0                  	// #192
   540ac:	f2bfbb22 	movk	x2, #0xfdd9, lsl #16
   540b0:	b9000053 	str	w19, [x2]
   540b4:	52a00402 	mov	w2, #0x200000              	// #2097152
   540b8:	b81c0002 	stur	w2, [x0, #-64]
   540bc:	d2800182 	mov	x2, #0xc                   	// #12
   540c0:	f2bfb882 	movk	x2, #0xfdc4, lsl #16
   540c4:	b9400044 	ldr	w4, [x2]
   540c8:	b9020c64 	str	w4, [x3, #524]
   540cc:	52800403 	mov	w3, #0x20                  	// #32
   540d0:	72a00c03 	movk	w3, #0x60, lsl #16
   540d4:	b9000043 	str	w3, [x2]
   540d8:	32008fe2 	mov	w2, #0xf000f               	// #983055
   540dc:	b9400021 	ldr	w1, [x1]
   540e0:	d2806401 	mov	x1, #0x320                 	// #800
   540e4:	f2bfbb21 	movk	x1, #0xfdd9, lsl #16
   540e8:	b9000022 	str	w2, [x1]
   540ec:	320e83e2 	mov	w2, #0x40004               	// #262148
   540f0:	b81e0022 	stur	w2, [x1, #-32]
   540f4:	52a00041 	mov	w1, #0x20000               	// #131072
   540f8:	b81c0001 	stur	w1, [x0, #-64]
   540fc:	940005a9 	bl	557a0 <cortex_a55_dsu_pwr_dwn>
   54100:	d2803080 	mov	x0, #0x184                 	// #388
   54104:	52a70001 	mov	w1, #0x38000000            	// #939524096
   54108:	f2bfba00 	movk	x0, #0xfdd0, lsl #16
   5410c:	b9000001 	str	w1, [x0]
   54110:	d2800080 	mov	x0, #0x4                   	// #4
   54114:	f2bfbb00 	movk	x0, #0xfdd8, lsl #16
   54118:	b9000013 	str	w19, [x0]
   5411c:	d5033f9f 	dsb	sy
   54120:	52a00381 	mov	w1, #0x1c0000              	// #1835008
   54124:	b9000001 	str	w1, [x0]
   54128:	d2800101 	mov	x1, #0x8                   	// #8
   5412c:	52804002 	mov	w2, #0x200                 	// #512
   54130:	f2bfbb01 	movk	x1, #0xfdd8, lsl #16
   54134:	b9000022 	str	w2, [x1]
   54138:	d5033f9f 	dsb	sy
   5413c:	320083e1 	mov	w1, #0x10001               	// #65537
   54140:	b9000001 	str	w1, [x0]
   54144:	d5033f9f 	dsb	sy
   54148:	91020000 	add	x0, x0, #0x80
   5414c:	b9400001 	ldr	w1, [x0]
   54150:	7100743f 	cmp	w1, #0x1d
   54154:	54ffffc9 	b.ls	5414c <rockchip_soc_sys_pwr_dm_suspend+0x260>  // b.plast
   54158:	d5033f9f 	dsb	sy
   5415c:	d2801002 	mov	x2, #0x80                  	// #128
   54160:	f2bfbb02 	movk	x2, #0xfdd8, lsl #16
   54164:	b9400041 	ldr	w1, [x2]
   54168:	3607ffe1 	tbz	w1, #0, 54164 <rockchip_soc_sys_pwr_dm_suspend+0x278>
   5416c:	b9400000 	ldr	w0, [x0]
   54170:	528bb801 	mov	w1, #0x5dc0                	// #24000
   54174:	1b017c00 	mul	w0, w0, w1
   54178:	d2803001 	mov	x1, #0x180                 	// #384
   5417c:	f2bfb841 	movk	x1, #0xfdc2, lsl #16
   54180:	11040000 	add	w0, w0, #0x100
   54184:	53097c00 	lsr	w0, w0, #9
   54188:	11004000 	add	w0, w0, #0x10
   5418c:	53057c00 	lsr	w0, w0, #5
   54190:	b9000020 	str	w0, [x1]
   54194:	d2802000 	mov	x0, #0x100                 	// #256
   54198:	52a01801 	mov	w1, #0xc00000              	// #12582912
   5419c:	f2bfba00 	movk	x0, #0xfdd0, lsl #16
   541a0:	b9000001 	str	w1, [x0]
   541a4:	d2802500 	mov	x0, #0x128                 	// #296
   541a8:	f2bfbb20 	movk	x0, #0xfdd9, lsl #16
   541ac:	529c4001 	mov	w1, #0xe200                	// #57856
   541b0:	72a00081 	movk	w1, #0x4, lsl #16
   541b4:	b9000001 	str	w1, [x0]
   541b8:	320087e1 	mov	w1, #0x30003               	// #196611
   541bc:	b8188001 	stur	w1, [x0, #-120]
   541c0:	94000573 	bl	5578c <cortex_a55_core_pwr_dwn>
   541c4:	d2800080 	mov	x0, #0x4                   	// #4
   541c8:	320083e1 	mov	w1, #0x10001               	// #65537
   541cc:	f2bfbb20 	movk	x0, #0xfdd9, lsl #16
   541d0:	a94153f3 	ldp	x19, x20, [sp, #16]
   541d4:	b9000001 	str	w1, [x0]
   541d8:	52800000 	mov	w0, #0x0                   	// #0
   541dc:	a8c27bfd 	ldp	x29, x30, [sp], #32
   541e0:	d65f03c0 	ret

00000000000541e4 <rockchip_soc_sys_pwr_dm_resume>:
   541e4:	a9bf7bfd 	stp	x29, x30, [sp, #-16]!
   541e8:	f0000120 	adrp	x0, 7b000 <tf_mmap+0x300>
   541ec:	d2800181 	mov	x1, #0xc                   	// #12
   541f0:	910003fd 	mov	x29, sp
   541f4:	f2bfb881 	movk	x1, #0xfdc4, lsl #16
   541f8:	b9420c00 	ldr	w0, [x0, #524]
   541fc:	32103c00 	orr	w0, w0, #0xffff0000
   54200:	b9000020 	str	w0, [x1]
   54204:	d2800081 	mov	x1, #0x4                   	// #4
   54208:	52bfffe0 	mov	w0, #0xffff0000            	// #-65536
   5420c:	f2bfbb21 	movk	x1, #0xfdd9, lsl #16
   54210:	b9000020 	str	w0, [x1]
   54214:	b9000820 	str	w0, [x1, #8]
   54218:	b9000c20 	str	w0, [x1, #12]
   5421c:	b9003c20 	str	w0, [x1, #60]
   54220:	b9007c20 	str	w0, [x1, #124]
   54224:	b9004020 	str	w0, [x1, #64]
   54228:	b9008c20 	str	w0, [x1, #140]
   5422c:	b900a420 	str	w0, [x1, #164]
   54230:	b900ac20 	str	w0, [x1, #172]
   54234:	b900bc20 	str	w0, [x1, #188]
   54238:	b900cc20 	str	w0, [x1, #204]
   5423c:	b902fc20 	str	w0, [x1, #764]
   54240:	b9031c20 	str	w0, [x1, #796]
   54244:	97fffedc 	bl	53db4 <plat_rockchip_gic_cpuif_enable>
   54248:	907ee3e0 	adrp	x0, fdcd0000 <pmu_cpuson_entrypoint>
   5424c:	52800021 	mov	w1, #0x1                   	// #1
   54250:	b9006801 	str	w1, [x0, #104]
   54254:	9101a000 	add	x0, x0, #0x68
   54258:	d2800081 	mov	x1, #0x4                   	// #4
   5425c:	94000655 	bl	55bb0 <flush_dcache_range>
   54260:	52800000 	mov	w0, #0x0                   	// #0
   54264:	a8c17bfd 	ldp	x29, x30, [sp], #16
   54268:	d65f03c0 	ret

000000000005426c <rockchip_soc_cores_pwr_dm_on>:
   5426c:	a9bd7bfd 	stp	x29, x30, [sp, #-48]!
   54270:	910003fd 	mov	x29, sp
   54274:	a90153f3 	stp	x19, x20, [sp, #16]
   54278:	90000034 	adrp	x20, 58000 <__RO_END__>
   5427c:	91018294 	add	x20, x20, #0x60
   54280:	f90013f5 	str	x21, [sp, #32]
   54284:	aa0103f5 	mov	x21, x1
   54288:	97fffeba 	bl	53d70 <plat_core_pos_by_mpidr>
   5428c:	2a0003e1 	mov	w1, w0
   54290:	90000020 	adrp	x0, 58000 <__RO_END__>
   54294:	91020000 	add	x0, x0, #0x80
   54298:	5281e002 	mov	w2, #0xf00                 	// #3840
   5429c:	aa0103f3 	mov	x19, x1
   542a0:	f8217a95 	str	x21, [x20, x1, lsl #3]
   542a4:	b8217802 	str	w2, [x0, x1, lsl #2]
   542a8:	d2800201 	mov	x1, #0x10                  	// #16
   542ac:	94000641 	bl	55bb0 <flush_dcache_range>
   542b0:	aa1403e0 	mov	x0, x20
   542b4:	d2800401 	mov	x1, #0x20                  	// #32
   542b8:	9400063e 	bl	55bb0 <flush_dcache_range>
   542bc:	52881880 	mov	w0, #0x40c4                	// #16580
   542c0:	531d0262 	ubfiz	w2, w19, #3, #1
   542c4:	72a7eec0 	movk	w0, #0x3f76, lsl #16
   542c8:	11004043 	add	w3, w2, #0x10
   542cc:	0b530413 	add	w19, w0, w19, lsr #1
   542d0:	d2800021 	mov	x1, #0x1                   	// #1
   542d4:	11000c40 	add	w0, w2, #0x3
   542d8:	11004c42 	add	w2, w2, #0x13
   542dc:	531e7673 	lsl	w19, w19, #2
   542e0:	9ac32023 	lsl	x3, x1, x3
   542e4:	9ac02020 	lsl	x0, x1, x0
   542e8:	9ac22021 	lsl	x1, x1, x2
   542ec:	2a010000 	orr	w0, w0, w1
   542f0:	b9000263 	str	w3, [x19]
   542f4:	b9000260 	str	w0, [x19]
   542f8:	d5033f9f 	dsb	sy
   542fc:	52800000 	mov	w0, #0x0                   	// #0
   54300:	a94153f3 	ldp	x19, x20, [sp, #16]
   54304:	f94013f5 	ldr	x21, [sp, #32]
   54308:	a8c37bfd 	ldp	x29, x30, [sp], #48
   5430c:	d65f03c0 	ret

0000000000054310 <rockchip_soc_cores_pwr_dm_off>:
   54310:	a9bf7bfd 	stp	x29, x30, [sp, #-16]!
   54314:	910003fd 	mov	x29, sp
   54318:	940005fd 	bl	55b0c <plat_my_core_pos>
   5431c:	531d0003 	ubfiz	w3, w0, #3, #1
   54320:	11004062 	add	w2, w3, #0x10
   54324:	528001e1 	mov	w1, #0xf                   	// #15
   54328:	1ac22021 	lsl	w1, w1, w2
   5432c:	528000a2 	mov	w2, #0x5                   	// #5
   54330:	1ac32042 	lsl	w2, w2, w3
   54334:	2a020021 	orr	w1, w1, w2
   54338:	52881882 	mov	w2, #0x40c4                	// #16580
   5433c:	72a7eec2 	movk	w2, #0x3f76, lsl #16
   54340:	0b400440 	add	w0, w2, w0, lsr #1
   54344:	531e7400 	lsl	w0, w0, #2
   54348:	b9000001 	str	w1, [x0]
   5434c:	d5033f9f 	dsb	sy
   54350:	52800000 	mov	w0, #0x0                   	// #0
   54354:	a8c17bfd 	ldp	x29, x30, [sp], #16
   54358:	d65f03c0 	ret

000000000005435c <rockchip_soc_cores_pwr_dm_on_finish>:
   5435c:	a9bf7bfd 	stp	x29, x30, [sp, #-16]!
   54360:	910003fd 	mov	x29, sp
   54364:	940005ea 	bl	55b0c <plat_my_core_pos>
   54368:	531d0001 	ubfiz	w1, w0, #3, #1
   5436c:	11004022 	add	w2, w1, #0x10
   54370:	528001e1 	mov	w1, #0xf                   	// #15
   54374:	1ac22021 	lsl	w1, w1, w2
   54378:	52881882 	mov	w2, #0x40c4                	// #16580
   5437c:	72a7eec2 	movk	w2, #0x3f76, lsl #16
   54380:	0b400440 	add	w0, w2, w0, lsr #1
   54384:	531e7400 	lsl	w0, w0, #2
   54388:	b9000001 	str	w1, [x0]
   5438c:	52800000 	mov	w0, #0x0                   	// #0
   54390:	a8c17bfd 	ldp	x29, x30, [sp], #16
   54394:	d65f03c0 	ret

0000000000054398 <plat_rockchip_pmu_init>:
   54398:	d2806200 	mov	x0, #0x310                 	// #784
   5439c:	5280a001 	mov	w1, #0x500                 	// #1280
   543a0:	f2bfbb20 	movk	x0, #0xfdd9, lsl #16
   543a4:	72a1e001 	movk	w1, #0xf00, lsl #16
   543a8:	b9000001 	str	w1, [x0]
   543ac:	d5033f9f 	dsb	sy
   543b0:	91001000 	add	x0, x0, #0x4
   543b4:	528000a2 	mov	w2, #0x5                   	// #5
   543b8:	72a001e2 	movk	w2, #0xf, lsl #16
   543bc:	b9000002 	str	w2, [x0]
   543c0:	d5033f9f 	dsb	sy
   543c4:	b9000001 	str	w1, [x0]
   543c8:	d5033f9f 	dsb	sy
   543cc:	d2800080 	mov	x0, #0x4                   	// #4
   543d0:	5297d5e1 	mov	w1, #0xbeaf                	// #48815
   543d4:	f2bfb980 	movk	x0, #0xfdcc, lsl #16
   543d8:	72bbd5a1 	movk	w1, #0xdead, lsl #16
   543dc:	b9000001 	str	w1, [x0]
   543e0:	d2800101 	mov	x1, #0x8                   	// #8
   543e4:	f2bfb981 	movk	x1, #0xfdcc, lsl #16
   543e8:	f0ffffe0 	adrp	x0, 53000 <psci_cpu_on_finish+0x8c>
   543ec:	913ae000 	add	x0, x0, #0xeb8
   543f0:	b9000020 	str	w0, [x1]
   543f4:	d503209f 	sev
   543f8:	d2806381 	mov	x1, #0x31c                 	// #796
   543fc:	f2bfbb21 	movk	x1, #0xfdd9, lsl #16
   54400:	b9400020 	ldr	w0, [x1]
   54404:	121f0800 	and	w0, w0, #0xe
   54408:	7100381f 	cmp	w0, #0xe
   5440c:	54ffffa1 	b.ne	54400 <plat_rockchip_pmu_init+0x68>  // b.any
   54410:	90000022 	adrp	x2, 58000 <__RO_END__>
   54414:	91020041 	add	x1, x2, #0x80
   54418:	5281e000 	mov	w0, #0xf00                 	// #3840
   5441c:	b9008040 	str	w0, [x2, #128]
   54420:	d2840002 	mov	x2, #0x2000                	// #8192
   54424:	29008020 	stp	w0, w0, [x1, #4]
   54428:	f2bfb9a2 	movk	x2, #0xfdcd, lsl #16
   5442c:	b9000c20 	str	w0, [x1, #12]
   54430:	907ee3e1 	adrp	x1, fdcd0000 <pmu_cpuson_entrypoint>
   54434:	91012020 	add	x0, x1, #0x48
   54438:	f9002422 	str	x2, [x1, #72]
   5443c:	f900081f 	str	xzr, [x0, #16]
   54440:	b900181f 	str	wzr, [x0, #24]
   54444:	d53800a1 	mrs	x1, mpidr_el1
   54448:	12003c21 	and	w1, w1, #0xffff
   5444c:	b9001c01 	str	w1, [x0, #28]
   54450:	52800021 	mov	w1, #0x1                   	// #1
   54454:	b9002001 	str	w1, [x0, #32]
   54458:	d2800e00 	mov	x0, #0x70                  	// #112
   5445c:	12800001 	mov	w1, #0xffffffff            	// #-1
   54460:	f2bfbb20 	movk	x0, #0xfdd9, lsl #16
   54464:	b9000001 	str	w1, [x0]
   54468:	32008be1 	mov	w1, #0x70007               	// #458759
   5446c:	b9000401 	str	w1, [x0, #4]
   54470:	d2802000 	mov	x0, #0x100                 	// #256
   54474:	f2bfb840 	movk	x0, #0xfdc2, lsl #16
   54478:	320983e1 	mov	w1, #0x800080              	// #8388736
   5447c:	b9000001 	str	w1, [x0]
   54480:	d2900100 	mov	x0, #0x8008                	// #32776
   54484:	f2bfba20 	movk	x0, #0xfdd1, lsl #16
   54488:	52a00201 	mov	w1, #0x100000              	// #1048576
   5448c:	b9000001 	str	w1, [x0]
   54490:	d2800080 	mov	x0, #0x4                   	// #4
   54494:	f2bfb800 	movk	x0, #0xfdc0, lsl #16
   54498:	52810001 	mov	w1, #0x800                 	// #2048
   5449c:	72a30001 	movk	w1, #0x1800, lsl #16
   544a0:	b9000001 	str	w1, [x0]
   544a4:	d65f03c0 	ret

00000000000544a8 <rockchip_soc_soft_reset>:
   544a8:	d2801800 	mov	x0, #0xc0                  	// #192
   544ac:	52a00601 	mov	w1, #0x300000              	// #3145728
   544b0:	f2bfba40 	movk	x0, #0xfdd2, lsl #16
   544b4:	b9000001 	str	w1, [x0]
   544b8:	52a01801 	mov	w1, #0xc00000              	// #12582912
   544bc:	b9000001 	str	w1, [x0]
   544c0:	52a18001 	mov	w1, #0xc000000             	// #201326592
   544c4:	b9000001 	str	w1, [x0]
   544c8:	52a60001 	mov	w1, #0x30000000            	// #805306368
   544cc:	b9000001 	str	w1, [x0]
   544d0:	52b80001 	mov	w1, #0xc0000000            	// #-1073741824
   544d4:	b9000001 	str	w1, [x0]
   544d8:	52a00061 	mov	w1, #0x30000               	// #196608
   544dc:	b9000001 	str	w1, [x0]
   544e0:	d2801000 	mov	x0, #0x80                  	// #128
   544e4:	f2bfba00 	movk	x0, #0xfdd0, lsl #16
   544e8:	52a001e1 	mov	w1, #0xf0000               	// #983040
   544ec:	b9000001 	str	w1, [x0]
   544f0:	d5033f9f 	dsb	sy
   544f4:	d2801a80 	mov	x0, #0xd4                  	// #212
   544f8:	529fb721 	mov	w1, #0xfdb9                	// #64953
   544fc:	f2bfba40 	movk	x0, #0xfdd2, lsl #16
   54500:	b9000001 	str	w1, [x0]
   54504:	14000000 	b	54504 <rockchip_soc_soft_reset+0x5c>

0000000000054508 <plat_rockchip_soc_init>:
   54508:	d2980600 	mov	x0, #0xc030                	// #49200
   5450c:	d2980402 	mov	x2, #0xc020                	// #49184
   54510:	f2bfba20 	movk	x0, #0xfdd1, lsl #16
   54514:	f2bfba22 	movk	x2, #0xfdd1, lsl #16
   54518:	12800001 	mov	w1, #0xffffffff            	// #-1
   5451c:	b900001f 	str	wzr, [x0]
   54520:	b9000041 	str	w1, [x2]
   54524:	b9000441 	str	w1, [x2, #4]
   54528:	d2904802 	mov	x2, #0x8240                	// #33344
   5452c:	f2bfba22 	movk	x2, #0xfdd1, lsl #16
   54530:	52800021 	mov	w1, #0x1                   	// #1
   54534:	b9000001 	str	w1, [x0]
   54538:	52bfffe0 	mov	w0, #0xffff0000            	// #-65536
   5453c:	b9000040 	str	w0, [x2]
   54540:	b9000440 	str	w0, [x2, #4]
   54544:	b9000840 	str	w0, [x2, #8]
   54548:	b9000c40 	str	w0, [x2, #12]
   5454c:	b9001040 	str	w0, [x2, #16]
   54550:	b9001440 	str	w0, [x2, #20]
   54554:	b9001840 	str	w0, [x2, #24]
   54558:	b9001c40 	str	w0, [x2, #28]
   5455c:	b9002040 	str	w0, [x2, #32]
   54560:	d2801002 	mov	x2, #0x80                  	// #128
   54564:	f2bfc402 	movk	x2, #0xfe20, lsl #16
   54568:	b9000040 	str	w0, [x2]
   5456c:	d280a100 	mov	x0, #0x508                 	// #1288
   54570:	f2bfb8c0 	movk	x0, #0xfdc6, lsl #16
   54574:	320c83e2 	mov	w2, #0x100010              	// #1048592
   54578:	b9000002 	str	w2, [x0]
   5457c:	d2801b80 	mov	x0, #0xdc                  	// #220
   54580:	f2bfba40 	movk	x0, #0xfdd2, lsl #16
   54584:	52802062 	mov	w2, #0x103                 	// #259
   54588:	72a02062 	movk	w2, #0x103, lsl #16
   5458c:	b9000002 	str	w2, [x0]
   54590:	52800002 	mov	w2, #0x0                   	// #0
   54594:	d0000000 	adrp	x0, 56000 <unsigned_num_print.part.0+0x8>
   54598:	9126f000 	add	x0, x0, #0x9bc
   5459c:	14000087 	b	547b8 <tf_log>

00000000000545a0 <arm_arch_svc_smc_handler>:
   545a0:	a9be7bfd 	stp	x29, x30, [sp, #-32]!
   545a4:	2a0003e2 	mov	w2, w0
   545a8:	aa0103e0 	mov	x0, x1
   545ac:	910003fd 	mov	x29, sp
   545b0:	f9000bf3 	str	x19, [sp, #16]
   545b4:	32013be1 	mov	w1, #0x80003fff            	// #-2147467265
   545b8:	aa0603f3 	mov	x19, x6
   545bc:	6b01005f 	cmp	w2, w1
   545c0:	54000240 	b.eq	54608 <arm_arch_svc_smc_handler+0x68>  // b.none
   545c4:	54000188 	b.hi	545f4 <arm_arch_svc_smc_handler+0x54>  // b.pmore
   545c8:	320107e1 	mov	w1, #0x80000001            	// #-2147483647
   545cc:	6b01005f 	cmp	w2, w1
   545d0:	540002c0 	b.eq	54628 <arm_arch_svc_smc_handler+0x88>  // b.none
   545d4:	11000421 	add	w1, w1, #0x1
   545d8:	6b01005f 	cmp	w2, w1
   545dc:	540006e0 	b.eq	546b8 <arm_arch_svc_smc_handler+0x118>  // b.none
   545e0:	52b00000 	mov	w0, #0x80000000            	// #-2147483648
   545e4:	6b00005f 	cmp	w2, w0
   545e8:	54000180 	b.eq	54618 <arm_arch_svc_smc_handler+0x78>  // b.none
   545ec:	92800000 	mov	x0, #0xffffffffffffffff    	// #-1
   545f0:	1400000c 	b	54620 <arm_arch_svc_smc_handler+0x80>
   545f4:	52900020 	mov	w0, #0x8001                	// #32769
   545f8:	72afffe0 	movk	w0, #0x7fff, lsl #16
   545fc:	0b000042 	add	w2, w2, w0
   54600:	7100045f 	cmp	w2, #0x1
   54604:	54ffff48 	b.hi	545ec <arm_arch_svc_smc_handler+0x4c>  // b.pmore
   54608:	aa1303e0 	mov	x0, x19
   5460c:	f9400bf3 	ldr	x19, [sp, #16]
   54610:	a8c27bfd 	ldp	x29, x30, [sp], #32
   54614:	d65f03c0 	ret
   54618:	d2800080 	mov	x0, #0x4                   	// #4
   5461c:	f2a00020 	movk	x0, #0x1, lsl #16
   54620:	f9000260 	str	x0, [x19]
   54624:	17fffff9 	b	54608 <arm_arch_svc_smc_handler+0x68>
   54628:	32013be1 	mov	w1, #0x80003fff            	// #-2147467265
   5462c:	eb01001f 	cmp	x0, x1
   54630:	54000380 	b.eq	546a0 <arm_arch_svc_smc_handler+0x100>  // b.none
   54634:	540001e8 	b.hi	54670 <arm_arch_svc_smc_handler+0xd0>  // b.pmore
   54638:	320107e1 	mov	w1, #0x80000001            	// #-2147483647
   5463c:	eb01001f 	cmp	x0, x1
   54640:	540000c8 	b.hi	54658 <arm_arch_svc_smc_handler+0xb8>  // b.pmore
   54644:	b2407be1 	mov	x1, #0x7fffffff            	// #2147483647
   54648:	eb01001f 	cmp	x0, x1
   5464c:	5a9f83e0 	csetm	w0, ls  // ls = plast
   54650:	93407c00 	sxtw	x0, w0
   54654:	17fffff3 	b	54620 <arm_arch_svc_smc_handler+0x80>
   54658:	d2800041 	mov	x1, #0x2                   	// #2
   5465c:	f2b00001 	movk	x1, #0x8000, lsl #16
   54660:	eb01001f 	cmp	x0, x1
   54664:	540001a0 	b.eq	54698 <arm_arch_svc_smc_handler+0xf8>  // b.none
   54668:	12800000 	mov	w0, #0xffffffff            	// #-1
   5466c:	17fffff9 	b	54650 <arm_arch_svc_smc_handler+0xb0>
   54670:	32013fe1 	mov	w1, #0x80007fff            	// #-2147450881
   54674:	eb01001f 	cmp	x0, x1
   54678:	540001c0 	b.eq	546b0 <arm_arch_svc_smc_handler+0x110>  // b.none
   5467c:	320183e1 	mov	w1, #0x80008000            	// #-2147450880
   54680:	eb01001f 	cmp	x0, x1
   54684:	54ffff21 	b.ne	54668 <arm_arch_svc_smc_handler+0xc8>  // b.any
   54688:	94000477 	bl	55864 <check_wa_cve_2017_5715>
   5468c:	7100001f 	cmp	w0, #0x0
   54690:	1a9f17e0 	cset	w0, eq  // eq = none
   54694:	17ffffef 	b	54650 <arm_arch_svc_smc_handler+0xb0>
   54698:	940000f5 	bl	54a6c <plat_is_smccc_feature_available>
   5469c:	17ffffed 	b	54650 <arm_arch_svc_smc_handler+0xb0>
   546a0:	94000479 	bl	55884 <check_smccc_arch_wa3_applies>
   546a4:	34ffff20 	cbz	w0, 54688 <arm_arch_svc_smc_handler+0xe8>
   546a8:	52800000 	mov	w0, #0x0                   	// #0
   546ac:	17ffffe9 	b	54650 <arm_arch_svc_smc_handler+0xb0>
   546b0:	12800020 	mov	w0, #0xfffffffe            	// #-2
   546b4:	17ffffe7 	b	54650 <arm_arch_svc_smc_handler+0xb0>
   546b8:	f100041f 	cmp	x0, #0x1
   546bc:	54000061 	b.ne	546c8 <arm_arch_svc_smc_handler+0x128>  // b.any
   546c0:	940000e9 	bl	54a64 <plat_get_soc_revision>
   546c4:	17ffffe3 	b	54650 <arm_arch_svc_smc_handler+0xb0>
   546c8:	b5000060 	cbnz	x0, 546d4 <arm_arch_svc_smc_handler+0x134>
   546cc:	940000e4 	bl	54a5c <plat_get_soc_version>
   546d0:	17ffffe0 	b	54650 <arm_arch_svc_smc_handler+0xb0>
   546d4:	12800040 	mov	w0, #0xfffffffd            	// #-3
   546d8:	17ffffde 	b	54650 <arm_arch_svc_smc_handler+0xb0>

00000000000546dc <std_svc_smc_handler>:
   546dc:	a9be7bfd 	stp	x29, x30, [sp, #-32]!
   546e0:	910003fd 	mov	x29, sp
   546e4:	f9000bf3 	str	x19, [sp, #16]
   546e8:	aa0603f3 	mov	x19, x6
   546ec:	37f000a0 	tbnz	w0, #30, 54700 <std_svc_smc_handler+0x24>
   546f0:	92407c21 	and	x1, x1, #0xffffffff
   546f4:	92407c42 	and	x2, x2, #0xffffffff
   546f8:	92407c63 	and	x3, x3, #0xffffffff
   546fc:	92407c84 	and	x4, x4, #0xffffffff
   54700:	721b281f 	tst	w0, #0xffe0
   54704:	54000101 	b.ne	54724 <std_svc_smc_handler+0x48>  // b.any
   54708:	aa1303e6 	mov	x6, x19
   5470c:	97fff901 	bl	52b10 <psci_smc_handler>
   54710:	f9000260 	str	x0, [x19]
   54714:	aa1303e0 	mov	x0, x19
   54718:	f9400bf3 	ldr	x19, [sp, #16]
   5471c:	a8c27bfd 	ldp	x29, x30, [sp], #32
   54720:	d65f03c0 	ret
   54724:	529fe021 	mov	w1, #0xff01                	// #65281
   54728:	72b08001 	movk	w1, #0x8400, lsl #16
   5472c:	6b01001f 	cmp	w0, w1
   54730:	54000120 	b.eq	54754 <std_svc_smc_handler+0x78>  // b.none
   54734:	11000821 	add	w1, w1, #0x2
   54738:	6b01001f 	cmp	w0, w1
   5473c:	54000240 	b.eq	54784 <std_svc_smc_handler+0xa8>  // b.none
   54740:	51000c21 	sub	w1, w1, #0x3
   54744:	6b01001f 	cmp	w0, w1
   54748:	d2800320 	mov	x0, #0x19                  	// #25
   5474c:	da9f0000 	csinv	x0, x0, xzr, eq  // eq = none
   54750:	17fffff0 	b	54710 <std_svc_smc_handler+0x34>
   54754:	d2882ac0 	mov	x0, #0x4156                	// #16726
   54758:	f2bc5ec0 	movk	x0, #0xe2f6, lsl #16
   5475c:	f9000e60 	str	x0, [x19, #24]
   54760:	d285b5c0 	mov	x0, #0x2dae                	// #11694
   54764:	f2bf7800 	movk	x0, #0xfbc0, lsl #16
   54768:	f9000a60 	str	x0, [x19, #16]
   5476c:	d29f0c60 	mov	x0, #0xf863                	// #63587
   54770:	f2a8fd00 	movk	x0, #0x47e8, lsl #16
   54774:	f9000660 	str	x0, [x19, #8]
   54778:	d2920b60 	mov	x0, #0x905b                	// #36955
   5477c:	f2a211a0 	movk	x0, #0x108d, lsl #16
   54780:	17ffffe4 	b	54710 <std_svc_smc_handler+0x34>
   54784:	d2800020 	mov	x0, #0x1                   	// #1
   54788:	a900027f 	stp	xzr, x0, [x19]
   5478c:	17ffffe2 	b	54714 <std_svc_smc_handler+0x38>

0000000000054790 <std_svc_setup>:
   54790:	a9bf7bfd 	stp	x29, x30, [sp, #-16]!
   54794:	529ffc00 	mov	w0, #0xffe0                	// #65504
   54798:	910003fd 	mov	x29, sp
   5479c:	97ffee47 	bl	500b8 <get_arm_std_svc_args>
   547a0:	97fffa31 	bl	53064 <psci_setup>
   547a4:	7100001f 	cmp	w0, #0x0
   547a8:	1a9f07e0 	cset	w0, ne  // ne = any
   547ac:	a8c17bfd 	ldp	x29, x30, [sp], #16
   547b0:	d65f03c0 	ret

00000000000547b4 <print_entry_point_info>:
   547b4:	d65f03c0 	ret

00000000000547b8 <tf_log>:
   547b8:	a9b67bfd 	stp	x29, x30, [sp, #-160]!
   547bc:	910003fd 	mov	x29, sp
   547c0:	a90153f3 	stp	x19, x20, [sp, #16]
   547c4:	aa0003f4 	mov	x20, x0
   547c8:	a9068be1 	stp	x1, x2, [sp, #104]
   547cc:	90000021 	adrp	x1, 58000 <__RO_END__>
   547d0:	a90793e3 	stp	x3, x4, [sp, #120]
   547d4:	b940d421 	ldr	w1, [x1, #212]
   547d8:	a9089be5 	stp	x5, x6, [sp, #136]
   547dc:	f9004fe7 	str	x7, [sp, #152]
   547e0:	39400000 	ldrb	w0, [x0]
   547e4:	6b00003f 	cmp	w1, w0
   547e8:	54000263 	b.cc	54834 <tf_log+0x7c>  // b.lo, b.ul, b.last
   547ec:	940000a2 	bl	54a74 <plat_log_get_prefix>
   547f0:	aa0003f3 	mov	x19, x0
   547f4:	39400260 	ldrb	w0, [x19]
   547f8:	35000240 	cbnz	w0, 54840 <tf_log+0x88>
   547fc:	910283e0 	add	x0, sp, #0xa0
   54800:	a90403e0 	stp	x0, x0, [sp, #64]
   54804:	910183e0 	add	x0, sp, #0x60
   54808:	f9002be0 	str	x0, [sp, #80]
   5480c:	128006e0 	mov	w0, #0xffffffc8            	// #-56
   54810:	b9005be0 	str	w0, [sp, #88]
   54814:	b9005fff 	str	wzr, [sp, #92]
   54818:	a94407e0 	ldp	x0, x1, [sp, #64]
   5481c:	a90207e0 	stp	x0, x1, [sp, #32]
   54820:	a94507e0 	ldp	x0, x1, [sp, #80]
   54824:	a90307e0 	stp	x0, x1, [sp, #48]
   54828:	910083e1 	add	x1, sp, #0x20
   5482c:	91000680 	add	x0, x20, #0x1
   54830:	94000626 	bl	560c8 <vprintf>
   54834:	a94153f3 	ldp	x19, x20, [sp, #16]
   54838:	a8ca7bfd 	ldp	x29, x30, [sp], #160
   5483c:	d65f03c0 	ret
   54840:	91000673 	add	x19, x19, #0x1
   54844:	9400004c 	bl	54974 <putchar>
   54848:	17ffffeb 	b	547f4 <tf_log+0x3c>

000000000005484c <tf_log_newline>:
   5484c:	90000021 	adrp	x1, 58000 <__RO_END__>
   54850:	39400000 	ldrb	w0, [x0]
   54854:	b940d421 	ldr	w1, [x1, #212]
   54858:	6b00003f 	cmp	w1, w0
   5485c:	54000063 	b.cc	54868 <tf_log_newline+0x1c>  // b.lo, b.ul, b.last
   54860:	52800140 	mov	w0, #0xa                   	// #10
   54864:	14000044 	b	54974 <putchar>
   54868:	d65f03c0 	ret

000000000005486c <console_is_registered>:
   5486c:	d0000121 	adrp	x1, 7a000 <fdt_buffer+0x1f348>
   54870:	f9467021 	ldr	x1, [x1, #3296]
   54874:	b5000061 	cbnz	x1, 54880 <console_is_registered+0x14>
   54878:	52800000 	mov	w0, #0x0                   	// #0
   5487c:	d65f03c0 	ret
   54880:	eb00003f 	cmp	x1, x0
   54884:	54000060 	b.eq	54890 <console_is_registered+0x24>  // b.none
   54888:	f9400021 	ldr	x1, [x1]
   5488c:	17fffffa 	b	54874 <console_is_registered+0x8>
   54890:	52800020 	mov	w0, #0x1                   	// #1
   54894:	17fffffa 	b	5487c <console_is_registered+0x10>

0000000000054898 <console_register>:
   54898:	a9bf7bfd 	stp	x29, x30, [sp, #-16]!
   5489c:	aa0003e2 	mov	x2, x0
   548a0:	910003fd 	mov	x29, sp
   548a4:	97fffff2 	bl	5486c <console_is_registered>
   548a8:	7100041f 	cmp	w0, #0x1
   548ac:	540000a0 	b.eq	548c0 <console_register+0x28>  // b.none
   548b0:	d0000120 	adrp	x0, 7a000 <fdt_buffer+0x1f348>
   548b4:	f9467001 	ldr	x1, [x0, #3296]
   548b8:	f9000041 	str	x1, [x2]
   548bc:	f9067002 	str	x2, [x0, #3296]
   548c0:	52800020 	mov	w0, #0x1                   	// #1
   548c4:	a8c17bfd 	ldp	x29, x30, [sp], #16
   548c8:	d65f03c0 	ret

00000000000548cc <console_switch_state>:
   548cc:	90000021 	adrp	x1, 58000 <__RO_END__>
   548d0:	39037020 	strb	w0, [x1, #220]
   548d4:	d65f03c0 	ret

00000000000548d8 <console_putc>:
   548d8:	a9bd7bfd 	stp	x29, x30, [sp, #-48]!
   548dc:	910003fd 	mov	x29, sp
   548e0:	a9025bf5 	stp	x21, x22, [sp, #32]
   548e4:	2a0003f5 	mov	w21, w0
   548e8:	d0000120 	adrp	x0, 7a000 <fdt_buffer+0x1f348>
   548ec:	a90153f3 	stp	x19, x20, [sp, #16]
   548f0:	90000036 	adrp	x22, 58000 <__RO_END__>
   548f4:	910372d6 	add	x22, x22, #0xdc
   548f8:	f9467013 	ldr	x19, [x0, #3296]
   548fc:	12800ff4 	mov	w20, #0xffffff80            	// #-128
   54900:	b50000d3 	cbnz	x19, 54918 <console_putc+0x40>
   54904:	2a1403e0 	mov	w0, w20
   54908:	a94153f3 	ldp	x19, x20, [sp, #16]
   5490c:	a9425bf5 	ldp	x21, x22, [sp, #32]
   54910:	a8c37bfd 	ldp	x29, x30, [sp], #48
   54914:	d65f03c0 	ret
   54918:	f9400660 	ldr	x0, [x19, #8]
   5491c:	394002c1 	ldrb	w1, [x22]
   54920:	ea00003f 	tst	x1, x0
   54924:	54000180 	b.eq	54954 <console_putc+0x7c>  // b.none
   54928:	f9400a62 	ldr	x2, [x19, #16]
   5492c:	b4000142 	cbz	x2, 54954 <console_putc+0x7c>
   54930:	71002abf 	cmp	w21, #0xa
   54934:	54000140 	b.eq	5495c <console_putc+0x84>  // b.none
   54938:	f9400a62 	ldr	x2, [x19, #16]
   5493c:	aa1303e1 	mov	x1, x19
   54940:	2a1503e0 	mov	w0, w21
   54944:	d63f0040 	blr	x2
   54948:	3102029f 	cmn	w20, #0x80
   5494c:	7a401280 	ccmp	w20, w0, #0x0, ne  // ne = any
   54950:	1a80d294 	csel	w20, w20, w0, le
   54954:	f9400273 	ldr	x19, [x19]
   54958:	17ffffea 	b	54900 <console_putc+0x28>
   5495c:	3647fee0 	tbz	w0, #8, 54938 <console_putc+0x60>
   54960:	aa1303e1 	mov	x1, x19
   54964:	528001a0 	mov	w0, #0xd                   	// #13
   54968:	d63f0040 	blr	x2
   5496c:	36fffe60 	tbz	w0, #31, 54938 <console_putc+0x60>
   54970:	17fffff6 	b	54948 <console_putc+0x70>

0000000000054974 <putchar>:
   54974:	a9be7bfd 	stp	x29, x30, [sp, #-32]!
   54978:	910003fd 	mov	x29, sp
   5497c:	f9000bf3 	str	x19, [sp, #16]
   54980:	2a0003f3 	mov	w19, w0
   54984:	97ffffd5 	bl	548d8 <console_putc>
   54988:	7100001f 	cmp	w0, #0x0
   5498c:	5a9f0260 	csinv	w0, w19, wzr, eq  // eq = none
   54990:	f9400bf3 	ldr	x19, [sp, #16]
   54994:	a8c27bfd 	ldp	x29, x30, [sp], #32
   54998:	d65f03c0 	ret

000000000005499c <console_flush>:
   5499c:	a9be7bfd 	stp	x29, x30, [sp, #-32]!
   549a0:	d0000120 	adrp	x0, 7a000 <fdt_buffer+0x1f348>
   549a4:	910003fd 	mov	x29, sp
   549a8:	a90153f3 	stp	x19, x20, [sp, #16]
   549ac:	90000034 	adrp	x20, 58000 <__RO_END__>
   549b0:	91037294 	add	x20, x20, #0xdc
   549b4:	f9467013 	ldr	x19, [x0, #3296]
   549b8:	b5000093 	cbnz	x19, 549c8 <console_flush+0x2c>
   549bc:	a94153f3 	ldp	x19, x20, [sp, #16]
   549c0:	a8c27bfd 	ldp	x29, x30, [sp], #32
   549c4:	d65f03c0 	ret
   549c8:	f9400660 	ldr	x0, [x19, #8]
   549cc:	39400281 	ldrb	w1, [x20]
   549d0:	ea00003f 	tst	x1, x0
   549d4:	540000a0 	b.eq	549e8 <console_flush+0x4c>  // b.none
   549d8:	f9401261 	ldr	x1, [x19, #32]
   549dc:	b4000061 	cbz	x1, 549e8 <console_flush+0x4c>
   549e0:	aa1303e0 	mov	x0, x19
   549e4:	d63f0020 	blr	x1
   549e8:	f9400273 	ldr	x19, [x19]
   549ec:	17fffff3 	b	549b8 <console_flush+0x1c>

00000000000549f0 <pmuv3_enable>:
   549f0:	d65f03c0 	ret

00000000000549f4 <pmuv3_disable_el3>:
   549f4:	d53e1320 	mrs	x0, mdcr_el3
   549f8:	92a01041 	mov	x1, #0xffffffffff7dffff    	// #-8519681
   549fc:	f2dffe61 	movk	x1, #0xfff3, lsl #32
   54a00:	8a010000 	and	x0, x0, x1
   54a04:	d2a01001 	mov	x1, #0x800000              	// #8388608
   54a08:	f2c00081 	movk	x1, #0x4, lsl #32
   54a0c:	aa010000 	orr	x0, x0, x1
   54a10:	d51e1320 	msr	mdcr_el3, x0
   54a14:	d53b9c00 	mrs	x0, pmcr_el0
   54a18:	927d7000 	and	x0, x0, #0xfffffff8
   54a1c:	d28004c1 	mov	x1, #0x26                  	// #38
   54a20:	927af400 	and	x0, x0, #0xffffffffffffffcf
   54a24:	aa010000 	orr	x0, x0, x1
   54a28:	d51b9c00 	msr	pmcr_el0, x0
   54a2c:	d65f03c0 	ret

0000000000054a30 <pmuv3_init_el2_unused>:
   54a30:	d53c1121 	mrs	x1, mdcr_el2
   54a34:	d53b9c00 	mrs	x0, pmcr_el0
   54a38:	d29fe002 	mov	x2, #0xff00                	// #65280
   54a3c:	d34b3c00 	ubfx	x0, x0, #11, #5
   54a40:	f2bf6fa2 	movk	x2, #0xfb7d, lsl #16
   54a44:	8a020021 	and	x1, x1, x2
   54a48:	aa010000 	orr	x0, x0, x1
   54a4c:	d2a09041 	mov	x1, #0x4820000             	// #75628544
   54a50:	aa010000 	orr	x0, x0, x1
   54a54:	d51c1120 	msr	mdcr_el2, x0
   54a58:	d65f03c0 	ret

0000000000054a5c <plat_get_soc_version>:
   54a5c:	12800000 	mov	w0, #0xffffffff            	// #-1
   54a60:	d65f03c0 	ret

0000000000054a64 <plat_get_soc_revision>:
   54a64:	12800000 	mov	w0, #0xffffffff            	// #-1
   54a68:	d65f03c0 	ret

0000000000054a6c <plat_is_smccc_feature_available>:
   54a6c:	12800000 	mov	w0, #0xffffffff            	// #-1
   54a70:	d65f03c0 	ret

0000000000054a74 <plat_log_get_prefix>:
   54a74:	7100c81f 	cmp	w0, #0x32
   54a78:	52800641 	mov	w1, #0x32                  	// #50
   54a7c:	1a819000 	csel	w0, w0, w1, ls  // ls = plast
   54a80:	52800141 	mov	w1, #0xa                   	// #10
   54a84:	6b01001f 	cmp	w0, w1
   54a88:	1a812000 	csel	w0, w0, w1, cs  // cs = hs, nlast
   54a8c:	1ac10800 	udiv	w0, w0, w1
   54a90:	d0000001 	adrp	x1, 56000 <unsigned_num_print.part.0+0x8>
   54a94:	911c6021 	add	x1, x1, #0x718
   54a98:	51000400 	sub	w0, w0, #0x1
   54a9c:	f8607820 	ldr	x0, [x1, x0, lsl #3]
   54aa0:	d65f03c0 	ret

0000000000054aa4 <bl31_plat_runtime_setup>:
   54aa4:	52800040 	mov	w0, #0x2                   	// #2
   54aa8:	17ffff89 	b	548cc <console_switch_state>

0000000000054aac <get_el_str>:
   54aac:	2a0003e1 	mov	w1, w0
   54ab0:	71000c1f 	cmp	w0, #0x3
   54ab4:	54000100 	b.eq	54ad4 <get_el_str+0x28>  // b.none
   54ab8:	7100083f 	cmp	w1, #0x2
   54abc:	d0000002 	adrp	x2, 56000 <unsigned_num_print.part.0+0x8>
   54ac0:	d0000000 	adrp	x0, 56000 <unsigned_num_print.part.0+0x8>
   54ac4:	9128dc41 	add	x1, x2, #0xa37
   54ac8:	9128bc00 	add	x0, x0, #0xa2f
   54acc:	9a811000 	csel	x0, x0, x1, ne  // ne = any
   54ad0:	d65f03c0 	ret
   54ad4:	d0000000 	adrp	x0, 56000 <unsigned_num_print.part.0+0x8>
   54ad8:	9128cc00 	add	x0, x0, #0xa33
   54adc:	17fffffd 	b	54ad0 <get_el_str+0x24>

0000000000054ae0 <plat_default_ea_handler>:
   54ae0:	a9bd7bfd 	stp	x29, x30, [sp, #-48]!
   54ae4:	910003fd 	mov	x29, sp
   54ae8:	a90153f3 	stp	x19, x20, [sp, #16]
   54aec:	2a0003f3 	mov	w19, w0
   54af0:	aa0103f4 	mov	x20, x1
   54af4:	f90013f5 	str	x21, [sp, #32]
   54af8:	d53e4015 	mrs	x21, spsr_el3
   54afc:	d0000000 	adrp	x0, 56000 <unsigned_num_print.part.0+0x8>
   54b00:	91263c00 	add	x0, x0, #0x98f
   54b04:	97ffff52 	bl	5484c <tf_log_newline>
   54b08:	d53800a3 	mrs	x3, mpidr_el1
   54b0c:	53020ea0 	ubfx	w0, w21, #2, #2
   54b10:	97ffffe7 	bl	54aac <get_el_str>
   54b14:	aa0303e1 	mov	x1, x3
   54b18:	aa0003e2 	mov	x2, x0
   54b1c:	d0000000 	adrp	x0, 56000 <unsigned_num_print.part.0+0x8>
   54b20:	9128ec00 	add	x0, x0, #0xa3b
   54b24:	97ffff25 	bl	547b8 <tf_log>
   54b28:	aa1403e2 	mov	x2, x20
   54b2c:	2a1303e1 	mov	w1, w19
   54b30:	a94153f3 	ldp	x19, x20, [sp, #16]
   54b34:	d0000000 	adrp	x0, 56000 <unsigned_num_print.part.0+0x8>
   54b38:	f94013f5 	ldr	x21, [sp, #32]
   54b3c:	9129c000 	add	x0, x0, #0xa70
   54b40:	a8c37bfd 	ldp	x29, x30, [sp], #48
   54b44:	17ffff1d 	b	547b8 <tf_log>

0000000000054b48 <xlat_arch_get_pas>:
   54b48:	121c0400 	and	w0, w0, #0x30
   54b4c:	7100401f 	cmp	w0, #0x10
   54b50:	1a9f17e0 	cset	w0, eq  // eq = none
   54b54:	531b6800 	lsl	w0, w0, #5
   54b58:	d65f03c0 	ret

0000000000054b5c <tcr_physical_addr_size_bits>:
   54b5c:	f2540c1f 	tst	x0, #0xf00000000000
   54b60:	54000141 	b.ne	54b88 <tcr_physical_addr_size_bits+0x2c>  // b.any
   54b64:	f256041f 	tst	x0, #0xc0000000000
   54b68:	54000141 	b.ne	54b90 <tcr_physical_addr_size_bits+0x34>  // b.any
   54b6c:	f258041f 	tst	x0, #0x30000000000
   54b70:	54000141 	b.ne	54b98 <tcr_physical_addr_size_bits+0x3c>  // b.any
   54b74:	f25c0c1f 	tst	x0, #0xf000000000
   54b78:	54000141 	b.ne	54ba0 <tcr_physical_addr_size_bits+0x44>  // b.any
   54b7c:	f2600c1f 	tst	x0, #0xf00000000
   54b80:	9a9f07e0 	cset	x0, ne  // ne = any
   54b84:	d65f03c0 	ret
   54b88:	d28000a0 	mov	x0, #0x5                   	// #5
   54b8c:	17fffffe 	b	54b84 <tcr_physical_addr_size_bits+0x28>
   54b90:	d2800080 	mov	x0, #0x4                   	// #4
   54b94:	17fffffc 	b	54b84 <tcr_physical_addr_size_bits+0x28>
   54b98:	d2800060 	mov	x0, #0x3                   	// #3
   54b9c:	17fffffa 	b	54b84 <tcr_physical_addr_size_bits+0x28>
   54ba0:	d2800040 	mov	x0, #0x2                   	// #2
   54ba4:	17fffff8 	b	54b84 <tcr_physical_addr_size_bits+0x28>

0000000000054ba8 <xlat_arch_regime_get_xn_desc>:
   54ba8:	7100041f 	cmp	w0, #0x1
   54bac:	d2e00c01 	mov	x1, #0x60000000000000      	// #27021597764222976
   54bb0:	d2e00800 	mov	x0, #0x40000000000000      	// #18014398509481984
   54bb4:	9a800020 	csel	x0, x1, x0, eq  // eq = none
   54bb8:	d65f03c0 	ret

0000000000054bbc <xlat_arch_current_el>:
   54bbc:	d5384240 	mrs	x0, currentel
   54bc0:	53020c00 	ubfx	w0, w0, #2, #2
   54bc4:	d65f03c0 	ret

0000000000054bc8 <setup_mmu_cfg>:
   54bc8:	91000484 	add	x4, x4, #0x1
   54bcc:	a9bf7bfd 	stp	x29, x30, [sp, #-16]!
   54bd0:	dac00087 	rbit	x7, x4
   54bd4:	910003fd 	mov	x29, sp
   54bd8:	dac010e7 	clz	x7, x7
   54bdc:	aa0003e6 	mov	x6, x0
   54be0:	52800804 	mov	w4, #0x40                  	// #64
   54be4:	aa0303e0 	mov	x0, x3
   54be8:	4b070084 	sub	w4, w4, w7
   54bec:	37080061 	tbnz	w1, #1, 54bf8 <setup_mmu_cfg+0x30>
   54bf0:	5286a001 	mov	w1, #0x3500                	// #13568
   54bf4:	2a010084 	orr	w4, w4, w1
   54bf8:	93407c81 	sxtw	x1, w4
   54bfc:	97ffffd8 	bl	54b5c <tcr_physical_addr_size_bits>
   54c00:	aa008023 	orr	x3, x1, x0, lsl #32
   54c04:	aa004021 	orr	x1, x1, x0, lsl #16
   54c08:	b2690063 	orr	x3, x3, #0x800000
   54c0c:	d2b01000 	mov	x0, #0x80800000            	// #2155872256
   54c10:	710004bf 	cmp	w5, #0x1
   54c14:	aa000021 	orr	x1, x1, x0
   54c18:	9a831021 	csel	x1, x1, x3, ne  // ne = any
   54c1c:	d5380740 	mrs	x0, id_aa64mmfr2_el1
   54c20:	f2400c1f 	tst	x0, #0xf
   54c24:	54000040 	b.eq	54c2c <setup_mmu_cfg+0x64>  // b.none
   54c28:	b2400042 	orr	x2, x2, #0x1
   54c2c:	d2809fe0 	mov	x0, #0x4ff                 	// #1279
   54c30:	a8c17bfd 	ldp	x29, x30, [sp], #16
   54c34:	f2a00880 	movk	x0, #0x44, lsl #16
   54c38:	a90004c0 	stp	x0, x1, [x6]
   54c3c:	f90008c2 	str	x2, [x6, #16]
   54c40:	d65f03c0 	ret

0000000000054c44 <mmap_add_region>:
   54c44:	a9bc7bfd 	stp	x29, x30, [sp, #-64]!
   54c48:	910003fd 	mov	x29, sp
   54c4c:	a90187e0 	stp	x0, x1, [sp, #24]
   54c50:	d2a80000 	mov	x0, #0x40000000            	// #1073741824
   54c54:	910063e1 	add	x1, sp, #0x18
   54c58:	f90017e2 	str	x2, [sp, #40]
   54c5c:	b90033e3 	str	w3, [sp, #48]
   54c60:	f9001fe0 	str	x0, [sp, #56]
   54c64:	90000020 	adrp	x0, 58000 <__RO_END__>
   54c68:	91000000 	add	x0, x0, #0x0
   54c6c:	940000da 	bl	54fd4 <mmap_add_region_ctx>
   54c70:	a8c47bfd 	ldp	x29, x30, [sp], #64
   54c74:	d65f03c0 	ret

0000000000054c78 <mmap_add>:
   54c78:	aa0003e1 	mov	x1, x0
   54c7c:	90000020 	adrp	x0, 58000 <__RO_END__>
   54c80:	91000000 	add	x0, x0, #0x0
   54c84:	14000160 	b	55204 <mmap_add_ctx>

0000000000054c88 <init_xlat_tables>:
   54c88:	a9bf7bfd 	stp	x29, x30, [sp, #-16]!
   54c8c:	910003fd 	mov	x29, sp
   54c90:	97ffffcb 	bl	54bbc <xlat_arch_current_el>
   54c94:	2a0003e1 	mov	w1, w0
   54c98:	7100041f 	cmp	w0, #0x1
   54c9c:	90000020 	adrp	x0, 58000 <__RO_END__>
   54ca0:	91000000 	add	x0, x0, #0x0
   54ca4:	54000081 	b.ne	54cb4 <init_xlat_tables+0x2c>  // b.any
   54ca8:	b9005801 	str	w1, [x0, #88]
   54cac:	a8c17bfd 	ldp	x29, x30, [sp], #16
   54cb0:	14000164 	b	55240 <init_xlat_tables_ctx>
   54cb4:	7100083f 	cmp	w1, #0x2
   54cb8:	52800062 	mov	w2, #0x3                   	// #3
   54cbc:	1a820021 	csel	w1, w1, w2, eq  // eq = none
   54cc0:	17fffffa 	b	54ca8 <init_xlat_tables+0x20>

0000000000054cc4 <enable_mmu_el3>:
   54cc4:	90000022 	adrp	x2, 58000 <__RO_END__>
   54cc8:	91000042 	add	x2, x2, #0x0
   54ccc:	a9be7bfd 	stp	x29, x30, [sp, #-32]!
   54cd0:	2a0003e1 	mov	w1, w0
   54cd4:	52800065 	mov	w5, #0x3                   	// #3
   54cd8:	910003fd 	mov	x29, sp
   54cdc:	f9400444 	ldr	x4, [x2, #8]
   54ce0:	f9402043 	ldr	x3, [x2, #64]
   54ce4:	f9401842 	ldr	x2, [x2, #48]
   54ce8:	f9000bf3 	str	x19, [sp, #16]
   54cec:	2a0003f3 	mov	w19, w0
   54cf0:	d0000120 	adrp	x0, 7a000 <fdt_buffer+0x1f348>
   54cf4:	9133a000 	add	x0, x0, #0xce8
   54cf8:	97ffffb4 	bl	54bc8 <setup_mmu_cfg>
   54cfc:	2a1303e0 	mov	w0, w19
   54d00:	f9400bf3 	ldr	x19, [sp, #16]
   54d04:	a8c27bfd 	ldp	x29, x30, [sp], #32
   54d08:	14000413 	b	55d54 <enable_mmu_direct_el3>

0000000000054d0c <xlat_desc>:
   54d0c:	a9bd7bfd 	stp	x29, x30, [sp, #-48]!
   54d10:	71000c7f 	cmp	w3, #0x3
   54d14:	910003fd 	mov	x29, sp
   54d18:	a90153f3 	stp	x19, x20, [sp, #16]
   54d1c:	2a0103f4 	mov	w20, w1
   54d20:	d2800073 	mov	x19, #0x3                   	// #3
   54d24:	9a9f0673 	csinc	x19, x19, xzr, eq  // eq = none
   54d28:	a9025bf5 	stp	x21, x22, [sp, #32]
   54d2c:	aa020275 	orr	x21, x19, x2
   54d30:	aa0003f6 	mov	x22, x0
   54d34:	2a0103e0 	mov	w0, w1
   54d38:	97ffff84 	bl	54b48 <xlat_arch_get_pas>
   54d3c:	2a0003e0 	mov	w0, w0
   54d40:	f27d029f 	tst	x20, #0x8
   54d44:	9a9f17f3 	cset	x19, eq  // eq = none
   54d48:	aa131c13 	orr	x19, x0, x19, lsl #7
   54d4c:	b9405ac0 	ldr	w0, [x22, #88]
   54d50:	aa150273 	orr	x19, x19, x21
   54d54:	7100041f 	cmp	w0, #0x1
   54d58:	54000221 	b.ne	54d9c <xlat_desc+0x90>  // b.any
   54d5c:	b2760262 	orr	x2, x19, #0x400
   54d60:	f279029f 	tst	x20, #0x80
   54d64:	d2808801 	mov	x1, #0x440                 	// #1088
   54d68:	aa010273 	orr	x19, x19, x1
   54d6c:	9a821273 	csel	x19, x19, x2, ne  // ne = any
   54d70:	72000a95 	ands	w21, w20, #0x7
   54d74:	540001a1 	b.ne	54da8 <xlat_desc+0x9c>  // b.any
   54d78:	97ffff8c 	bl	54ba8 <xlat_arch_regime_get_xn_desc>
   54d7c:	aa000273 	orr	x19, x19, x0
   54d80:	d2804082 	mov	x2, #0x204                 	// #516
   54d84:	aa020273 	orr	x19, x19, x2
   54d88:	aa1303e0 	mov	x0, x19
   54d8c:	a94153f3 	ldp	x19, x20, [sp, #16]
   54d90:	a9425bf5 	ldp	x21, x22, [sp, #32]
   54d94:	a8c37bfd 	ldp	x29, x30, [sp], #48
   54d98:	d65f03c0 	ret
   54d9c:	d2808802 	mov	x2, #0x440                 	// #1088
   54da0:	aa020273 	orr	x19, x19, x2
   54da4:	17fffff3 	b	54d70 <xlat_desc+0x64>
   54da8:	52800901 	mov	w1, #0x48                  	// #72
   54dac:	6a01029f 	tst	w20, w1
   54db0:	54000060 	b.eq	54dbc <xlat_desc+0xb0>  // b.none
   54db4:	97ffff7d 	bl	54ba8 <xlat_arch_regime_get_xn_desc>
   54db8:	aa000273 	orr	x19, x19, x0
   54dbc:	71000abf 	cmp	w21, #0x2
   54dc0:	54000121 	b.ne	54de4 <xlat_desc+0xd8>  // b.any
   54dc4:	12180694 	and	w20, w20, #0x300
   54dc8:	710c029f 	cmp	w20, #0x300
   54dcc:	54fffde0 	b.eq	54d88 <xlat_desc+0x7c>  // b.none
   54dd0:	b2770260 	orr	x0, x19, #0x200
   54dd4:	7108029f 	cmp	w20, #0x200
   54dd8:	b2780673 	orr	x19, x19, #0x300
   54ddc:	9a801273 	csel	x19, x19, x0, ne  // ne = any
   54de0:	17ffffea 	b	54d88 <xlat_desc+0x7c>
   54de4:	d2804100 	mov	x0, #0x208                 	// #520
   54de8:	aa000273 	orr	x19, x19, x0
   54dec:	17ffffe7 	b	54d88 <xlat_desc+0x7c>

0000000000054df0 <xlat_tables_map_region>:
   54df0:	a9b87bfd 	stp	x29, x30, [sp, #-128]!
   54df4:	910003fd 	mov	x29, sp
   54df8:	a9046bf9 	stp	x25, x26, [sp, #64]
   54dfc:	aa0103f9 	mov	x25, x1
   54e00:	aa0003fa 	mov	x26, x0
   54e04:	a90153f3 	stp	x19, x20, [sp, #16]
   54e08:	12800113 	mov	w19, #0xfffffff7            	// #-9
   54e0c:	2a0503f4 	mov	w20, w5
   54e10:	f9400421 	ldr	x1, [x1, #8]
   54e14:	1b137cb3 	mul	w19, w5, w19
   54e18:	f9400b20 	ldr	x0, [x25, #16]
   54e1c:	11009e73 	add	w19, w19, #0x27
   54e20:	a9025bf5 	stp	x21, x22, [sp, #32]
   54e24:	d2800036 	mov	x22, #0x1                   	// #1
   54e28:	8b000020 	add	x0, x1, x0
   54e2c:	d1000400 	sub	x0, x0, #0x1
   54e30:	9ad322d6 	lsl	x22, x22, x19
   54e34:	f90037e0 	str	x0, [sp, #104]
   54e38:	cb1603e0 	neg	x0, x22
   54e3c:	eb02003f 	cmp	x1, x2
   54e40:	8a010000 	and	x0, x0, x1
   54e44:	9a828000 	csel	x0, x0, x2, hi  // hi = pmore
   54e48:	a90573fb 	stp	x27, x28, [sp, #80]
   54e4c:	cb02001c 	sub	x28, x0, x2
   54e50:	92800015 	mov	x21, #0xffffffffffffffff    	// #-1
   54e54:	110004bb 	add	w27, w5, #0x1
   54e58:	9ad3279c 	lsr	x28, x28, x19
   54e5c:	a90363f7 	stp	x23, x24, [sp, #48]
   54e60:	aa0003f7 	mov	x23, x0
   54e64:	b9007bfc 	str	w28, [sp, #120]
   54e68:	8b3c4c7c 	add	x28, x3, w28, uxtw #3
   54e6c:	9ad322b5 	lsl	x21, x21, x19
   54e70:	aa3503e1 	mvn	x1, x21
   54e74:	f9003be1 	str	x1, [sp, #112]
   54e78:	b9007fe4 	str	w4, [sp, #124]
   54e7c:	294f0be1 	ldp	w1, w2, [sp, #120]
   54e80:	6b02003f 	cmp	w1, w2
   54e84:	54000382 	b.cs	54ef4 <xlat_tables_map_region+0x104>  // b.hs, b.nlast
   54e88:	a9408725 	ldp	x5, x1, [x25, #8]
   54e8c:	8b160018 	add	x24, x0, x22
   54e90:	f9400383 	ldr	x3, [x28]
   54e94:	d1000715 	sub	x21, x24, #0x1
   54e98:	12000464 	and	w4, w3, #0x3
   54e9c:	8b0100a1 	add	x1, x5, x1
   54ea0:	eb1700bf 	cmp	x5, x23
   54ea4:	d1000421 	sub	x1, x1, #0x1
   54ea8:	540006e8 	b.hi	54f84 <xlat_tables_map_region+0x194>  // b.pmore
   54eac:	eb0102bf 	cmp	x21, x1
   54eb0:	540006a8 	b.hi	54f84 <xlat_tables_map_region+0x194>  // b.pmore
   54eb4:	f9400322 	ldr	x2, [x25]
   54eb8:	cb050042 	sub	x2, x2, x5
   54ebc:	8b000042 	add	x2, x2, x0
   54ec0:	71000e9f 	cmp	w20, #0x3
   54ec4:	540001c1 	b.ne	54efc <xlat_tables_map_region+0x10c>  // b.any
   54ec8:	71000c9f 	cmp	w4, #0x3
   54ecc:	54000781 	b.ne	54fbc <xlat_tables_map_region+0x1cc>  // b.any
   54ed0:	b9407be0 	ldr	w0, [sp, #120]
   54ed4:	8b1602f7 	add	x23, x23, x22
   54ed8:	9100239c 	add	x28, x28, #0x8
   54edc:	11000400 	add	w0, w0, #0x1
   54ee0:	b9007be0 	str	w0, [sp, #120]
   54ee4:	f94037e0 	ldr	x0, [sp, #104]
   54ee8:	eb18001f 	cmp	x0, x24
   54eec:	aa1803e0 	mov	x0, x24
   54ef0:	54fffc68 	b.hi	54e7c <xlat_tables_map_region+0x8c>  // b.pmore
   54ef4:	d1000400 	sub	x0, x0, #0x1
   54ef8:	1400001c 	b	54f68 <xlat_tables_map_region+0x178>
   54efc:	71000c9f 	cmp	w4, #0x3
   54f00:	540004c0 	b.eq	54f98 <xlat_tables_map_region+0x1a8>  // b.none
   54f04:	35fffe64 	cbnz	w4, 54ed0 <xlat_tables_map_region+0xe0>
   54f08:	f9403be1 	ldr	x1, [sp, #112]
   54f0c:	ea01005f 	tst	x2, x1
   54f10:	540000a1 	b.ne	54f24 <xlat_tables_map_region+0x134>  // b.any
   54f14:	34000094 	cbz	w20, 54f24 <xlat_tables_map_region+0x134>
   54f18:	f9401321 	ldr	x1, [x25, #32]
   54f1c:	9ad32421 	lsr	x1, x1, x19
   54f20:	b50004e1 	cbnz	x1, 54fbc <xlat_tables_map_region+0x1cc>
   54f24:	b9402f43 	ldr	w3, [x26, #44]
   54f28:	f9401341 	ldr	x1, [x26, #32]
   54f2c:	11000462 	add	w2, w3, #0x1
   54f30:	b9002f42 	str	w2, [x26, #44]
   54f34:	93747c63 	sbfiz	x3, x3, #12, #32
   54f38:	ab030023 	adds	x3, x1, x3
   54f3c:	54000160 	b.eq	54f68 <xlat_tables_map_region+0x178>  // b.none
   54f40:	b2400461 	orr	x1, x3, #0x3
   54f44:	f9000381 	str	x1, [x28]
   54f48:	aa0003e2 	mov	x2, x0
   54f4c:	2a1b03e5 	mov	w5, w27
   54f50:	aa1a03e0 	mov	x0, x26
   54f54:	aa1903e1 	mov	x1, x25
   54f58:	52804004 	mov	w4, #0x200                 	// #512
   54f5c:	97ffffa5 	bl	54df0 <xlat_tables_map_region>
   54f60:	eb0002bf 	cmp	x21, x0
   54f64:	54fffb60 	b.eq	54ed0 <xlat_tables_map_region+0xe0>  // b.none
   54f68:	a94153f3 	ldp	x19, x20, [sp, #16]
   54f6c:	a9425bf5 	ldp	x21, x22, [sp, #32]
   54f70:	a94363f7 	ldp	x23, x24, [sp, #48]
   54f74:	a9446bf9 	ldp	x25, x26, [sp, #64]
   54f78:	a94573fb 	ldp	x27, x28, [sp, #80]
   54f7c:	a8c87bfd 	ldp	x29, x30, [sp], #128
   54f80:	d65f03c0 	ret
   54f84:	eb1500bf 	cmp	x5, x21
   54f88:	54000069 	b.ls	54f94 <xlat_tables_map_region+0x1a4>  // b.plast
   54f8c:	eb0102ff 	cmp	x23, x1
   54f90:	54fffa08 	b.hi	54ed0 <xlat_tables_map_region+0xe0>  // b.pmore
   54f94:	34fffc84 	cbz	w4, 54f24 <xlat_tables_map_region+0x134>
   54f98:	aa0003e2 	mov	x2, x0
   54f9c:	2a1b03e5 	mov	w5, w27
   54fa0:	92748c63 	and	x3, x3, #0xfffffffff000
   54fa4:	aa1903e1 	mov	x1, x25
   54fa8:	aa1a03e0 	mov	x0, x26
   54fac:	52804004 	mov	w4, #0x200                 	// #512
   54fb0:	97ffff90 	bl	54df0 <xlat_tables_map_region>
   54fb4:	eb15001f 	cmp	x0, x21
   54fb8:	17ffffeb 	b	54f64 <xlat_tables_map_region+0x174>
   54fbc:	b9401b21 	ldr	w1, [x25, #24]
   54fc0:	2a1403e3 	mov	w3, w20
   54fc4:	aa1a03e0 	mov	x0, x26
   54fc8:	97ffff51 	bl	54d0c <xlat_desc>
   54fcc:	f9000380 	str	x0, [x28]
   54fd0:	17ffffc0 	b	54ed0 <xlat_tables_map_region+0xe0>

0000000000054fd4 <mmap_add_region_ctx>:
   54fd4:	a9bc7bfd 	stp	x29, x30, [sp, #-64]!
   54fd8:	910003fd 	mov	x29, sp
   54fdc:	a9025bf5 	stp	x21, x22, [sp, #32]
   54fe0:	aa0103f6 	mov	x22, x1
   54fe4:	f9400821 	ldr	x1, [x1, #16]
   54fe8:	a90153f3 	stp	x19, x20, [sp, #16]
   54fec:	f9001bf7 	str	x23, [sp, #48]
   54ff0:	b4000941 	cbz	x1, 55118 <mmap_add_region_ctx+0x144>
   54ff4:	aa0003f3 	mov	x19, x0
   54ff8:	a94002c5 	ldp	x5, x0, [x22]
   54ffc:	f94012c2 	ldr	x2, [x22, #32]
   55000:	aa0100a3 	orr	x3, x5, x1
   55004:	aa000063 	orr	x3, x3, x0
   55008:	f2402c7f 	tst	x3, #0xfff
   5500c:	54000d81 	b.ne	551bc <mmap_add_region_ctx+0x1e8>  // b.any
   55010:	f148005f 	cmp	x2, #0x200, lsl #12
   55014:	d2a80003 	mov	x3, #0x40000000            	// #1073741824
   55018:	fa431044 	ccmp	x2, x3, #0x4, ne  // ne = any
   5501c:	54000060 	b.eq	55028 <mmap_add_region_ctx+0x54>  // b.none
   55020:	f140045f 	cmp	x2, #0x1, lsl #12
   55024:	54000cc1 	b.ne	551bc <mmap_add_region_ctx+0x1e8>  // b.any
   55028:	8b0100b5 	add	x21, x5, x1
   5502c:	8b00002a 	add	x10, x1, x0
   55030:	d10006b5 	sub	x21, x21, #0x1
   55034:	d1000554 	sub	x20, x10, #0x1
   55038:	eb1500bf 	cmp	x5, x21
   5503c:	fa549002 	ccmp	x0, x20, #0x2, ls  // ls = plast
   55040:	54000ce8 	b.hi	551dc <mmap_add_region_ctx+0x208>  // b.pmore
   55044:	f9400662 	ldr	x2, [x19, #8]
   55048:	eb02029f 	cmp	x20, x2
   5504c:	54000c88 	b.hi	551dc <mmap_add_region_ctx+0x208>  // b.pmore
   55050:	f9400262 	ldr	x2, [x19]
   55054:	eb0202bf 	cmp	x21, x2
   55058:	54000c28 	b.hi	551dc <mmap_add_region_ctx+0x208>  // b.pmore
   5505c:	b9401a69 	ldr	w9, [x19, #24]
   55060:	52800503 	mov	w3, #0x28                  	// #40
   55064:	f9400a62 	ldr	x2, [x19, #16]
   55068:	9b230929 	smaddl	x9, w9, w3, x2
   5506c:	f85e8123 	ldur	x3, [x9, #-24]
   55070:	b5000ba3 	cbnz	x3, 551e4 <mmap_add_region_ctx+0x210>
   55074:	aa0203e6 	mov	x6, x2
   55078:	cb05000b 	sub	x11, x0, x5
   5507c:	f94008c3 	ldr	x3, [x6, #16]
   55080:	b5000563 	cbnz	x3, 5512c <mmap_add_region_ctx+0x158>
   55084:	aa0203e3 	mov	x3, x2
   55088:	a9409464 	ldp	x4, x5, [x3, #8]
   5508c:	aa0303e0 	mov	x0, x3
   55090:	9100a063 	add	x3, x3, #0x28
   55094:	8b0400a4 	add	x4, x5, x4
   55098:	d1000484 	sub	x4, x4, #0x1
   5509c:	eb14009f 	cmp	x4, x20
   550a0:	54000042 	b.cs	550a8 <mmap_add_region_ctx+0xd4>  // b.hs, b.nlast
   550a4:	b5ffff25 	cbnz	x5, 55088 <mmap_add_region_ctx+0xb4>
   550a8:	a9408c04 	ldp	x4, x3, [x0, #8]
   550ac:	aa0003f7 	mov	x23, x0
   550b0:	9100a000 	add	x0, x0, #0x28
   550b4:	8b040064 	add	x4, x3, x4
   550b8:	eb04015f 	cmp	x10, x4
   550bc:	54000081 	b.ne	550cc <mmap_add_region_ctx+0xf8>  // b.any
   550c0:	b4000063 	cbz	x3, 550cc <mmap_add_region_ctx+0xf8>
   550c4:	eb03003f 	cmp	x1, x3
   550c8:	54ffff08 	b.hi	550a8 <mmap_add_region_ctx+0xd4>  // b.pmore
   550cc:	f9400841 	ldr	x1, [x2, #16]
   550d0:	b4000061 	cbz	x1, 550dc <mmap_add_region_ctx+0x108>
   550d4:	eb09005f 	cmp	x2, x9
   550d8:	540008a3 	b.cc	551ec <mmap_add_region_ctx+0x218>  // b.lo, b.ul, b.last
   550dc:	cb170042 	sub	x2, x2, x23
   550e0:	aa1703e1 	mov	x1, x23
   550e4:	9400039a 	bl	55f4c <memmove>
   550e8:	aa1603e1 	mov	x1, x22
   550ec:	aa1703e0 	mov	x0, x23
   550f0:	d2800502 	mov	x2, #0x28                  	// #40
   550f4:	9400038e 	bl	55f2c <memcpy>
   550f8:	f9402260 	ldr	x0, [x19, #64]
   550fc:	eb15001f 	cmp	x0, x21
   55100:	54000042 	b.cs	55108 <mmap_add_region_ctx+0x134>  // b.hs, b.nlast
   55104:	f9002275 	str	x21, [x19, #64]
   55108:	f9402660 	ldr	x0, [x19, #72]
   5510c:	eb14001f 	cmp	x0, x20
   55110:	54000042 	b.cs	55118 <mmap_add_region_ctx+0x144>  // b.hs, b.nlast
   55114:	f9002674 	str	x20, [x19, #72]
   55118:	a94153f3 	ldp	x19, x20, [sp, #16]
   5511c:	a9425bf5 	ldp	x21, x22, [sp, #32]
   55120:	f9401bf7 	ldr	x23, [sp, #48]
   55124:	a8c47bfd 	ldp	x29, x30, [sp], #64
   55128:	d65f03c0 	ret
   5512c:	a94010c7 	ldp	x7, x4, [x6]
   55130:	8b030088 	add	x8, x4, x3
   55134:	d1000508 	sub	x8, x8, #0x1
   55138:	eb04001f 	cmp	x0, x4
   5513c:	54000263 	b.cc	55188 <mmap_add_region_ctx+0x1b4>  // b.lo, b.ul, b.last
   55140:	eb08029f 	cmp	x20, x8
   55144:	54000269 	b.ls	55190 <mmap_add_region_ctx+0x1bc>  // b.plast
   55148:	eb04001f 	cmp	x0, x4
   5514c:	54000229 	b.ls	55190 <mmap_add_region_ctx+0x1bc>  // b.plast
   55150:	eb0702bf 	cmp	x21, x7
   55154:	54000503 	b.cc	551f4 <mmap_add_region_ctx+0x220>  // b.lo, b.ul, b.last
   55158:	8b070063 	add	x3, x3, x7
   5515c:	d1000463 	sub	x3, x3, #0x1
   55160:	eb0300bf 	cmp	x5, x3
   55164:	1a9f97e3 	cset	w3, hi  // hi = pmore
   55168:	eb04029f 	cmp	x20, x4
   5516c:	54000243 	b.cc	551b4 <mmap_add_region_ctx+0x1e0>  // b.lo, b.ul, b.last
   55170:	eb08001f 	cmp	x0, x8
   55174:	1a9f97e4 	cset	w4, hi  // hi = pmore
   55178:	6a03009f 	tst	w4, w3
   5517c:	54000180 	b.eq	551ac <mmap_add_region_ctx+0x1d8>  // b.none
   55180:	9100a0c6 	add	x6, x6, #0x28
   55184:	17ffffbe 	b	5507c <mmap_add_region_ctx+0xa8>
   55188:	eb08029f 	cmp	x20, x8
   5518c:	54fffe23 	b.cc	55150 <mmap_add_region_ctx+0x17c>  // b.lo, b.ul, b.last
   55190:	cb070087 	sub	x7, x4, x7
   55194:	eb0b00ff 	cmp	x7, x11
   55198:	540000a1 	b.ne	551ac <mmap_add_region_ctx+0x1d8>  // b.any
   5519c:	eb04001f 	cmp	x0, x4
   551a0:	54ffff01 	b.ne	55180 <mmap_add_region_ctx+0x1ac>  // b.any
   551a4:	eb03003f 	cmp	x1, x3
   551a8:	54fffec1 	b.ne	55180 <mmap_add_region_ctx+0x1ac>  // b.any
   551ac:	12800001 	mov	w1, #0xffffffff            	// #-1
   551b0:	14000004 	b	551c0 <mmap_add_region_ctx+0x1ec>
   551b4:	52800024 	mov	w4, #0x1                   	// #1
   551b8:	17fffff0 	b	55178 <mmap_add_region_ctx+0x1a4>
   551bc:	128002a1 	mov	w1, #0xffffffea            	// #-22
   551c0:	a94153f3 	ldp	x19, x20, [sp, #16]
   551c4:	b0000000 	adrp	x0, 56000 <unsigned_num_print.part.0+0x8>
   551c8:	a9425bf5 	ldp	x21, x22, [sp, #32]
   551cc:	912a5400 	add	x0, x0, #0xa95
   551d0:	f9401bf7 	ldr	x23, [sp, #48]
   551d4:	a8c47bfd 	ldp	x29, x30, [sp], #64
   551d8:	17fffd78 	b	547b8 <tf_log>
   551dc:	12800421 	mov	w1, #0xffffffde            	// #-34
   551e0:	17fffff8 	b	551c0 <mmap_add_region_ctx+0x1ec>
   551e4:	12800161 	mov	w1, #0xfffffff4            	// #-12
   551e8:	17fffff6 	b	551c0 <mmap_add_region_ctx+0x1ec>
   551ec:	9100a042 	add	x2, x2, #0x28
   551f0:	17ffffb7 	b	550cc <mmap_add_region_ctx+0xf8>
   551f4:	eb04029f 	cmp	x20, x4
   551f8:	54fffc43 	b.cc	55180 <mmap_add_region_ctx+0x1ac>  // b.lo, b.ul, b.last
   551fc:	52800023 	mov	w3, #0x1                   	// #1
   55200:	17ffffdc 	b	55170 <mmap_add_region_ctx+0x19c>

0000000000055204 <mmap_add_ctx>:
   55204:	a9be7bfd 	stp	x29, x30, [sp, #-32]!
   55208:	910003fd 	mov	x29, sp
   5520c:	a90153f3 	stp	x19, x20, [sp, #16]
   55210:	aa0003f4 	mov	x20, x0
   55214:	aa0103f3 	mov	x19, x1
   55218:	f9401260 	ldr	x0, [x19, #32]
   5521c:	b5000080 	cbnz	x0, 5522c <mmap_add_ctx+0x28>
   55220:	a94153f3 	ldp	x19, x20, [sp, #16]
   55224:	a8c27bfd 	ldp	x29, x30, [sp], #32
   55228:	d65f03c0 	ret
   5522c:	aa1303e1 	mov	x1, x19
   55230:	aa1403e0 	mov	x0, x20
   55234:	9100a273 	add	x19, x19, #0x28
   55238:	97ffff67 	bl	54fd4 <mmap_add_region_ctx>
   5523c:	17fffff7 	b	55218 <mmap_add_ctx+0x14>

0000000000055240 <init_xlat_tables_ctx>:
   55240:	a9be7bfd 	stp	x29, x30, [sp, #-32]!
   55244:	910003fd 	mov	x29, sp
   55248:	a90153f3 	stp	x19, x20, [sp, #16]
   5524c:	aa0003f3 	mov	x19, x0
   55250:	f9400814 	ldr	x20, [x0, #16]
   55254:	aa1403e0 	mov	x0, x20
   55258:	94000033 	bl	55324 <xlat_mmap_print>
   5525c:	b9403a61 	ldr	w1, [x19, #56]
   55260:	d2800000 	mov	x0, #0x0                   	// #0
   55264:	6b00003f 	cmp	w1, w0
   55268:	540001a8 	b.hi	5529c <init_xlat_tables_ctx+0x5c>  // b.pmore
   5526c:	b9402a63 	ldr	w3, [x19, #40]
   55270:	d2800000 	mov	x0, #0x0                   	// #0
   55274:	6b00007f 	cmp	w3, w0
   55278:	540001ac 	b.gt	552ac <init_xlat_tables_ctx+0x6c>
   5527c:	f9400a80 	ldr	x0, [x20, #16]
   55280:	b5000280 	cbnz	x0, 552d0 <init_xlat_tables_ctx+0x90>
   55284:	52800020 	mov	w0, #0x1                   	// #1
   55288:	39015260 	strb	w0, [x19, #84]
   5528c:	aa1303e0 	mov	x0, x19
   55290:	a94153f3 	ldp	x19, x20, [sp, #16]
   55294:	a8c27bfd 	ldp	x29, x30, [sp], #32
   55298:	14000024 	b	55328 <xlat_tables_print>
   5529c:	f9401a62 	ldr	x2, [x19, #48]
   552a0:	f820785f 	str	xzr, [x2, x0, lsl #3]
   552a4:	91000400 	add	x0, x0, #0x1
   552a8:	17ffffef 	b	55264 <init_xlat_tables_ctx+0x24>
   552ac:	f9401262 	ldr	x2, [x19, #32]
   552b0:	d2800001 	mov	x1, #0x0                   	// #0
   552b4:	8b003042 	add	x2, x2, x0, lsl #12
   552b8:	f821785f 	str	xzr, [x2, x1, lsl #3]
   552bc:	91000421 	add	x1, x1, #0x1
   552c0:	f108003f 	cmp	x1, #0x200
   552c4:	54ffffa1 	b.ne	552b8 <init_xlat_tables_ctx+0x78>  // b.any
   552c8:	91000400 	add	x0, x0, #0x1
   552cc:	17ffffea 	b	55274 <init_xlat_tables_ctx+0x34>
   552d0:	b9403a64 	ldr	w4, [x19, #56]
   552d4:	aa1403e1 	mov	x1, x20
   552d8:	b9405265 	ldr	w5, [x19, #80]
   552dc:	d2800002 	mov	x2, #0x0                   	// #0
   552e0:	f9401a63 	ldr	x3, [x19, #48]
   552e4:	aa1303e0 	mov	x0, x19
   552e8:	97fffec2 	bl	54df0 <xlat_tables_map_region>
   552ec:	a9408e81 	ldp	x1, x3, [x20, #8]
   552f0:	8b030022 	add	x2, x1, x3
   552f4:	d1000442 	sub	x2, x2, #0x1
   552f8:	eb00005f 	cmp	x2, x0
   552fc:	54000100 	b.eq	5531c <init_xlat_tables_ctx+0xdc>  // b.none
   55300:	b9401a84 	ldr	w4, [x20, #24]
   55304:	b0000000 	adrp	x0, 56000 <unsigned_num_print.part.0+0x8>
   55308:	f9400282 	ldr	x2, [x20]
   5530c:	912b0000 	add	x0, x0, #0xac0
   55310:	97fffd2a 	bl	547b8 <tf_log>
   55314:	97fffda2 	bl	5499c <console_flush>
   55318:	9400021a 	bl	55b80 <el3_panic>
   5531c:	9100a294 	add	x20, x20, #0x28
   55320:	17ffffd7 	b	5527c <init_xlat_tables_ctx+0x3c>

0000000000055324 <xlat_mmap_print>:
   55324:	d65f03c0 	ret

0000000000055328 <xlat_tables_print>:
   55328:	d65f03c0 	ret

000000000005532c <bl31_params_parse_helper>:
   5532c:	a9bd7bfd 	stp	x29, x30, [sp, #-48]!
   55330:	910003fd 	mov	x29, sp
   55334:	a90153f3 	stp	x19, x20, [sp, #16]
   55338:	aa0003f3 	mov	x19, x0
   5533c:	aa0103f4 	mov	x20, x1
   55340:	f90013f5 	str	x21, [sp, #32]
   55344:	aa0203f5 	mov	x21, x2
   55348:	39400400 	ldrb	w0, [x0, #1]
   5534c:	7100041f 	cmp	w0, #0x1
   55350:	540001e1 	b.ne	5538c <bl31_params_parse_helper+0x60>  // b.any
   55354:	b40000a1 	cbz	x1, 55368 <bl31_params_parse_helper+0x3c>
   55358:	aa0103e0 	mov	x0, x1
   5535c:	d2800b02 	mov	x2, #0x58                  	// #88
   55360:	f9400a61 	ldr	x1, [x19, #16]
   55364:	940002f2 	bl	55f2c <memcpy>
   55368:	b40000b5 	cbz	x21, 5537c <bl31_params_parse_helper+0x50>
   5536c:	f9401261 	ldr	x1, [x19, #32]
   55370:	aa1503e0 	mov	x0, x21
   55374:	d2800b02 	mov	x2, #0x58                  	// #88
   55378:	940002ed 	bl	55f2c <memcpy>
   5537c:	a94153f3 	ldp	x19, x20, [sp, #16]
   55380:	f94013f5 	ldr	x21, [sp, #32]
   55384:	a8c37bfd 	ldp	x29, x30, [sp], #48
   55388:	d65f03c0 	ret
   5538c:	f9400673 	ldr	x19, [x19, #8]
   55390:	b4ffff73 	cbz	x19, 5537c <bl31_params_parse_helper+0x50>
   55394:	b9400260 	ldr	w0, [x19]
   55398:	7100101f 	cmp	w0, #0x4
   5539c:	54000101 	b.ne	553bc <bl31_params_parse_helper+0x90>  // b.any
   553a0:	b40000b4 	cbz	x20, 553b4 <bl31_params_parse_helper+0x88>
   553a4:	f9400a61 	ldr	x1, [x19, #16]
   553a8:	aa1403e0 	mov	x0, x20
   553ac:	d2800b02 	mov	x2, #0x58                  	// #88
   553b0:	940002df 	bl	55f2c <memcpy>
   553b4:	f9400e73 	ldr	x19, [x19, #24]
   553b8:	17fffff6 	b	55390 <bl31_params_parse_helper+0x64>
   553bc:	7100141f 	cmp	w0, #0x5
   553c0:	54ffffa1 	b.ne	553b4 <bl31_params_parse_helper+0x88>  // b.any
   553c4:	b4ffff95 	cbz	x21, 553b4 <bl31_params_parse_helper+0x88>
   553c8:	aa1503e0 	mov	x0, x21
   553cc:	d2800b02 	mov	x2, #0x58                  	// #88
   553d0:	f9400a61 	ldr	x1, [x19, #16]
   553d4:	17fffff7 	b	553b0 <bl31_params_parse_helper+0x84>

00000000000553d8 <bl_aux_params_parse>:
   553d8:	a9bd7bfd 	stp	x29, x30, [sp, #-48]!
   553dc:	910003fd 	mov	x29, sp
   553e0:	a90153f3 	stp	x19, x20, [sp, #16]
   553e4:	aa0103f4 	mov	x20, x1
   553e8:	aa0003f3 	mov	x19, x0
   553ec:	f90013f5 	str	x21, [sp, #32]
   553f0:	b0000015 	adrp	x21, 56000 <unsigned_num_print.part.0+0x8>
   553f4:	912c3eb5 	add	x21, x21, #0xb0f
   553f8:	b50000b3 	cbnz	x19, 5540c <bl_aux_params_parse+0x34>
   553fc:	a94153f3 	ldp	x19, x20, [sp, #16]
   55400:	f94013f5 	ldr	x21, [sp, #32]
   55404:	a8c37bfd 	ldp	x29, x30, [sp], #48
   55408:	d65f03c0 	ret
   5540c:	b50000d4 	cbnz	x20, 55424 <bl_aux_params_parse+0x4c>
   55410:	f9400261 	ldr	x1, [x19]
   55414:	aa1503e0 	mov	x0, x21
   55418:	97fffce8 	bl	547b8 <tf_log>
   5541c:	f9400673 	ldr	x19, [x19, #8]
   55420:	17fffff6 	b	553f8 <bl_aux_params_parse+0x20>
   55424:	aa1303e0 	mov	x0, x19
   55428:	d63f0280 	blr	x20
   5542c:	72001c1f 	tst	w0, #0xff
   55430:	54ffff00 	b.eq	55410 <bl_aux_params_parse+0x38>  // b.none
   55434:	17fffffa 	b	5541c <bl_aux_params_parse+0x44>

0000000000055438 <plat_get_target_pwr_state>:
   55438:	d2800003 	mov	x3, #0x0                   	// #0
   5543c:	52800040 	mov	w0, #0x2                   	// #2
   55440:	38636824 	ldrb	w4, [x1, x3]
   55444:	91000463 	add	x3, x3, #0x1
   55448:	6b00009f 	cmp	w4, w0
   5544c:	1a809080 	csel	w0, w4, w0, ls  // ls = plast
   55450:	12001c00 	and	w0, w0, #0xff
   55454:	6b03005f 	cmp	w2, w3
   55458:	54ffff41 	b.ne	55440 <plat_get_target_pwr_state+0x8>  // b.any
   5545c:	d65f03c0 	ret

0000000000055460 <report_unhandled_exception>:
   55460:	940001b0 	bl	55b20 <plat_panic_handler>

0000000000055464 <handle_lower_el_sync_ea>:
   55464:	d53e521e 	mrs	x30, esr_el3
   55468:	d35a7fde 	ubfx	x30, x30, #26, #6
   5546c:	f10083df 	cmp	x30, #0x20
   55470:	540001a0 	b.eq	554a4 <handle_lower_el_sync_ea+0x40>  // b.none
   55474:	f10093df 	cmp	x30, #0x24
   55478:	54000160 	b.eq	554a4 <handle_lower_el_sync_ea+0x40>  // b.none
   5547c:	a90007e0 	stp	x0, x1, [sp]
   55480:	a9010fe2 	stp	x2, x3, [sp, #16]
   55484:	a90217e4 	stp	x4, x5, [sp, #32]
   55488:	940000e3 	bl	55814 <get_cpu_ops_ptr>
   5548c:	f9401400 	ldr	x0, [x0, #40]
   55490:	b4000160 	cbz	x0, 554bc <handle_lower_el_sync_ea+0x58>
   55494:	d53e5201 	mrs	x1, esr_el3
   55498:	d35a7c21 	ubfx	x1, x1, #26, #6
   5549c:	d63f0000 	blr	x0
   554a0:	14000007 	b	554bc <handle_lower_el_sync_ea+0x58>
   554a4:	9400012b 	bl	55950 <prepare_el3_entry>
   554a8:	d2800020 	mov	x0, #0x1                   	// #1
   554ac:	d53e5201 	mrs	x1, esr_el3
   554b0:	9400000e 	bl	554e8 <delegate_sync_ea>
   554b4:	d50040bf 	msr	spsel, #0x0
   554b8:	14000154 	b	55a08 <el3_exit>
   554bc:	a94007e0 	ldp	x0, x1, [sp]
   554c0:	a9410fe2 	ldp	x2, x3, [sp, #16]
   554c4:	a94217e4 	ldp	x4, x5, [sp, #32]
   554c8:	f9407bfe 	ldr	x30, [sp, #240]
   554cc:	97ffffe5 	bl	55460 <report_unhandled_exception>

00000000000554d0 <handle_lower_el_async_ea>:
   554d0:	94000120 	bl	55950 <prepare_el3_entry>
   554d4:	d2800000 	mov	x0, #0x0                   	// #0
   554d8:	d53e5201 	mrs	x1, esr_el3
   554dc:	94000004 	bl	554ec <delegate_async_ea>
   554e0:	d50040bf 	msr	spsel, #0x0
   554e4:	14000149 	b	55a08 <el3_exit>

00000000000554e8 <delegate_sync_ea>:
   554e8:	14000002 	b	554f0 <ea_proceed>

00000000000554ec <delegate_async_ea>:
   554ec:	14000001 	b	554f0 <ea_proceed>

00000000000554f0 <ea_proceed>:
   554f0:	f94087e5 	ldr	x5, [sp, #264]
   554f4:	b4000045 	cbz	x5, 554fc <ea_proceed+0xc>
   554f8:	94000215 	bl	55d4c <plat_handle_double_fault>
   554fc:	d53e4002 	mrs	x2, spsr_el3
   55500:	d53e4023 	mrs	x3, elr_el3
   55504:	a9118fe2 	stp	x2, x3, [sp, #280]
   55508:	d53e1104 	mrs	x4, scr_el3
   5550c:	d53e5205 	mrs	x5, esr_el3
   55510:	a91017e4 	stp	x4, x5, [sp, #256]
   55514:	aa1f03e2 	mov	x2, xzr
   55518:	910003e3 	mov	x3, sp
   5551c:	d3400084 	ubfx	x4, x4, #0, #1
   55520:	f9408be5 	ldr	x5, [sp, #272]
   55524:	d50040bf 	msr	spsel, #0x0
   55528:	910000bf 	mov	sp, x5
   5552c:	aa1e03fd 	mov	x29, x30
   55530:	97fffd6c 	bl	54ae0 <plat_default_ea_handler>
   55534:	d50041bf 	msr	spsel, #0x1
   55538:	a9518be1 	ldp	x1, x2, [sp, #280]
   5553c:	d51e4001 	msr	spsr_el3, x1
   55540:	d51e4022 	msr	elr_el3, x2
   55544:	a95013e3 	ldp	x3, x4, [sp, #256]
   55548:	d51e1103 	msr	scr_el3, x3
   5554c:	d51e5204 	msr	esr_el3, x4
   55550:	f90087ff 	str	xzr, [sp, #264]
   55554:	d65f03a0 	ret	x29

0000000000055558 <sync_exception_handler>:
   55558:	37f00640 	tbnz	w0, #30, 55620 <smc_prohibited>

000000000005555c <sync_handler64>:
   5555c:	940000fd 	bl	55950 <prepare_el3_entry>
   55560:	aa1f03e5 	mov	x5, xzr
   55564:	910003e6 	mov	x6, sp
   55568:	f94088cc 	ldr	x12, [x6, #272]
   5556c:	d50040bf 	msr	spsel, #0x0
   55570:	d53e4010 	mrs	x16, spsr_el3
   55574:	d53e4031 	mrs	x17, elr_el3
   55578:	a911c4d0 	stp	x16, x17, [x6, #280]
   5557c:	d53e1112 	mrs	x18, scr_el3
   55580:	d53e5210 	mrs	x16, esr_el3
   55584:	d35a7e11 	ubfx	x17, x16, #26, #6
   55588:	f100623f 	cmp	x17, #0x18
   5558c:	540002c0 	b.eq	555e4 <sysreg_handler64>  // b.none
   55590:	aa1f03e7 	mov	x7, xzr
   55594:	b3400247 	bfxil	x7, x18, #0, #1
   55598:	9100019f 	mov	sp, x12
   5559c:	36f80060 	tbz	w0, #31, 555a8 <sync_handler64+0x4c>
   555a0:	f26f181f 	tst	x0, #0xfe0000
   555a4:	54000381 	b.ne	55614 <smc_unknown>  // b.any
   555a8:	92700010 	and	x16, x0, #0x10000
   555ac:	aa1000e7 	orr	x7, x7, x16
   555b0:	926ff800 	and	x0, x0, #0xfffffffffffeffff
   555b4:	d3587410 	ubfx	x16, x0, #24, #6
   555b8:	d35f7c0f 	ubfx	x15, x0, #31, #1
   555bc:	aa0f1a10 	orr	x16, x16, x15, lsl #6
   555c0:	d000012e 	adrp	x14, 7b000 <tf_mmap+0x300>
   555c4:	910841ce 	add	x14, x14, #0x210
   555c8:	387069cf 	ldrb	w15, [x14, x16]
   555cc:	3738024f 	tbnz	w15, #7, 55614 <smc_unknown>
   555d0:	1000accb 	adr	x11, 56b68 <__svc_desc_rockchip_sip_svc+0x18>
   555d4:	531b69ea 	lsl	w10, w15, #5
   555d8:	f86a496f 	ldr	x15, [x11, w10, uxtw]
   555dc:	d63f01e0 	blr	x15
   555e0:	1400010a 	b	55a08 <el3_exit>

00000000000555e4 <sysreg_handler64>:
   555e4:	aa1003e0 	mov	x0, x16
   555e8:	aa0603e1 	mov	x1, x6
   555ec:	aa0603f3 	mov	x19, x6
   555f0:	9100019f 	mov	sp, x12
   555f4:	97ffeaf0 	bl	501b4 <handle_sysreg_trap>
   555f8:	6a00001f 	tst	w0, w0
   555fc:	54002c04 	b.mi	55b7c <elx_panic>  // b.first
   55600:	54000080 	b.eq	55610 <sysreg_handler64+0x2c>  // b.none
   55604:	f9409261 	ldr	x1, [x19, #288]
   55608:	91001021 	add	x1, x1, #0x4
   5560c:	f9009261 	str	x1, [x19, #288]
   55610:	140000fe 	b	55a08 <el3_exit>

0000000000055614 <smc_unknown>:
   55614:	92800000 	mov	x0, #0xffffffffffffffff    	// #-1
   55618:	f90000c0 	str	x0, [x6]
   5561c:	140000fb 	b	55a08 <el3_exit>

0000000000055620 <smc_prohibited>:
   55620:	a94e77fc 	ldp	x28, x29, [sp, #224]
   55624:	f9407bfe 	ldr	x30, [sp, #240]
   55628:	92800000 	mov	x0, #0xffffffffffffffff    	// #-1
   5562c:	d69f03e0 	eret
   55630:	d503379f 	dsb	nsh
   55634:	d5033fdf 	isb

0000000000055638 <console_16550_core_init>:
   55638:	b4000340 	cbz	x0, 556a0 <init_fail>
   5563c:	34000321 	cbz	w1, 556a0 <init_fail>
   55640:	34000302 	cbz	w2, 556a0 <init_fail>
   55644:	531c6c42 	lsl	w2, w2, #4
   55648:	1ac20822 	udiv	w2, w1, w2
   5564c:	12001c41 	and	w1, w2, #0xff
   55650:	53087c42 	lsr	w2, w2, #8
   55654:	12001c42 	and	w2, w2, #0xff
   55658:	b9400c03 	ldr	w3, [x0, #12]
   5565c:	32190063 	orr	w3, w3, #0x80
   55660:	b9000c03 	str	w3, [x0, #12]
   55664:	b9000001 	str	w1, [x0]
   55668:	b9000402 	str	w2, [x0, #4]
   5566c:	12801002 	mov	w2, #0xffffff7f            	// #-129
   55670:	0a020063 	and	w3, w3, w2
   55674:	b9000c03 	str	w3, [x0, #12]
   55678:	52800063 	mov	w3, #0x3                   	// #3
   5567c:	b9000c03 	str	w3, [x0, #12]
   55680:	52800003 	mov	w3, #0x0                   	// #0
   55684:	b9000403 	str	w3, [x0, #4]
   55688:	52800123 	mov	w3, #0x9                   	// #9
   5568c:	b9000803 	str	w3, [x0, #8]
   55690:	52800063 	mov	w3, #0x3                   	// #3
   55694:	b9001003 	str	w3, [x0, #16]
   55698:	52800020 	mov	w0, #0x1                   	// #1
   5569c:	d65f03c0 	ret

00000000000556a0 <init_fail>:
   556a0:	52800000 	mov	w0, #0x0                   	// #0
   556a4:	d65f03c0 	ret

00000000000556a8 <console_16550_register>:
   556a8:	aa1e03e7 	mov	x7, x30
   556ac:	aa0303e6 	mov	x6, x3
   556b0:	b4000266 	cbz	x6, 556fc <register_fail>
   556b4:	f90014c0 	str	x0, [x6, #40]
   556b8:	34000061 	cbz	w1, 556c4 <register_16550>
   556bc:	97ffffdf 	bl	55638 <console_16550_core_init>
   556c0:	b40001e0 	cbz	x0, 556fc <register_fail>

00000000000556c4 <register_16550>:
   556c4:	aa0603e0 	mov	x0, x6
   556c8:	aa0703fe 	mov	x30, x7
   556cc:	90000001 	adrp	x1, 55000 <mmap_add_region_ctx+0x2c>
   556d0:	911ce021 	add	x1, x1, #0x738
   556d4:	f9000801 	str	x1, [x0, #16]
   556d8:	90000001 	adrp	x1, 55000 <mmap_add_region_ctx+0x2c>
   556dc:	911d6021 	add	x1, x1, #0x758
   556e0:	f9000c01 	str	x1, [x0, #24]
   556e4:	90000001 	adrp	x1, 55000 <mmap_add_region_ctx+0x2c>
   556e8:	911dd021 	add	x1, x1, #0x774
   556ec:	f9001001 	str	x1, [x0, #32]
   556f0:	d28000a1 	mov	x1, #0x5                   	// #5
   556f4:	f9000401 	str	x1, [x0, #8]
   556f8:	17fffc68 	b	54898 <console_register>

00000000000556fc <register_fail>:
   556fc:	d65f00e0 	ret	x7

0000000000055700 <console_16550_core_putc>:
   55700:	7100281f 	cmp	w0, #0xa
   55704:	540000e1 	b.ne	55720 <console_16550_core_putc+0x20>  // b.any
   55708:	b9401422 	ldr	w2, [x1, #20]
   5570c:	121b0442 	and	w2, w2, #0x60
   55710:	7101805f 	cmp	w2, #0x60
   55714:	54ffffa1 	b.ne	55708 <console_16550_core_putc+0x8>  // b.any
   55718:	528001a2 	mov	w2, #0xd                   	// #13
   5571c:	b9000022 	str	w2, [x1]
   55720:	b9401422 	ldr	w2, [x1, #20]
   55724:	121b0442 	and	w2, w2, #0x60
   55728:	7101805f 	cmp	w2, #0x60
   5572c:	54ffffa1 	b.ne	55720 <console_16550_core_putc+0x20>  // b.any
   55730:	b9000020 	str	w0, [x1]
   55734:	d65f03c0 	ret

0000000000055738 <console_16550_putc>:
   55738:	f9401421 	ldr	x1, [x1, #40]
   5573c:	17fffff1 	b	55700 <console_16550_core_putc>

0000000000055740 <console_16550_core_getc>:
   55740:	b9401401 	ldr	w1, [x0, #20]
   55744:	36000061 	tbz	w1, #0, 55750 <no_char>
   55748:	b9400000 	ldr	w0, [x0]
   5574c:	d65f03c0 	ret

0000000000055750 <no_char>:
   55750:	12800000 	mov	w0, #0xffffffff            	// #-1
   55754:	d65f03c0 	ret

0000000000055758 <console_16550_getc>:
   55758:	f9401400 	ldr	x0, [x0, #40]
   5575c:	17fffff9 	b	55740 <console_16550_core_getc>

0000000000055760 <console_16550_core_flush>:
   55760:	b9401401 	ldr	w1, [x0, #20]
   55764:	121b0421 	and	w1, w1, #0x60
   55768:	7101803f 	cmp	w1, #0x60
   5576c:	54ffffa1 	b.ne	55760 <console_16550_core_flush>  // b.any
   55770:	d65f03c0 	ret

0000000000055774 <console_16550_flush>:
   55774:	f9401400 	ldr	x0, [x0, #40]
   55778:	17fffffa 	b	55760 <console_16550_core_flush>

000000000005577c <cortex_a55_reset_func>:
   5577c:	aa1e03f3 	mov	x19, x30
   55780:	94000035 	bl	55854 <cpu_get_rev_var>
   55784:	aa0003f2 	mov	x18, x0
   55788:	d65f0260 	ret	x19

000000000005578c <cortex_a55_core_pwr_dwn>:
   5578c:	d538f2e0 	mrs	x0, s3_0_c15_c2_7
   55790:	b2400000 	orr	x0, x0, #0x1
   55794:	d518f2e0 	msr	s3_0_c15_c2_7, x0
   55798:	d5033fdf 	isb
   5579c:	d65f03c0 	ret

00000000000557a0 <cortex_a55_dsu_pwr_dwn>:
   557a0:	d2800001 	mov	x1, #0x0                   	// #0
   557a4:	d518f3a0 	msr	s3_0_c15_c3_5, x0
   557a8:	d5033fdf 	isb
   557ac:	d65f03c0 	ret

00000000000557b0 <reset_handler>:
   557b0:	aa1e03f3 	mov	x19, x30
   557b4:	940000cd 	bl	55ae8 <plat_reset_handler>
   557b8:	94000017 	bl	55814 <get_cpu_ops_ptr>
   557bc:	f9400402 	ldr	x2, [x0, #8]
   557c0:	aa1303fe 	mov	x30, x19
   557c4:	b4000042 	cbz	x2, 557cc <reset_handler+0x1c>
   557c8:	d61f0040 	br	x2
   557cc:	d65f03c0 	ret

00000000000557d0 <prepare_cpu_pwr_dwn>:
   557d0:	d2800022 	mov	x2, #0x1                   	// #1
   557d4:	eb02001f 	cmp	x0, x2
   557d8:	9a808042 	csel	x2, x2, x0, hi  // hi = pmore
   557dc:	d53ed041 	mrs	x1, tpidr_el3
   557e0:	f9400820 	ldr	x0, [x1, #16]
   557e4:	d2800601 	mov	x1, #0x30                  	// #48
   557e8:	8b020c21 	add	x1, x1, x2, lsl #3
   557ec:	f8616801 	ldr	x1, [x0, x1]
   557f0:	d61f0020 	br	x1

00000000000557f4 <init_cpu_ops>:
   557f4:	d53ed046 	mrs	x6, tpidr_el3
   557f8:	f94008c0 	ldr	x0, [x6, #16]
   557fc:	b50000a0 	cbnz	x0, 55810 <init_cpu_ops+0x1c>
   55800:	aa1e03ea 	mov	x10, x30
   55804:	94000004 	bl	55814 <get_cpu_ops_ptr>
   55808:	f8010cc0 	str	x0, [x6, #16]!
   5580c:	aa0a03fe 	mov	x30, x10
   55810:	d65f03c0 	ret

0000000000055814 <get_cpu_ops_ptr>:
   55814:	d5380002 	mrs	x2, midr_el1
   55818:	d29ffe03 	mov	x3, #0xfff0                	// #65520
   5581c:	f2bfe003 	movk	x3, #0xff00, lsl #16
   55820:	0a030042 	and	w2, w2, w3
   55824:	10009ee5 	adr	x5, 56c00 <__cb_func_spe_drain_buffers_hookcm_entering_secure_world>
   55828:	d2800000 	mov	x0, #0x0                   	// #0
   5582c:	10009c24 	adr	x4, 56bb0 <__CPU_OPS_START__>
   55830:	eb05009f 	cmp	x4, x5
   55834:	540000e0 	b.eq	55850 <search_def_ptr>  // b.none
   55838:	f8450481 	ldr	x1, [x4], #80
   5583c:	0a030021 	and	w1, w1, w3
   55840:	6b02003f 	cmp	w1, w2
   55844:	54ffff61 	b.ne	55830 <get_cpu_ops_ptr+0x1c>  // b.any
   55848:	d1014080 	sub	x0, x4, #0x50
   5584c:	d65f03c0 	ret

0000000000055850 <search_def_ptr>:
   55850:	d65f03c0 	ret

0000000000055854 <cpu_get_rev_var>:
   55854:	d5380001 	mrs	x1, midr_el1
   55858:	d3505c20 	ubfx	x0, x1, #16, #8
   5585c:	b3400c20 	bfxil	x0, x1, #0, #4
   55860:	d65f03c0 	ret

0000000000055864 <check_wa_cve_2017_5715>:
   55864:	d53ed040 	mrs	x0, tpidr_el3
   55868:	f9400800 	ldr	x0, [x0, #16]
   5586c:	f9400800 	ldr	x0, [x0, #16]
   55870:	f100001f 	cmp	x0, #0x0
   55874:	54000040 	b.eq	5587c <check_wa_cve_2017_5715+0x18>  // b.none
   55878:	d61f0000 	br	x0
   5587c:	d2800000 	mov	x0, #0x0                   	// #0
   55880:	d65f03c0 	ret

0000000000055884 <check_smccc_arch_wa3_applies>:
   55884:	d53ed040 	mrs	x0, tpidr_el3
   55888:	f9400800 	ldr	x0, [x0, #16]
   5588c:	f9401000 	ldr	x0, [x0, #32]
   55890:	f100001f 	cmp	x0, #0x0
   55894:	54000040 	b.eq	5589c <check_smccc_arch_wa3_applies+0x18>  // b.none
   55898:	d61f0000 	br	x0
   5589c:	d2800000 	mov	x0, #0x0                   	// #0
   558a0:	d65f03c0 	ret

00000000000558a4 <el1_sysregs_context_restore>:
   558a4:	a9402809 	ldp	x9, x10, [x0]
   558a8:	d5184009 	msr	spsr_el1, x9
   558ac:	d518402a 	msr	elr_el1, x10
   558b0:	a941400f 	ldp	x15, x16, [x0, #16]
   558b4:	d518100f 	msr	sctlr_el1, x15
   558b8:	d5182050 	msr	tcr_el1, x16
   558bc:	a9422411 	ldp	x17, x9, [x0, #32]
   558c0:	d5181051 	msr	cpacr_el1, x17
   558c4:	d51a0009 	msr	csselr_el1, x9
   558c8:	a9432c0a 	ldp	x10, x11, [x0, #48]
   558cc:	d51c410a 	msr	sp_el1, x10
   558d0:	d518520b 	msr	esr_el1, x11
   558d4:	a944340c 	ldp	x12, x13, [x0, #64]
   558d8:	d518200c 	msr	ttbr0_el1, x12
   558dc:	d518202d 	msr	ttbr1_el1, x13
   558e0:	a9453c0e 	ldp	x14, x15, [x0, #80]
   558e4:	d518a20e 	msr	mair_el1, x14
   558e8:	d518a30f 	msr	amair_el1, x15
   558ec:	a9464410 	ldp	x16, x17, [x0, #96]
   558f0:	d5181030 	msr	actlr_el1, x16
   558f4:	d518d091 	msr	tpidr_el1, x17
   558f8:	a9472809 	ldp	x9, x10, [x0, #112]
   558fc:	d51bd049 	msr	tpidr_el0, x9
   55900:	d51bd06a 	msr	tpidrro_el0, x10
   55904:	a948380d 	ldp	x13, x14, [x0, #128]
   55908:	d518740d 	msr	par_el1, x13
   5590c:	d518600e 	msr	far_el1, x14
   55910:	a949400f 	ldp	x15, x16, [x0, #144]
   55914:	d518510f 	msr	afsr0_el1, x15
   55918:	d5185130 	msr	afsr1_el1, x16
   5591c:	a94a2411 	ldp	x17, x9, [x0, #160]
   55920:	d518d031 	msr	contextidr_el1, x17
   55924:	d518c009 	msr	vbar_el1, x9
   55928:	a94b300b 	ldp	x11, x12, [x0, #176]
   5592c:	d51c432b 	msr	spsr_abt, x11
   55930:	d51c434c 	msr	spsr_und, x12
   55934:	a94c380d 	ldp	x13, x14, [x0, #192]
   55938:	d51c430d 	msr	spsr_irq, x13
   5593c:	d51c436e 	msr	spsr_fiq, x14
   55940:	a94d400f 	ldp	x15, x16, [x0, #208]
   55944:	d51c300f 	msr	dacr32_el2, x15
   55948:	d51c5030 	msr	ifsr32_el2, x16
   5594c:	d65f03c0 	ret

0000000000055950 <prepare_el3_entry>:
   55950:	a90007e0 	stp	x0, x1, [sp]
   55954:	a9010fe2 	stp	x2, x3, [sp, #16]
   55958:	a90217e4 	stp	x4, x5, [sp, #32]
   5595c:	a9031fe6 	stp	x6, x7, [sp, #48]
   55960:	a90427e8 	stp	x8, x9, [sp, #64]
   55964:	a9052fea 	stp	x10, x11, [sp, #80]
   55968:	a90637ec 	stp	x12, x13, [sp, #96]
   5596c:	a9073fee 	stp	x14, x15, [sp, #112]
   55970:	a90847f0 	stp	x16, x17, [sp, #128]
   55974:	a9094ff2 	stp	x18, x19, [sp, #144]
   55978:	a90a57f4 	stp	x20, x21, [sp, #160]
   5597c:	a90b5ff6 	stp	x22, x23, [sp, #176]
   55980:	a90c67f8 	stp	x24, x25, [sp, #192]
   55984:	a90d6ffa 	stp	x26, x27, [sp, #208]
   55988:	a90e77fc 	stp	x28, x29, [sp, #224]
   5598c:	d5384112 	mrs	x18, sp_el0
   55990:	f9007ff2 	str	x18, [sp, #248]
   55994:	d53b9c09 	mrs	x9, pmcr_el0
   55998:	f90097e9 	str	x9, [sp, #296]
   5599c:	b27b0129 	orr	x9, x9, #0x20
   559a0:	d51b9c09 	msr	pmcr_el0, x9
   559a4:	d5033fdf 	isb
   559a8:	d53e1108 	mrs	x8, scr_el3
   559ac:	b27d0108 	orr	x8, x8, #0x8
   559b0:	d51e1108 	msr	scr_el3, x8
   559b4:	d65f03c0 	ret

00000000000559b8 <restore_gp_pmcr_pauth_regs>:
   559b8:	f94097e0 	ldr	x0, [sp, #296]
   559bc:	d51b9c00 	msr	pmcr_el0, x0
   559c0:	a94007e0 	ldp	x0, x1, [sp]
   559c4:	a9410fe2 	ldp	x2, x3, [sp, #16]
   559c8:	a94217e4 	ldp	x4, x5, [sp, #32]
   559cc:	a9431fe6 	ldp	x6, x7, [sp, #48]
   559d0:	a94427e8 	ldp	x8, x9, [sp, #64]
   559d4:	a9452fea 	ldp	x10, x11, [sp, #80]
   559d8:	a94637ec 	ldp	x12, x13, [sp, #96]
   559dc:	a9473fee 	ldp	x14, x15, [sp, #112]
   559e0:	a94847f0 	ldp	x16, x17, [sp, #128]
   559e4:	a9494ff2 	ldp	x18, x19, [sp, #144]
   559e8:	a94a57f4 	ldp	x20, x21, [sp, #160]
   559ec:	a94b5ff6 	ldp	x22, x23, [sp, #176]
   559f0:	a94c67f8 	ldp	x24, x25, [sp, #192]
   559f4:	a94d6ffa 	ldp	x26, x27, [sp, #208]
   559f8:	f9407ffc 	ldr	x28, [sp, #248]
   559fc:	d518411c 	msr	sp_el0, x28
   55a00:	a94e77fc 	ldp	x28, x29, [sp, #224]
   55a04:	d65f03c0 	ret

0000000000055a08 <el3_exit>:
   55a08:	910003f1 	mov	x17, sp
   55a0c:	d50041bf 	msr	spsel, #0x1
   55a10:	f9008bf1 	str	x17, [sp, #272]
   55a14:	a953d3f3 	ldp	x19, x20, [sp, #312]
   55a18:	d51e1153 	msr	cptr_el3, x19
   55a1c:	f2780273 	ands	x19, x19, #0x100
   55a20:	54000060 	b.eq	55a2c <sve_not_enabled>  // b.none
   55a24:	d5033fdf 	isb
   55a28:	d51e1214 	msr	zcr_el3, x20

0000000000055a2c <sve_not_enabled>:
   55a2c:	d5033f9f 	dsb	sy
   55a30:	f94083f2 	ldr	x18, [sp, #256]
   55a34:	a951c7f0 	ldp	x16, x17, [sp, #280]
   55a38:	d51e1112 	msr	scr_el3, x18
   55a3c:	d51e4010 	msr	spsr_el3, x16
   55a40:	d51e4031 	msr	elr_el3, x17
   55a44:	97ffffdd 	bl	559b8 <restore_gp_pmcr_pauth_regs>
   55a48:	f9407bfe 	ldr	x30, [sp, #240]
   55a4c:	f9009bff 	str	xzr, [sp, #304]
   55a50:	d69f03e0 	eret
   55a54:	d503379f 	dsb	nsh
   55a58:	d5033fdf 	isb

0000000000055a5c <init_cpu_data_ptr>:
   55a5c:	aa1e03ea 	mov	x10, x30
   55a60:	9400002b 	bl	55b0c <plat_my_core_pos>
   55a64:	94000003 	bl	55a70 <_cpu_data_by_index>
   55a68:	d51ed040 	msr	tpidr_el3, x0
   55a6c:	d65f0140 	ret	x10

0000000000055a70 <_cpu_data_by_index>:
   55a70:	d2800801 	mov	x1, #0x40                  	// #64
   55a74:	9b017c00 	mul	x0, x0, x1
   55a78:	b0000021 	adrp	x1, 5a000 <__STACKS_START__+0x1f00>
   55a7c:	91040021 	add	x1, x1, #0x100
   55a80:	8b010000 	add	x0, x0, x1
   55a84:	d65f03c0 	ret

0000000000055a88 <spin_lock>:
   55a88:	52800022 	mov	w2, #0x1                   	// #1
   55a8c:	d50320bf 	sevl

0000000000055a90 <l1>:
   55a90:	d503205f 	wfe

0000000000055a94 <l2>:
   55a94:	885ffc01 	ldaxr	w1, [x0]
   55a98:	35ffffc1 	cbnz	w1, 55a90 <l1>
   55a9c:	88017c02 	stxr	w1, w2, [x0]
   55aa0:	35ffffa1 	cbnz	w1, 55a94 <l2>
   55aa4:	d65f03c0 	ret

0000000000055aa8 <spin_unlock>:
   55aa8:	889ffc1f 	stlr	wzr, [x0]
   55aac:	d65f03c0 	ret

0000000000055ab0 <psci_power_down_wfi>:
   55ab0:	d5033f9f 	dsb	sy
   55ab4:	d503207f 	wfi
   55ab8:	17ffffff 	b	55ab4 <psci_power_down_wfi+0x4>

0000000000055abc <plat_get_my_stack>:
   55abc:	aa1e03ea 	mov	x10, x30
   55ac0:	94000013 	bl	55b0c <plat_my_core_pos>
   55ac4:	f0000002 	adrp	x2, 58000 <__RO_END__>
   55ac8:	91240042 	add	x2, x2, #0x900
   55acc:	d2810001 	mov	x1, #0x800                 	// #2048
   55ad0:	9b010800 	madd	x0, x0, x1, x2
   55ad4:	d65f0140 	ret	x10

0000000000055ad8 <plat_set_my_stack>:
   55ad8:	aa1e03e9 	mov	x9, x30
   55adc:	97fffff8 	bl	55abc <plat_get_my_stack>
   55ae0:	9100001f 	mov	sp, x0
   55ae4:	d65f0120 	ret	x9

0000000000055ae8 <plat_reset_handler>:
   55ae8:	d5380000 	mrs	x0, midr_el1
   55aec:	d3443c00 	ubfx	x0, x0, #4, #12
   55af0:	7134201f 	cmp	w0, #0xd08
   55af4:	54000040 	b.eq	55afc <handler_a72>  // b.none
   55af8:	14000004 	b	55b08 <handler_end>

0000000000055afc <handler_a72>:
   55afc:	d28004a0 	mov	x0, #0x25                  	// #37
   55b00:	d519b040 	msr	s3_1_c11_c0_2, x0
   55b04:	d5033fdf 	isb

0000000000055b08 <handler_end>:
   55b08:	d65f03c0 	ret

0000000000055b0c <plat_my_core_pos>:
   55b0c:	d53800a0 	mrs	x0, mpidr_el1
   55b10:	92401c01 	and	x1, x0, #0xff
   55b14:	92781c00 	and	x0, x0, #0xff00
   55b18:	8b402020 	add	x0, x1, x0, lsr #8
   55b1c:	d65f03c0 	ret

0000000000055b20 <plat_panic_handler>:
   55b20:	d50040bf 	msr	spsel, #0x0
   55b24:	97ffffed 	bl	55ad8 <plat_set_my_stack>
   55b28:	17fffa60 	b	544a8 <rockchip_soc_soft_reset>

0000000000055b2c <asm_print_str>:
   55b2c:	aa1e03e3 	mov	x3, x30
   55b30:	38401480 	ldrb	w0, [x4], #1
   55b34:	b4000060 	cbz	x0, 55b40 <asm_print_str+0x14>
   55b38:	940000af 	bl	55df4 <plat_crash_console_putc>
   55b3c:	17fffffd 	b	55b30 <asm_print_str+0x4>
   55b40:	d65f0060 	ret	x3

0000000000055b44 <asm_print_hex>:
   55b44:	d2800805 	mov	x5, #0x40                  	// #64

0000000000055b48 <asm_print_hex_bits>:
   55b48:	aa1e03e3 	mov	x3, x30
   55b4c:	d10010a5 	sub	x5, x5, #0x4
   55b50:	9ac52480 	lsr	x0, x4, x5
   55b54:	92400c00 	and	x0, x0, #0xf
   55b58:	f100281f 	cmp	x0, #0xa
   55b5c:	54000043 	b.cc	55b64 <asm_print_hex_bits+0x1c>  // b.lo, b.ul, b.last
   55b60:	91009c00 	add	x0, x0, #0x27
   55b64:	9100c000 	add	x0, x0, #0x30
   55b68:	940000a3 	bl	55df4 <plat_crash_console_putc>
   55b6c:	b5ffff05 	cbnz	x5, 55b4c <asm_print_hex_bits+0x4>
   55b70:	d65f0060 	ret	x3

0000000000055b74 <asm_print_newline>:
   55b74:	d2800140 	mov	x0, #0xa                   	// #10
   55b78:	1400009f 	b	55df4 <plat_crash_console_putc>

0000000000055b7c <elx_panic>:
   55b7c:	14000001 	b	55b80 <el3_panic>

0000000000055b80 <el3_panic>:
   55b80:	aa1e03e6 	mov	x6, x30
   55b84:	9400008a 	bl	55dac <plat_crash_console_init>
   55b88:	b4000100 	cbz	x0, 55ba8 <_panic_handler>
   55b8c:	30007d64 	adr	x4, 56b39 <cortex_a55_errata_list_end>
   55b90:	97ffffe7 	bl	55b2c <asm_print_str>
   55b94:	aa0603e4 	mov	x4, x6
   55b98:	d1001084 	sub	x4, x4, #0x4
   55b9c:	97ffffea 	bl	55b44 <asm_print_hex>
   55ba0:	97fffff5 	bl	55b74 <asm_print_newline>
   55ba4:	940000b5 	bl	55e78 <plat_crash_console_flush>

0000000000055ba8 <_panic_handler>:
   55ba8:	aa0603fe 	mov	x30, x6
   55bac:	17ffffdd 	b	55b20 <plat_panic_handler>

0000000000055bb0 <flush_dcache_range>:
   55bb0:	b40001a1 	cbz	x1, 55be4 <exit_loop_civac>
   55bb4:	d53b0023 	mrs	x3, ctr_el0
   55bb8:	d3504c63 	ubfx	x3, x3, #16, #4
   55bbc:	d2800082 	mov	x2, #0x4                   	// #4
   55bc0:	9ac32042 	lsl	x2, x2, x3
   55bc4:	8b010001 	add	x1, x0, x1
   55bc8:	d1000443 	sub	x3, x2, #0x1
   55bcc:	8a230000 	bic	x0, x0, x3

0000000000055bd0 <loop_civac>:
   55bd0:	d50b7e20 	dc	civac, x0
   55bd4:	8b020000 	add	x0, x0, x2
   55bd8:	eb01001f 	cmp	x0, x1
   55bdc:	54ffffa3 	b.cc	55bd0 <loop_civac>  // b.lo, b.ul, b.last
   55be0:	d5033f9f 	dsb	sy

0000000000055be4 <exit_loop_civac>:
   55be4:	d65f03c0 	ret

0000000000055be8 <clean_dcache_range>:
   55be8:	b40001a1 	cbz	x1, 55c1c <exit_loop_cvac>
   55bec:	d53b0023 	mrs	x3, ctr_el0
   55bf0:	d3504c63 	ubfx	x3, x3, #16, #4
   55bf4:	d2800082 	mov	x2, #0x4                   	// #4
   55bf8:	9ac32042 	lsl	x2, x2, x3
   55bfc:	8b010001 	add	x1, x0, x1
   55c00:	d1000443 	sub	x3, x2, #0x1
   55c04:	8a230000 	bic	x0, x0, x3

0000000000055c08 <loop_cvac>:
   55c08:	d50b7a20 	dc	cvac, x0
   55c0c:	8b020000 	add	x0, x0, x2
   55c10:	eb01001f 	cmp	x0, x1
   55c14:	54ffffa3 	b.cc	55c08 <loop_cvac>  // b.lo, b.ul, b.last
   55c18:	d5033f9f 	dsb	sy

0000000000055c1c <exit_loop_cvac>:
   55c1c:	d65f03c0 	ret

0000000000055c20 <inv_dcache_range>:
   55c20:	b40001a1 	cbz	x1, 55c54 <exit_loop_ivac>
   55c24:	d53b0023 	mrs	x3, ctr_el0
   55c28:	d3504c63 	ubfx	x3, x3, #16, #4
   55c2c:	d2800082 	mov	x2, #0x4                   	// #4
   55c30:	9ac32042 	lsl	x2, x2, x3
   55c34:	8b010001 	add	x1, x0, x1
   55c38:	d1000443 	sub	x3, x2, #0x1
   55c3c:	8a230000 	bic	x0, x0, x3

0000000000055c40 <loop_ivac>:
   55c40:	d5087620 	dc	ivac, x0
   55c44:	8b020000 	add	x0, x0, x2
   55c48:	eb01001f 	cmp	x0, x1
   55c4c:	54ffffa3 	b.cc	55c40 <loop_ivac>  // b.lo, b.ul, b.last
   55c50:	d5033f9f 	dsb	sy

0000000000055c54 <exit_loop_ivac>:
   55c54:	d65f03c0 	ret

0000000000055c58 <zeromem>:
   55c58:	8b010002 	add	x2, x0, x1
   55c5c:	14000030 	b	55d1c <zero_normalmem+0xbc>

0000000000055c60 <zero_normalmem>:
   55c60:	8b010002 	add	x2, x0, x1
   55c64:	d53b00e3 	mrs	x3, dczid_el0
   55c68:	d3400c63 	ubfx	x3, x3, #0, #4
   55c6c:	d2800085 	mov	x5, #0x4                   	// #4
   55c70:	9ac320a3 	lsl	x3, x5, x3
   55c74:	eb03003f 	cmp	x1, x3
   55c78:	54000523 	b.cc	55d1c <zero_normalmem+0xbc>  // b.lo, b.ul, b.last
   55c7c:	d1000461 	sub	x1, x3, #0x1
   55c80:	ea01001f 	tst	x0, x1
   55c84:	54000260 	b.eq	55cd0 <zero_normalmem+0x70>  // b.none
   55c88:	aa010004 	orr	x4, x0, x1
   55c8c:	91000484 	add	x4, x4, #0x1
   55c90:	b4000464 	cbz	x4, 55d1c <zero_normalmem+0xbc>
   55c94:	eb02009f 	cmp	x4, x2
   55c98:	54000428 	b.hi	55d1c <zero_normalmem+0xbc>  // b.pmore
   55c9c:	f2400c1f 	tst	x0, #0xf
   55ca0:	540000e0 	b.eq	55cbc <zero_normalmem+0x5c>  // b.none
   55ca4:	b2400c05 	orr	x5, x0, #0xf
   55ca8:	910004a5 	add	x5, x5, #0x1
   55cac:	b4000385 	cbz	x5, 55d1c <zero_normalmem+0xbc>
   55cb0:	3800141f 	strb	wzr, [x0], #1
   55cb4:	eb05001f 	cmp	x0, x5
   55cb8:	54ffffc1 	b.ne	55cb0 <zero_normalmem+0x50>  // b.any
   55cbc:	eb04001f 	cmp	x0, x4
   55cc0:	54000082 	b.cs	55cd0 <zero_normalmem+0x70>  // b.hs, b.nlast
   55cc4:	a8817c1f 	stp	xzr, xzr, [x0], #16
   55cc8:	eb04001f 	cmp	x0, x4
   55ccc:	54ffffc3 	b.cc	55cc4 <zero_normalmem+0x64>  // b.lo, b.ul, b.last
   55cd0:	8a210044 	bic	x4, x2, x1
   55cd4:	eb04001f 	cmp	x0, x4
   55cd8:	540000a2 	b.cs	55cec <zero_normalmem+0x8c>  // b.hs, b.nlast
   55cdc:	d50b7420 	dc	zva, x0
   55ce0:	8b030000 	add	x0, x0, x3
   55ce4:	eb04001f 	cmp	x0, x4
   55ce8:	54ffffa3 	b.cc	55cdc <zero_normalmem+0x7c>  // b.lo, b.ul, b.last
   55cec:	927cec44 	and	x4, x2, #0xfffffffffffffff0
   55cf0:	eb04001f 	cmp	x0, x4
   55cf4:	54000082 	b.cs	55d04 <zero_normalmem+0xa4>  // b.hs, b.nlast
   55cf8:	a8817c1f 	stp	xzr, xzr, [x0], #16
   55cfc:	eb04001f 	cmp	x0, x4
   55d00:	54ffffc3 	b.cc	55cf8 <zero_normalmem+0x98>  // b.lo, b.ul, b.last
   55d04:	eb02001f 	cmp	x0, x2
   55d08:	54000080 	b.eq	55d18 <zero_normalmem+0xb8>  // b.none
   55d0c:	3800141f 	strb	wzr, [x0], #1
   55d10:	eb02001f 	cmp	x0, x2
   55d14:	54ffffc1 	b.ne	55d0c <zero_normalmem+0xac>  // b.any
   55d18:	d65f03c0 	ret
   55d1c:	f2400c1f 	tst	x0, #0xf
   55d20:	54fffe60 	b.eq	55cec <zero_normalmem+0x8c>  // b.none
   55d24:	b2400c04 	orr	x4, x0, #0xf
   55d28:	91000484 	add	x4, x4, #0x1
   55d2c:	b4fffec4 	cbz	x4, 55d04 <zero_normalmem+0xa4>
   55d30:	eb02009f 	cmp	x4, x2
   55d34:	54fffe82 	b.cs	55d04 <zero_normalmem+0xa4>  // b.hs, b.nlast
   55d38:	3800141f 	strb	wzr, [x0], #1
   55d3c:	eb04001f 	cmp	x0, x4
   55d40:	54ffffc1 	b.ne	55d38 <zero_normalmem+0xd8>  // b.any
   55d44:	17ffffea 	b	55cec <zero_normalmem+0x8c>

0000000000055d48 <bl31_plat_enable_mmu>:
   55d48:	14000003 	b	55d54 <enable_mmu_direct_el3>

0000000000055d4c <plat_handle_double_fault>:
   55d4c:	17fffdc5 	b	55460 <report_unhandled_exception>

0000000000055d50 <plat_handle_el3_ea>:
   55d50:	17fffdc4 	b	55460 <report_unhandled_exception>

0000000000055d54 <enable_mmu_direct_el3>:
   55d54:	d50e871f 	tlbi	alle3
   55d58:	aa0003e7 	mov	x7, x0
   55d5c:	b0000120 	adrp	x0, 7a000 <fdt_buffer+0x1f348>
   55d60:	9133a000 	add	x0, x0, #0xce8
   55d64:	f9400001 	ldr	x1, [x0]
   55d68:	d51ea201 	msr	mair_el3, x1
   55d6c:	f9400402 	ldr	x2, [x0, #8]
   55d70:	d51e2042 	msr	tcr_el3, x2
   55d74:	f9400803 	ldr	x3, [x0, #16]
   55d78:	d51e2003 	msr	ttbr0_el3, x3
   55d7c:	d5033b9f 	dsb	ish
   55d80:	d5033fdf 	isb
   55d84:	d53e1004 	mrs	x4, sctlr_el3
   55d88:	d28000a5 	mov	x5, #0x5                   	// #5
   55d8c:	f2a00105 	movk	x5, #0x8, lsl #16
   55d90:	aa050084 	orr	x4, x4, x5
   55d94:	927df885 	and	x5, x4, #0xfffffffffffffffb
   55d98:	f24000ff 	tst	x7, #0x1
   55d9c:	9a8410a4 	csel	x4, x5, x4, ne  // ne = any
   55da0:	d51e1004 	msr	sctlr_el3, x4
   55da4:	d5033fdf 	isb
   55da8:	d65f03c0 	ret

0000000000055dac <plat_crash_console_init>:
   55dac:	aa1e03e4 	mov	x4, x30
   55db0:	d2800003 	mov	x3, #0x0                   	// #0
   55db4:	f0000000 	adrp	x0, 58000 <__RO_END__>
   55db8:	91036000 	add	x0, x0, #0xd8
   55dbc:	d53e1001 	mrs	x1, sctlr_el3
   55dc0:	f27e003f 	tst	x1, #0x4
   55dc4:	54000040 	b.eq	55dcc <skip_spinlock>  // b.none
   55dc8:	97ffff30 	bl	55a88 <spin_lock>

0000000000055dcc <skip_spinlock>:
   55dcc:	f0000001 	adrp	x1, 58000 <__RO_END__>
   55dd0:	91037421 	add	x1, x1, #0xdd
   55dd4:	08dffc22 	ldarb	w2, [x1]
   55dd8:	7100005f 	cmp	w2, #0x0
   55ddc:	54000061 	b.ne	55de8 <init_error>  // b.any
   55de0:	d2800023 	mov	x3, #0x1                   	// #1
   55de4:	089ffc23 	stlrb	w3, [x1]

0000000000055de8 <init_error>:
   55de8:	97ffff30 	bl	55aa8 <spin_unlock>
   55dec:	aa0303e0 	mov	x0, x3
   55df0:	d65f0080 	ret	x4

0000000000055df4 <plat_crash_console_putc>:
   55df4:	f0000001 	adrp	x1, 58000 <__RO_END__>
   55df8:	91024021 	add	x1, x1, #0x90
   55dfc:	a9003c2e 	stp	x14, x15, [x1]
   55e00:	a9014430 	stp	x16, x17, [x1, #16]
   55e04:	f900103e 	str	x30, [x1, #32]
   55e08:	2a0003ee 	mov	w14, w0
   55e0c:	b000012f 	adrp	x15, 7a000 <fdt_buffer+0x1f348>
   55e10:	f94671ef 	ldr	x15, [x15, #3296]

0000000000055e14 <putc_loop>:
   55e14:	b400026f 	cbz	x15, 55e60 <putc_done>
   55e18:	b94009e1 	ldr	w1, [x15, #8]
   55e1c:	721e003f 	tst	w1, #0x4
   55e20:	540001c0 	b.eq	55e58 <putc_continue>  // b.none
   55e24:	f94009e2 	ldr	x2, [x15, #16]
   55e28:	b4000182 	cbz	x2, 55e58 <putc_continue>
   55e2c:	710029df 	cmp	w14, #0xa
   55e30:	540000e1 	b.ne	55e4c <putc>  // b.any
   55e34:	7218003f 	tst	w1, #0x100
   55e38:	540000a0 	b.eq	55e4c <putc>  // b.none
   55e3c:	aa0f03e1 	mov	x1, x15
   55e40:	528001a0 	mov	w0, #0xd                   	// #13
   55e44:	d63f0040 	blr	x2
   55e48:	f94009e2 	ldr	x2, [x15, #16]

0000000000055e4c <putc>:
   55e4c:	aa0f03e1 	mov	x1, x15
   55e50:	2a0e03e0 	mov	w0, w14
   55e54:	d63f0040 	blr	x2

0000000000055e58 <putc_continue>:
   55e58:	f94001ef 	ldr	x15, [x15]
   55e5c:	17ffffee 	b	55e14 <putc_loop>

0000000000055e60 <putc_done>:
   55e60:	f0000001 	adrp	x1, 58000 <__RO_END__>
   55e64:	91024021 	add	x1, x1, #0x90
   55e68:	a9403c2e 	ldp	x14, x15, [x1]
   55e6c:	a9414430 	ldp	x16, x17, [x1, #16]
   55e70:	f940103e 	ldr	x30, [x1, #32]
   55e74:	d65f03c0 	ret

0000000000055e78 <plat_crash_console_flush>:
   55e78:	f0000001 	adrp	x1, 58000 <__RO_END__>
   55e7c:	91024021 	add	x1, x1, #0x90
   55e80:	a9003c3e 	stp	x30, x15, [x1]
   55e84:	a9014430 	stp	x16, x17, [x1, #16]
   55e88:	b000012f 	adrp	x15, 7a000 <fdt_buffer+0x1f348>
   55e8c:	f94671ef 	ldr	x15, [x15, #3296]

0000000000055e90 <flush_loop>:
   55e90:	b400014f 	cbz	x15, 55eb8 <flush_done>
   55e94:	b94009e1 	ldr	w1, [x15, #8]
   55e98:	721e003f 	tst	w1, #0x4
   55e9c:	540000a0 	b.eq	55eb0 <flush_continue>  // b.none
   55ea0:	f94011e2 	ldr	x2, [x15, #32]
   55ea4:	b4000062 	cbz	x2, 55eb0 <flush_continue>
   55ea8:	aa0f03e0 	mov	x0, x15
   55eac:	d63f0040 	blr	x2

0000000000055eb0 <flush_continue>:
   55eb0:	f94001ef 	ldr	x15, [x15]
   55eb4:	17fffff7 	b	55e90 <flush_loop>

0000000000055eb8 <flush_done>:
   55eb8:	f0000001 	adrp	x1, 58000 <__RO_END__>
   55ebc:	91024021 	add	x1, x1, #0x90
   55ec0:	a9403c3e 	ldp	x30, x15, [x1]
   55ec4:	a9414430 	ldp	x16, x17, [x1, #16]
   55ec8:	d65f03c0 	ret

0000000000055ecc <memchr>:
   55ecc:	8b020002 	add	x2, x0, x2
   55ed0:	12001c21 	and	w1, w1, #0xff
   55ed4:	eb02001f 	cmp	x0, x2
   55ed8:	54000061 	b.ne	55ee4 <memchr+0x18>  // b.any
   55edc:	d2800000 	mov	x0, #0x0                   	// #0
   55ee0:	d65f03c0 	ret
   55ee4:	39400003 	ldrb	w3, [x0]
   55ee8:	6b01007f 	cmp	w3, w1
   55eec:	54ffffa0 	b.eq	55ee0 <memchr+0x14>  // b.none
   55ef0:	91000400 	add	x0, x0, #0x1
   55ef4:	17fffff8 	b	55ed4 <memchr+0x8>

0000000000055ef8 <memcmp>:
   55ef8:	d1000421 	sub	x1, x1, #0x1
   55efc:	d2800004 	mov	x4, #0x0                   	// #0
   55f00:	eb04005f 	cmp	x2, x4
   55f04:	54000061 	b.ne	55f10 <memcmp+0x18>  // b.any
   55f08:	52800000 	mov	w0, #0x0                   	// #0
   55f0c:	14000007 	b	55f28 <memcmp+0x30>
   55f10:	38646803 	ldrb	w3, [x0, x4]
   55f14:	91000484 	add	x4, x4, #0x1
   55f18:	38646825 	ldrb	w5, [x1, x4]
   55f1c:	6b05007f 	cmp	w3, w5
   55f20:	54ffff00 	b.eq	55f00 <memcmp+0x8>  // b.none
   55f24:	4b050060 	sub	w0, w3, w5
   55f28:	d65f03c0 	ret

0000000000055f2c <memcpy>:
   55f2c:	d2800003 	mov	x3, #0x0                   	// #0
   55f30:	eb03005f 	cmp	x2, x3
   55f34:	54000041 	b.ne	55f3c <memcpy+0x10>  // b.any
   55f38:	d65f03c0 	ret
   55f3c:	38636824 	ldrb	w4, [x1, x3]
   55f40:	38236804 	strb	w4, [x0, x3]
   55f44:	91000463 	add	x3, x3, #0x1
   55f48:	17fffffa 	b	55f30 <memcpy+0x4>

0000000000055f4c <memmove>:
   55f4c:	cb010006 	sub	x6, x0, x1
   55f50:	aa0003e5 	mov	x5, x0
   55f54:	eb0200df 	cmp	x6, x2
   55f58:	54000043 	b.cc	55f60 <memmove+0x14>  // b.lo, b.ul, b.last
   55f5c:	17fffff4 	b	55f2c <memcpy>
   55f60:	8b020024 	add	x4, x1, x2
   55f64:	8b020000 	add	x0, x0, x2
   55f68:	eb05001f 	cmp	x0, x5
   55f6c:	54000041 	b.ne	55f74 <memmove+0x28>  // b.any
   55f70:	d65f03c0 	ret
   55f74:	385ffc81 	ldrb	w1, [x4, #-1]!
   55f78:	381ffc01 	strb	w1, [x0, #-1]!
   55f7c:	17fffffb 	b	55f68 <memmove+0x1c>

0000000000055f80 <memset>:
   55f80:	b4000342 	cbz	x2, 55fe8 <memset+0x68>
   55f84:	12001c24 	and	w4, w1, #0xff
   55f88:	aa0003e5 	mov	x5, x0
   55f8c:	f24008a6 	ands	x6, x5, #0x7
   55f90:	54000261 	b.ne	55fdc <memset+0x5c>  // b.any
   55f94:	d3781c83 	ubfiz	x3, x4, #8, #8
   55f98:	92401c81 	and	x1, x4, #0xff
   55f9c:	aa010061 	orr	x1, x3, x1
   55fa0:	d2800003 	mov	x3, #0x0                   	// #0
   55fa4:	aa014021 	orr	x1, x1, x1, lsl #16
   55fa8:	aa018021 	orr	x1, x1, x1, lsl #32
   55fac:	cb030047 	sub	x7, x2, x3
   55fb0:	f1001cff 	cmp	x7, #0x7
   55fb4:	540001c8 	b.hi	55fec <memset+0x6c>  // b.pmore
   55fb8:	d343fc41 	lsr	x1, x2, #3
   55fbc:	928000e3 	mov	x3, #0xfffffffffffffff8    	// #-8
   55fc0:	9b030822 	madd	x2, x1, x3, x2
   55fc4:	8b010ca1 	add	x1, x5, x1, lsl #3
   55fc8:	eb06005f 	cmp	x2, x6
   55fcc:	540000e0 	b.eq	55fe8 <memset+0x68>  // b.none
   55fd0:	38266824 	strb	w4, [x1, x6]
   55fd4:	910004c6 	add	x6, x6, #0x1
   55fd8:	17fffffc 	b	55fc8 <memset+0x48>
   55fdc:	380014a4 	strb	w4, [x5], #1
   55fe0:	f1000442 	subs	x2, x2, #0x1
   55fe4:	54fffd41 	b.ne	55f8c <memset+0xc>  // b.any
   55fe8:	d65f03c0 	ret
   55fec:	f82368a1 	str	x1, [x5, x3]
   55ff0:	91002063 	add	x3, x3, #0x8
   55ff4:	17ffffee 	b	55fac <memset+0x2c>

0000000000055ff8 <unsigned_num_print.part.0>:
   55ff8:	a9ba7bfd 	stp	x29, x30, [sp, #-96]!
   55ffc:	2a0103e1 	mov	w1, w1
   56000:	910003fd 	mov	x29, sp
   56004:	a9025bf5 	stp	x21, x22, [sp, #32]
   56008:	910123f5 	add	x21, sp, #0x48
   5600c:	f9001bf7 	str	x23, [sp, #48]
   56010:	12001c57 	and	w23, w2, #0xff
   56014:	a90153f3 	stp	x19, x20, [sp, #16]
   56018:	2a0303f3 	mov	w19, w3
   5601c:	d2800003 	mov	x3, #0x0                   	// #0
   56020:	9ac10807 	udiv	x7, x0, x1
   56024:	11000474 	add	w20, w3, #0x1
   56028:	9b0180e6 	msub	x6, x7, x1, x0
   5602c:	12001cc4 	and	w4, w6, #0xff
   56030:	f10024df 	cmp	x6, #0x9
   56034:	1100c085 	add	w5, w4, #0x30
   56038:	11015c84 	add	w4, w4, #0x57
   5603c:	12001ca5 	and	w5, w5, #0xff
   56040:	12001c84 	and	w4, w4, #0xff
   56044:	1a858084 	csel	w4, w4, w5, hi  // hi = pmore
   56048:	38356864 	strb	w4, [x3, x21]
   5604c:	91000463 	add	x3, x3, #0x1
   56050:	eb00003f 	cmp	x1, x0
   56054:	540001c9 	b.ls	5608c <unsigned_num_print.part.0+0x94>  // b.plast
   56058:	7100027f 	cmp	w19, #0x0
   5605c:	540002cc 	b.gt	560b4 <unsigned_num_print.part.0+0xbc>
   56060:	52800013 	mov	w19, #0x0                   	// #0
   56064:	93407e96 	sxtw	x22, w20
   56068:	d10006d6 	sub	x22, x22, #0x1
   5606c:	310006df 	cmn	w22, #0x1
   56070:	54000261 	b.ne	560bc <unsigned_num_print.part.0+0xc4>  // b.any
   56074:	0b140260 	add	w0, w19, w20
   56078:	a94153f3 	ldp	x19, x20, [sp, #16]
   5607c:	a9425bf5 	ldp	x21, x22, [sp, #32]
   56080:	f9401bf7 	ldr	x23, [sp, #48]
   56084:	a8c67bfd 	ldp	x29, x30, [sp], #96
   56088:	d65f03c0 	ret
   5608c:	aa0703e0 	mov	x0, x7
   56090:	17ffffe4 	b	56020 <unsigned_num_print.part.0+0x28>
   56094:	510006d6 	sub	w22, w22, #0x1
   56098:	2a1703e0 	mov	w0, w23
   5609c:	97fffa36 	bl	54974 <putchar>
   560a0:	6b1402df 	cmp	w22, w20
   560a4:	54ffff8c 	b.gt	56094 <unsigned_num_print.part.0+0x9c>
   560a8:	6b140260 	subs	w0, w19, w20
   560ac:	1a9fa013 	csel	w19, w0, wzr, ge  // ge = tcont
   560b0:	17ffffed 	b	56064 <unsigned_num_print.part.0+0x6c>
   560b4:	2a1303f6 	mov	w22, w19
   560b8:	17fffffa 	b	560a0 <unsigned_num_print.part.0+0xa8>
   560bc:	38766aa0 	ldrb	w0, [x21, x22]
   560c0:	97fffa2d 	bl	54974 <putchar>
   560c4:	17ffffe9 	b	56068 <unsigned_num_print.part.0+0x70>

00000000000560c8 <vprintf>:
   560c8:	a9b97bfd 	stp	x29, x30, [sp, #-112]!
   560cc:	910003fd 	mov	x29, sp
   560d0:	a90153f3 	stp	x19, x20, [sp, #16]
   560d4:	b9401834 	ldr	w20, [x1, #24]
   560d8:	a90363f7 	stp	x23, x24, [sp, #48]
   560dc:	a9405c33 	ldp	x19, x23, [x1]
   560e0:	a9025bf5 	stp	x21, x22, [sp, #32]
   560e4:	aa0003f6 	mov	x22, x0
   560e8:	a9046bf9 	stp	x25, x26, [sp, #64]
   560ec:	9000001a 	adrp	x26, 56000 <unsigned_num_print.part.0+0x8>
   560f0:	911e435a 	add	x26, x26, #0x790
   560f4:	52800015 	mov	w21, #0x0                   	// #0
   560f8:	52800019 	mov	w25, #0x0                   	// #0
   560fc:	a90573fb 	stp	x27, x28, [sp, #80]
   56100:	394002c0 	ldrb	w0, [x22]
   56104:	35000120 	cbnz	w0, 56128 <vprintf+0x60>
   56108:	2a1503e0 	mov	w0, w21
   5610c:	a94153f3 	ldp	x19, x20, [sp, #16]
   56110:	a9425bf5 	ldp	x21, x22, [sp, #32]
   56114:	a94363f7 	ldp	x23, x24, [sp, #48]
   56118:	a9446bf9 	ldp	x25, x26, [sp, #64]
   5611c:	a94573fb 	ldp	x27, x28, [sp, #80]
   56120:	a8c77bfd 	ldp	x29, x30, [sp], #112
   56124:	d65f03c0 	ret
   56128:	910006d6 	add	x22, x22, #0x1
   5612c:	7100941f 	cmp	w0, #0x25
   56130:	54001e81 	b.ne	56500 <vprintf+0x438>  // b.any
   56134:	52800018 	mov	w24, #0x0                   	// #0
   56138:	52800001 	mov	w1, #0x0                   	// #0
   5613c:	14000002 	b	56144 <vprintf+0x7c>
   56140:	52800619 	mov	w25, #0x30                  	// #48
   56144:	394002c0 	ldrb	w0, [x22]
   56148:	7101e81f 	cmp	w0, #0x7a
   5614c:	540000e8 	b.hi	56168 <vprintf+0xa0>  // b.pmore
   56150:	7101881f 	cmp	w0, #0x62
   56154:	540000e8 	b.hi	56170 <vprintf+0xa8>  // b.pmore
   56158:	7100941f 	cmp	w0, #0x25
   5615c:	54000180 	b.eq	5618c <vprintf+0xc4>  // b.none
   56160:	7100c01f 	cmp	w0, #0x30
   56164:	54001b80 	b.eq	564d4 <vprintf+0x40c>  // b.none
   56168:	12800015 	mov	w21, #0xffffffff            	// #-1
   5616c:	17ffffe7 	b	56108 <vprintf+0x40>
   56170:	51018c00 	sub	w0, w0, #0x63
   56174:	71005c1f 	cmp	w0, #0x17
   56178:	54ffff88 	b.hi	56168 <vprintf+0xa0>  // b.pmore
   5617c:	78605b40 	ldrh	w0, [x26, w0, uxtw #1]
   56180:	10000062 	adr	x2, 5618c <vprintf+0xc4>
   56184:	8b20a840 	add	x0, x2, w0, sxth #2
   56188:	d61f0000 	br	x0
   5618c:	97fff9fa 	bl	54974 <putchar>
   56190:	910006d6 	add	x22, x22, #0x1
   56194:	17ffffdb 	b	56100 <vprintf+0x38>
   56198:	7100043f 	cmp	w1, #0x1
   5619c:	5400022d 	b.le	561e0 <vprintf+0x118>
   561a0:	37f802f4 	tbnz	w20, #31, 561fc <vprintf+0x134>
   561a4:	91003e60 	add	x0, x19, #0xf
   561a8:	2a1403e1 	mov	w1, w20
   561ac:	927df000 	and	x0, x0, #0xfffffffffffffff8
   561b0:	f940027c 	ldr	x28, [x19]
   561b4:	2a0103f4 	mov	w20, w1
   561b8:	aa0003f3 	mov	x19, x0
   561bc:	b6f8045c 	tbz	x28, #63, 56244 <vprintf+0x17c>
   561c0:	528005a0 	mov	w0, #0x2d                  	// #45
   561c4:	97fff9ec 	bl	54974 <putchar>
   561c8:	cb1c03e0 	neg	x0, x28
   561cc:	51000718 	sub	w24, w24, #0x1
   561d0:	2a1803e3 	mov	w3, w24
   561d4:	2a1903e2 	mov	w2, w25
   561d8:	52800141 	mov	w1, #0xa                   	// #10
   561dc:	14000079 	b	563c0 <vprintf+0x2f8>
   561e0:	54fffe00 	b.eq	561a0 <vprintf+0xd8>  // b.none
   561e4:	37f801f4 	tbnz	w20, #31, 56220 <vprintf+0x158>
   561e8:	91002e60 	add	x0, x19, #0xb
   561ec:	2a1403e1 	mov	w1, w20
   561f0:	927df000 	and	x0, x0, #0xfffffffffffffff8
   561f4:	b980027c 	ldrsw	x28, [x19]
   561f8:	17ffffef 	b	561b4 <vprintf+0xec>
   561fc:	11002281 	add	w1, w20, #0x8
   56200:	7100003f 	cmp	w1, #0x0
   56204:	5400008d 	b.le	56214 <vprintf+0x14c>
   56208:	91003e60 	add	x0, x19, #0xf
   5620c:	927df000 	and	x0, x0, #0xfffffffffffffff8
   56210:	17ffffe8 	b	561b0 <vprintf+0xe8>
   56214:	aa1303e0 	mov	x0, x19
   56218:	8b34c2f3 	add	x19, x23, w20, sxtw
   5621c:	17ffffe5 	b	561b0 <vprintf+0xe8>
   56220:	11002281 	add	w1, w20, #0x8
   56224:	7100003f 	cmp	w1, #0x0
   56228:	5400008d 	b.le	56238 <vprintf+0x170>
   5622c:	91002e60 	add	x0, x19, #0xb
   56230:	927df000 	and	x0, x0, #0xfffffffffffffff8
   56234:	17fffff0 	b	561f4 <vprintf+0x12c>
   56238:	aa1303e0 	mov	x0, x19
   5623c:	8b34c2f3 	add	x19, x23, w20, sxtw
   56240:	17ffffed 	b	561f4 <vprintf+0x12c>
   56244:	aa1c03e0 	mov	x0, x28
   56248:	17ffffe2 	b	561d0 <vprintf+0x108>
   5624c:	37f80154 	tbnz	w20, #31, 56274 <vprintf+0x1ac>
   56250:	91002e78 	add	x24, x19, #0xb
   56254:	2a1403fc 	mov	w28, w20
   56258:	927df318 	and	x24, x24, #0xfffffffffffffff8
   5625c:	b9400260 	ldr	w0, [x19]
   56260:	110006b5 	add	w21, w21, #0x1
   56264:	97fff9c4 	bl	54974 <putchar>
   56268:	2a1c03f4 	mov	w20, w28
   5626c:	aa1803f3 	mov	x19, x24
   56270:	17ffffc8 	b	56190 <vprintf+0xc8>
   56274:	1100229c 	add	w28, w20, #0x8
   56278:	7100039f 	cmp	w28, #0x0
   5627c:	5400008d 	b.le	5628c <vprintf+0x1c4>
   56280:	91002e78 	add	x24, x19, #0xb
   56284:	927df318 	and	x24, x24, #0xfffffffffffffff8
   56288:	17fffff5 	b	5625c <vprintf+0x194>
   5628c:	aa1303f8 	mov	x24, x19
   56290:	8b34c2f3 	add	x19, x23, w20, sxtw
   56294:	17fffff2 	b	5625c <vprintf+0x194>
   56298:	37f801b4 	tbnz	w20, #31, 562cc <vprintf+0x204>
   5629c:	91003e78 	add	x24, x19, #0xf
   562a0:	2a1403fc 	mov	w28, w20
   562a4:	927df318 	and	x24, x24, #0xfffffffffffffff8
   562a8:	f9400274 	ldr	x20, [x19]
   562ac:	d2800013 	mov	x19, #0x0                   	// #0
   562b0:	d1000694 	sub	x20, x20, #0x1
   562b4:	2a1303e1 	mov	w1, w19
   562b8:	91000673 	add	x19, x19, #0x1
   562bc:	38736a80 	ldrb	w0, [x20, x19]
   562c0:	35000180 	cbnz	w0, 562f0 <vprintf+0x228>
   562c4:	0b0102b5 	add	w21, w21, w1
   562c8:	17ffffe8 	b	56268 <vprintf+0x1a0>
   562cc:	1100229c 	add	w28, w20, #0x8
   562d0:	7100039f 	cmp	w28, #0x0
   562d4:	5400008d 	b.le	562e4 <vprintf+0x21c>
   562d8:	91003e78 	add	x24, x19, #0xf
   562dc:	927df318 	and	x24, x24, #0xfffffffffffffff8
   562e0:	17fffff2 	b	562a8 <vprintf+0x1e0>
   562e4:	aa1303f8 	mov	x24, x19
   562e8:	8b34c2f3 	add	x19, x23, w20, sxtw
   562ec:	17ffffef 	b	562a8 <vprintf+0x1e0>
   562f0:	97fff9a1 	bl	54974 <putchar>
   562f4:	17fffff0 	b	562b4 <vprintf+0x1ec>
   562f8:	37f801f4 	tbnz	w20, #31, 56334 <vprintf+0x26c>
   562fc:	91003e7c 	add	x28, x19, #0xf
   56300:	2a1403fb 	mov	w27, w20
   56304:	927df39c 	and	x28, x28, #0xfffffffffffffff8
   56308:	f9400265 	ldr	x5, [x19]
   5630c:	b50003a5 	cbnz	x5, 56380 <vprintf+0x2b8>
   56310:	2a1803e3 	mov	w3, w24
   56314:	2a1903e2 	mov	w2, w25
   56318:	aa0503e0 	mov	x0, x5
   5631c:	52800201 	mov	w1, #0x10                  	// #16
   56320:	2a1b03f4 	mov	w20, w27
   56324:	97ffff35 	bl	55ff8 <unsigned_num_print.part.0>
   56328:	aa1c03f3 	mov	x19, x28
   5632c:	0b0002b5 	add	w21, w21, w0
   56330:	17ffff98 	b	56190 <vprintf+0xc8>
   56334:	1100229b 	add	w27, w20, #0x8
   56338:	7100037f 	cmp	w27, #0x0
   5633c:	5400008d 	b.le	5634c <vprintf+0x284>
   56340:	91003e7c 	add	x28, x19, #0xf
   56344:	927df39c 	and	x28, x28, #0xfffffffffffffff8
   56348:	17fffff0 	b	56308 <vprintf+0x240>
   5634c:	aa1303fc 	mov	x28, x19
   56350:	8b34c2f3 	add	x19, x23, w20, sxtw
   56354:	17ffffed 	b	56308 <vprintf+0x240>
   56358:	f90037e5 	str	x5, [sp, #104]
   5635c:	97fff986 	bl	54974 <putchar>
   56360:	f94037e5 	ldr	x5, [sp, #104]
   56364:	2a1303e1 	mov	w1, w19
   56368:	91000673 	add	x19, x19, #0x1
   5636c:	38746a60 	ldrb	w0, [x19, x20]
   56370:	35ffff40 	cbnz	w0, 56358 <vprintf+0x290>
   56374:	0b0102b5 	add	w21, w21, w1
   56378:	51000b18 	sub	w24, w24, #0x2
   5637c:	17ffffe5 	b	56310 <vprintf+0x248>
   56380:	90000014 	adrp	x20, 56000 <unsigned_num_print.part.0+0x8>
   56384:	d2800013 	mov	x19, #0x0                   	// #0
   56388:	912d2694 	add	x20, x20, #0xb49
   5638c:	17fffff6 	b	56364 <vprintf+0x29c>
   56390:	7100043f 	cmp	w1, #0x1
   56394:	540001cd 	b.le	563cc <vprintf+0x304>
   56398:	37f80294 	tbnz	w20, #31, 563e8 <vprintf+0x320>
   5639c:	91003e61 	add	x1, x19, #0xf
   563a0:	2a1403e2 	mov	w2, w20
   563a4:	927df021 	and	x1, x1, #0xfffffffffffffff8
   563a8:	f9400260 	ldr	x0, [x19]
   563ac:	2a0203f4 	mov	w20, w2
   563b0:	2a1803e3 	mov	w3, w24
   563b4:	2a1903e2 	mov	w2, w25
   563b8:	aa0103f3 	mov	x19, x1
   563bc:	52800201 	mov	w1, #0x10                  	// #16
   563c0:	97ffff0e 	bl	55ff8 <unsigned_num_print.part.0>
   563c4:	0b0002b5 	add	w21, w21, w0
   563c8:	17ffff72 	b	56190 <vprintf+0xc8>
   563cc:	54fffe60 	b.eq	56398 <vprintf+0x2d0>  // b.none
   563d0:	37f801f4 	tbnz	w20, #31, 5640c <vprintf+0x344>
   563d4:	91002e61 	add	x1, x19, #0xb
   563d8:	2a1403e2 	mov	w2, w20
   563dc:	927df021 	and	x1, x1, #0xfffffffffffffff8
   563e0:	b9400260 	ldr	w0, [x19]
   563e4:	17fffff2 	b	563ac <vprintf+0x2e4>
   563e8:	11002282 	add	w2, w20, #0x8
   563ec:	7100005f 	cmp	w2, #0x0
   563f0:	5400008d 	b.le	56400 <vprintf+0x338>
   563f4:	91003e61 	add	x1, x19, #0xf
   563f8:	927df021 	and	x1, x1, #0xfffffffffffffff8
   563fc:	17ffffeb 	b	563a8 <vprintf+0x2e0>
   56400:	aa1303e1 	mov	x1, x19
   56404:	8b34c2f3 	add	x19, x23, w20, sxtw
   56408:	17ffffe8 	b	563a8 <vprintf+0x2e0>
   5640c:	11002282 	add	w2, w20, #0x8
   56410:	7100005f 	cmp	w2, #0x0
   56414:	5400008d 	b.le	56424 <vprintf+0x35c>
   56418:	91002e61 	add	x1, x19, #0xb
   5641c:	927df021 	and	x1, x1, #0xfffffffffffffff8
   56420:	17fffff0 	b	563e0 <vprintf+0x318>
   56424:	aa1303e1 	mov	x1, x19
   56428:	8b34c2f3 	add	x19, x23, w20, sxtw
   5642c:	17ffffed 	b	563e0 <vprintf+0x318>
   56430:	910006d6 	add	x22, x22, #0x1
   56434:	52800041 	mov	w1, #0x2                   	// #2
   56438:	17ffff43 	b	56144 <vprintf+0x7c>
   5643c:	11000421 	add	w1, w1, #0x1
   56440:	910006d6 	add	x22, x22, #0x1
   56444:	17ffff40 	b	56144 <vprintf+0x7c>
   56448:	7100043f 	cmp	w1, #0x1
   5644c:	5400012d 	b.le	56470 <vprintf+0x3a8>
   56450:	37f801f4 	tbnz	w20, #31, 5648c <vprintf+0x3c4>
   56454:	91003e61 	add	x1, x19, #0xf
   56458:	2a1403e2 	mov	w2, w20
   5645c:	927df021 	and	x1, x1, #0xfffffffffffffff8
   56460:	f9400260 	ldr	x0, [x19]
   56464:	2a0203f4 	mov	w20, w2
   56468:	aa0103f3 	mov	x19, x1
   5646c:	17ffff59 	b	561d0 <vprintf+0x108>
   56470:	54ffff00 	b.eq	56450 <vprintf+0x388>  // b.none
   56474:	37f801f4 	tbnz	w20, #31, 564b0 <vprintf+0x3e8>
   56478:	91002e61 	add	x1, x19, #0xb
   5647c:	2a1403e2 	mov	w2, w20
   56480:	927df021 	and	x1, x1, #0xfffffffffffffff8
   56484:	b9400260 	ldr	w0, [x19]
   56488:	17fffff7 	b	56464 <vprintf+0x39c>
   5648c:	11002282 	add	w2, w20, #0x8
   56490:	7100005f 	cmp	w2, #0x0
   56494:	5400008d 	b.le	564a4 <vprintf+0x3dc>
   56498:	91003e61 	add	x1, x19, #0xf
   5649c:	927df021 	and	x1, x1, #0xfffffffffffffff8
   564a0:	17fffff0 	b	56460 <vprintf+0x398>
   564a4:	aa1303e1 	mov	x1, x19
   564a8:	8b34c2f3 	add	x19, x23, w20, sxtw
   564ac:	17ffffed 	b	56460 <vprintf+0x398>
   564b0:	11002282 	add	w2, w20, #0x8
   564b4:	7100005f 	cmp	w2, #0x0
   564b8:	5400008d 	b.le	564c8 <vprintf+0x400>
   564bc:	91002e61 	add	x1, x19, #0xb
   564c0:	927df021 	and	x1, x1, #0xfffffffffffffff8
   564c4:	17fffff0 	b	56484 <vprintf+0x3bc>
   564c8:	aa1303e1 	mov	x1, x19
   564cc:	8b34c2f3 	add	x19, x23, w20, sxtw
   564d0:	17ffffed 	b	56484 <vprintf+0x3bc>
   564d4:	910006d6 	add	x22, x22, #0x1
   564d8:	52800018 	mov	w24, #0x0                   	// #0
   564dc:	394002c0 	ldrb	w0, [x22]
   564e0:	5100c000 	sub	w0, w0, #0x30
   564e4:	12001c02 	and	w2, w0, #0xff
   564e8:	7100245f 	cmp	w2, #0x9
   564ec:	54ffe2a8 	b.hi	56140 <vprintf+0x78>  // b.pmore
   564f0:	52800142 	mov	w2, #0xa                   	// #10
   564f4:	910006d6 	add	x22, x22, #0x1
   564f8:	1b020318 	madd	w24, w24, w2, w0
   564fc:	17fffff8 	b	564dc <vprintf+0x414>
   56500:	110006b5 	add	w21, w21, #0x1
   56504:	97fff91c 	bl	54974 <putchar>
   56508:	17fffefe 	b	56100 <vprintf+0x38>

000000000005650c <strchr>:
   5650c:	12001c21 	and	w1, w1, #0xff
   56510:	39400002 	ldrb	w2, [x0]
   56514:	6b01005f 	cmp	w2, w1
   56518:	540000a0 	b.eq	5652c <strchr+0x20>  // b.none
   5651c:	34000062 	cbz	w2, 56528 <strchr+0x1c>
   56520:	91000400 	add	x0, x0, #0x1
   56524:	17fffffb 	b	56510 <strchr+0x4>
   56528:	d2800000 	mov	x0, #0x0                   	// #0
   5652c:	d65f03c0 	ret

0000000000056530 <strlen>:
   56530:	aa0003e1 	mov	x1, x0
   56534:	39400022 	ldrb	w2, [x1]
   56538:	35000062 	cbnz	w2, 56544 <strlen+0x14>
   5653c:	cb000020 	sub	x0, x1, x0
   56540:	d65f03c0 	ret
   56544:	91000421 	add	x1, x1, #0x1
   56548:	17fffffb 	b	56534 <strlen+0x4>

000000000005654c <strncmp>:
   5654c:	b4000182 	cbz	x2, 5657c <strncmp+0x30>
   56550:	d2800004 	mov	x4, #0x0                   	// #0
   56554:	38646803 	ldrb	w3, [x0, x4]
   56558:	38646825 	ldrb	w5, [x1, x4]
   5655c:	6b05007f 	cmp	w3, w5
   56560:	54000060 	b.eq	5656c <strncmp+0x20>  // b.none
   56564:	4b050060 	sub	w0, w3, w5
   56568:	d65f03c0 	ret
   5656c:	34000083 	cbz	w3, 5657c <strncmp+0x30>
   56570:	91000484 	add	x4, x4, #0x1
   56574:	eb04005f 	cmp	x2, x4
   56578:	54fffee1 	b.ne	56554 <strncmp+0x8>  // b.any
   5657c:	52800000 	mov	w0, #0x0                   	// #0
   56580:	17fffffa 	b	56568 <strncmp+0x1c>

0000000000056584 <strrchr>:
   56584:	12001c21 	and	w1, w1, #0xff
   56588:	aa0003e2 	mov	x2, x0
   5658c:	d2800000 	mov	x0, #0x0                   	// #0
   56590:	39400043 	ldrb	w3, [x2]
   56594:	6b01007f 	cmp	w3, w1
   56598:	9a821000 	csel	x0, x0, x2, ne  // ne = any
   5659c:	34000063 	cbz	w3, 565a8 <strrchr+0x24>
   565a0:	91000442 	add	x2, x2, #0x1
   565a4:	17fffffb 	b	56590 <strrchr+0xc>
   565a8:	d65f03c0 	ret
   565ac:	00000000 	udf	#0

00000000000565b0 <psci_args.0>:
   565b0:	00100106 00000000 000400fc 00000000     ................

00000000000565c0 <plat_rockchip_psci_pm_ops>:
   565c0:	00053af8 00000000 00053b18 00000000     .:.......;......
   565d0:	00053b2c 00000000 00000000 00000000     ,;..............
	...
   565e8:	00053b90 00000000 00053c20 00000000     .;...... <......
	...
   56600:	00053c7c 00000000 00053d2c 00000000     |<......,=......
   56610:	00053d08 00000000 00053cf8 00000000     .=.......<......
   56620:	00053a70 00000000 00000000 00000000     p:..............
   56630:	00053ae4 00000000 00000000 00000000     .:..............
	...

0000000000056670 <rockchip_gic_data>:
   56670:	fd400000 00000000 fd460000 00000000     ..@.......F.....
   56680:	00056788 00000000 00000002 00000004     .g..............
   56690:	0007acc0 00000000 00053d84 00000000     .........=......

00000000000566a0 <plat_rk_mmap>:
   566a0:	f8000000 00000000 f8000000 00000000     ................
   566b0:	07fff000 00000000 00000008 00000000     ................
   566c0:	40000000 00000000 fdcd0000 00000000     ...@............
   566d0:	fdcd0000 00000000 00020000 00000000     ................
   566e0:	0000000a 00000000 40000000 00000000     ...........@....
	...

0000000000056718 <plat_prefix_str>:
   56718:	000569fd 00000000 00056a07 00000000     .i.......j......
   56728:	00056a11 00000000 00056a1b 00000000     .j.......j......
   56738:	00056a25 00000000 08130800 e9e9e9e9     %j..............
   56748:	00000008 0a030600 1715120f 39222120     ............ !"9
   56758:	391c1939 242a3939 00000026 d9d602d1     9..999*$&.......
   56768:	02e002dc 02020202 0202e7e3 f102f402     ................
   56778:	240d0800                                ...$

000000000005677c <CSWTCH.7>:
   5677c:	fdd50000 fe650000 fe660000              ......e...f.

0000000000056788 <g01s_interrupt_props>:
   56788:	0020000e 0000001d 00030030 fff7fff7     .. .....0.......
   56798:	fff7fff7 fff70003 00acfff7 fff7fff7     ................
   567a8:	005bfff7 fff7fff7 fff70043 fff700af     ..[.....C.......
   567b8:	0081fff7 00a9fff7                       ........

00000000000567c0 <build_message>:
   567c0:	6c697542 203a2074 303a3331 37303a32     Built : 13:02:07
   567d0:	754a202c 3920206c 32303220               , Jul  9 2023.

00000000000567de <version_string>:
   567de:	392e3276 6c657228 65736165 32763a29     v2.9(release):v2
   567ee:	302e382e 3333312d 63672d37 64656335     .8.0-1337-gc5ced
   567fe:	38626139 20663631 4c450a00 75732031     9ab816f ..EL1 su
   5680e:	726f7070 41207374 68637241 6f2d3436     pports AArch64-o
   5681e:	2e796c6e 656c5020 20657361 20746573     nly. Please set 
   5682e:	6c697562 6c662064 43206761 495f5854     build flag CTX_I
   5683e:	554c434e 415f4544 48435241 525f3233     NCLUDE_AARCH32_R
   5684e:	20534745 0a30203d 4c421400 203a3133     EGS = 0...BL31: 
   5685e:	000a7325 766e490a 64696c61 6e757220     %s...Invalid run
   5686e:	656d6974 72657320 65636976 73656420     time service des
   5687e:	70697263 20726f74 000a7025 7272450a     criptor %p...Err
   5688e:	6920726f 6974696e 7a696c61 20676e69     or initializing 
   5689e:	746e7572 20656d69 76726573 20656369     runtime service 
   568ae:	000a7325 766e490a 64696c61 63657320     %s...Invalid sec
   568be:	74697275 74732079 0a657461 6c612f00     urity state../al
   568ce:	65736169 550a0073 7078656e 65746365     iases..Unexpecte
   568de:	66612064 696e6966 69207974 206f666e     d affinity info 
   568ee:	74617473 000a2e65 766e490a 64696c61     state....Invalid
   568fe:	72617420 20746567 65776f70 656c2072      target power le
   5690e:	206c6576 20726f66 70737573 20646e65     vel for suspend 
   5691e:	7265706f 6f697461                        operation..

0000000000056929 <CSWTCH.13>:
   56929:	03010200 6378450a 65646565 68742064     .....Exceeded th
   56939:	75732065 726f7070 20646574 70737573     e supported susp
   56949:	20646e65 4f495047 6d756e20 2e726562     end GPIO number.
   56959:	632f000a 65736f68 7473006e 74756f64     ../chosen.stdout
   56969:	7461702d 65730068 6c616972 73250a00     -path.serial..%s
   56979:	6e75203a 646e6168 2064656c 20434d53     : unhandled SMC 
   56989:	25783028 000a2978 6b636f72 70696863     (0x%x)..rockchip
   56999:	7069735f 6376735f                        _sip_svc.

00000000000569a2 <__func__.0>:
   569a2:	6b636f72 70696863 616c705f 69735f74     rockchip_plat_si
   569b2:	61685f70 656c646e 42140072 3a31334c     p_handler..BL31:
   569c2:	636f5220 6968636b 65722070 7361656c      Rockchip releas
   569d2:	65762065 6f697372 76203a6e 252e6425     e version: v%d.%
   569e2:	                                         d..

00000000000569e5 <rockchip_power_domain_tree_desc>:
   569e5:	61040101 615f6d72 5f686372 00637673     ...arm_arch_svc.
   569f5:	5f647473 00637673 4f525245 20203a52     std_svc.ERROR:  
   56a05:	4f4e0020 45434954 0020203a 4e524157      .NOTICE:  .WARN
   56a15:	3a474e49 4e490020 203a4f46 00202020     ING: .INFO:    .
   56a25:	42524556 3a45534f 4c450020 4c450031     VERBOSE: .EL1.EL
   56a35:	4c450033 550a0032 6e61686e 64656c64     3.EL2..Unhandled
   56a45:	74784520 616e7265 6241206c 2074726f      External Abort 
   56a55:	65636572 64657669 206e6f20 6c257830     received on 0x%l
   56a65:	72662078 25206d6f 0a000a73 65637865     x from %s...exce
   56a75:	6f697470 6572206e 6e6f7361 2075253d     ption reason=%u 
   56a85:	646e7973 656d6f72 2578303d 000a786c     syndrome=0x%lx..
   56a95:	616d6d0a 64615f70 65725f64 6e6f6967     .mmap_add_region
   56aa5:	6568635f 29286b63 69616620 2e64656c     _check() failed.
   56ab5:	72726520 2520726f 0a000a64 20746f4e      error %d...Not 
   56ac5:	756f6e65 6d206867 726f6d65 6f742079     enough memory to
   56ad5:	70616d20 67657220 3a6e6f69 4156200a      map region:. VA
   56ae5:	2578303a 2020786c 303a4150 6c6c2578     :0x%lx  PA:0x%ll
   56af5:	73202078 3a657a69 7a257830 61202078     x  size:0x%zx  a
   56b05:	3a727474 78257830 490a000a 726f6e67     ttr:0x%x...Ignor
   56b15:	20676e69 6e6b6e75 206e776f 61204c42     ing unknown BL a
   56b25:	70207875 6d617261 72657465 7830203a     ux parameter: 0x
   56b35:	00786c25                                %lx.

0000000000056b39 <cortex_a55_errata_list_end>:
   56b39:	50          	.byte	0x50
   56b3a:	4e41      	.short	0x4e41
   56b3c:	61204349 	.word	0x61204349
   56b40:	43502074 	.word	0x43502074
   56b44:	30203a20 	.word	0x30203a20
   56b48:	78300078 	.word	0x78300078
   56b4c:	00000000 	.word	0x00000000

0000000000056b50 <__svc_desc_rockchip_sip_svc>:
   56b50:	00010202 00000000 00056991 00000000     .........i......
	...
   56b68:	00053e30 00000000                       0>......

0000000000056b70 <__svc_desc_arm_arch_svc>:
   56b70:	00010000 00000000 000569e8 00000000     .........i......
	...
   56b88:	000545a0 00000000                       .E......

0000000000056b90 <__svc_desc_std_svc>:
   56b90:	00010404 00000000 000569f5 00000000     .........i......
   56ba0:	00054790 00000000 000546dc 00000000     .G.......F......

0000000000056bb0 <__CPU_OPS_START__>:
   56bb0:	410fd050 	.word	0x410fd050
   56bb4:	00000000 	.word	0x00000000
   56bb8:	0005577c 	.word	0x0005577c
	...
   56be0:	0005578c 	.word	0x0005578c
   56be4:	00000000 	.word	0x00000000
   56be8:	0005578c 	.word	0x0005578c
   56bec:	00000000 	.word	0x00000000
   56bf0:	00056b39 	.word	0x00056b39
   56bf4:	00000000 	.word	0x00000000
   56bf8:	00056b39 	.word	0x00056b39
   56bfc:	00000000 	.word	0x00000000

0000000000056c00 <__cb_func_spe_drain_buffers_hookcm_entering_secure_world>:
   56c00:	00051044 00000000                       D.......

0000000000056c08 <__pubsub_cm_entering_normal_world_end>:
	...

0000000000057000 <sync_exception_sp_el0>:
   57000:	17fff918 	b	55460 <report_unhandled_exception>
	...

0000000000057080 <irq_sp_el0>:
   57080:	17fff8f8 	b	55460 <report_unhandled_exception>
	...

0000000000057100 <fiq_sp_el0>:
   57100:	17fff8d8 	b	55460 <report_unhandled_exception>
	...

0000000000057180 <serror_sp_el0>:
   57180:	97fffaf4 	bl	55d50 <plat_handle_el3_ea>
	...

0000000000057200 <sync_exception_sp_elx>:
   57200:	17fff898 	b	55460 <report_unhandled_exception>
	...

0000000000057280 <irq_sp_elx>:
   57280:	17fff878 	b	55460 <report_unhandled_exception>
	...

0000000000057300 <fiq_sp_elx>:
   57300:	17fff858 	b	55460 <report_unhandled_exception>
	...

0000000000057380 <serror_sp_elx>:
   57380:	f9007bfe 	str	x30, [sp, #240]
   57384:	f9409bfe 	ldr	x30, [sp, #304]
   57388:	b500005e 	cbnz	x30, 57390 <serror_sp_elx+0x10>
   5738c:	17fff851 	b	554d0 <handle_lower_el_async_ea>
   57390:	97fffa70 	bl	55d50 <plat_handle_el3_ea>
	...

0000000000057400 <sync_exception_aarch64>:
   57400:	f9007bfe 	str	x30, [sp, #240]
   57404:	d5033f9f 	dsb	sy
   57408:	d50344ff 	msr	daifclr, #0x4
   5740c:	d5033fdf 	isb
   57410:	d280003e 	mov	x30, #0x1                   	// #1
   57414:	f9009bfe 	str	x30, [sp, #304]
   57418:	d5033fbf 	dmb	sy
   5741c:	d53e521e 	mrs	x30, esr_el3
   57420:	d35a7fde 	ubfx	x30, x30, #26, #6
   57424:	f1004fdf 	cmp	x30, #0x13
   57428:	54ff0980 	b.eq	55558 <sync_exception_handler>  // b.none
   5742c:	f1005fdf 	cmp	x30, #0x17
   57430:	54ff0960 	b.eq	5555c <sync_handler64>  // b.none
   57434:	f10063df 	cmp	x30, #0x18
   57438:	54ff0920 	b.eq	5555c <sync_handler64>  // b.none
   5743c:	f9407bfe 	ldr	x30, [sp, #240]
   57440:	17fff809 	b	55464 <handle_lower_el_sync_ea>
	...

0000000000057480 <irq_aarch64>:
   57480:	f9007bfe 	str	x30, [sp, #240]
   57484:	d5033f9f 	dsb	sy
   57488:	d50344ff 	msr	daifclr, #0x4
   5748c:	d5033fdf 	isb
   57490:	d280003e 	mov	x30, #0x1                   	// #1
   57494:	f9009bfe 	str	x30, [sp, #304]
   57498:	d5033fbf 	dmb	sy
   5749c:	97fff92d 	bl	55950 <prepare_el3_entry>
   574a0:	d53e4000 	mrs	x0, spsr_el3
   574a4:	d53e4021 	mrs	x1, elr_el3
   574a8:	a91187e0 	stp	x0, x1, [sp, #280]
   574ac:	f9408be2 	ldr	x2, [sp, #272]
   574b0:	910003f4 	mov	x20, sp
   574b4:	d50040bf 	msr	spsel, #0x0
   574b8:	9100005f 	mov	sp, x2
   574bc:	97fff081 	bl	536c0 <plat_ic_get_pending_interrupt_type>
   574c0:	f1000c1f 	cmp	x0, #0x3
   574c4:	54000140 	b.eq	574ec <interrupt_exit_irq_aarch64>  // b.none
   574c8:	97ffe349 	bl	501ec <get_interrupt_type_handler>
   574cc:	b4000100 	cbz	x0, 574ec <interrupt_exit_irq_aarch64>
   574d0:	aa0003f5 	mov	x21, x0
   574d4:	b2407fe0 	mov	x0, #0xffffffff            	// #4294967295
   574d8:	d53e1102 	mrs	x2, scr_el3
   574dc:	d3400041 	ubfx	x1, x2, #0, #1
   574e0:	aa1403e2 	mov	x2, x20
   574e4:	aa1f03e3 	mov	x3, xzr
   574e8:	d63f02a0 	blr	x21

00000000000574ec <interrupt_exit_irq_aarch64>:
   574ec:	17fff947 	b	55a08 <el3_exit>
	...

0000000000057500 <fiq_aarch64>:
   57500:	f9007bfe 	str	x30, [sp, #240]
   57504:	d5033f9f 	dsb	sy
   57508:	d50344ff 	msr	daifclr, #0x4
   5750c:	d5033fdf 	isb
   57510:	d280003e 	mov	x30, #0x1                   	// #1
   57514:	f9009bfe 	str	x30, [sp, #304]
   57518:	d5033fbf 	dmb	sy
   5751c:	97fff90d 	bl	55950 <prepare_el3_entry>
   57520:	d53e4000 	mrs	x0, spsr_el3
   57524:	d53e4021 	mrs	x1, elr_el3
   57528:	a91187e0 	stp	x0, x1, [sp, #280]
   5752c:	f9408be2 	ldr	x2, [sp, #272]
   57530:	910003f4 	mov	x20, sp
   57534:	d50040bf 	msr	spsel, #0x0
   57538:	9100005f 	mov	sp, x2
   5753c:	97fff061 	bl	536c0 <plat_ic_get_pending_interrupt_type>
   57540:	f1000c1f 	cmp	x0, #0x3
   57544:	54000140 	b.eq	5756c <interrupt_exit_fiq_aarch64>  // b.none
   57548:	97ffe329 	bl	501ec <get_interrupt_type_handler>
   5754c:	b4000100 	cbz	x0, 5756c <interrupt_exit_fiq_aarch64>
   57550:	aa0003f5 	mov	x21, x0
   57554:	b2407fe0 	mov	x0, #0xffffffff            	// #4294967295
   57558:	d53e1102 	mrs	x2, scr_el3
   5755c:	d3400041 	ubfx	x1, x2, #0, #1
   57560:	aa1403e2 	mov	x2, x20
   57564:	aa1f03e3 	mov	x3, xzr
   57568:	d63f02a0 	blr	x21

000000000005756c <interrupt_exit_fiq_aarch64>:
   5756c:	17fff927 	b	55a08 <el3_exit>
	...

0000000000057580 <serror_aarch64>:
   57580:	f9007bfe 	str	x30, [sp, #240]
   57584:	d5033f9f 	dsb	sy
   57588:	d50344ff 	msr	daifclr, #0x4
   5758c:	d5033fdf 	isb
   57590:	d280003e 	mov	x30, #0x1                   	// #1
   57594:	f9009bfe 	str	x30, [sp, #304]
   57598:	d5033fbf 	dmb	sy
   5759c:	17fff7cd 	b	554d0 <handle_lower_el_async_ea>
	...

0000000000057600 <sync_exception_aarch32>:
   57600:	f9007bfe 	str	x30, [sp, #240]
   57604:	d5033f9f 	dsb	sy
   57608:	d50344ff 	msr	daifclr, #0x4
   5760c:	d5033fdf 	isb
   57610:	d280003e 	mov	x30, #0x1                   	// #1
   57614:	f9009bfe 	str	x30, [sp, #304]
   57618:	d5033fbf 	dmb	sy
   5761c:	d53e521e 	mrs	x30, esr_el3
   57620:	d35a7fde 	ubfx	x30, x30, #26, #6
   57624:	f1004fdf 	cmp	x30, #0x13
   57628:	54fef980 	b.eq	55558 <sync_exception_handler>  // b.none
   5762c:	f1005fdf 	cmp	x30, #0x17
   57630:	54fef960 	b.eq	5555c <sync_handler64>  // b.none
   57634:	f10063df 	cmp	x30, #0x18
   57638:	54fef920 	b.eq	5555c <sync_handler64>  // b.none
   5763c:	f9407bfe 	ldr	x30, [sp, #240]
   57640:	17fff789 	b	55464 <handle_lower_el_sync_ea>
	...

0000000000057680 <irq_aarch32>:
   57680:	f9007bfe 	str	x30, [sp, #240]
   57684:	d5033f9f 	dsb	sy
   57688:	d50344ff 	msr	daifclr, #0x4
   5768c:	d5033fdf 	isb
   57690:	d280003e 	mov	x30, #0x1                   	// #1
   57694:	f9009bfe 	str	x30, [sp, #304]
   57698:	d5033fbf 	dmb	sy
   5769c:	97fff8ad 	bl	55950 <prepare_el3_entry>
   576a0:	d53e4000 	mrs	x0, spsr_el3
   576a4:	d53e4021 	mrs	x1, elr_el3
   576a8:	a91187e0 	stp	x0, x1, [sp, #280]
   576ac:	f9408be2 	ldr	x2, [sp, #272]
   576b0:	910003f4 	mov	x20, sp
   576b4:	d50040bf 	msr	spsel, #0x0
   576b8:	9100005f 	mov	sp, x2
   576bc:	97fff001 	bl	536c0 <plat_ic_get_pending_interrupt_type>
   576c0:	f1000c1f 	cmp	x0, #0x3
   576c4:	54000140 	b.eq	576ec <interrupt_exit_irq_aarch32>  // b.none
   576c8:	97ffe2c9 	bl	501ec <get_interrupt_type_handler>
   576cc:	b4000100 	cbz	x0, 576ec <interrupt_exit_irq_aarch32>
   576d0:	aa0003f5 	mov	x21, x0
   576d4:	b2407fe0 	mov	x0, #0xffffffff            	// #4294967295
   576d8:	d53e1102 	mrs	x2, scr_el3
   576dc:	d3400041 	ubfx	x1, x2, #0, #1
   576e0:	aa1403e2 	mov	x2, x20
   576e4:	aa1f03e3 	mov	x3, xzr
   576e8:	d63f02a0 	blr	x21

00000000000576ec <interrupt_exit_irq_aarch32>:
   576ec:	17fff8c7 	b	55a08 <el3_exit>
	...

0000000000057700 <fiq_aarch32>:
   57700:	f9007bfe 	str	x30, [sp, #240]
   57704:	d5033f9f 	dsb	sy
   57708:	d50344ff 	msr	daifclr, #0x4
   5770c:	d5033fdf 	isb
   57710:	d280003e 	mov	x30, #0x1                   	// #1
   57714:	f9009bfe 	str	x30, [sp, #304]
   57718:	d5033fbf 	dmb	sy
   5771c:	97fff88d 	bl	55950 <prepare_el3_entry>
   57720:	d53e4000 	mrs	x0, spsr_el3
   57724:	d53e4021 	mrs	x1, elr_el3
   57728:	a91187e0 	stp	x0, x1, [sp, #280]
   5772c:	f9408be2 	ldr	x2, [sp, #272]
   57730:	910003f4 	mov	x20, sp
   57734:	d50040bf 	msr	spsel, #0x0
   57738:	9100005f 	mov	sp, x2
   5773c:	97ffefe1 	bl	536c0 <plat_ic_get_pending_interrupt_type>
   57740:	f1000c1f 	cmp	x0, #0x3
   57744:	54000140 	b.eq	5776c <interrupt_exit_fiq_aarch32>  // b.none
   57748:	97ffe2a9 	bl	501ec <get_interrupt_type_handler>
   5774c:	b4000100 	cbz	x0, 5776c <interrupt_exit_fiq_aarch32>
   57750:	aa0003f5 	mov	x21, x0
   57754:	b2407fe0 	mov	x0, #0xffffffff            	// #4294967295
   57758:	d53e1102 	mrs	x2, scr_el3
   5775c:	d3400041 	ubfx	x1, x2, #0, #1
   57760:	aa1403e2 	mov	x2, x20
   57764:	aa1f03e3 	mov	x3, xzr
   57768:	d63f02a0 	blr	x21

000000000005776c <interrupt_exit_fiq_aarch32>:
   5776c:	17fff8a7 	b	55a08 <el3_exit>
	...

0000000000057780 <serror_aarch32>:
   57780:	f9007bfe 	str	x30, [sp, #240]
   57784:	d5033f9f 	dsb	sy
   57788:	d50344ff 	msr	daifclr, #0x4
   5778c:	d5033fdf 	isb
   57790:	d280003e 	mov	x30, #0x1                   	// #1
   57794:	f9009bfe 	str	x30, [sp, #304]
   57798:	d5033fbf 	dmb	sy
   5779c:	17fff74d 	b	554d0 <handle_lower_el_async_ea>
	...

0000000000057800 <__RO_END_UNALIGNED__>:
	...
