Archive member included to satisfy reference by file (symbol)

/media/data_nvme/git/uboot/u-boot/build/mt7986/release/lib/libfdt.a(fdt.o)
                              /media/data_nvme/git/uboot/u-boot/build/mt7986/release/bl2/mtk_spi.o (fdt_first_subnode)
/media/data_nvme/git/uboot/u-boot/build/mt7986/release/lib/libfdt.a(fdt_ro.o)
                              /media/data_nvme/git/uboot/u-boot/build/mt7986/release/bl2/mtk_spi.o (fdt_getprop)
/media/data_nvme/git/uboot/u-boot/build/mt7986/release/lib/libc.a(memchr.o)
                              /media/data_nvme/git/uboot/u-boot/build/mt7986/release/lib/libfdt.a(fdt_ro.o) (memchr)
/media/data_nvme/git/uboot/u-boot/build/mt7986/release/lib/libc.a(memcmp.o)
                              /media/data_nvme/git/uboot/u-boot/build/mt7986/release/bl2/io_fip.o (memcmp)
/media/data_nvme/git/uboot/u-boot/build/mt7986/release/lib/libc.a(memcpy.o)
                              /media/data_nvme/git/uboot/u-boot/build/mt7986/release/bl2/desc_image_load.o (memcpy)
/media/data_nvme/git/uboot/u-boot/build/mt7986/release/lib/libc.a(memmove.o)
                              /media/data_nvme/git/uboot/u-boot/build/mt7986/release/bl2/xz_dec_lzma2.o (memmove)
/media/data_nvme/git/uboot/u-boot/build/mt7986/release/lib/libc.a(memset.o)
                              /media/data_nvme/git/uboot/u-boot/build/mt7986/release/bl2/tf_unxz.o (memset)
/media/data_nvme/git/uboot/u-boot/build/mt7986/release/lib/libc.a(printf.o)
                              /media/data_nvme/git/uboot/u-boot/build/mt7986/release/bl2/emicfg.o (vprintf)
/media/data_nvme/git/uboot/u-boot/build/mt7986/release/lib/libc.a(strcmp.o)
                              /media/data_nvme/git/uboot/u-boot/build/mt7986/release/bl2/partition.o (strcmp)
/media/data_nvme/git/uboot/u-boot/build/mt7986/release/lib/libc.a(strlen.o)
                              /media/data_nvme/git/uboot/u-boot/build/mt7986/release/lib/libfdt.a(fdt.o) (strlen)
/media/data_nvme/git/uboot/u-boot/build/mt7986/release/lib/libc.a(strnlen.o)
                              /media/data_nvme/git/uboot/u-boot/build/mt7986/release/lib/libfdt.a(fdt_ro.o) (strnlen)
/media/data_nvme/git/uboot/u-boot/build/mt7986/release/lib/libc.a(strrchr.o)
                              /media/data_nvme/git/uboot/u-boot/build/mt7986/release/lib/libfdt.a(fdt_ro.o) (strrchr)

Discarded input sections

 .text          0x0000000000000000        0x0 /media/data_nvme/git/uboot/u-boot/build/mt7986/release/bl2/build_message.o
 .data          0x0000000000000000        0x0 /media/data_nvme/git/uboot/u-boot/build/mt7986/release/bl2/build_message.o
 .bss           0x0000000000000000        0x0 /media/data_nvme/git/uboot/u-boot/build/mt7986/release/bl2/build_message.o
 .rodata.version
                0x0000000000000000        0x4 /media/data_nvme/git/uboot/u-boot/build/mt7986/release/bl2/build_message.o
 .text          0x0000000000000000        0x0 /media/data_nvme/git/uboot/u-boot/build/mt7986/release/bl2/bl2_arch_setup.o
 .data          0x0000000000000000        0x0 /media/data_nvme/git/uboot/u-boot/build/mt7986/release/bl2/bl2_arch_setup.o
 .bss           0x0000000000000000        0x0 /media/data_nvme/git/uboot/u-boot/build/mt7986/release/bl2/bl2_arch_setup.o
 .eh_frame      0x0000000000000000       0x28 /media/data_nvme/git/uboot/u-boot/build/mt7986/release/bl2/bl2_arch_setup.o
 .text          0x0000000000000000        0x0 /media/data_nvme/git/uboot/u-boot/build/mt7986/release/bl2/bl2_image_load_v2.o
 .data          0x0000000000000000        0x0 /media/data_nvme/git/uboot/u-boot/build/mt7986/release/bl2/bl2_image_load_v2.o
 .bss           0x0000000000000000        0x0 /media/data_nvme/git/uboot/u-boot/build/mt7986/release/bl2/bl2_image_load_v2.o
 .eh_frame      0x0000000000000000       0x50 /media/data_nvme/git/uboot/u-boot/build/mt7986/release/bl2/bl2_image_load_v2.o
 .text          0x0000000000000000        0x0 /media/data_nvme/git/uboot/u-boot/build/mt7986/release/bl2/bl2_main.o
 .data          0x0000000000000000        0x0 /media/data_nvme/git/uboot/u-boot/build/mt7986/release/bl2/bl2_main.o
 .bss           0x0000000000000000        0x0 /media/data_nvme/git/uboot/u-boot/build/mt7986/release/bl2/bl2_main.o
 .eh_frame      0x0000000000000000       0x58 /media/data_nvme/git/uboot/u-boot/build/mt7986/release/bl2/bl2_main.o
 .text          0x0000000000000000        0x0 /media/data_nvme/git/uboot/u-boot/build/mt7986/release/bl2/desc_image_load.o
 .data          0x0000000000000000        0x0 /media/data_nvme/git/uboot/u-boot/build/mt7986/release/bl2/desc_image_load.o
 .bss           0x0000000000000000        0x0 /media/data_nvme/git/uboot/u-boot/build/mt7986/release/bl2/desc_image_load.o
 .text.populate_next_bl_params_config
                0x0000000000000000       0xa8 /media/data_nvme/git/uboot/u-boot/build/mt7986/release/bl2/desc_image_load.o
 .text.bl31_params_parse_helper
                0x0000000000000000       0xac /media/data_nvme/git/uboot/u-boot/build/mt7986/release/bl2/desc_image_load.o
 .eh_frame      0x0000000000000000      0x108 /media/data_nvme/git/uboot/u-boot/build/mt7986/release/bl2/desc_image_load.o
 .text          0x0000000000000000        0x0 /media/data_nvme/git/uboot/u-boot/build/mt7986/release/bl2/image_decompress.o
 .data          0x0000000000000000        0x0 /media/data_nvme/git/uboot/u-boot/build/mt7986/release/bl2/image_decompress.o
 .bss           0x0000000000000000        0x0 /media/data_nvme/git/uboot/u-boot/build/mt7986/release/bl2/image_decompress.o
 .eh_frame      0x0000000000000000       0x68 /media/data_nvme/git/uboot/u-boot/build/mt7986/release/bl2/image_decompress.o
 .text          0x0000000000000000        0x0 /media/data_nvme/git/uboot/u-boot/build/mt7986/release/bl2/tf_crc32.o
 .data          0x0000000000000000        0x0 /media/data_nvme/git/uboot/u-boot/build/mt7986/release/bl2/tf_crc32.o
 .bss           0x0000000000000000        0x0 /media/data_nvme/git/uboot/u-boot/build/mt7986/release/bl2/tf_crc32.o
 .eh_frame      0x0000000000000000       0x28 /media/data_nvme/git/uboot/u-boot/build/mt7986/release/bl2/tf_crc32.o
 .text          0x0000000000000000        0x0 /media/data_nvme/git/uboot/u-boot/build/mt7986/release/bl2/delay_timer.o
 .data          0x0000000000000000        0x0 /media/data_nvme/git/uboot/u-boot/build/mt7986/release/bl2/delay_timer.o
 .bss           0x0000000000000000        0x0 /media/data_nvme/git/uboot/u-boot/build/mt7986/release/bl2/delay_timer.o
 .eh_frame      0x0000000000000000       0x68 /media/data_nvme/git/uboot/u-boot/build/mt7986/release/bl2/delay_timer.o
 .text          0x0000000000000000        0x0 /media/data_nvme/git/uboot/u-boot/build/mt7986/release/bl2/gpio.o
 .data          0x0000000000000000        0x0 /media/data_nvme/git/uboot/u-boot/build/mt7986/release/bl2/gpio.o
 .bss           0x0000000000000000        0x0 /media/data_nvme/git/uboot/u-boot/build/mt7986/release/bl2/gpio.o
 .text.gpio_get_direction
                0x0000000000000000       0x14 /media/data_nvme/git/uboot/u-boot/build/mt7986/release/bl2/gpio.o
 .text.gpio_set_direction
                0x0000000000000000       0x14 /media/data_nvme/git/uboot/u-boot/build/mt7986/release/bl2/gpio.o
 .text.gpio_get_value
                0x0000000000000000       0x14 /media/data_nvme/git/uboot/u-boot/build/mt7986/release/bl2/gpio.o
 .text.gpio_set_value
                0x0000000000000000       0x14 /media/data_nvme/git/uboot/u-boot/build/mt7986/release/bl2/gpio.o
 .text.gpio_set_pull
                0x0000000000000000       0x14 /media/data_nvme/git/uboot/u-boot/build/mt7986/release/bl2/gpio.o
 .text.gpio_get_pull
                0x0000000000000000       0x14 /media/data_nvme/git/uboot/u-boot/build/mt7986/release/bl2/gpio.o
 .eh_frame      0x0000000000000000       0xa0 /media/data_nvme/git/uboot/u-boot/build/mt7986/release/bl2/gpio.o
 .text          0x0000000000000000        0x0 /media/data_nvme/git/uboot/u-boot/build/mt7986/release/bl2/io_block.o
 .data          0x0000000000000000        0x0 /media/data_nvme/git/uboot/u-boot/build/mt7986/release/bl2/io_block.o
 .bss           0x0000000000000000        0x0 /media/data_nvme/git/uboot/u-boot/build/mt7986/release/bl2/io_block.o
 .eh_frame      0x0000000000000000      0x148 /media/data_nvme/git/uboot/u-boot/build/mt7986/release/bl2/io_block.o
 .text          0x0000000000000000        0x0 /media/data_nvme/git/uboot/u-boot/build/mt7986/release/bl2/io_fip.o
 .data          0x0000000000000000        0x0 /media/data_nvme/git/uboot/u-boot/build/mt7986/release/bl2/io_fip.o
 .bss           0x0000000000000000        0x0 /media/data_nvme/git/uboot/u-boot/build/mt7986/release/bl2/io_fip.o
 .text.fip_dev_get_plat_toc_flag
                0x0000000000000000       0x14 /media/data_nvme/git/uboot/u-boot/build/mt7986/release/bl2/io_fip.o
 .eh_frame      0x0000000000000000      0x160 /media/data_nvme/git/uboot/u-boot/build/mt7986/release/bl2/io_fip.o
 .text          0x0000000000000000        0x0 /media/data_nvme/git/uboot/u-boot/build/mt7986/release/bl2/io_storage.o
 .data          0x0000000000000000        0x0 /media/data_nvme/git/uboot/u-boot/build/mt7986/release/bl2/io_storage.o
 .bss           0x0000000000000000        0x0 /media/data_nvme/git/uboot/u-boot/build/mt7986/release/bl2/io_storage.o
 .text.io_write
                0x0000000000000000       0x20 /media/data_nvme/git/uboot/u-boot/build/mt7986/release/bl2/io_storage.o
 .eh_frame      0x0000000000000000      0x120 /media/data_nvme/git/uboot/u-boot/build/mt7986/release/bl2/io_storage.o
 .text          0x0000000000000000        0x0 /media/data_nvme/git/uboot/u-boot/build/mt7986/release/bl2/mmc.o
 .data          0x0000000000000000        0x0 /media/data_nvme/git/uboot/u-boot/build/mt7986/release/bl2/mmc.o
 .bss           0x0000000000000000        0x0 /media/data_nvme/git/uboot/u-boot/build/mt7986/release/bl2/mmc.o
 .text.mmc_send_part_switch_cmd
                0x0000000000000000       0x70 /media/data_nvme/git/uboot/u-boot/build/mt7986/release/bl2/mmc.o
 .text.mmc_write_blocks
                0x0000000000000000      0x110 /media/data_nvme/git/uboot/u-boot/build/mt7986/release/bl2/mmc.o
 .text.mmc_erase_blocks
                0x0000000000000000       0x8c /media/data_nvme/git/uboot/u-boot/build/mt7986/release/bl2/mmc.o
 .rodata.mmc_part_switch_current_boot.str1.1
                0x0000000000000000       0x5e /media/data_nvme/git/uboot/u-boot/build/mt7986/release/bl2/mmc.o
 .text.mmc_part_switch_current_boot
                0x0000000000000000       0x74 /media/data_nvme/git/uboot/u-boot/build/mt7986/release/bl2/mmc.o
 .rodata.mmc_part_switch_user.str1.1
                0x0000000000000000       0x29 /media/data_nvme/git/uboot/u-boot/build/mt7986/release/bl2/mmc.o
 .text.mmc_part_switch_user
                0x0000000000000000       0x44 /media/data_nvme/git/uboot/u-boot/build/mt7986/release/bl2/mmc.o
 .text.mmc_boot_part_size
                0x0000000000000000       0x10 /media/data_nvme/git/uboot/u-boot/build/mt7986/release/bl2/mmc.o
 .text.mmc_boot_part_read_blocks
                0x0000000000000000       0x58 /media/data_nvme/git/uboot/u-boot/build/mt7986/release/bl2/mmc.o
 .eh_frame      0x0000000000000000      0x220 /media/data_nvme/git/uboot/u-boot/build/mt7986/release/bl2/mmc.o
 .text          0x0000000000000000        0x0 /media/data_nvme/git/uboot/u-boot/build/mt7986/release/bl2/gpt.o
 .data          0x0000000000000000        0x0 /media/data_nvme/git/uboot/u-boot/build/mt7986/release/bl2/gpt.o
 .bss           0x0000000000000000        0x0 /media/data_nvme/git/uboot/u-boot/build/mt7986/release/bl2/gpt.o
 .eh_frame      0x0000000000000000       0x38 /media/data_nvme/git/uboot/u-boot/build/mt7986/release/bl2/gpt.o
 .text          0x0000000000000000        0x0 /media/data_nvme/git/uboot/u-boot/build/mt7986/release/bl2/partition.o
 .data          0x0000000000000000        0x0 /media/data_nvme/git/uboot/u-boot/build/mt7986/release/bl2/partition.o
 .bss           0x0000000000000000        0x0 /media/data_nvme/git/uboot/u-boot/build/mt7986/release/bl2/partition.o
 .text.get_partition_entry_by_type
                0x0000000000000000       0x7c /media/data_nvme/git/uboot/u-boot/build/mt7986/release/bl2/partition.o
 .text.get_partition_entry_by_uuid
                0x0000000000000000       0x7c /media/data_nvme/git/uboot/u-boot/build/mt7986/release/bl2/partition.o
 .text.get_partition_entry_list
                0x0000000000000000        0xc /media/data_nvme/git/uboot/u-boot/build/mt7986/release/bl2/partition.o
 .eh_frame      0x0000000000000000      0x110 /media/data_nvme/git/uboot/u-boot/build/mt7986/release/bl2/partition.o
 .text          0x0000000000000000        0x0 /media/data_nvme/git/uboot/u-boot/build/mt7986/release/bl2/tf_unxz.o
 .data          0x0000000000000000        0x0 /media/data_nvme/git/uboot/u-boot/build/mt7986/release/bl2/tf_unxz.o
 .bss           0x0000000000000000        0x0 /media/data_nvme/git/uboot/u-boot/build/mt7986/release/bl2/tf_unxz.o
 .text.xz_simple_putc
                0x0000000000000000        0x4 /media/data_nvme/git/uboot/u-boot/build/mt7986/release/bl2/tf_unxz.o
 .text.xz_simple_puts
                0x0000000000000000       0x40 /media/data_nvme/git/uboot/u-boot/build/mt7986/release/bl2/tf_unxz.o
 .eh_frame      0x0000000000000000       0xb8 /media/data_nvme/git/uboot/u-boot/build/mt7986/release/bl2/tf_unxz.o
 .text          0x0000000000000000        0x0 /media/data_nvme/git/uboot/u-boot/build/mt7986/release/bl2/xz_crc32.o
 .data          0x0000000000000000        0x0 /media/data_nvme/git/uboot/u-boot/build/mt7986/release/bl2/xz_crc32.o
 .bss           0x0000000000000000        0x0 /media/data_nvme/git/uboot/u-boot/build/mt7986/release/bl2/xz_crc32.o
 .eh_frame      0x0000000000000000       0x40 /media/data_nvme/git/uboot/u-boot/build/mt7986/release/bl2/xz_crc32.o
 .text          0x0000000000000000        0x0 /media/data_nvme/git/uboot/u-boot/build/mt7986/release/bl2/xz_crc64.o
 .data          0x0000000000000000        0x0 /media/data_nvme/git/uboot/u-boot/build/mt7986/release/bl2/xz_crc64.o
 .bss           0x0000000000000000        0x0 /media/data_nvme/git/uboot/u-boot/build/mt7986/release/bl2/xz_crc64.o
 .text.xz_crc64_init
                0x0000000000000000       0x4c /media/data_nvme/git/uboot/u-boot/build/mt7986/release/bl2/xz_crc64.o
 .text.xz_crc64
                0x0000000000000000       0x3c /media/data_nvme/git/uboot/u-boot/build/mt7986/release/bl2/xz_crc64.o
 .bss.xz_crc64_table
                0x0000000000000000      0x800 /media/data_nvme/git/uboot/u-boot/build/mt7986/release/bl2/xz_crc64.o
 .debug_info    0x0000000000000000      0x1a9 /media/data_nvme/git/uboot/u-boot/build/mt7986/release/bl2/xz_crc64.o
 .debug_abbrev  0x0000000000000000       0xf1 /media/data_nvme/git/uboot/u-boot/build/mt7986/release/bl2/xz_crc64.o
 .debug_loc     0x0000000000000000      0x223 /media/data_nvme/git/uboot/u-boot/build/mt7986/release/bl2/xz_crc64.o
 .debug_aranges
                0x0000000000000000       0x40 /media/data_nvme/git/uboot/u-boot/build/mt7986/release/bl2/xz_crc64.o
 .debug_ranges  0x0000000000000000       0x30 /media/data_nvme/git/uboot/u-boot/build/mt7986/release/bl2/xz_crc64.o
 .debug_line    0x0000000000000000      0x180 /media/data_nvme/git/uboot/u-boot/build/mt7986/release/bl2/xz_crc64.o
 .debug_str     0x0000000000000000      0x240 /media/data_nvme/git/uboot/u-boot/build/mt7986/release/bl2/xz_crc64.o
 .comment       0x0000000000000000       0x2c /media/data_nvme/git/uboot/u-boot/build/mt7986/release/bl2/xz_crc64.o
 .note.GNU-stack
                0x0000000000000000        0x0 /media/data_nvme/git/uboot/u-boot/build/mt7986/release/bl2/xz_crc64.o
 .eh_frame      0x0000000000000000       0x40 /media/data_nvme/git/uboot/u-boot/build/mt7986/release/bl2/xz_crc64.o
 .text          0x0000000000000000        0x0 /media/data_nvme/git/uboot/u-boot/build/mt7986/release/bl2/xz_dec_bcj.o
 .data          0x0000000000000000        0x0 /media/data_nvme/git/uboot/u-boot/build/mt7986/release/bl2/xz_dec_bcj.o
 .bss           0x0000000000000000        0x0 /media/data_nvme/git/uboot/u-boot/build/mt7986/release/bl2/xz_dec_bcj.o
 .debug_info    0x0000000000000000       0x72 /media/data_nvme/git/uboot/u-boot/build/mt7986/release/bl2/xz_dec_bcj.o
 .debug_abbrev  0x0000000000000000       0x26 /media/data_nvme/git/uboot/u-boot/build/mt7986/release/bl2/xz_dec_bcj.o
 .debug_aranges
                0x0000000000000000       0x20 /media/data_nvme/git/uboot/u-boot/build/mt7986/release/bl2/xz_dec_bcj.o
 .debug_line    0x0000000000000000       0x1d /media/data_nvme/git/uboot/u-boot/build/mt7986/release/bl2/xz_dec_bcj.o
 .debug_str     0x0000000000000000      0x1f1 /media/data_nvme/git/uboot/u-boot/build/mt7986/release/bl2/xz_dec_bcj.o
 .comment       0x0000000000000000       0x2c /media/data_nvme/git/uboot/u-boot/build/mt7986/release/bl2/xz_dec_bcj.o
 .note.GNU-stack
                0x0000000000000000        0x0 /media/data_nvme/git/uboot/u-boot/build/mt7986/release/bl2/xz_dec_bcj.o
 .text          0x0000000000000000        0x0 /media/data_nvme/git/uboot/u-boot/build/mt7986/release/bl2/xz_dec_lzma2.o
 .data          0x0000000000000000        0x0 /media/data_nvme/git/uboot/u-boot/build/mt7986/release/bl2/xz_dec_lzma2.o
 .bss           0x0000000000000000        0x0 /media/data_nvme/git/uboot/u-boot/build/mt7986/release/bl2/xz_dec_lzma2.o
 .eh_frame      0x0000000000000000       0xf0 /media/data_nvme/git/uboot/u-boot/build/mt7986/release/bl2/xz_dec_lzma2.o
 .text          0x0000000000000000        0x0 /media/data_nvme/git/uboot/u-boot/build/mt7986/release/bl2/xz_dec_stream.o
 .data          0x0000000000000000        0x0 /media/data_nvme/git/uboot/u-boot/build/mt7986/release/bl2/xz_dec_stream.o
 .bss           0x0000000000000000        0x0 /media/data_nvme/git/uboot/u-boot/build/mt7986/release/bl2/xz_dec_stream.o
 .eh_frame      0x0000000000000000      0x130 /media/data_nvme/git/uboot/u-boot/build/mt7986/release/bl2/xz_dec_stream.o
 .text          0x0000000000000000        0x0 /media/data_nvme/git/uboot/u-boot/build/mt7986/release/bl2/bl2_boot_mmc.o
 .data          0x0000000000000000        0x0 /media/data_nvme/git/uboot/u-boot/build/mt7986/release/bl2/bl2_boot_mmc.o
 .bss           0x0000000000000000        0x0 /media/data_nvme/git/uboot/u-boot/build/mt7986/release/bl2/bl2_boot_mmc.o
 .eh_frame      0x0000000000000000       0x68 /media/data_nvme/git/uboot/u-boot/build/mt7986/release/bl2/bl2_boot_mmc.o
 .text          0x0000000000000000        0x0 /media/data_nvme/git/uboot/u-boot/build/mt7986/release/bl2/bl2_plat_setup.o
 .data          0x0000000000000000        0x0 /media/data_nvme/git/uboot/u-boot/build/mt7986/release/bl2/bl2_plat_setup.o
 .bss           0x0000000000000000        0x0 /media/data_nvme/git/uboot/u-boot/build/mt7986/release/bl2/bl2_plat_setup.o
 .text.mtk_fip_location
                0x0000000000000000        0x4 /media/data_nvme/git/uboot/u-boot/build/mt7986/release/bl2/bl2_plat_setup.o
 .eh_frame      0x0000000000000000      0x190 /media/data_nvme/git/uboot/u-boot/build/mt7986/release/bl2/bl2_plat_setup.o
 .text          0x0000000000000000        0x0 /media/data_nvme/git/uboot/u-boot/build/mt7986/release/bl2/mtk_efuse.o
 .data          0x0000000000000000        0x0 /media/data_nvme/git/uboot/u-boot/build/mt7986/release/bl2/mtk_efuse.o
 .bss           0x0000000000000000        0x0 /media/data_nvme/git/uboot/u-boot/build/mt7986/release/bl2/mtk_efuse.o
 .rodata.mtk_efuse_get_len.str1.1
                0x0000000000000000       0x25 /media/data_nvme/git/uboot/u-boot/build/mt7986/release/bl2/mtk_efuse.o
 .text.mtk_efuse_get_len
                0x0000000000000000       0x78 /media/data_nvme/git/uboot/u-boot/build/mt7986/release/bl2/mtk_efuse.o
 .text.mtk_efuse_send_data
                0x0000000000000000       0x48 /media/data_nvme/git/uboot/u-boot/build/mt7986/release/bl2/mtk_efuse.o
 .text.mtk_efuse_get_data
                0x0000000000000000       0x48 /media/data_nvme/git/uboot/u-boot/build/mt7986/release/bl2/mtk_efuse.o
 .rodata.mtk_efuse_read.str1.1
                0x0000000000000000       0x27 /media/data_nvme/git/uboot/u-boot/build/mt7986/release/bl2/mtk_efuse.o
 .text.mtk_efuse_read
                0x0000000000000000       0xc8 /media/data_nvme/git/uboot/u-boot/build/mt7986/release/bl2/mtk_efuse.o
 .rodata.mtk_efuse_write.str1.1
                0x0000000000000000       0x28 /media/data_nvme/git/uboot/u-boot/build/mt7986/release/bl2/mtk_efuse.o
 .text.mtk_efuse_write
                0x0000000000000000       0xcc /media/data_nvme/git/uboot/u-boot/build/mt7986/release/bl2/mtk_efuse.o
 .text.mtk_efuse_disable
                0x0000000000000000       0x30 /media/data_nvme/git/uboot/u-boot/build/mt7986/release/bl2/mtk_efuse.o
 .bss.mtk_efuse_field
                0x0000000000000000      0x12c /media/data_nvme/git/uboot/u-boot/build/mt7986/release/bl2/mtk_efuse.o
 .rodata.__func__.0
                0x0000000000000000       0x10 /media/data_nvme/git/uboot/u-boot/build/mt7986/release/bl2/mtk_efuse.o
 .rodata.__func__.1
                0x0000000000000000        0xf /media/data_nvme/git/uboot/u-boot/build/mt7986/release/bl2/mtk_efuse.o
 .rodata.__func__.2
                0x0000000000000000       0x12 /media/data_nvme/git/uboot/u-boot/build/mt7986/release/bl2/mtk_efuse.o
 .debug_info    0x0000000000000000      0x6a3 /media/data_nvme/git/uboot/u-boot/build/mt7986/release/bl2/mtk_efuse.o
 .debug_abbrev  0x0000000000000000      0x1df /media/data_nvme/git/uboot/u-boot/build/mt7986/release/bl2/mtk_efuse.o
 .debug_loc     0x0000000000000000      0x7d5 /media/data_nvme/git/uboot/u-boot/build/mt7986/release/bl2/mtk_efuse.o
 .debug_aranges
                0x0000000000000000       0x80 /media/data_nvme/git/uboot/u-boot/build/mt7986/release/bl2/mtk_efuse.o
 .debug_ranges  0x0000000000000000       0x70 /media/data_nvme/git/uboot/u-boot/build/mt7986/release/bl2/mtk_efuse.o
 .debug_line    0x0000000000000000      0x35f /media/data_nvme/git/uboot/u-boot/build/mt7986/release/bl2/mtk_efuse.o
 .debug_str     0x0000000000000000      0x764 /media/data_nvme/git/uboot/u-boot/build/mt7986/release/bl2/mtk_efuse.o
 .comment       0x0000000000000000       0x2c /media/data_nvme/git/uboot/u-boot/build/mt7986/release/bl2/mtk_efuse.o
 .note.GNU-stack
                0x0000000000000000        0x0 /media/data_nvme/git/uboot/u-boot/build/mt7986/release/bl2/mtk_efuse.o
 .eh_frame      0x0000000000000000       0xd0 /media/data_nvme/git/uboot/u-boot/build/mt7986/release/bl2/mtk_efuse.o
 .text          0x0000000000000000        0x0 /media/data_nvme/git/uboot/u-boot/build/mt7986/release/bl2/mt_gpt.o
 .data          0x0000000000000000        0x0 /media/data_nvme/git/uboot/u-boot/build/mt7986/release/bl2/mt_gpt.o
 .bss           0x0000000000000000        0x0 /media/data_nvme/git/uboot/u-boot/build/mt7986/release/bl2/mt_gpt.o
 .text.mtk_gpt_counter_to_us
                0x0000000000000000       0x2c /media/data_nvme/git/uboot/u-boot/build/mt7986/release/bl2/mt_gpt.o
 .text.mtk_gpt_us_to_counter
                0x0000000000000000       0x28 /media/data_nvme/git/uboot/u-boot/build/mt7986/release/bl2/mt_gpt.o
 .text.mtk_gpt_udelay
                0x0000000000000000       0x44 /media/data_nvme/git/uboot/u-boot/build/mt7986/release/bl2/mt_gpt.o
 .eh_frame      0x0000000000000000       0xd0 /media/data_nvme/git/uboot/u-boot/build/mt7986/release/bl2/mt_gpt.o
 .text          0x0000000000000000        0x0 /media/data_nvme/git/uboot/u-boot/build/mt7986/release/bl2/mtk-sd.o
 .data          0x0000000000000000        0x0 /media/data_nvme/git/uboot/u-boot/build/mt7986/release/bl2/mtk-sd.o
 .bss           0x0000000000000000        0x0 /media/data_nvme/git/uboot/u-boot/build/mt7986/release/bl2/mtk-sd.o
 .eh_frame      0x0000000000000000      0x100 /media/data_nvme/git/uboot/u-boot/build/mt7986/release/bl2/mtk-sd.o
 .text          0x0000000000000000        0x0 /media/data_nvme/git/uboot/u-boot/build/mt7986/release/bl2/mtk_spi.o
 .data          0x0000000000000000        0x0 /media/data_nvme/git/uboot/u-boot/build/mt7986/release/bl2/mtk_spi.o
 .bss           0x0000000000000000        0x0 /media/data_nvme/git/uboot/u-boot/build/mt7986/release/bl2/mtk_spi.o
 .text.fdt32_to_cpu
                0x0000000000000000        0x8 /media/data_nvme/git/uboot/u-boot/build/mt7986/release/bl2/mtk_spi.o
 .text.op_is_data_dir_in
                0x0000000000000000       0x20 /media/data_nvme/git/uboot/u-boot/build/mt7986/release/bl2/mtk_spi.o
 .text.mtk_qspi_claim_bus
                0x0000000000000000        0x8 /media/data_nvme/git/uboot/u-boot/build/mt7986/release/bl2/mtk_spi.o
 .text.mtk_qspi_release_bus
                0x0000000000000000        0x4 /media/data_nvme/git/uboot/u-boot/build/mt7986/release/bl2/mtk_spi.o
 .text.mtk_qspi_set_speed
                0x0000000000000000       0x10 /media/data_nvme/git/uboot/u-boot/build/mt7986/release/bl2/mtk_spi.o
 .text.mtk_qspi_set_mode
                0x0000000000000000       0x10 /media/data_nvme/git/uboot/u-boot/build/mt7986/release/bl2/mtk_spi.o
 .text.mtk_spi_enable_transfer.constprop.0
                0x0000000000000000       0x18 /media/data_nvme/git/uboot/u-boot/build/mt7986/release/bl2/mtk_spi.o
 .text.mtk_spi_setup_packet.constprop.0
                0x0000000000000000       0x6c /media/data_nvme/git/uboot/u-boot/build/mt7986/release/bl2/mtk_spi.o
 .text.mtk_spi_prepare_transfer.constprop.0
                0x0000000000000000       0xd4 /media/data_nvme/git/uboot/u-boot/build/mt7986/release/bl2/mtk_spi.o
 .text.mtk_spi_hw_init.constprop.0
                0x0000000000000000       0xf8 /media/data_nvme/git/uboot/u-boot/build/mt7986/release/bl2/mtk_spi.o
 .text.mtk_spi_reset.constprop.0
                0x0000000000000000       0x24 /media/data_nvme/git/uboot/u-boot/build/mt7986/release/bl2/mtk_spi.o
 .text.mtk_spi_wait_for_transfer_done.constprop.0
                0x0000000000000000       0x5c /media/data_nvme/git/uboot/u-boot/build/mt7986/release/bl2/mtk_spi.o
 .text.mtk_spi_dump_reg.constprop.0
                0x0000000000000000       0x2c /media/data_nvme/git/uboot/u-boot/build/mt7986/release/bl2/mtk_spi.o
 .text.mtk_spi_log
                0x0000000000000000        0x8 /media/data_nvme/git/uboot/u-boot/build/mt7986/release/bl2/mtk_spi.o
 .rodata.mtk_spi_fifo_transfer.str1.1
                0x0000000000000000       0x63 /media/data_nvme/git/uboot/u-boot/build/mt7986/release/bl2/mtk_spi.o
 .text.mtk_spi_fifo_transfer
                0x0000000000000000      0x23c /media/data_nvme/git/uboot/u-boot/build/mt7986/release/bl2/mtk_spi.o
 .text.mtk_spi_dma_transfer
                0x0000000000000000      0x18c /media/data_nvme/git/uboot/u-boot/build/mt7986/release/bl2/mtk_spi.o
 .rodata.mtk_spi_mem_supports_op.str1.1
                0x0000000000000000       0xb2 /media/data_nvme/git/uboot/u-boot/build/mt7986/release/bl2/mtk_spi.o
 .text.mtk_spi_mem_supports_op
                0x0000000000000000      0x14c /media/data_nvme/git/uboot/u-boot/build/mt7986/release/bl2/mtk_spi.o
 .text.mtk_spi_mem_adjust_op_size
                0x0000000000000000       0x58 /media/data_nvme/git/uboot/u-boot/build/mt7986/release/bl2/mtk_spi.o
 .text.mtk_spi_mem_exec_op
                0x0000000000000000      0x2e0 /media/data_nvme/git/uboot/u-boot/build/mt7986/release/bl2/mtk_spi.o
 .text.mtk_qspi_exec_op
                0x0000000000000000       0x50 /media/data_nvme/git/uboot/u-boot/build/mt7986/release/bl2/mtk_spi.o
 .text.mtk_qspi_setup_buffer
                0x0000000000000000       0x28 /media/data_nvme/git/uboot/u-boot/build/mt7986/release/bl2/mtk_spi.o
 .rodata.mtk_qspi_init.str1.1
                0x0000000000000000       0x6e /media/data_nvme/git/uboot/u-boot/build/mt7986/release/bl2/mtk_spi.o
 .text.mtk_qspi_init
                0x0000000000000000      0x1fc /media/data_nvme/git/uboot/u-boot/build/mt7986/release/bl2/mtk_spi.o
 .bss.SPI_RXDMA_BUF
                0x0000000000000000        0x8 /media/data_nvme/git/uboot/u-boot/build/mt7986/release/bl2/mtk_spi.o
 .bss.SPI_TXDMA_BUF
                0x0000000000000000        0x8 /media/data_nvme/git/uboot/u-boot/build/mt7986/release/bl2/mtk_spi.o
 .bss.g_mdata   0x0000000000000000       0x38 /media/data_nvme/git/uboot/u-boot/build/mt7986/release/bl2/mtk_spi.o
 .bss.mem_malloced
                0x0000000000000000        0x1 /media/data_nvme/git/uboot/u-boot/build/mt7986/release/bl2/mtk_spi.o
 .bss.mtk_default_chip_info
                0x0000000000000000        0xc /media/data_nvme/git/uboot/u-boot/build/mt7986/release/bl2/mtk_spi.o
 .bss.spidev    0x0000000000000000       0x20 /media/data_nvme/git/uboot/u-boot/build/mt7986/release/bl2/mtk_spi.o
 .rodata.__func__.0
                0x0000000000000000        0xe /media/data_nvme/git/uboot/u-boot/build/mt7986/release/bl2/mtk_spi.o
 .rodata.__func__.1
                0x0000000000000000       0x14 /media/data_nvme/git/uboot/u-boot/build/mt7986/release/bl2/mtk_spi.o
 .rodata.__func__.2
                0x0000000000000000       0x18 /media/data_nvme/git/uboot/u-boot/build/mt7986/release/bl2/mtk_spi.o
 .rodata.__func__.3
                0x0000000000000000       0x15 /media/data_nvme/git/uboot/u-boot/build/mt7986/release/bl2/mtk_spi.o
 .rodata.__func__.4
                0x0000000000000000       0x16 /media/data_nvme/git/uboot/u-boot/build/mt7986/release/bl2/mtk_spi.o
 .rodata.ipm_compat
                0x0000000000000000        0x4 /media/data_nvme/git/uboot/u-boot/build/mt7986/release/bl2/mtk_spi.o
 .rodata.mtk_qspi_bus_ops
                0x0000000000000000       0x28 /media/data_nvme/git/uboot/u-boot/build/mt7986/release/bl2/mtk_spi.o
 .debug_info    0x0000000000000000     0x2a5c /media/data_nvme/git/uboot/u-boot/build/mt7986/release/bl2/mtk_spi.o
 .debug_abbrev  0x0000000000000000      0x47e /media/data_nvme/git/uboot/u-boot/build/mt7986/release/bl2/mtk_spi.o
 .debug_loc     0x0000000000000000     0x2ca4 /media/data_nvme/git/uboot/u-boot/build/mt7986/release/bl2/mtk_spi.o
 .debug_aranges
                0x0000000000000000      0x180 /media/data_nvme/git/uboot/u-boot/build/mt7986/release/bl2/mtk_spi.o
 .debug_ranges  0x0000000000000000      0x4f0 /media/data_nvme/git/uboot/u-boot/build/mt7986/release/bl2/mtk_spi.o
 .debug_line    0x0000000000000000     0x15db /media/data_nvme/git/uboot/u-boot/build/mt7986/release/bl2/mtk_spi.o
 .debug_str     0x0000000000000000      0x8eb /media/data_nvme/git/uboot/u-boot/build/mt7986/release/bl2/mtk_spi.o
 .comment       0x0000000000000000       0x2c /media/data_nvme/git/uboot/u-boot/build/mt7986/release/bl2/mtk_spi.o
 .note.GNU-stack
                0x0000000000000000        0x0 /media/data_nvme/git/uboot/u-boot/build/mt7986/release/bl2/mtk_spi.o
 .eh_frame      0x0000000000000000      0x2a0 /media/data_nvme/git/uboot/u-boot/build/mt7986/release/bl2/mtk_spi.o
 .text          0x0000000000000000        0x0 /media/data_nvme/git/uboot/u-boot/build/mt7986/release/bl2/mtk_plat_common.o
 .data          0x0000000000000000        0x0 /media/data_nvme/git/uboot/u-boot/build/mt7986/release/bl2/mtk_plat_common.o
 .bss           0x0000000000000000        0x0 /media/data_nvme/git/uboot/u-boot/build/mt7986/release/bl2/mtk_plat_common.o
 .text.clean_top_32b_of_param
                0x0000000000000000       0x28 /media/data_nvme/git/uboot/u-boot/build/mt7986/release/bl2/mtk_plat_common.o
 .text.plat_is_smccc_feature_available
                0x0000000000000000       0x14 /media/data_nvme/git/uboot/u-boot/build/mt7986/release/bl2/mtk_plat_common.o
 .text.plat_get_soc_version
                0x0000000000000000        0xc /media/data_nvme/git/uboot/u-boot/build/mt7986/release/bl2/mtk_plat_common.o
 .text.plat_get_soc_revision
                0x0000000000000000        0x8 /media/data_nvme/git/uboot/u-boot/build/mt7986/release/bl2/mtk_plat_common.o
 .debug_info    0x0000000000000000      0x1f7 /media/data_nvme/git/uboot/u-boot/build/mt7986/release/bl2/mtk_plat_common.o
 .debug_abbrev  0x0000000000000000       0xf6 /media/data_nvme/git/uboot/u-boot/build/mt7986/release/bl2/mtk_plat_common.o
 .debug_loc     0x0000000000000000       0x7a /media/data_nvme/git/uboot/u-boot/build/mt7986/release/bl2/mtk_plat_common.o
 .debug_aranges
                0x0000000000000000       0x60 /media/data_nvme/git/uboot/u-boot/build/mt7986/release/bl2/mtk_plat_common.o
 .debug_ranges  0x0000000000000000       0x50 /media/data_nvme/git/uboot/u-boot/build/mt7986/release/bl2/mtk_plat_common.o
 .debug_line    0x0000000000000000      0x123 /media/data_nvme/git/uboot/u-boot/build/mt7986/release/bl2/mtk_plat_common.o
 .debug_str     0x0000000000000000      0x2f3 /media/data_nvme/git/uboot/u-boot/build/mt7986/release/bl2/mtk_plat_common.o
 .comment       0x0000000000000000       0x2c /media/data_nvme/git/uboot/u-boot/build/mt7986/release/bl2/mtk_plat_common.o
 .note.GNU-stack
                0x0000000000000000        0x0 /media/data_nvme/git/uboot/u-boot/build/mt7986/release/bl2/mtk_plat_common.o
 .eh_frame      0x0000000000000000       0x68 /media/data_nvme/git/uboot/u-boot/build/mt7986/release/bl2/mtk_plat_common.o
 .text          0x0000000000000000        0x0 /media/data_nvme/git/uboot/u-boot/build/mt7986/release/bl2/platform_common.o
 .data          0x0000000000000000        0x0 /media/data_nvme/git/uboot/u-boot/build/mt7986/release/bl2/platform_common.o
 .bss           0x0000000000000000        0x0 /media/data_nvme/git/uboot/u-boot/build/mt7986/release/bl2/platform_common.o
 .text.plat_configure_mmu_el3
                0x0000000000000000       0x7c /media/data_nvme/git/uboot/u-boot/build/mt7986/release/bl2/platform_common.o
 .text.plat_get_syscnt_freq2
                0x0000000000000000        0xc /media/data_nvme/git/uboot/u-boot/build/mt7986/release/bl2/platform_common.o
 .rodata.plat_mmap
                0x0000000000000000      0x208 /media/data_nvme/git/uboot/u-boot/build/mt7986/release/bl2/platform_common.o
 .debug_info    0x0000000000000000      0x326 /media/data_nvme/git/uboot/u-boot/build/mt7986/release/bl2/platform_common.o
 .debug_abbrev  0x0000000000000000      0x13a /media/data_nvme/git/uboot/u-boot/build/mt7986/release/bl2/platform_common.o
 .debug_loc     0x0000000000000000      0x1d7 /media/data_nvme/git/uboot/u-boot/build/mt7986/release/bl2/platform_common.o
 .debug_aranges
                0x0000000000000000       0x40 /media/data_nvme/git/uboot/u-boot/build/mt7986/release/bl2/platform_common.o
 .debug_ranges  0x0000000000000000       0x30 /media/data_nvme/git/uboot/u-boot/build/mt7986/release/bl2/platform_common.o
 .debug_line    0x0000000000000000      0x132 /media/data_nvme/git/uboot/u-boot/build/mt7986/release/bl2/platform_common.o
 .debug_str     0x0000000000000000      0x365 /media/data_nvme/git/uboot/u-boot/build/mt7986/release/bl2/platform_common.o
 .comment       0x0000000000000000       0x2c /media/data_nvme/git/uboot/u-boot/build/mt7986/release/bl2/platform_common.o
 .note.GNU-stack
                0x0000000000000000        0x0 /media/data_nvme/git/uboot/u-boot/build/mt7986/release/bl2/platform_common.o
 .eh_frame      0x0000000000000000       0x58 /media/data_nvme/git/uboot/u-boot/build/mt7986/release/bl2/platform_common.o
 .text          0x0000000000000000        0x0 /media/data_nvme/git/uboot/u-boot/build/mt7986/release/bl2/bl2_dev_mmc.o
 .data          0x0000000000000000        0x0 /media/data_nvme/git/uboot/u-boot/build/mt7986/release/bl2/bl2_dev_mmc.o
 .bss           0x0000000000000000        0x0 /media/data_nvme/git/uboot/u-boot/build/mt7986/release/bl2/bl2_dev_mmc.o
 .eh_frame      0x0000000000000000       0x38 /media/data_nvme/git/uboot/u-boot/build/mt7986/release/bl2/bl2_dev_mmc.o
 .text          0x0000000000000000        0x0 /media/data_nvme/git/uboot/u-boot/build/mt7986/release/bl2/bl2_plat_init.o
 .data          0x0000000000000000        0x0 /media/data_nvme/git/uboot/u-boot/build/mt7986/release/bl2/bl2_plat_init.o
 .bss           0x0000000000000000        0x0 /media/data_nvme/git/uboot/u-boot/build/mt7986/release/bl2/bl2_plat_init.o
 .eh_frame      0x0000000000000000      0x108 /media/data_nvme/git/uboot/u-boot/build/mt7986/release/bl2/bl2_plat_init.o
 .text          0x0000000000000000        0x0 /media/data_nvme/git/uboot/u-boot/build/mt7986/release/bl2/emicfg.o
 .data          0x0000000000000000        0x0 /media/data_nvme/git/uboot/u-boot/build/mt7986/release/bl2/emicfg.o
 .bss           0x0000000000000000        0x0 /media/data_nvme/git/uboot/u-boot/build/mt7986/release/bl2/emicfg.o
 .eh_frame      0x0000000000000000       0x80 /media/data_nvme/git/uboot/u-boot/build/mt7986/release/bl2/emicfg.o
 .text          0x0000000000000000        0x0 /media/data_nvme/git/uboot/u-boot/build/mt7986/release/bl2/mt7986_gpio.o
 .data          0x0000000000000000        0x0 /media/data_nvme/git/uboot/u-boot/build/mt7986/release/bl2/mt7986_gpio.o
 .bss           0x0000000000000000        0x0 /media/data_nvme/git/uboot/u-boot/build/mt7986/release/bl2/mt7986_gpio.o
 .eh_frame      0x0000000000000000      0x128 /media/data_nvme/git/uboot/u-boot/build/mt7986/release/bl2/mt7986_gpio.o
 .text          0x0000000000000000        0x0 /media/data_nvme/git/uboot/u-boot/build/mt7986/release/bl2/pll.o
 .data          0x0000000000000000        0x0 /media/data_nvme/git/uboot/u-boot/build/mt7986/release/bl2/pll.o
 .bss           0x0000000000000000        0x0 /media/data_nvme/git/uboot/u-boot/build/mt7986/release/bl2/pll.o
 .eh_frame      0x0000000000000000       0x88 /media/data_nvme/git/uboot/u-boot/build/mt7986/release/bl2/pll.o
 .text          0x0000000000000000        0x0 /media/data_nvme/git/uboot/u-boot/build/mt7986/release/bl2/boot_spi.o
 .data          0x0000000000000000        0x0 /media/data_nvme/git/uboot/u-boot/build/mt7986/release/bl2/boot_spi.o
 .bss           0x0000000000000000        0x0 /media/data_nvme/git/uboot/u-boot/build/mt7986/release/bl2/boot_spi.o
 .text.mtk_spi_gpio_init
                0x0000000000000000       0x64 /media/data_nvme/git/uboot/u-boot/build/mt7986/release/bl2/boot_spi.o
 .text.mtk_spi_source_clock_select
                0x0000000000000000       0xd0 /media/data_nvme/git/uboot/u-boot/build/mt7986/release/bl2/boot_spi.o
 .debug_info    0x0000000000000000      0x524 /media/data_nvme/git/uboot/u-boot/build/mt7986/release/bl2/boot_spi.o
 .debug_abbrev  0x0000000000000000      0x174 /media/data_nvme/git/uboot/u-boot/build/mt7986/release/bl2/boot_spi.o
 .debug_loc     0x0000000000000000      0x56e /media/data_nvme/git/uboot/u-boot/build/mt7986/release/bl2/boot_spi.o
 .debug_aranges
                0x0000000000000000       0x40 /media/data_nvme/git/uboot/u-boot/build/mt7986/release/bl2/boot_spi.o
 .debug_ranges  0x0000000000000000      0x100 /media/data_nvme/git/uboot/u-boot/build/mt7986/release/bl2/boot_spi.o
 .debug_line    0x0000000000000000      0x24b /media/data_nvme/git/uboot/u-boot/build/mt7986/release/bl2/boot_spi.o
 .debug_str     0x0000000000000000      0x3ec /media/data_nvme/git/uboot/u-boot/build/mt7986/release/bl2/boot_spi.o
 .comment       0x0000000000000000       0x2c /media/data_nvme/git/uboot/u-boot/build/mt7986/release/bl2/boot_spi.o
 .note.GNU-stack
                0x0000000000000000        0x0 /media/data_nvme/git/uboot/u-boot/build/mt7986/release/bl2/boot_spi.o
 .eh_frame      0x0000000000000000       0x40 /media/data_nvme/git/uboot/u-boot/build/mt7986/release/bl2/boot_spi.o
 .text          0x0000000000000000        0x0 /media/data_nvme/git/uboot/u-boot/build/mt7986/release/bl2/timer.o
 .data          0x0000000000000000        0x0 /media/data_nvme/git/uboot/u-boot/build/mt7986/release/bl2/timer.o
 .bss           0x0000000000000000        0x0 /media/data_nvme/git/uboot/u-boot/build/mt7986/release/bl2/timer.o
 .text.basic_timer_test
                0x0000000000000000       0x9c /media/data_nvme/git/uboot/u-boot/build/mt7986/release/bl2/timer.o
 .text.get_ticks
                0x0000000000000000        0xc /media/data_nvme/git/uboot/u-boot/build/mt7986/release/bl2/timer.o
 .text.get_timer
                0x0000000000000000       0x44 /media/data_nvme/git/uboot/u-boot/build/mt7986/release/bl2/timer.o
 .text.tick_to_time
                0x0000000000000000       0x10 /media/data_nvme/git/uboot/u-boot/build/mt7986/release/bl2/timer.o
 .text.time_to_tick
                0x0000000000000000       0x10 /media/data_nvme/git/uboot/u-boot/build/mt7986/release/bl2/timer.o
 .text.__udelay
                0x0000000000000000       0x10 /media/data_nvme/git/uboot/u-boot/build/mt7986/release/bl2/timer.o
 .text.__mdelay
                0x0000000000000000       0x2c /media/data_nvme/git/uboot/u-boot/build/mt7986/release/bl2/timer.o
 .eh_frame      0x0000000000000000      0x100 /media/data_nvme/git/uboot/u-boot/build/mt7986/release/bl2/timer.o
 .text          0x0000000000000000        0x0 /media/data_nvme/git/uboot/u-boot/build/mt7986/release/bl2/mtk_wdt.o
 .data          0x0000000000000000        0x0 /media/data_nvme/git/uboot/u-boot/build/mt7986/release/bl2/mtk_wdt.o
 .bss           0x0000000000000000        0x0 /media/data_nvme/git/uboot/u-boot/build/mt7986/release/bl2/mtk_wdt.o
 .text.mtk_wdt_soft_reset
                0x0000000000000000       0x54 /media/data_nvme/git/uboot/u-boot/build/mt7986/release/bl2/mtk_wdt.o
 .eh_frame      0x0000000000000000       0x80 /media/data_nvme/git/uboot/u-boot/build/mt7986/release/bl2/mtk_wdt.o
 .text          0x0000000000000000        0x0 /media/data_nvme/git/uboot/u-boot/build/mt7986/release/bl2/bl_common.o
 .data          0x0000000000000000        0x0 /media/data_nvme/git/uboot/u-boot/build/mt7986/release/bl2/bl_common.o
 .bss           0x0000000000000000        0x0 /media/data_nvme/git/uboot/u-boot/build/mt7986/release/bl2/bl_common.o
 .text.page_align
                0x0000000000000000       0x1c /media/data_nvme/git/uboot/u-boot/build/mt7986/release/bl2/bl_common.o
 .text.get_version
                0x0000000000000000        0xc /media/data_nvme/git/uboot/u-boot/build/mt7986/release/bl2/bl_common.o
 .eh_frame      0x0000000000000000       0x80 /media/data_nvme/git/uboot/u-boot/build/mt7986/release/bl2/bl_common.o
 .text          0x0000000000000000        0x0 /media/data_nvme/git/uboot/u-boot/build/mt7986/release/bl2/tf_log.o
 .data          0x0000000000000000        0x0 /media/data_nvme/git/uboot/u-boot/build/mt7986/release/bl2/tf_log.o
 .bss           0x0000000000000000        0x0 /media/data_nvme/git/uboot/u-boot/build/mt7986/release/bl2/tf_log.o
 .text.tf_log_newline
                0x0000000000000000       0x20 /media/data_nvme/git/uboot/u-boot/build/mt7986/release/bl2/tf_log.o
 .text.tf_log_set_max_level
                0x0000000000000000       0x14 /media/data_nvme/git/uboot/u-boot/build/mt7986/release/bl2/tf_log.o
 .eh_frame      0x0000000000000000       0x68 /media/data_nvme/git/uboot/u-boot/build/mt7986/release/bl2/tf_log.o
 .text          0x0000000000000000        0x0 /media/data_nvme/git/uboot/u-boot/build/mt7986/release/bl2/multi_console.o
 .data          0x0000000000000000        0x0 /media/data_nvme/git/uboot/u-boot/build/mt7986/release/bl2/multi_console.o
 .bss           0x0000000000000000        0x0 /media/data_nvme/git/uboot/u-boot/build/mt7986/release/bl2/multi_console.o
 .text.console_unregister
                0x0000000000000000       0x34 /media/data_nvme/git/uboot/u-boot/build/mt7986/release/bl2/multi_console.o
 .text.console_switch_state
                0x0000000000000000        0xc /media/data_nvme/git/uboot/u-boot/build/mt7986/release/bl2/multi_console.o
 .text.console_set_scope
                0x0000000000000000       0x18 /media/data_nvme/git/uboot/u-boot/build/mt7986/release/bl2/multi_console.o
 .text.console_getc
                0x0000000000000000       0x78 /media/data_nvme/git/uboot/u-boot/build/mt7986/release/bl2/multi_console.o
 .eh_frame      0x0000000000000000      0x130 /media/data_nvme/git/uboot/u-boot/build/mt7986/release/bl2/multi_console.o
 .text          0x0000000000000000        0x0 /media/data_nvme/git/uboot/u-boot/build/mt7986/release/bl2/pmuv3.o
 .data          0x0000000000000000        0x0 /media/data_nvme/git/uboot/u-boot/build/mt7986/release/bl2/pmuv3.o
 .bss           0x0000000000000000        0x0 /media/data_nvme/git/uboot/u-boot/build/mt7986/release/bl2/pmuv3.o
 .text.pmuv3_enable
                0x0000000000000000        0x4 /media/data_nvme/git/uboot/u-boot/build/mt7986/release/bl2/pmuv3.o
 .text.pmuv3_disable_el3
                0x0000000000000000       0x3c /media/data_nvme/git/uboot/u-boot/build/mt7986/release/bl2/pmuv3.o
 .text.pmuv3_init_el2_unused
                0x0000000000000000       0x2c /media/data_nvme/git/uboot/u-boot/build/mt7986/release/bl2/pmuv3.o
 .debug_info    0x0000000000000000      0x503 /media/data_nvme/git/uboot/u-boot/build/mt7986/release/bl2/pmuv3.o
 .debug_abbrev  0x0000000000000000      0x235 /media/data_nvme/git/uboot/u-boot/build/mt7986/release/bl2/pmuv3.o
 .debug_loc     0x0000000000000000      0x26f /media/data_nvme/git/uboot/u-boot/build/mt7986/release/bl2/pmuv3.o
 .debug_aranges
                0x0000000000000000       0x50 /media/data_nvme/git/uboot/u-boot/build/mt7986/release/bl2/pmuv3.o
 .debug_ranges  0x0000000000000000      0x100 /media/data_nvme/git/uboot/u-boot/build/mt7986/release/bl2/pmuv3.o
 .debug_line    0x0000000000000000      0x238 /media/data_nvme/git/uboot/u-boot/build/mt7986/release/bl2/pmuv3.o
 .debug_str     0x0000000000000000      0x3d3 /media/data_nvme/git/uboot/u-boot/build/mt7986/release/bl2/pmuv3.o
 .comment       0x0000000000000000       0x2c /media/data_nvme/git/uboot/u-boot/build/mt7986/release/bl2/pmuv3.o
 .note.GNU-stack
                0x0000000000000000        0x0 /media/data_nvme/git/uboot/u-boot/build/mt7986/release/bl2/pmuv3.o
 .eh_frame      0x0000000000000000       0x50 /media/data_nvme/git/uboot/u-boot/build/mt7986/release/bl2/pmuv3.o
 .text          0x0000000000000000        0x0 /media/data_nvme/git/uboot/u-boot/build/mt7986/release/bl2/plat_bl_common.o
 .data          0x0000000000000000        0x0 /media/data_nvme/git/uboot/u-boot/build/mt7986/release/bl2/plat_bl_common.o
 .bss           0x0000000000000000        0x0 /media/data_nvme/git/uboot/u-boot/build/mt7986/release/bl2/plat_bl_common.o
 .text.plat_get_soc_version
                0x0000000000000000        0x8 /media/data_nvme/git/uboot/u-boot/build/mt7986/release/bl2/plat_bl_common.o
 .text.plat_get_soc_revision
                0x0000000000000000        0x8 /media/data_nvme/git/uboot/u-boot/build/mt7986/release/bl2/plat_bl_common.o
 .text.plat_is_smccc_feature_available
                0x0000000000000000        0x8 /media/data_nvme/git/uboot/u-boot/build/mt7986/release/bl2/plat_bl_common.o
 .text.bl2_plat_preload_setup
                0x0000000000000000        0x4 /media/data_nvme/git/uboot/u-boot/build/mt7986/release/bl2/plat_bl_common.o
 .text.bl2_plat_handle_pre_image_load
                0x0000000000000000        0x8 /media/data_nvme/git/uboot/u-boot/build/mt7986/release/bl2/plat_bl_common.o
 .text.bl2_plat_handle_post_image_load
                0x0000000000000000        0x8 /media/data_nvme/git/uboot/u-boot/build/mt7986/release/bl2/plat_bl_common.o
 .text.plat_get_enc_key_info
                0x0000000000000000       0x60 /media/data_nvme/git/uboot/u-boot/build/mt7986/release/bl2/plat_bl_common.o
 .rodata.plat_get_enc_key_info.str1.1
                0x0000000000000000       0x21 /media/data_nvme/git/uboot/u-boot/build/mt7986/release/bl2/plat_bl_common.o
 .text.setup_page_tables
                0x0000000000000000       0x28 /media/data_nvme/git/uboot/u-boot/build/mt7986/release/bl2/plat_bl_common.o
 .eh_frame      0x0000000000000000      0x118 /media/data_nvme/git/uboot/u-boot/build/mt7986/release/bl2/plat_bl_common.o
 .text          0x0000000000000000        0x0 /media/data_nvme/git/uboot/u-boot/build/mt7986/release/bl2/plat_log_common.o
 .data          0x0000000000000000        0x0 /media/data_nvme/git/uboot/u-boot/build/mt7986/release/bl2/plat_log_common.o
 .bss           0x0000000000000000        0x0 /media/data_nvme/git/uboot/u-boot/build/mt7986/release/bl2/plat_log_common.o
 .eh_frame      0x0000000000000000       0x28 /media/data_nvme/git/uboot/u-boot/build/mt7986/release/bl2/plat_log_common.o
 .text          0x0000000000000000        0x0 /media/data_nvme/git/uboot/u-boot/build/mt7986/release/bl2/plat_common.o
 .data          0x0000000000000000        0x0 /media/data_nvme/git/uboot/u-boot/build/mt7986/release/bl2/plat_common.o
 .bss           0x0000000000000000        0x0 /media/data_nvme/git/uboot/u-boot/build/mt7986/release/bl2/plat_common.o
 .text.bl31_plat_runtime_setup
                0x0000000000000000        0x8 /media/data_nvme/git/uboot/u-boot/build/mt7986/release/bl2/plat_common.o
 .text.platform_core_pos_helper
                0x0000000000000000        0x4 /media/data_nvme/git/uboot/u-boot/build/mt7986/release/bl2/plat_common.o
 .rodata.get_el_str.str1.1
                0x0000000000000000        0xc /media/data_nvme/git/uboot/u-boot/build/mt7986/release/bl2/plat_common.o
 .text.get_el_str
                0x0000000000000000       0x34 /media/data_nvme/git/uboot/u-boot/build/mt7986/release/bl2/plat_common.o
 .rodata.plat_default_ea_handler.str1.1
                0x0000000000000000       0x5c /media/data_nvme/git/uboot/u-boot/build/mt7986/release/bl2/plat_common.o
 .text.plat_default_ea_handler
                0x0000000000000000       0x68 /media/data_nvme/git/uboot/u-boot/build/mt7986/release/bl2/plat_common.o
 .debug_info    0x0000000000000000      0x3a9 /media/data_nvme/git/uboot/u-boot/build/mt7986/release/bl2/plat_common.o
 .debug_abbrev  0x0000000000000000      0x183 /media/data_nvme/git/uboot/u-boot/build/mt7986/release/bl2/plat_common.o
 .debug_loc     0x0000000000000000      0x2b3 /media/data_nvme/git/uboot/u-boot/build/mt7986/release/bl2/plat_common.o
 .debug_aranges
                0x0000000000000000       0x60 /media/data_nvme/git/uboot/u-boot/build/mt7986/release/bl2/plat_common.o
 .debug_ranges  0x0000000000000000       0x80 /media/data_nvme/git/uboot/u-boot/build/mt7986/release/bl2/plat_common.o
 .debug_line    0x0000000000000000      0x1e8 /media/data_nvme/git/uboot/u-boot/build/mt7986/release/bl2/plat_common.o
 .debug_str     0x0000000000000000      0x35b /media/data_nvme/git/uboot/u-boot/build/mt7986/release/bl2/plat_common.o
 .comment       0x0000000000000000       0x2c /media/data_nvme/git/uboot/u-boot/build/mt7986/release/bl2/plat_common.o
 .note.GNU-stack
                0x0000000000000000        0x0 /media/data_nvme/git/uboot/u-boot/build/mt7986/release/bl2/plat_common.o
 .eh_frame      0x0000000000000000       0x78 /media/data_nvme/git/uboot/u-boot/build/mt7986/release/bl2/plat_common.o
 .text          0x0000000000000000        0x0 /media/data_nvme/git/uboot/u-boot/build/mt7986/release/bl2/popcountdi2.o
 .data          0x0000000000000000        0x0 /media/data_nvme/git/uboot/u-boot/build/mt7986/release/bl2/popcountdi2.o
 .bss           0x0000000000000000        0x0 /media/data_nvme/git/uboot/u-boot/build/mt7986/release/bl2/popcountdi2.o
 .text.__popcountdi2
                0x0000000000000000       0x3c /media/data_nvme/git/uboot/u-boot/build/mt7986/release/bl2/popcountdi2.o
 .debug_info    0x0000000000000000      0x146 /media/data_nvme/git/uboot/u-boot/build/mt7986/release/bl2/popcountdi2.o
 .debug_abbrev  0x0000000000000000       0x7d /media/data_nvme/git/uboot/u-boot/build/mt7986/release/bl2/popcountdi2.o
 .debug_loc     0x0000000000000000      0x30b /media/data_nvme/git/uboot/u-boot/build/mt7986/release/bl2/popcountdi2.o
 .debug_aranges
                0x0000000000000000       0x30 /media/data_nvme/git/uboot/u-boot/build/mt7986/release/bl2/popcountdi2.o
 .debug_ranges  0x0000000000000000       0x20 /media/data_nvme/git/uboot/u-boot/build/mt7986/release/bl2/popcountdi2.o
 .debug_line    0x0000000000000000       0xf6 /media/data_nvme/git/uboot/u-boot/build/mt7986/release/bl2/popcountdi2.o
 .debug_str     0x0000000000000000      0x28b /media/data_nvme/git/uboot/u-boot/build/mt7986/release/bl2/popcountdi2.o
 .comment       0x0000000000000000       0x2c /media/data_nvme/git/uboot/u-boot/build/mt7986/release/bl2/popcountdi2.o
 .note.GNU-stack
                0x0000000000000000        0x0 /media/data_nvme/git/uboot/u-boot/build/mt7986/release/bl2/popcountdi2.o
 .eh_frame      0x0000000000000000       0x28 /media/data_nvme/git/uboot/u-boot/build/mt7986/release/bl2/popcountdi2.o
 .text          0x0000000000000000        0x0 /media/data_nvme/git/uboot/u-boot/build/mt7986/release/bl2/popcountsi2.o
 .data          0x0000000000000000        0x0 /media/data_nvme/git/uboot/u-boot/build/mt7986/release/bl2/popcountsi2.o
 .bss           0x0000000000000000        0x0 /media/data_nvme/git/uboot/u-boot/build/mt7986/release/bl2/popcountsi2.o
 .text.__popcountsi2
                0x0000000000000000       0x34 /media/data_nvme/git/uboot/u-boot/build/mt7986/release/bl2/popcountsi2.o
 .debug_info    0x0000000000000000      0x11b /media/data_nvme/git/uboot/u-boot/build/mt7986/release/bl2/popcountsi2.o
 .debug_abbrev  0x0000000000000000       0x7d /media/data_nvme/git/uboot/u-boot/build/mt7986/release/bl2/popcountsi2.o
 .debug_loc     0x0000000000000000      0x186 /media/data_nvme/git/uboot/u-boot/build/mt7986/release/bl2/popcountsi2.o
 .debug_aranges
                0x0000000000000000       0x30 /media/data_nvme/git/uboot/u-boot/build/mt7986/release/bl2/popcountsi2.o
 .debug_ranges  0x0000000000000000       0x20 /media/data_nvme/git/uboot/u-boot/build/mt7986/release/bl2/popcountsi2.o
 .debug_line    0x0000000000000000       0xc5 /media/data_nvme/git/uboot/u-boot/build/mt7986/release/bl2/popcountsi2.o
 .debug_str     0x0000000000000000      0x27b /media/data_nvme/git/uboot/u-boot/build/mt7986/release/bl2/popcountsi2.o
 .comment       0x0000000000000000       0x2c /media/data_nvme/git/uboot/u-boot/build/mt7986/release/bl2/popcountsi2.o
 .note.GNU-stack
                0x0000000000000000        0x0 /media/data_nvme/git/uboot/u-boot/build/mt7986/release/bl2/popcountsi2.o
 .eh_frame      0x0000000000000000       0x28 /media/data_nvme/git/uboot/u-boot/build/mt7986/release/bl2/popcountsi2.o
 .text          0x0000000000000000        0x0 /media/data_nvme/git/uboot/u-boot/build/mt7986/release/bl2/bl2_el3_entrypoint.o
 .data          0x0000000000000000        0x0 /media/data_nvme/git/uboot/u-boot/build/mt7986/release/bl2/bl2_el3_entrypoint.o
 .bss           0x0000000000000000        0x0 /media/data_nvme/git/uboot/u-boot/build/mt7986/release/bl2/bl2_el3_entrypoint.o
 .text          0x0000000000000000        0x0 /media/data_nvme/git/uboot/u-boot/build/mt7986/release/bl2/bl2_el3_exceptions.o
 .data          0x0000000000000000        0x0 /media/data_nvme/git/uboot/u-boot/build/mt7986/release/bl2/bl2_el3_exceptions.o
 .bss           0x0000000000000000        0x0 /media/data_nvme/git/uboot/u-boot/build/mt7986/release/bl2/bl2_el3_exceptions.o
 .text          0x0000000000000000        0x0 /media/data_nvme/git/uboot/u-boot/build/mt7986/release/bl2/bl2_run_next_image.o
 .data          0x0000000000000000        0x0 /media/data_nvme/git/uboot/u-boot/build/mt7986/release/bl2/bl2_run_next_image.o
 .bss           0x0000000000000000        0x0 /media/data_nvme/git/uboot/u-boot/build/mt7986/release/bl2/bl2_run_next_image.o
 .text          0x0000000000000000        0x0 /media/data_nvme/git/uboot/u-boot/build/mt7986/release/bl2/early_exceptions.o
 .data          0x0000000000000000        0x0 /media/data_nvme/git/uboot/u-boot/build/mt7986/release/bl2/early_exceptions.o
 .bss           0x0000000000000000        0x0 /media/data_nvme/git/uboot/u-boot/build/mt7986/release/bl2/early_exceptions.o
 .vectors       0x0000000000000000      0x800 /media/data_nvme/git/uboot/u-boot/build/mt7986/release/bl2/early_exceptions.o
 .debug_line    0x0000000000000000       0x94 /media/data_nvme/git/uboot/u-boot/build/mt7986/release/bl2/early_exceptions.o
 .debug_info    0x0000000000000000       0x28 /media/data_nvme/git/uboot/u-boot/build/mt7986/release/bl2/early_exceptions.o
 .debug_abbrev  0x0000000000000000       0x14 /media/data_nvme/git/uboot/u-boot/build/mt7986/release/bl2/early_exceptions.o
 .debug_aranges
                0x0000000000000000       0x30 /media/data_nvme/git/uboot/u-boot/build/mt7986/release/bl2/early_exceptions.o
 .debug_str     0x0000000000000000       0x50 /media/data_nvme/git/uboot/u-boot/build/mt7986/release/bl2/early_exceptions.o
 .debug_frame   0x0000000000000000      0x190 /media/data_nvme/git/uboot/u-boot/build/mt7986/release/bl2/early_exceptions.o
 .text          0x0000000000000000        0x0 /media/data_nvme/git/uboot/u-boot/build/mt7986/release/bl2/cortex_a53.o
 .data          0x0000000000000000        0x0 /media/data_nvme/git/uboot/u-boot/build/mt7986/release/bl2/cortex_a53.o
 .bss           0x0000000000000000        0x0 /media/data_nvme/git/uboot/u-boot/build/mt7986/release/bl2/cortex_a53.o
 .text.asm.cortex_a53_disable_dcache
                0x0000000000000000       0x14 /media/data_nvme/git/uboot/u-boot/build/mt7986/release/bl2/cortex_a53.o
 .text.asm.cortex_a53_disable_smp
                0x0000000000000000       0x18 /media/data_nvme/git/uboot/u-boot/build/mt7986/release/bl2/cortex_a53.o
 .text.asm.check_errata_819472
                0x0000000000000000        0x8 /media/data_nvme/git/uboot/u-boot/build/mt7986/release/bl2/cortex_a53.o
 .text.asm.check_errata_824069
                0x0000000000000000        0x8 /media/data_nvme/git/uboot/u-boot/build/mt7986/release/bl2/cortex_a53.o
 .text.asm.check_errata_827319
                0x0000000000000000        0x8 /media/data_nvme/git/uboot/u-boot/build/mt7986/release/bl2/cortex_a53.o
 .text.asm.check_errata_835769
                0x0000000000000000       0x24 /media/data_nvme/git/uboot/u-boot/build/mt7986/release/bl2/cortex_a53.o
 .text.asm.check_errata_843419
                0x0000000000000000       0x24 /media/data_nvme/git/uboot/u-boot/build/mt7986/release/bl2/cortex_a53.o
 .text.asm.check_errata_1530924
                0x0000000000000000        0x8 /media/data_nvme/git/uboot/u-boot/build/mt7986/release/bl2/cortex_a53.o
 .text.asm.cortex_a53_core_pwr_dwn
                0x0000000000000000       0x18 /media/data_nvme/git/uboot/u-boot/build/mt7986/release/bl2/cortex_a53.o
 .text.asm.cortex_a53_cluster_pwr_dwn
                0x0000000000000000       0x24 /media/data_nvme/git/uboot/u-boot/build/mt7986/release/bl2/cortex_a53.o
 .rodata.cortex_a53_regs
                0x0000000000000000       0x36 /media/data_nvme/git/uboot/u-boot/build/mt7986/release/bl2/cortex_a53.o
 .text.asm.cortex_a53_cpu_reg_dump
                0x0000000000000000       0x18 /media/data_nvme/git/uboot/u-boot/build/mt7986/release/bl2/cortex_a53.o
 .text          0x0000000000000000        0x0 /media/data_nvme/git/uboot/u-boot/build/mt7986/release/bl2/cpu_helpers.o
 .data          0x0000000000000000        0x0 /media/data_nvme/git/uboot/u-boot/build/mt7986/release/bl2/cpu_helpers.o
 .bss           0x0000000000000000        0x0 /media/data_nvme/git/uboot/u-boot/build/mt7986/release/bl2/cpu_helpers.o
 .text.asm.cpu_rev_var_range
                0x0000000000000000       0x24 /media/data_nvme/git/uboot/u-boot/build/mt7986/release/bl2/cpu_helpers.o
 .text.asm.check_wa_cve_2017_5715
                0x0000000000000000       0x20 /media/data_nvme/git/uboot/u-boot/build/mt7986/release/bl2/cpu_helpers.o
 .text.asm.wa_cve_2018_3639_get_disable_ptr
                0x0000000000000000       0x10 /media/data_nvme/git/uboot/u-boot/build/mt7986/release/bl2/cpu_helpers.o
 .text.asm.check_smccc_arch_wa3_applies
                0x0000000000000000       0x20 /media/data_nvme/git/uboot/u-boot/build/mt7986/release/bl2/cpu_helpers.o
 .text          0x0000000000000000        0x0 /media/data_nvme/git/uboot/u-boot/build/mt7986/release/bl2/dsu_helpers.o
 .data          0x0000000000000000        0x0 /media/data_nvme/git/uboot/u-boot/build/mt7986/release/bl2/dsu_helpers.o
 .bss           0x0000000000000000        0x0 /media/data_nvme/git/uboot/u-boot/build/mt7986/release/bl2/dsu_helpers.o
 .text.asm.check_errata_dsu_798953
                0x0000000000000000       0x20 /media/data_nvme/git/uboot/u-boot/build/mt7986/release/bl2/dsu_helpers.o
 .text.asm.errata_dsu_798953_wa
                0x0000000000000000       0x20 /media/data_nvme/git/uboot/u-boot/build/mt7986/release/bl2/dsu_helpers.o
 .text.asm.is_scu_present_in_dsu
                0x0000000000000000        0x8 /media/data_nvme/git/uboot/u-boot/build/mt7986/release/bl2/dsu_helpers.o
 .text.asm.check_errata_dsu_936184
                0x0000000000000000       0x38 /media/data_nvme/git/uboot/u-boot/build/mt7986/release/bl2/dsu_helpers.o
 .text.asm.errata_dsu_936184_wa
                0x0000000000000000       0x30 /media/data_nvme/git/uboot/u-boot/build/mt7986/release/bl2/dsu_helpers.o
 .text.asm.check_errata_dsu_2313941
                0x0000000000000000       0x20 /media/data_nvme/git/uboot/u-boot/build/mt7986/release/bl2/dsu_helpers.o
 .text.asm.errata_dsu_2313941_wa
                0x0000000000000000       0x20 /media/data_nvme/git/uboot/u-boot/build/mt7986/release/bl2/dsu_helpers.o
 .debug_line    0x0000000000000000       0xfc /media/data_nvme/git/uboot/u-boot/build/mt7986/release/bl2/dsu_helpers.o
 .debug_info    0x0000000000000000       0x22 /media/data_nvme/git/uboot/u-boot/build/mt7986/release/bl2/dsu_helpers.o
 .debug_abbrev  0x0000000000000000       0x12 /media/data_nvme/git/uboot/u-boot/build/mt7986/release/bl2/dsu_helpers.o
 .debug_aranges
                0x0000000000000000       0x90 /media/data_nvme/git/uboot/u-boot/build/mt7986/release/bl2/dsu_helpers.o
 .debug_str     0x0000000000000000       0x4d /media/data_nvme/git/uboot/u-boot/build/mt7986/release/bl2/dsu_helpers.o
 .debug_ranges  0x0000000000000000       0x90 /media/data_nvme/git/uboot/u-boot/build/mt7986/release/bl2/dsu_helpers.o
 .debug_frame   0x0000000000000000       0xb8 /media/data_nvme/git/uboot/u-boot/build/mt7986/release/bl2/dsu_helpers.o
 .text          0x0000000000000000        0x0 /media/data_nvme/git/uboot/u-boot/build/mt7986/release/bl2/spinlock.o
 .data          0x0000000000000000        0x0 /media/data_nvme/git/uboot/u-boot/build/mt7986/release/bl2/spinlock.o
 .bss           0x0000000000000000        0x0 /media/data_nvme/git/uboot/u-boot/build/mt7986/release/bl2/spinlock.o
 .text.asm.spin_lock
                0x0000000000000000       0x20 /media/data_nvme/git/uboot/u-boot/build/mt7986/release/bl2/spinlock.o
 .text.asm.spin_unlock
                0x0000000000000000        0x8 /media/data_nvme/git/uboot/u-boot/build/mt7986/release/bl2/spinlock.o
 .debug_line    0x0000000000000000       0x77 /media/data_nvme/git/uboot/u-boot/build/mt7986/release/bl2/spinlock.o
 .debug_info    0x0000000000000000       0x22 /media/data_nvme/git/uboot/u-boot/build/mt7986/release/bl2/spinlock.o
 .debug_abbrev  0x0000000000000000       0x12 /media/data_nvme/git/uboot/u-boot/build/mt7986/release/bl2/spinlock.o
 .debug_aranges
                0x0000000000000000       0x40 /media/data_nvme/git/uboot/u-boot/build/mt7986/release/bl2/spinlock.o
 .debug_str     0x0000000000000000       0x55 /media/data_nvme/git/uboot/u-boot/build/mt7986/release/bl2/spinlock.o
 .debug_ranges  0x0000000000000000       0x40 /media/data_nvme/git/uboot/u-boot/build/mt7986/release/bl2/spinlock.o
 .debug_frame   0x0000000000000000       0x40 /media/data_nvme/git/uboot/u-boot/build/mt7986/release/bl2/spinlock.o
 .text          0x0000000000000000        0x0 /media/data_nvme/git/uboot/u-boot/build/mt7986/release/bl2/platform_up_stack.o
 .data          0x0000000000000000        0x0 /media/data_nvme/git/uboot/u-boot/build/mt7986/release/bl2/platform_up_stack.o
 .bss           0x0000000000000000        0x0 /media/data_nvme/git/uboot/u-boot/build/mt7986/release/bl2/platform_up_stack.o
 .text.asm.plat_get_my_stack
                0x0000000000000000        0xc /media/data_nvme/git/uboot/u-boot/build/mt7986/release/bl2/platform_up_stack.o
 .text          0x0000000000000000        0x0 /media/data_nvme/git/uboot/u-boot/build/mt7986/release/bl2/hsuart.o
 .data          0x0000000000000000        0x0 /media/data_nvme/git/uboot/u-boot/build/mt7986/release/bl2/hsuart.o
 .bss           0x0000000000000000        0x0 /media/data_nvme/git/uboot/u-boot/build/mt7986/release/bl2/hsuart.o
 .text.asm.console_hsuart_lbc_init
                0x0000000000000000       0xac /media/data_nvme/git/uboot/u-boot/build/mt7986/release/bl2/hsuart.o
 .text.asm.console_hsuart_lbc_register
                0x0000000000000000       0x58 /media/data_nvme/git/uboot/u-boot/build/mt7986/release/bl2/hsuart.o
 .text          0x0000000000000000        0x0 /media/data_nvme/git/uboot/u-boot/build/mt7986/release/bl2/plat_helpers.o
 .data          0x0000000000000000        0x0 /media/data_nvme/git/uboot/u-boot/build/mt7986/release/bl2/plat_helpers.o
 .bss           0x0000000000000000        0x0 /media/data_nvme/git/uboot/u-boot/build/mt7986/release/bl2/plat_helpers.o
 .text.asm.read_cpuectlr
                0x0000000000000000        0x8 /media/data_nvme/git/uboot/u-boot/build/mt7986/release/bl2/plat_helpers.o
 .text.asm.write_cpuectlr
                0x0000000000000000        0x8 /media/data_nvme/git/uboot/u-boot/build/mt7986/release/bl2/plat_helpers.o
 .text.asm.platform_is_primary_cpu
                0x0000000000000000       0x10 /media/data_nvme/git/uboot/u-boot/build/mt7986/release/bl2/plat_helpers.o
 .text.asm.plat_my_core_pos
                0x0000000000000000       0x14 /media/data_nvme/git/uboot/u-boot/build/mt7986/release/bl2/plat_helpers.o
 .text          0x0000000000000000        0x0 /media/data_nvme/git/uboot/u-boot/build/mt7986/release/bl2/dtb.o
 .data          0x0000000000000000        0x0 /media/data_nvme/git/uboot/u-boot/build/mt7986/release/bl2/dtb.o
 .bss           0x0000000000000000        0x0 /media/data_nvme/git/uboot/u-boot/build/mt7986/release/bl2/dtb.o
 .data.dtb_data
                0x0000000000000000      0x2d0 /media/data_nvme/git/uboot/u-boot/build/mt7986/release/bl2/dtb.o
 .data.dtb_data_size
                0x0000000000000000        0x4 /media/data_nvme/git/uboot/u-boot/build/mt7986/release/bl2/dtb.o
 .text          0x0000000000000000        0x0 /media/data_nvme/git/uboot/u-boot/build/mt7986/release/bl2/debug.o
 .data          0x0000000000000000        0x0 /media/data_nvme/git/uboot/u-boot/build/mt7986/release/bl2/debug.o
 .bss           0x0000000000000000        0x0 /media/data_nvme/git/uboot/u-boot/build/mt7986/release/bl2/debug.o
 .text.asm.elx_panic
                0x0000000000000000        0x4 /media/data_nvme/git/uboot/u-boot/build/mt7986/release/bl2/debug.o
 .text          0x0000000000000000        0x0 /media/data_nvme/git/uboot/u-boot/build/mt7986/release/bl2/cache_helpers.o
 .data          0x0000000000000000        0x0 /media/data_nvme/git/uboot/u-boot/build/mt7986/release/bl2/cache_helpers.o
 .bss           0x0000000000000000        0x0 /media/data_nvme/git/uboot/u-boot/build/mt7986/release/bl2/cache_helpers.o
 .text.asm.clean_dcache_range
                0x0000000000000000       0x38 /media/data_nvme/git/uboot/u-boot/build/mt7986/release/bl2/cache_helpers.o
 .text.asm.flush_dcache_to_popa_range
                0x0000000000000000       0x38 /media/data_nvme/git/uboot/u-boot/build/mt7986/release/bl2/cache_helpers.o
 .text.asm.do_dcsw_op
                0x0000000000000000       0xfc /media/data_nvme/git/uboot/u-boot/build/mt7986/release/bl2/cache_helpers.o
 .text.asm.dcsw_op_louis
                0x0000000000000000       0x14 /media/data_nvme/git/uboot/u-boot/build/mt7986/release/bl2/cache_helpers.o
 .text.asm.dcsw_op_all
                0x0000000000000000       0x14 /media/data_nvme/git/uboot/u-boot/build/mt7986/release/bl2/cache_helpers.o
 .text.asm.dcsw_op_level1
                0x0000000000000000       0x10 /media/data_nvme/git/uboot/u-boot/build/mt7986/release/bl2/cache_helpers.o
 .text.asm.dcsw_op_level2
                0x0000000000000000       0x10 /media/data_nvme/git/uboot/u-boot/build/mt7986/release/bl2/cache_helpers.o
 .text.asm.dcsw_op_level3
                0x0000000000000000       0x10 /media/data_nvme/git/uboot/u-boot/build/mt7986/release/bl2/cache_helpers.o
 .text          0x0000000000000000        0x0 /media/data_nvme/git/uboot/u-boot/build/mt7986/release/bl2/misc_helpers.o
 .data          0x0000000000000000        0x0 /media/data_nvme/git/uboot/u-boot/build/mt7986/release/bl2/misc_helpers.o
 .bss           0x0000000000000000        0x0 /media/data_nvme/git/uboot/u-boot/build/mt7986/release/bl2/misc_helpers.o
 .text.asm.smc  0x0000000000000000        0x4 /media/data_nvme/git/uboot/u-boot/build/mt7986/release/bl2/misc_helpers.o
 .text.asm.memcpy16
                0x0000000000000000       0x30 /media/data_nvme/git/uboot/u-boot/build/mt7986/release/bl2/misc_helpers.o
 .text.asm.disable_mmu_el1
                0x0000000000000000       0x1c /media/data_nvme/git/uboot/u-boot/build/mt7986/release/bl2/misc_helpers.o
 .text.asm.disable_mmu_icache_el1
                0x0000000000000000        0x8 /media/data_nvme/git/uboot/u-boot/build/mt7986/release/bl2/misc_helpers.o
 .text.asm.fixup_gdt_reloc
                0x0000000000000000       0x98 /media/data_nvme/git/uboot/u-boot/build/mt7986/release/bl2/misc_helpers.o
 .text.asm.gpt_tlbi_by_pa_ll
                0x0000000000000000       0x10 /media/data_nvme/git/uboot/u-boot/build/mt7986/release/bl2/misc_helpers.o
 .text          0x0000000000000000        0x0 /media/data_nvme/git/uboot/u-boot/build/mt7986/release/bl2/platform_helpers.o
 .data          0x0000000000000000        0x0 /media/data_nvme/git/uboot/u-boot/build/mt7986/release/bl2/platform_helpers.o
 .bss           0x0000000000000000        0x0 /media/data_nvme/git/uboot/u-boot/build/mt7986/release/bl2/platform_helpers.o
 .text.asm.plat_disable_acp
                0x0000000000000000        0x4 /media/data_nvme/git/uboot/u-boot/build/mt7986/release/bl2/platform_helpers.o
 .text.asm.bl1_plat_prepare_exit
                0x0000000000000000        0x4 /media/data_nvme/git/uboot/u-boot/build/mt7986/release/bl2/platform_helpers.o
 .text.asm.bl31_plat_enable_mmu
                0x0000000000000000        0x4 /media/data_nvme/git/uboot/u-boot/build/mt7986/release/bl2/platform_helpers.o
 .text.asm.bl32_plat_enable_mmu
                0x0000000000000000        0x4 /media/data_nvme/git/uboot/u-boot/build/mt7986/release/bl2/platform_helpers.o
 .text.asm.plat_handle_uncontainable_ea
                0x0000000000000000        0x4 /media/data_nvme/git/uboot/u-boot/build/mt7986/release/bl2/platform_helpers.o
 .text.asm.plat_handle_double_fault
                0x0000000000000000        0x4 /media/data_nvme/git/uboot/u-boot/build/mt7986/release/bl2/platform_helpers.o
 .text.asm.plat_handle_el3_ea
                0x0000000000000000        0x4 /media/data_nvme/git/uboot/u-boot/build/mt7986/release/bl2/platform_helpers.o
 .text          0x0000000000000000        0x0 plat/mediatek/mt7986/drivers/dram/release/dram.o
 .text.dram_clear
                0x0000000000000000       0x18 plat/mediatek/mt7986/drivers/dram/release/dram.o
 .text.cpu_mem_test_pattern_write
                0x0000000000000000       0x20 plat/mediatek/mt7986/drivers/dram/release/dram.o
 .text.cpu_mem_test_pattern_check
                0x0000000000000000       0xcc plat/mediatek/mt7986/drivers/dram/release/dram.o
 .text.wdt_reset_enable
                0x0000000000000000       0x50 plat/mediatek/mt7986/drivers/dram/release/dram.o
 .text.ANA_sequence_shuffle_colletion
                0x0000000000000000      0x320 plat/mediatek/mt7986/drivers/dram/release/dram.o
 .text.DPI_ANA_init
                0x0000000000000000        0xc plat/mediatek/mt7986/drivers/dram/release/dram.o
 .text.DRAMC_DMA_CONF_to_SRAM
                0x0000000000000000      0x180 plat/mediatek/mt7986/drivers/dram/release/dram.o
 .text.DRAMC_DMA_CONF_to_SRAM_sudo
                0x0000000000000000        0x4 plat/mediatek/mt7986/drivers/dram/release/dram.o
 .text.RX_INTPUT_Config
                0x0000000000000000      0x46c plat/mediatek/mt7986/drivers/dram/release/dram.o
 .text.DVFS_config
                0x0000000000000000        0x4 plat/mediatek/mt7986/drivers/dram/release/dram.o
 .text.DVFS_PRE_config
                0x0000000000000000        0x4 plat/mediatek/mt7986/drivers/dram/release/dram.o
 .text.DPI_DIG_init
                0x0000000000000000        0xc plat/mediatek/mt7986/drivers/dram/release/dram.o
 .text.DIG_CONFIG_SHUF_IMP
                0x0000000000000000      0x1f4 plat/mediatek/mt7986/drivers/dram/release/dram.o
 .text.DIG_CONFIG_SHUF_RXINPUT
                0x0000000000000000      0x1ac plat/mediatek/mt7986/drivers/dram/release/dram.o
 .text.DIG_CONFIG_SHUF_DQSGRETRY
                0x0000000000000000       0xf8 plat/mediatek/mt7986/drivers/dram/release/dram.o
 .text.DIG_CONFIG_SHUF_CG_CTRL
                0x0000000000000000      0x198 plat/mediatek/mt7986/drivers/dram/release/dram.o
 .text.DIG_CONFIG_SHUF_PRECAL
                0x0000000000000000        0x4 plat/mediatek/mt7986/drivers/dram/release/dram.o
 .text.DIG_CONFIG_SHUF_DVFSWLRL
                0x0000000000000000        0x4 plat/mediatek/mt7986/drivers/dram/release/dram.o
 .text.DIG_CONFIG_DVFS_DEPENDENCE
                0x0000000000000000        0x4 plat/mediatek/mt7986/drivers/dram/release/dram.o
 .text.Special_post_operation
                0x0000000000000000       0xdc plat/mediatek/mt7986/drivers/dram/release/dram.o
 .text.DIG_CONFIG_SHUF_init
                0x0000000000000000       0x30 plat/mediatek/mt7986/drivers/dram/release/dram.o
 .text.OTHER_GP_INIT
                0x0000000000000000      0x100 plat/mediatek/mt7986/drivers/dram/release/dram.o
 .text.DPI_OTHER_GP_INIT
                0x0000000000000000      0x11c plat/mediatek/mt7986/drivers/dram/release/dram.o
 .text.Round_Operation
                0x0000000000000000       0x3c plat/mediatek/mt7986/drivers/dram/release/dram.o
 .text.TX_Path_Algorithm
                0x0000000000000000      0x114 plat/mediatek/mt7986/drivers/dram/release/dram.o
 .text.DPI_entry_DUT_top_set
                0x0000000000000000     0x14b0 plat/mediatek/mt7986/drivers/dram/release/dram.o
 .text.DPI_entry_DUT_shuf_config
                0x0000000000000000      0x450 plat/mediatek/mt7986/drivers/dram/release/dram.o
 .text.DPI_entry_HW_FUNC_enable
                0x0000000000000000      0x154 plat/mediatek/mt7986/drivers/dram/release/dram.o
 .text.api_initial
                0x0000000000000000       0x40 plat/mediatek/mt7986/drivers/dram/release/dram.o
 .text.DPI_DRAMC_init_entry
                0x0000000000000000       0x40 plat/mediatek/mt7986/drivers/dram/release/dram.o
 .text.DPI_DRAM_INIT
                0x0000000000000000       0xdc plat/mediatek/mt7986/drivers/dram/release/dram.o
 .text.DPI_POST_DCM_setting
                0x0000000000000000       0x88 plat/mediatek/mt7986/drivers/dram/release/dram.o
 .text.Init_Config_DRAM_CTX
                0x0000000000000000       0xc8 plat/mediatek/mt7986/drivers/dram/release/dram.o
 .text.DPI_md32_init
                0x0000000000000000       0x64 plat/mediatek/mt7986/drivers/dram/release/dram.o
 .text.DPI_DramcSwImpedanceCal
                0x0000000000000000        0xc plat/mediatek/mt7986/drivers/dram/release/dram.o
 .text.DPI_SA_Init1
                0x0000000000000000       0x28 plat/mediatek/mt7986/drivers/dram/release/dram.o
 .text.DPI_SA_Init2
                0x0000000000000000        0xc plat/mediatek/mt7986/drivers/dram/release/dram.o
 .text.DPI_SA_CalibrationAllFreq
                0x0000000000000000       0x40 plat/mediatek/mt7986/drivers/dram/release/dram.o
 .text.DPI_Init_DRAM
                0x0000000000000000       0x48 plat/mediatek/mt7986/drivers/dram/release/dram.o
 .text.WaitChShuEnAck.constprop.0
                0x0000000000000000       0xbc plat/mediatek/mt7986/drivers/dram/release/dram.o
 .text.vSetDFSFreqSelByTable
                0x0000000000000000       0x2c plat/mediatek/mt7986/drivers/dram/release/dram.o
 .text.get_FreqTbl_by_freqsel
                0x0000000000000000       0x30 plat/mediatek/mt7986/drivers/dram/release/dram.o
 .text.get_FreqTbl_by_shuffleIndex
                0x0000000000000000       0x34 plat/mediatek/mt7986/drivers/dram/release/dram.o
 .text.EnableDFSHwModeClk
                0x0000000000000000       0x44 plat/mediatek/mt7986/drivers/dram/release/dram.o
 .text.DVFSSettings
                0x0000000000000000      0x194 plat/mediatek/mt7986/drivers/dram/release/dram.o
 .text.EnableDramcTrackingByShuffle
                0x0000000000000000       0x90 plat/mediatek/mt7986/drivers/dram/release/dram.o
 .text.EnableDramcTrackingBySPMControl
                0x0000000000000000       0x24 plat/mediatek/mt7986/drivers/dram/release/dram.o
 .text.TransferToRegControl
                0x0000000000000000        0x4 plat/mediatek/mt7986/drivers/dram/release/dram.o
 .text.TransferToSPMControl
                0x0000000000000000        0x4 plat/mediatek/mt7986/drivers/dram/release/dram.o
 .text.DPMEnableTracking
                0x0000000000000000       0x1c plat/mediatek/mt7986/drivers/dram/release/dram.o
 .text.DPMInit  0x0000000000000000      0x160 plat/mediatek/mt7986/drivers/dram/release/dram.o
 .text.TransferPLLToSPMControl
                0x0000000000000000       0x70 plat/mediatek/mt7986/drivers/dram/release/dram.o
 .text.vGet_Current_SRAMShuLevel
                0x0000000000000000       0x20 plat/mediatek/mt7986/drivers/dram/release/dram.o
 .text.DramcSaveToShuffleSRAM
                0x0000000000000000      0x1fc plat/mediatek/mt7986/drivers/dram/release/dram.o
 .text.LoadShuffleSRAMtoDramc
                0x0000000000000000      0x1e4 plat/mediatek/mt7986/drivers/dram/release/dram.o
 .text.DramcDFSDirectJump_SRAMShuRGMode
                0x0000000000000000      0x354 plat/mediatek/mt7986/drivers/dram/release/dram.o
 .text.DramcDFSDirectJump_RGMode
                0x0000000000000000      0x204 plat/mediatek/mt7986/drivers/dram/release/dram.o
 .text.DramcDFSDirectJump_SPMMode
                0x0000000000000000      0x398 plat/mediatek/mt7986/drivers/dram/release/dram.o
 .text.DramcDFSDirectJump
                0x0000000000000000       0x10 plat/mediatek/mt7986/drivers/dram/release/dram.o
 .text.No_Parking_On_CLRPLL
                0x0000000000000000       0x14 plat/mediatek/mt7986/drivers/dram/release/dram.o
 .text._u4Dram_Register_Read
                0x0000000000000000       0x10 plat/mediatek/mt7986/drivers/dram/release/dram.o
 .text._ucDram_Register_Write
                0x0000000000000000       0x10 plat/mediatek/mt7986/drivers/dram/release/dram.o
 .text.set_psra
                0x0000000000000000        0xc plat/mediatek/mt7986/drivers/dram/release/dram.o
 .text.get_psra
                0x0000000000000000        0xc plat/mediatek/mt7986/drivers/dram/release/dram.o
 .text.print_sv_args
                0x0000000000000000      0x3b8 plat/mediatek/mt7986/drivers/dram/release/dram.o
 .text.valid_magic
                0x0000000000000000       0x18 plat/mediatek/mt7986/drivers/dram/release/dram.o
 .text.set_type_freq_by_svargs
                0x0000000000000000      0x1c0 plat/mediatek/mt7986/drivers/dram/release/dram.o
 .text.get_max_val_form_2dim
                0x0000000000000000       0x2c plat/mediatek/mt7986/drivers/dram/release/dram.o
 .text.get_min_val_form_2dim
                0x0000000000000000       0x2c plat/mediatek/mt7986/drivers/dram/release/dram.o
 .text.DRAMC_HW_FUNC_REF_CTRL_T_config
                0x0000000000000000       0x24 plat/mediatek/mt7986/drivers/dram/release/dram.o
 .text.DIG_HW_NONSHUF_REF_CFG
                0x0000000000000000      0x218 plat/mediatek/mt7986/drivers/dram/release/dram.o
 .text.DIG_HW_SHUF_REF_CFG
                0x0000000000000000      0x160 plat/mediatek/mt7986/drivers/dram/release/dram.o
 .text.DIG_HW_NONSHUF_REF_SWITCH
                0x0000000000000000      0x218 plat/mediatek/mt7986/drivers/dram/release/dram.o
 .text.DIG_HW_SHUF_REF_SWITCH
                0x0000000000000000       0x80 plat/mediatek/mt7986/drivers/dram/release/dram.o
 .text.DRAMC_HW_FUNC_REFR_CTRL_config
                0x0000000000000000       0x38 plat/mediatek/mt7986/drivers/dram/release/dram.o
 .text.DIG_HW_NONSHUF_REFR_CFG
                0x0000000000000000      0x128 plat/mediatek/mt7986/drivers/dram/release/dram.o
 .text.DIG_HW_SHUF_REFR_CFG
                0x0000000000000000       0x98 plat/mediatek/mt7986/drivers/dram/release/dram.o
 .text.DIG_HW_NONSHUF_REFR_SWITCH
                0x0000000000000000       0x7c plat/mediatek/mt7986/drivers/dram/release/dram.o
 .text.DIG_HW_SHUF_REFR_SWITCH
                0x0000000000000000       0x80 plat/mediatek/mt7986/drivers/dram/release/dram.o
 .text.DIG_HW_SHUF_ZQCAL_SWITCH
                0x0000000000000000        0x4 plat/mediatek/mt7986/drivers/dram/release/dram.o
 .text.print_HW_DQSOSC_CTRL
                0x0000000000000000      0x2e4 plat/mediatek/mt7986/drivers/dram/release/dram.o
 .text.DIG_HW_NONSHUF_DQSOSC_CFG
                0x0000000000000000      0x280 plat/mediatek/mt7986/drivers/dram/release/dram.o
 .text.DIG_HW_SHUF_DQSOSC_CFG
                0x0000000000000000      0x2bc plat/mediatek/mt7986/drivers/dram/release/dram.o
 .text.DIG_HW_NONSHUF_DQSOSC_SWITCH
                0x0000000000000000       0x8c plat/mediatek/mt7986/drivers/dram/release/dram.o
 .text.DIG_HW_SHUF_DQSOSC_SWITCH
                0x0000000000000000        0x4 plat/mediatek/mt7986/drivers/dram/release/dram.o
 .text.ESL_DPHY_FPGA_TX_settings
                0x0000000000000000       0xa4 plat/mediatek/mt7986/drivers/dram/release/dram.o
 .text.ESL_DPHY_FPGA_RX_settings
                0x0000000000000000       0xe8 plat/mediatek/mt7986/drivers/dram/release/dram.o
 .text.get_row_width_by_emi
                0x0000000000000000       0x54 plat/mediatek/mt7986/drivers/dram/release/dram.o
 .text.set_cen_emi_cona
                0x0000000000000000       0x14 plat/mediatek/mt7986/drivers/dram/release/dram.o
 .text.set_cen_emi_conf
                0x0000000000000000       0x14 plat/mediatek/mt7986/drivers/dram/release/dram.o
 .text.set_cen_emi_conh
                0x0000000000000000       0x14 plat/mediatek/mt7986/drivers/dram/release/dram.o
 .text.set_chn_emi_cona
                0x0000000000000000       0x20 plat/mediatek/mt7986/drivers/dram/release/dram.o
 .text.set_chn_emi_conc
                0x0000000000000000       0x20 plat/mediatek/mt7986/drivers/dram/release/dram.o
 .text.get_rank_nr_by_emi
                0x0000000000000000       0x20 plat/mediatek/mt7986/drivers/dram/release/dram.o
 .text.check_gating_error
                0x0000000000000000        0x8 plat/mediatek/mt7986/drivers/dram/release/dram.o
 .text.print_DBG_info
                0x0000000000000000       0x34 plat/mediatek/mt7986/drivers/dram/release/dram.o
 .text.mt_get_freq_setting
                0x0000000000000000        0x8 plat/mediatek/mt7986/drivers/dram/release/dram.o
 .text.dramc_set_vdram_voltage
                0x0000000000000000        0x8 plat/mediatek/mt7986/drivers/dram/release/dram.o
 .text.dramc_set_vddq_voltage
                0x0000000000000000        0x8 plat/mediatek/mt7986/drivers/dram/release/dram.o
 .text.dramc_set_vmddr_voltage
                0x0000000000000000        0x8 plat/mediatek/mt7986/drivers/dram/release/dram.o
 .text.dramc_set_vio18_voltage
                0x0000000000000000        0x8 plat/mediatek/mt7986/drivers/dram/release/dram.o
 .text.is_discrete_lpddr4
                0x0000000000000000       0x44 plat/mediatek/mt7986/drivers/dram/release/dram.o
 .text.setup_dramc_voltage_by_pmic
                0x0000000000000000        0x4 plat/mediatek/mt7986/drivers/dram/release/dram.o
 .text.switch_dramc_voltage_to_auto_mode
                0x0000000000000000        0x4 plat/mediatek/mt7986/drivers/dram/release/dram.o
 .text.DRAM_MRR
                0x0000000000000000       0x2c plat/mediatek/mt7986/drivers/dram/release/dram.o
 .text.get_dram_channel_support_nr
                0x0000000000000000        0x8 plat/mediatek/mt7986/drivers/dram/release/dram.o
 .text.get_dram_mr_cnt
                0x0000000000000000        0x8 plat/mediatek/mt7986/drivers/dram/release/dram.o
 .text.get_dram_freq_cnt
                0x0000000000000000        0x8 plat/mediatek/mt7986/drivers/dram/release/dram.o
 .text.get_dram_rank_size
                0x0000000000000000        0x4 plat/mediatek/mt7986/drivers/dram/release/dram.o
 .text.get_dram_freq_step
                0x0000000000000000       0x74 plat/mediatek/mt7986/drivers/dram/release/dram.o
 .text.set_dram_mr
                0x0000000000000000        0x4 plat/mediatek/mt7986/drivers/dram/release/dram.o
 .text.get_dram_mr
                0x0000000000000000        0x8 plat/mediatek/mt7986/drivers/dram/release/dram.o
 .text.get_dram_mr_info
                0x0000000000000000        0x4 plat/mediatek/mt7986/drivers/dram/release/dram.o
 .text.freq_table_are_all_3094
                0x0000000000000000       0x88 plat/mediatek/mt7986/drivers/dram/release/dram.o
 .text.freq_table_are_all_1534
                0x0000000000000000       0x88 plat/mediatek/mt7986/drivers/dram/release/dram.o
 .text.freq_table_opp0_3733_others_3094
                0x0000000000000000       0x90 plat/mediatek/mt7986/drivers/dram/release/dram.o
 .text.freq_table_opp0_3094_others_1534
                0x0000000000000000       0x90 plat/mediatek/mt7986/drivers/dram/release/dram.o
 .text.freq_table_opp0_2400_others_1534
                0x0000000000000000       0x90 plat/mediatek/mt7986/drivers/dram/release/dram.o
 .text.put_dummy_read_pattern
                0x0000000000000000       0x60 plat/mediatek/mt7986/drivers/dram/release/dram.o
 .text.get_dramc_addr
                0x0000000000000000      0x104 plat/mediatek/mt7986/drivers/dram/release/dram.o
 .text.reserve_dramc_dummy_read
                0x0000000000000000       0xac plat/mediatek/mt7986/drivers/dram/release/dram.o
 .text.get_dummy_read_addr
                0x0000000000000000        0x8 plat/mediatek/mt7986/drivers/dram/release/dram.o
 .text.get_ta2_addr
                0x0000000000000000       0x20 plat/mediatek/mt7986/drivers/dram/release/dram.o
 .text.init_ta2_single_channel
                0x0000000000000000      0x190 plat/mediatek/mt7986/drivers/dram/release/dram.o
 .text.u1IsLP4Family
                0x0000000000000000        0xc plat/mediatek/mt7986/drivers/dram/release/dram.o
 .text.is_lp5_family
                0x0000000000000000       0x10 plat/mediatek/mt7986/drivers/dram/release/dram.o
 .text.is_heff_mode
                0x0000000000000000       0x28 plat/mediatek/mt7986/drivers/dram/release/dram.o
 .text.lp5heff_save_disable
                0x0000000000000000       0x80 plat/mediatek/mt7986/drivers/dram/release/dram.o
 .text.lp5heff_restore
                0x0000000000000000       0x60 plat/mediatek/mt7986/drivers/dram/release/dram.o
 .text.vSetFSPNumber
                0x0000000000000000        0xc plat/mediatek/mt7986/drivers/dram/release/dram.o
 .text.setFreqGroup
                0x0000000000000000       0x9c plat/mediatek/mt7986/drivers/dram/release/dram.o
 .text.DDRPhyFMeter
                0x0000000000000000        0xc plat/mediatek/mt7986/drivers/dram/release/dram.o
 .text.vSet_Current_ShuLevel
                0x0000000000000000        0xc plat/mediatek/mt7986/drivers/dram/release/dram.o
 .text.vGet_Dram_CBT_Mode
                0x0000000000000000       0x34 plat/mediatek/mt7986/drivers/dram/release/dram.o
 .text.GetFreqBySel
                0x0000000000000000       0xb0 plat/mediatek/mt7986/drivers/dram/release/dram.o
 .text.GetSelByFreq
                0x0000000000000000       0xc8 plat/mediatek/mt7986/drivers/dram/release/dram.o
 .text.DDRPhyFreqSel
                0x0000000000000000       0x5c plat/mediatek/mt7986/drivers/dram/release/dram.o
 .text.u2DFSGetHighestFreq
                0x0000000000000000       0x90 plat/mediatek/mt7986/drivers/dram/release/dram.o
 .text.DramcWriteDBIOnOff
                0x0000000000000000       0x50 plat/mediatek/mt7986/drivers/dram/release/dram.o
 .text.DramcReadDBIOnOff
                0x0000000000000000       0x78 plat/mediatek/mt7986/drivers/dram/release/dram.o
 .text.DramCLKAlwaysOnOff
                0x0000000000000000       0x24 plat/mediatek/mt7986/drivers/dram/release/dram.o
 .text.AutoRefreshCKEOff
                0x0000000000000000       0x60 plat/mediatek/mt7986/drivers/dram/release/dram.o
 .text.TestEngineCompare
                0x0000000000000000       0xec plat/mediatek/mt7986/drivers/dram/release/dram.o
 .text.TA2_Test_Run_Time_HW_Read
                0x0000000000000000       0x84 plat/mediatek/mt7986/drivers/dram/release/dram.o
 .text.TA2_Test_Run_Time_Stop_Loop_Mode
                0x0000000000000000      0x16c plat/mediatek/mt7986/drivers/dram/release/dram.o
 .text.TA2_Test_Run_Time_Start_Loop_Mode
                0x0000000000000000       0x70 plat/mediatek/mt7986/drivers/dram/release/dram.o
 .text.TA2_Test_Run_Time_Err_Status
                0x0000000000000000       0xb8 plat/mediatek/mt7986/drivers/dram/release/dram.o
 .text.Temp_TA2_Test_After_K
                0x0000000000000000       0x44 plat/mediatek/mt7986/drivers/dram/release/dram.o
 .text.DramcModeRegRead
                0x0000000000000000       0xf0 plat/mediatek/mt7986/drivers/dram/release/dram.o
 .text.DramcModeRegReadByRank
                0x0000000000000000       0x9c plat/mediatek/mt7986/drivers/dram/release/dram.o
 .text.DramcModeRegWriteByRank_RTMRW
                0x0000000000000000      0x24c plat/mediatek/mt7986/drivers/dram/release/dram.o
 .text.DramcModeRegWriteByRank_RTSWCMD_MRW
                0x0000000000000000      0x178 plat/mediatek/mt7986/drivers/dram/release/dram.o
 .text.DramcModeRegWriteByRank_SCSM
                0x0000000000000000      0x1a0 plat/mediatek/mt7986/drivers/dram/release/dram.o
 .text.DramcModeRegWriteByRank
                0x0000000000000000       0x58 plat/mediatek/mt7986/drivers/dram/release/dram.o
 .text.SetDramModeRegForWriteDBIOnOff
                0x0000000000000000       0x2c plat/mediatek/mt7986/drivers/dram/release/dram.o
 .text.u1GetMR4RefreshRate
                0x0000000000000000       0x24 plat/mediatek/mt7986/drivers/dram/release/dram.o
 .text.TA2_Test_Run_Time_SW_Presetting
                0x0000000000000000       0xf0 plat/mediatek/mt7986/drivers/dram/release/dram.o
 .text.vGet_Current_SRAMIdx
                0x0000000000000000        0xc plat/mediatek/mt7986/drivers/dram/release/dram.o
 .text.DDRPhyGetRealFreq
                0x0000000000000000       0x70 plat/mediatek/mt7986/drivers/dram/release/dram.o
 .text.MD32_DLL_ALL_SLAVE_EN_SET
                0x0000000000000000      0x164 plat/mediatek/mt7986/drivers/dram/release/dram.o
 .text.MD32_LPIF_LOW_POWER_CFG_LOAD
                0x0000000000000000      0x4fc plat/mediatek/mt7986/drivers/dram/release/dram.o
 .text.MD32_MODE_choose
                0x0000000000000000       0x44 plat/mediatek/mt7986/drivers/dram/release/dram.o
 .text.MD32_DFS_PRE
                0x0000000000000000      0x6a0 plat/mediatek/mt7986/drivers/dram/release/dram.o
 .text.MD32_LP_PREPARE
                0x0000000000000000       0x60 plat/mediatek/mt7986/drivers/dram/release/dram.o
 .text.MD32_config
                0x0000000000000000       0xb0 plat/mediatek/mt7986/drivers/dram/release/dram.o
 .text.vGetVoltage
                0x0000000000000000        0x8 plat/mediatek/mt7986/drivers/dram/release/dram.o
 .text.Set_PRE_MIOCK_JMETER_HQA_USED_flag
                0x0000000000000000        0xc plat/mediatek/mt7986/drivers/dram/release/dram.o
 .text.Get_PRE_MIOCK_JMETER_HQA_USED_flag
                0x0000000000000000        0xc plat/mediatek/mt7986/drivers/dram/release/dram.o
 .text.mem_test_address_calculation
                0x0000000000000000       0x10 plat/mediatek/mt7986/drivers/dram/release/dram.o
 .text.UpdateGlobal10GBEnVariables
                0x0000000000000000        0x4 plat/mediatek/mt7986/drivers/dram/release/dram.o
 .text.GetDramInforAfterCalByMRR
                0x0000000000000000        0x8 plat/mediatek/mt7986/drivers/dram/release/dram.o
 .text.Set_MDL_Used_Flag
                0x0000000000000000        0xc plat/mediatek/mt7986/drivers/dram/release/dram.o
 .text.Init_DramcCalibrationAllFreq
                0x0000000000000000        0x4 plat/mediatek/mt7986/drivers/dram/release/dram.o
 .text.XRTWTW_SHU_Setting
                0x0000000000000000      0x1a4 plat/mediatek/mt7986/drivers/dram/release/dram.o
 .text.vDramcInit_PreSettings
                0x0000000000000000        0x4 plat/mediatek/mt7986/drivers/dram/release/dram.o
 .text.DramcInit
                0x0000000000000000        0x8 plat/mediatek/mt7986/drivers/dram/release/dram.o
 .text.DramcCKEDebounce
                0x0000000000000000       0xb0 plat/mediatek/mt7986/drivers/dram/release/dram.o
 .text.S0_DCMOffWA
                0x0000000000000000       0x14 plat/mediatek/mt7986/drivers/dram/release/dram.o
 .text.RunTime_SW_Cmd
                0x0000000000000000      0x11c plat/mediatek/mt7986/drivers/dram/release/dram.o
 .text.DramcDutyCycleMonitor
                0x0000000000000000       0x7c plat/mediatek/mt7986/drivers/dram/release/dram.o
 .text.ZQ_SWCMD_MODE_Cal
                0x0000000000000000      0x2cc plat/mediatek/mt7986/drivers/dram/release/dram.o
 .text.DramcZQCalibration
                0x0000000000000000        0x4 plat/mediatek/mt7986/drivers/dram/release/dram.o
 .text.WDQSMode2AcTxOEShift
                0x0000000000000000       0x98 plat/mediatek/mt7986/drivers/dram/release/dram.o
 .text.DramcWriteShiftMCKForWriteDBI
                0x0000000000000000       0x38 plat/mediatek/mt7986/drivers/dram/release/dram.o
 .text.PCDDR_GetSelByFreq
                0x0000000000000000      0x174 plat/mediatek/mt7986/drivers/dram/release/dram.o
 .text.DFS_Freq_Meter_Check
                0x0000000000000000      0x124 plat/mediatek/mt7986/drivers/dram/release/dram.o
 .text.SLT_Test_Main_Flow
                0x0000000000000000        0x4 plat/mediatek/mt7986/drivers/dram/release/dram.o
 .text.SEDA_loopback_check
                0x0000000000000000      0x21c plat/mediatek/mt7986/drivers/dram/release/dram.o
 .text.DramcPrintHWGatingStatus
                0x0000000000000000      0x258 plat/mediatek/mt7986/drivers/dram/release/dram.o
 .text.DramcHWGatingTrackingRecord
                0x0000000000000000        0x4 plat/mediatek/mt7986/drivers/dram/release/dram.o
 .text.HQA_LOG_Parsing_Freq
                0x0000000000000000       0x34 plat/mediatek/mt7986/drivers/dram/release/dram.o
 .text.HQA_LOG_Print_Prefix_String
                0x0000000000000000       0x2c plat/mediatek/mt7986/drivers/dram/release/dram.o
 .text.HQA_LOG_Print_Freq_String
                0x0000000000000000       0x2c plat/mediatek/mt7986/drivers/dram/release/dram.o
 .text.EYESCAN_LOG_Print_Prefix_String
                0x0000000000000000        0xc plat/mediatek/mt7986/drivers/dram/release/dram.o
 .text.print_EYESCAN_LOG_type
                0x0000000000000000       0x30 plat/mediatek/mt7986/drivers/dram/release/dram.o
 .text.DramcDumpDebugInfo
                0x0000000000000000      0x144 plat/mediatek/mt7986/drivers/dram/release/dram.o
 .text.DramcModeReg_Check
                0x0000000000000000        0x4 plat/mediatek/mt7986/drivers/dram/release/dram.o
 .text.EnableDllCg
                0x0000000000000000       0x60 plat/mediatek/mt7986/drivers/dram/release/dram.o
 .text.DDR800semiPowerSavingOn
                0x0000000000000000        0x4 plat/mediatek/mt7986/drivers/dram/release/dram.o
 .text.ASVA5_8_IPMV2
                0x0000000000000000      0x120 plat/mediatek/mt7986/drivers/dram/release/dram.o
 .text.dump_SR  0x0000000000000000       0x90 plat/mediatek/mt7986/drivers/dram/release/dram.o
 .text.patch_to_before_k
                0x0000000000000000        0x4 plat/mediatek/mt7986/drivers/dram/release/dram.o
 .rodata.cpu_mem_test_pattern_check.str1.1
                0x0000000000000000       0x9f plat/mediatek/mt7986/drivers/dram/release/dram.o
 .rodata.wdt_reset_enable.str1.1
                0x0000000000000000       0x2e plat/mediatek/mt7986/drivers/dram/release/dram.o
 .rodata.DRAMC_DMA_CONF_to_SRAM.str1.1
                0x0000000000000000       0xea plat/mediatek/mt7986/drivers/dram/release/dram.o
 .rodata.RX_INTPUT_Config.str1.1
                0x0000000000000000       0x42 plat/mediatek/mt7986/drivers/dram/release/dram.o
 .rodata.DIG_CONFIG_SHUF_IMP.str1.1
                0x0000000000000000       0x90 plat/mediatek/mt7986/drivers/dram/release/dram.o
 .rodata.DIG_CONFIG_SHUF_RXINPUT.str1.1
                0x0000000000000000       0x90 plat/mediatek/mt7986/drivers/dram/release/dram.o
 .rodata.DIG_CONFIG_SHUF_DQSGRETRY.str1.1
                0x0000000000000000       0x66 plat/mediatek/mt7986/drivers/dram/release/dram.o
 .rodata.DPI_OTHER_GP_INIT.str1.1
                0x0000000000000000      0x17e plat/mediatek/mt7986/drivers/dram/release/dram.o
 .rodata.DPI_entry_DUT_top_set.str1.1
                0x0000000000000000     0x205b plat/mediatek/mt7986/drivers/dram/release/dram.o
 .rodata.DPI_entry_DUT_shuf_config.str1.1
                0x0000000000000000      0xbc3 plat/mediatek/mt7986/drivers/dram/release/dram.o
 .rodata.DPI_entry_HW_FUNC_enable.str1.1
                0x0000000000000000      0x399 plat/mediatek/mt7986/drivers/dram/release/dram.o
 .rodata.Init_Config_DRAM_CTX.str1.1
                0x0000000000000000       0x25 plat/mediatek/mt7986/drivers/dram/release/dram.o
 .rodata.DPMInit.str1.1
                0x0000000000000000       0x10 plat/mediatek/mt7986/drivers/dram/release/dram.o
 .rodata.TransferPLLToSPMControl.str1.1
                0x0000000000000000       0x23 plat/mediatek/mt7986/drivers/dram/release/dram.o
 .rodata.print_sv_args.str1.1
                0x0000000000000000      0x41a plat/mediatek/mt7986/drivers/dram/release/dram.o
 .rodata.set_type_freq_by_svargs.str1.1
                0x0000000000000000       0x52 plat/mediatek/mt7986/drivers/dram/release/dram.o
 .rodata.set_type_freq_by_svargs
                0x0000000000000000       0x1b plat/mediatek/mt7986/drivers/dram/release/dram.o
 .rodata.DIG_HW_SHUF_REF_CFG.str1.1
                0x0000000000000000       0xc2 plat/mediatek/mt7986/drivers/dram/release/dram.o
 .rodata.DIG_HW_NONSHUF_REF_SWITCH.str1.1
                0x0000000000000000      0x57a plat/mediatek/mt7986/drivers/dram/release/dram.o
 .rodata.DIG_HW_SHUF_REF_SWITCH.str1.1
                0x0000000000000000       0x29 plat/mediatek/mt7986/drivers/dram/release/dram.o
 .rodata.DIG_HW_NONSHUF_REFR_CFG.str1.1
                0x0000000000000000       0x67 plat/mediatek/mt7986/drivers/dram/release/dram.o
 .rodata.DIG_HW_SHUF_REFR_CFG.str1.1
                0x0000000000000000       0x68 plat/mediatek/mt7986/drivers/dram/release/dram.o
 .rodata.DIG_HW_NONSHUF_REFR_SWITCH.str1.1
                0x0000000000000000       0x22 plat/mediatek/mt7986/drivers/dram/release/dram.o
 .rodata.DIG_HW_SHUF_REFR_SWITCH.str1.1
                0x0000000000000000       0x29 plat/mediatek/mt7986/drivers/dram/release/dram.o
 .rodata.print_HW_DQSOSC_CTRL.str1.1
                0x0000000000000000      0x5ce plat/mediatek/mt7986/drivers/dram/release/dram.o
 .rodata.DIG_HW_NONSHUF_DQSOSC_CFG.str1.1
                0x0000000000000000       0x31 plat/mediatek/mt7986/drivers/dram/release/dram.o
 .rodata.DIG_HW_SHUF_DQSOSC_CFG.str1.1
                0x0000000000000000       0x37 plat/mediatek/mt7986/drivers/dram/release/dram.o
 .rodata.DIG_HW_NONSHUF_DQSOSC_SWITCH.str1.1
                0x0000000000000000       0x34 plat/mediatek/mt7986/drivers/dram/release/dram.o
 .rodata.ESL_DPHY_FPGA_TX_settings.str1.1
                0x0000000000000000       0xa3 plat/mediatek/mt7986/drivers/dram/release/dram.o
 .rodata.ESL_DPHY_FPGA_RX_settings.str1.1
                0x0000000000000000       0xa3 plat/mediatek/mt7986/drivers/dram/release/dram.o
 .rodata.print_DBG_info.str1.1
                0x0000000000000000       0x1a plat/mediatek/mt7986/drivers/dram/release/dram.o
 .rodata.is_discrete_lpddr4.str1.1
                0x0000000000000000        0xa plat/mediatek/mt7986/drivers/dram/release/dram.o
 .rodata.get_dramc_addr.str1.1
                0x0000000000000000       0x37 plat/mediatek/mt7986/drivers/dram/release/dram.o
 .rodata.reserve_dramc_dummy_read.str1.1
                0x0000000000000000       0x43 plat/mediatek/mt7986/drivers/dram/release/dram.o
 .rodata.__func__.4612
                0x0000000000000000       0x13 plat/mediatek/mt7986/drivers/dram/release/dram.o
 .rodata.__func__.4702
                0x0000000000000000       0x19 plat/mediatek/mt7986/drivers/dram/release/dram.o
 .rodata.GetFreqBySel.str1.1
                0x0000000000000000       0x2a plat/mediatek/mt7986/drivers/dram/release/dram.o
 .rodata.GetFreqBySel
                0x0000000000000000       0x16 plat/mediatek/mt7986/drivers/dram/release/dram.o
 .rodata.GetSelByFreq.str1.1
                0x0000000000000000       0x25 plat/mediatek/mt7986/drivers/dram/release/dram.o
 .rodata.DramcWriteDBIOnOff.str1.1
                0x0000000000000000       0x1b plat/mediatek/mt7986/drivers/dram/release/dram.o
 .rodata.DramcReadDBIOnOff.str1.1
                0x0000000000000000       0x13 plat/mediatek/mt7986/drivers/dram/release/dram.o
 .rodata.AutoRefreshCKEOff.str1.1
                0x0000000000000000       0x38 plat/mediatek/mt7986/drivers/dram/release/dram.o
 .rodata.TestEngineCompare.str1.1
                0x0000000000000000       0x31 plat/mediatek/mt7986/drivers/dram/release/dram.o
 .rodata.TA2_Test_Run_Time_HW_Read.str1.1
                0x0000000000000000       0x13 plat/mediatek/mt7986/drivers/dram/release/dram.o
 .rodata.TA2_Test_Run_Time_Err_Status.str1.1
                0x0000000000000000       0x13 plat/mediatek/mt7986/drivers/dram/release/dram.o
 .rodata.DramcModeRegWriteByRank_RTMRW.str1.1
                0x0000000000000000       0x37 plat/mediatek/mt7986/drivers/dram/release/dram.o
 .rodata.DramcModeRegWriteByRank_RTSWCMD_MRW.str1.1
                0x0000000000000000       0x3e plat/mediatek/mt7986/drivers/dram/release/dram.o
 .rodata.DramcModeRegWriteByRank_SCSM.str1.1
                0x0000000000000000       0x2f plat/mediatek/mt7986/drivers/dram/release/dram.o
 .rodata.DramcModeRegWriteByRank.str1.1
                0x0000000000000000       0x17 plat/mediatek/mt7986/drivers/dram/release/dram.o
 .rodata.DDRPhyGetRealFreq.str1.1
                0x0000000000000000       0x2e plat/mediatek/mt7986/drivers/dram/release/dram.o
 .rodata.MD32_DLL_ALL_SLAVE_EN_SET
                0x0000000000000000       0x16 plat/mediatek/mt7986/drivers/dram/release/dram.o
 .rodata.MD32_MODE_choose.str1.1
                0x0000000000000000       0x64 plat/mediatek/mt7986/drivers/dram/release/dram.o
 .rodata.MD32_DFS_PRE
                0x0000000000000000       0x52 plat/mediatek/mt7986/drivers/dram/release/dram.o
 .rodata.MD32_config.str1.1
                0x0000000000000000       0x24 plat/mediatek/mt7986/drivers/dram/release/dram.o
 .rodata.DramcCKEDebounce.str1.1
                0x0000000000000000       0x17 plat/mediatek/mt7986/drivers/dram/release/dram.o
 .rodata.RunTime_SW_Cmd.str1.1
                0x0000000000000000       0x27 plat/mediatek/mt7986/drivers/dram/release/dram.o
 .rodata.ZQ_SWCMD_MODE_Cal.str1.1
                0x0000000000000000       0x3a plat/mediatek/mt7986/drivers/dram/release/dram.o
 .rodata.WDQSMode2AcTxOEShift.str1.1
                0x0000000000000000       0x27 plat/mediatek/mt7986/drivers/dram/release/dram.o
 .rodata.PCDDR_GetSelByFreq.str1.1
                0x0000000000000000       0x1b plat/mediatek/mt7986/drivers/dram/release/dram.o
 .rodata.__func__.4581
                0x0000000000000000       0x13 plat/mediatek/mt7986/drivers/dram/release/dram.o
 .rodata.DFS_Freq_Meter_Check.str1.1
                0x0000000000000000       0xd1 plat/mediatek/mt7986/drivers/dram/release/dram.o
 .rodata.SEDA_loopback_check.str1.1
                0x0000000000000000       0x80 plat/mediatek/mt7986/drivers/dram/release/dram.o
 .rodata.DramcPrintHWGatingStatus.str1.1
                0x0000000000000000       0x84 plat/mediatek/mt7986/drivers/dram/release/dram.o
 .rodata.HQA_LOG_Parsing_Freq.str1.1
                0x0000000000000000        0x8 plat/mediatek/mt7986/drivers/dram/release/dram.o
 .rodata.HQA_LOG_Print_Prefix_String.str1.1
                0x0000000000000000        0xf plat/mediatek/mt7986/drivers/dram/release/dram.o
 .rodata.HQA_LOG_Print_Freq_String.str1.1
                0x0000000000000000        0x6 plat/mediatek/mt7986/drivers/dram/release/dram.o
 .rodata.EYESCAN_LOG_Print_Prefix_String.str1.1
                0x0000000000000000        0xf plat/mediatek/mt7986/drivers/dram/release/dram.o
 .rodata.print_EYESCAN_LOG_type.str1.1
                0x0000000000000000        0xa plat/mediatek/mt7986/drivers/dram/release/dram.o
 .rodata.DramcDumpDebugInfo.str1.1
                0x0000000000000000       0xa6 plat/mediatek/mt7986/drivers/dram/release/dram.o
 .rodata.ASVA5_8_IPMV2.str1.1
                0x0000000000000000       0x3e plat/mediatek/mt7986/drivers/dram/release/dram.o
 .rodata.dump_SR.str1.1
                0x0000000000000000       0x1b plat/mediatek/mt7986/drivers/dram/release/dram.o
 .eh_frame      0x0000000000000000     0x4e0c plat/mediatek/mt7986/drivers/dram/release/dram.o
 .data          0x0000000000000000        0x0 plat/mediatek/mt7986/drivers/dram/release/dram.o
 .data.HW_MR4_EN
                0x0000000000000000        0x1 plat/mediatek/mt7986/drivers/dram/release/dram.o
 .data.HW_ZQCS_EN
                0x0000000000000000        0x1 plat/mediatek/mt7986/drivers/dram/release/dram.o
 .data.num_of_emi_records
                0x0000000000000000        0x4 plat/mediatek/mt7986/drivers/dram/release/dram.o
 .data.gEye_Scan_color_flag
                0x0000000000000000        0x1 plat/mediatek/mt7986/drivers/dram/release/dram.o
 .data.gRX_EYE_Scan_only_higheset_freq_flag
                0x0000000000000000        0x1 plat/mediatek/mt7986/drivers/dram/release/dram.o
 .data.gTX_EYE_Scan_only_higheset_freq_flag
                0x0000000000000000        0x1 plat/mediatek/mt7986/drivers/dram/release/dram.o
 .data.gu2MR0_Value
                0x0000000000000000        0x4 plat/mediatek/mt7986/drivers/dram/release/dram.o
 .data.u1TXDLY_Cal_min
                0x0000000000000000        0x1 plat/mediatek/mt7986/drivers/dram/release/dram.o
 .bss           0x0000000000000000        0x0 plat/mediatek/mt7986/drivers/dram/release/dram.o
 .bss.DramcConfig
                0x0000000000000000        0x8 plat/mediatek/mt7986/drivers/dram/release/dram.o
 .bss.gDVFSCtrlSel
                0x0000000000000000        0x1 plat/mediatek/mt7986/drivers/dram/release/dram.o
 .bss.gu4Ddrphy0SPMCtrl0
                0x0000000000000000        0x4 plat/mediatek/mt7986/drivers/dram/release/dram.o
 .bss.gu4Ddrphy0SPMCtrl2
                0x0000000000000000        0x4 plat/mediatek/mt7986/drivers/dram/release/dram.o
 .bss.gu4Ddrphy1SPMCtrl0
                0x0000000000000000        0x4 plat/mediatek/mt7986/drivers/dram/release/dram.o
 .bss.gu4Ddrphy1SPMCtrl2
                0x0000000000000000        0x4 plat/mediatek/mt7986/drivers/dram/release/dram.o
 .bss.psv_rand_args
                0x0000000000000000        0x8 plat/mediatek/mt7986/drivers/dram/release/dram.o
 .bss.HW_DMYRD_CTRL
                0x0000000000000000       0x14 plat/mediatek/mt7986/drivers/dram/release/dram.o
 .bss.HW_DQSOSC_CTRL
                0x0000000000000000       0x78 plat/mediatek/mt7986/drivers/dram/release/dram.o
 .bss.HW_REFR_CTRL
                0x0000000000000000       0x10 plat/mediatek/mt7986/drivers/dram/release/dram.o
 .bss.HW_REF_CTRL
                0x0000000000000000        0x8 plat/mediatek/mt7986/drivers/dram/release/dram.o
 .bss.init_pattern.4739
                0x0000000000000000        0x1 plat/mediatek/mt7986/drivers/dram/release/dram.o
 .bss.lp5heff   0x0000000000000000        0x1 plat/mediatek/mt7986/drivers/dram/release/dram.o
 .bss.u2FreqMax.4694
                0x0000000000000000        0x2 plat/mediatek/mt7986/drivers/dram/release/dram.o
 .bss.dram_ctx_chb
                0x0000000000000000       0xb8 plat/mediatek/mt7986/drivers/dram/release/dram.o
 .bss.gAndroid_DVFS_en
                0x0000000000000000        0x1 plat/mediatek/mt7986/drivers/dram/release/dram.o
 .bss.gHQA_Test_Freq_Vcore_Level
                0x0000000000000000        0x1 plat/mediatek/mt7986/drivers/dram/release/dram.o
 .bss.gUpdateHighestFreq
                0x0000000000000000        0x1 plat/mediatek/mt7986/drivers/dram/release/dram.o
 .bss.__wa__gating_autok_init_ui
                0x0000000000000000        0x2 plat/mediatek/mt7986/drivers/dram/release/dram.o
 .bss.__wa__gating_swk_for_autok
                0x0000000000000000        0x1 plat/mediatek/mt7986/drivers/dram/release/dram.o
 .bss.gEye_Scan_unterm_highest_flag
                0x0000000000000000        0x1 plat/mediatek/mt7986/drivers/dram/release/dram.o
 .bss.gFinalTXVrefDQ
                0x0000000000000000        0x2 plat/mediatek/mt7986/drivers/dram/release/dram.o
 .bss.gRX_EYE_Scan_flag
                0x0000000000000000        0x1 plat/mediatek/mt7986/drivers/dram/release/dram.o
 .bss.gTX_EYE_Scan_flag
                0x0000000000000000        0x1 plat/mediatek/mt7986/drivers/dram/release/dram.o
 .bss.gu2RX_DQS_Duty_Offset
                0x0000000000000000       0x10 plat/mediatek/mt7986/drivers/dram/release/dram.o
 .bss.u1MR01Value
                0x0000000000000000        0x3 plat/mediatek/mt7986/drivers/dram/release/dram.o
 .bss.u1MR02Value
                0x0000000000000000        0x3 plat/mediatek/mt7986/drivers/dram/release/dram.o
 .bss.u1MR03Value
                0x0000000000000000        0x3 plat/mediatek/mt7986/drivers/dram/release/dram.o
 .bss.u1MR04Value
                0x0000000000000000        0x2 plat/mediatek/mt7986/drivers/dram/release/dram.o
 .bss.u1MR11Value
                0x0000000000000000        0x3 plat/mediatek/mt7986/drivers/dram/release/dram.o
 .bss.u1MR12Value
                0x0000000000000000        0x6 plat/mediatek/mt7986/drivers/dram/release/dram.o
 .bss.u1MR13Value
                0x0000000000000000        0x2 plat/mediatek/mt7986/drivers/dram/release/dram.o
 .bss.u1MR14Value
                0x0000000000000000        0x6 plat/mediatek/mt7986/drivers/dram/release/dram.o
 .bss.u1MR18Value
                0x0000000000000000        0x3 plat/mediatek/mt7986/drivers/dram/release/dram.o
 .bss.u1MR19Value
                0x0000000000000000        0x3 plat/mediatek/mt7986/drivers/dram/release/dram.o
 .bss.u1MR20Value
                0x0000000000000000        0x3 plat/mediatek/mt7986/drivers/dram/release/dram.o
 .bss.u1MR21Value
                0x0000000000000000        0x3 plat/mediatek/mt7986/drivers/dram/release/dram.o
 .bss.u1MR22Value
                0x0000000000000000        0x3 plat/mediatek/mt7986/drivers/dram/release/dram.o
 .bss.u1MR26Value
                0x0000000000000000        0x2 plat/mediatek/mt7986/drivers/dram/release/dram.o
 .bss.u1MR30Value
                0x0000000000000000        0x2 plat/mediatek/mt7986/drivers/dram/release/dram.o
 .bss.u1MR51Value
                0x0000000000000000        0x3 plat/mediatek/mt7986/drivers/dram/release/dram.o
 .bss.u1TXDLY_Cal_max
                0x0000000000000000        0x1 plat/mediatek/mt7986/drivers/dram/release/dram.o
 .bss.u4gVcore  0x0000000000000000       0x1c plat/mediatek/mt7986/drivers/dram/release/dram.o
 .bss.gDRSEnableSelfWakeup
                0x0000000000000000        0x1 plat/mediatek/mt7986/drivers/dram/release/dram.o
 .text          0x0000000000000000        0x0 plat/mediatek/mt7986/drivers/efuse/release/efuse_cmd.o
 .data          0x0000000000000000        0x0 plat/mediatek/mt7986/drivers/efuse/release/efuse_cmd.o
 .bss           0x0000000000000000        0x0 plat/mediatek/mt7986/drivers/efuse/release/efuse_cmd.o
 .text.efuse_wait.constprop.2
                0x0000000000000000       0x5c plat/mediatek/mt7986/drivers/efuse/release/efuse_cmd.o
 .text.efuse_bpkey_clear
                0x0000000000000000       0x14 plat/mediatek/mt7986/drivers/efuse/release/efuse_cmd.o
 .text.efuse_reinit
                0x0000000000000000       0x20 plat/mediatek/mt7986/drivers/efuse/release/efuse_cmd.o
 .text.check_version
                0x0000000000000000      0x118 plat/mediatek/mt7986/drivers/efuse/release/efuse_cmd.o
 .text.efuse_read
                0x0000000000000000      0x108 plat/mediatek/mt7986/drivers/efuse/release/efuse_cmd.o
 .text.efuse_write
                0x0000000000000000      0x2f8 plat/mediatek/mt7986/drivers/efuse/release/efuse_cmd.o
 .rodata.check_version.str1.1
                0x0000000000000000       0x10 plat/mediatek/mt7986/drivers/efuse/release/efuse_cmd.o
 .rodata.efuse_info_set
                0x0000000000000000      0x4a0 plat/mediatek/mt7986/drivers/efuse/release/efuse_cmd.o
 .rodata.efuse_read.str1.1
                0x0000000000000000       0x25 plat/mediatek/mt7986/drivers/efuse/release/efuse_cmd.o
 .rodata.efuse_write.str1.1
                0x0000000000000000       0x27 plat/mediatek/mt7986/drivers/efuse/release/efuse_cmd.o
 .comment       0x0000000000000000       0x25 plat/mediatek/mt7986/drivers/efuse/release/efuse_cmd.o
 .note.GNU-stack
                0x0000000000000000        0x0 plat/mediatek/mt7986/drivers/efuse/release/efuse_cmd.o
 .text          0x0000000000000000        0x0 /media/data_nvme/git/uboot/u-boot/build/mt7986/release/lib/libfdt.a(fdt.o)
 .data          0x0000000000000000        0x0 /media/data_nvme/git/uboot/u-boot/build/mt7986/release/lib/libfdt.a(fdt.o)
 .bss           0x0000000000000000        0x0 /media/data_nvme/git/uboot/u-boot/build/mt7986/release/lib/libfdt.a(fdt.o)
 .text.fdt32_ld
                0x0000000000000000       0x24 /media/data_nvme/git/uboot/u-boot/build/mt7986/release/lib/libfdt.a(fdt.o)
 .text.fdt_ro_probe_
                0x0000000000000000       0xac /media/data_nvme/git/uboot/u-boot/build/mt7986/release/lib/libfdt.a(fdt.o)
 .text.fdt_header_size_
                0x0000000000000000       0x34 /media/data_nvme/git/uboot/u-boot/build/mt7986/release/lib/libfdt.a(fdt.o)
 .text.fdt_header_size
                0x0000000000000000       0x18 /media/data_nvme/git/uboot/u-boot/build/mt7986/release/lib/libfdt.a(fdt.o)
 .text.fdt_check_header
                0x0000000000000000      0x130 /media/data_nvme/git/uboot/u-boot/build/mt7986/release/lib/libfdt.a(fdt.o)
 .text.fdt_offset_ptr
                0x0000000000000000       0x88 /media/data_nvme/git/uboot/u-boot/build/mt7986/release/lib/libfdt.a(fdt.o)
 .text.fdt_next_tag
                0x0000000000000000      0x144 /media/data_nvme/git/uboot/u-boot/build/mt7986/release/lib/libfdt.a(fdt.o)
 .rodata.fdt_next_tag
                0x0000000000000000        0x9 /media/data_nvme/git/uboot/u-boot/build/mt7986/release/lib/libfdt.a(fdt.o)
 .text.fdt_check_node_offset_
                0x0000000000000000       0x40 /media/data_nvme/git/uboot/u-boot/build/mt7986/release/lib/libfdt.a(fdt.o)
 .text.fdt_check_prop_offset_
                0x0000000000000000       0x40 /media/data_nvme/git/uboot/u-boot/build/mt7986/release/lib/libfdt.a(fdt.o)
 .text.fdt_next_node
                0x0000000000000000       0xb0 /media/data_nvme/git/uboot/u-boot/build/mt7986/release/lib/libfdt.a(fdt.o)
 .text.fdt_first_subnode
                0x0000000000000000       0x34 /media/data_nvme/git/uboot/u-boot/build/mt7986/release/lib/libfdt.a(fdt.o)
 .text.fdt_next_subnode
                0x0000000000000000       0x58 /media/data_nvme/git/uboot/u-boot/build/mt7986/release/lib/libfdt.a(fdt.o)
 .text.fdt_find_string_
                0x0000000000000000       0x70 /media/data_nvme/git/uboot/u-boot/build/mt7986/release/lib/libfdt.a(fdt.o)
 .text.fdt_move
                0x0000000000000000       0x5c /media/data_nvme/git/uboot/u-boot/build/mt7986/release/lib/libfdt.a(fdt.o)
 .debug_info    0x0000000000000000      0xf1a /media/data_nvme/git/uboot/u-boot/build/mt7986/release/lib/libfdt.a(fdt.o)
 .debug_abbrev  0x0000000000000000      0x2c2 /media/data_nvme/git/uboot/u-boot/build/mt7986/release/lib/libfdt.a(fdt.o)
 .debug_loc     0x0000000000000000     0x1238 /media/data_nvme/git/uboot/u-boot/build/mt7986/release/lib/libfdt.a(fdt.o)
 .debug_aranges
                0x0000000000000000      0x100 /media/data_nvme/git/uboot/u-boot/build/mt7986/release/lib/libfdt.a(fdt.o)
 .debug_ranges  0x0000000000000000      0x200 /media/data_nvme/git/uboot/u-boot/build/mt7986/release/lib/libfdt.a(fdt.o)
 .debug_line    0x0000000000000000      0x884 /media/data_nvme/git/uboot/u-boot/build/mt7986/release/lib/libfdt.a(fdt.o)
 .debug_str     0x0000000000000000      0x4e9 /media/data_nvme/git/uboot/u-boot/build/mt7986/release/lib/libfdt.a(fdt.o)
 .comment       0x0000000000000000       0x2c /media/data_nvme/git/uboot/u-boot/build/mt7986/release/lib/libfdt.a(fdt.o)
 .note.GNU-stack
                0x0000000000000000        0x0 /media/data_nvme/git/uboot/u-boot/build/mt7986/release/lib/libfdt.a(fdt.o)
 .eh_frame      0x0000000000000000      0x1e0 /media/data_nvme/git/uboot/u-boot/build/mt7986/release/lib/libfdt.a(fdt.o)
 .text          0x0000000000000000        0x0 /media/data_nvme/git/uboot/u-boot/build/mt7986/release/lib/libfdt.a(fdt_ro.o)
 .data          0x0000000000000000        0x0 /media/data_nvme/git/uboot/u-boot/build/mt7986/release/lib/libfdt.a(fdt_ro.o)
 .bss           0x0000000000000000        0x0 /media/data_nvme/git/uboot/u-boot/build/mt7986/release/lib/libfdt.a(fdt_ro.o)
 .text.fdt32_ld
                0x0000000000000000       0x24 /media/data_nvme/git/uboot/u-boot/build/mt7986/release/lib/libfdt.a(fdt_ro.o)
 .text.fdt_mem_rsv
                0x0000000000000000       0x58 /media/data_nvme/git/uboot/u-boot/build/mt7986/release/lib/libfdt.a(fdt_ro.o)
 .text.nextprop_
                0x0000000000000000       0x64 /media/data_nvme/git/uboot/u-boot/build/mt7986/release/lib/libfdt.a(fdt_ro.o)
 .text.fdt64_ld_.isra.0
                0x0000000000000000        0x8 /media/data_nvme/git/uboot/u-boot/build/mt7986/release/lib/libfdt.a(fdt_ro.o)
 .text.fdt32_ld_.isra.0
                0x0000000000000000        0x8 /media/data_nvme/git/uboot/u-boot/build/mt7986/release/lib/libfdt.a(fdt_ro.o)
 .text.fdt_get_property_by_offset_
                0x0000000000000000       0x68 /media/data_nvme/git/uboot/u-boot/build/mt7986/release/lib/libfdt.a(fdt_ro.o)
 .text.fdt_get_string
                0x0000000000000000      0x114 /media/data_nvme/git/uboot/u-boot/build/mt7986/release/lib/libfdt.a(fdt_ro.o)
 .text.fdt_string
                0x0000000000000000        0x8 /media/data_nvme/git/uboot/u-boot/build/mt7986/release/lib/libfdt.a(fdt_ro.o)
 .text.fdt_get_mem_rsv
                0x0000000000000000       0x70 /media/data_nvme/git/uboot/u-boot/build/mt7986/release/lib/libfdt.a(fdt_ro.o)
 .text.fdt_num_mem_rsv
                0x0000000000000000       0x44 /media/data_nvme/git/uboot/u-boot/build/mt7986/release/lib/libfdt.a(fdt_ro.o)
 .text.fdt_get_name
                0x0000000000000000       0xac /media/data_nvme/git/uboot/u-boot/build/mt7986/release/lib/libfdt.a(fdt_ro.o)
 .text.fdt_subnode_offset_namelen
                0x0000000000000000       0xe8 /media/data_nvme/git/uboot/u-boot/build/mt7986/release/lib/libfdt.a(fdt_ro.o)
 .text.fdt_subnode_offset
                0x0000000000000000       0x44 /media/data_nvme/git/uboot/u-boot/build/mt7986/release/lib/libfdt.a(fdt_ro.o)
 .text.fdt_first_property_offset
                0x0000000000000000       0x38 /media/data_nvme/git/uboot/u-boot/build/mt7986/release/lib/libfdt.a(fdt_ro.o)
 .text.fdt_next_property_offset
                0x0000000000000000       0x38 /media/data_nvme/git/uboot/u-boot/build/mt7986/release/lib/libfdt.a(fdt_ro.o)
 .text.fdt_get_property_namelen_
                0x0000000000000000       0xd8 /media/data_nvme/git/uboot/u-boot/build/mt7986/release/lib/libfdt.a(fdt_ro.o)
 .text.fdt_get_property_by_offset
                0x0000000000000000       0x50 /media/data_nvme/git/uboot/u-boot/build/mt7986/release/lib/libfdt.a(fdt_ro.o)
 .text.fdt_get_property_namelen
                0x0000000000000000       0x54 /media/data_nvme/git/uboot/u-boot/build/mt7986/release/lib/libfdt.a(fdt_ro.o)
 .text.fdt_get_property
                0x0000000000000000       0x4c /media/data_nvme/git/uboot/u-boot/build/mt7986/release/lib/libfdt.a(fdt_ro.o)
 .text.fdt_getprop_namelen
                0x0000000000000000       0x6c /media/data_nvme/git/uboot/u-boot/build/mt7986/release/lib/libfdt.a(fdt_ro.o)
 .text.fdt_getprop_by_offset
                0x0000000000000000       0xbc /media/data_nvme/git/uboot/u-boot/build/mt7986/release/lib/libfdt.a(fdt_ro.o)
 .text.fdt_getprop
                0x0000000000000000       0x4c /media/data_nvme/git/uboot/u-boot/build/mt7986/release/lib/libfdt.a(fdt_ro.o)
 .rodata.fdt_get_phandle.str1.1
                0x0000000000000000       0x16 /media/data_nvme/git/uboot/u-boot/build/mt7986/release/lib/libfdt.a(fdt_ro.o)
 .text.fdt_get_phandle
                0x0000000000000000       0x7c /media/data_nvme/git/uboot/u-boot/build/mt7986/release/lib/libfdt.a(fdt_ro.o)
 .text.fdt_find_max_phandle
                0x0000000000000000       0x7c /media/data_nvme/git/uboot/u-boot/build/mt7986/release/lib/libfdt.a(fdt_ro.o)
 .text.fdt_generate_phandle
                0x0000000000000000       0x4c /media/data_nvme/git/uboot/u-boot/build/mt7986/release/lib/libfdt.a(fdt_ro.o)
 .rodata.fdt_get_alias_namelen.str1.1
                0x0000000000000000        0x9 /media/data_nvme/git/uboot/u-boot/build/mt7986/release/lib/libfdt.a(fdt_ro.o)
 .text.fdt_get_alias_namelen
                0x0000000000000000       0x64 /media/data_nvme/git/uboot/u-boot/build/mt7986/release/lib/libfdt.a(fdt_ro.o)
 .text.fdt_path_offset_namelen
                0x0000000000000000      0x100 /media/data_nvme/git/uboot/u-boot/build/mt7986/release/lib/libfdt.a(fdt_ro.o)
 .text.fdt_path_offset
                0x0000000000000000       0x34 /media/data_nvme/git/uboot/u-boot/build/mt7986/release/lib/libfdt.a(fdt_ro.o)
 .text.fdt_get_alias
                0x0000000000000000       0x34 /media/data_nvme/git/uboot/u-boot/build/mt7986/release/lib/libfdt.a(fdt_ro.o)
 .text.fdt_get_path
                0x0000000000000000      0x180 /media/data_nvme/git/uboot/u-boot/build/mt7986/release/lib/libfdt.a(fdt_ro.o)
 .text.fdt_supernode_atdepth_offset
                0x0000000000000000       0xc0 /media/data_nvme/git/uboot/u-boot/build/mt7986/release/lib/libfdt.a(fdt_ro.o)
 .text.fdt_node_depth
                0x0000000000000000       0x30 /media/data_nvme/git/uboot/u-boot/build/mt7986/release/lib/libfdt.a(fdt_ro.o)
 .text.fdt_parent_offset
                0x0000000000000000       0x44 /media/data_nvme/git/uboot/u-boot/build/mt7986/release/lib/libfdt.a(fdt_ro.o)
 .text.fdt_node_offset_by_prop_value
                0x0000000000000000       0xb4 /media/data_nvme/git/uboot/u-boot/build/mt7986/release/lib/libfdt.a(fdt_ro.o)
 .text.fdt_node_offset_by_phandle
                0x0000000000000000       0x84 /media/data_nvme/git/uboot/u-boot/build/mt7986/release/lib/libfdt.a(fdt_ro.o)
 .text.fdt_stringlist_contains
                0x0000000000000000       0x98 /media/data_nvme/git/uboot/u-boot/build/mt7986/release/lib/libfdt.a(fdt_ro.o)
 .text.fdt_stringlist_count
                0x0000000000000000       0x7c /media/data_nvme/git/uboot/u-boot/build/mt7986/release/lib/libfdt.a(fdt_ro.o)
 .text.fdt_stringlist_search
                0x0000000000000000       0xc4 /media/data_nvme/git/uboot/u-boot/build/mt7986/release/lib/libfdt.a(fdt_ro.o)
 .text.fdt_stringlist_get
                0x0000000000000000       0xb4 /media/data_nvme/git/uboot/u-boot/build/mt7986/release/lib/libfdt.a(fdt_ro.o)
 .rodata.fdt_node_check_compatible.str1.1
                0x0000000000000000        0xb /media/data_nvme/git/uboot/u-boot/build/mt7986/release/lib/libfdt.a(fdt_ro.o)
 .text.fdt_node_check_compatible
                0x0000000000000000       0x4c /media/data_nvme/git/uboot/u-boot/build/mt7986/release/lib/libfdt.a(fdt_ro.o)
 .text.fdt_node_offset_by_compatible
                0x0000000000000000       0x84 /media/data_nvme/git/uboot/u-boot/build/mt7986/release/lib/libfdt.a(fdt_ro.o)
 .debug_info    0x0000000000000000     0x297c /media/data_nvme/git/uboot/u-boot/build/mt7986/release/lib/libfdt.a(fdt_ro.o)
 .debug_abbrev  0x0000000000000000      0x39a /media/data_nvme/git/uboot/u-boot/build/mt7986/release/lib/libfdt.a(fdt_ro.o)
 .debug_loc     0x0000000000000000     0x4569 /media/data_nvme/git/uboot/u-boot/build/mt7986/release/lib/libfdt.a(fdt_ro.o)
 .debug_aranges
                0x0000000000000000      0x2b0 /media/data_nvme/git/uboot/u-boot/build/mt7986/release/lib/libfdt.a(fdt_ro.o)
 .debug_ranges  0x0000000000000000      0x620 /media/data_nvme/git/uboot/u-boot/build/mt7986/release/lib/libfdt.a(fdt_ro.o)
 .debug_line    0x0000000000000000     0x13bd /media/data_nvme/git/uboot/u-boot/build/mt7986/release/lib/libfdt.a(fdt_ro.o)
 .debug_str     0x0000000000000000      0x8f7 /media/data_nvme/git/uboot/u-boot/build/mt7986/release/lib/libfdt.a(fdt_ro.o)
 .comment       0x0000000000000000       0x2c /media/data_nvme/git/uboot/u-boot/build/mt7986/release/lib/libfdt.a(fdt_ro.o)
 .note.GNU-stack
                0x0000000000000000        0x0 /media/data_nvme/git/uboot/u-boot/build/mt7986/release/lib/libfdt.a(fdt_ro.o)
 .eh_frame      0x0000000000000000      0x6e8 /media/data_nvme/git/uboot/u-boot/build/mt7986/release/lib/libfdt.a(fdt_ro.o)
 .text          0x0000000000000000        0x0 /media/data_nvme/git/uboot/u-boot/build/mt7986/release/lib/libc.a(memchr.o)
 .data          0x0000000000000000        0x0 /media/data_nvme/git/uboot/u-boot/build/mt7986/release/lib/libc.a(memchr.o)
 .bss           0x0000000000000000        0x0 /media/data_nvme/git/uboot/u-boot/build/mt7986/release/lib/libc.a(memchr.o)
 .text.memchr   0x0000000000000000       0x2c /media/data_nvme/git/uboot/u-boot/build/mt7986/release/lib/libc.a(memchr.o)
 .debug_info    0x0000000000000000       0xd5 /media/data_nvme/git/uboot/u-boot/build/mt7986/release/lib/libc.a(memchr.o)
 .debug_abbrev  0x0000000000000000       0x9b /media/data_nvme/git/uboot/u-boot/build/mt7986/release/lib/libc.a(memchr.o)
 .debug_loc     0x0000000000000000      0x10b /media/data_nvme/git/uboot/u-boot/build/mt7986/release/lib/libc.a(memchr.o)
 .debug_aranges
                0x0000000000000000       0x30 /media/data_nvme/git/uboot/u-boot/build/mt7986/release/lib/libc.a(memchr.o)
 .debug_ranges  0x0000000000000000       0x20 /media/data_nvme/git/uboot/u-boot/build/mt7986/release/lib/libc.a(memchr.o)
 .debug_line    0x0000000000000000       0x94 /media/data_nvme/git/uboot/u-boot/build/mt7986/release/lib/libc.a(memchr.o)
 .debug_str     0x0000000000000000      0x183 /media/data_nvme/git/uboot/u-boot/build/mt7986/release/lib/libc.a(memchr.o)
 .comment       0x0000000000000000       0x2c /media/data_nvme/git/uboot/u-boot/build/mt7986/release/lib/libc.a(memchr.o)
 .note.GNU-stack
                0x0000000000000000        0x0 /media/data_nvme/git/uboot/u-boot/build/mt7986/release/lib/libc.a(memchr.o)
 .eh_frame      0x0000000000000000       0x28 /media/data_nvme/git/uboot/u-boot/build/mt7986/release/lib/libc.a(memchr.o)
 .text          0x0000000000000000        0x0 /media/data_nvme/git/uboot/u-boot/build/mt7986/release/lib/libc.a(memcmp.o)
 .data          0x0000000000000000        0x0 /media/data_nvme/git/uboot/u-boot/build/mt7986/release/lib/libc.a(memcmp.o)
 .bss           0x0000000000000000        0x0 /media/data_nvme/git/uboot/u-boot/build/mt7986/release/lib/libc.a(memcmp.o)
 .eh_frame      0x0000000000000000       0x28 /media/data_nvme/git/uboot/u-boot/build/mt7986/release/lib/libc.a(memcmp.o)
 .text          0x0000000000000000        0x0 /media/data_nvme/git/uboot/u-boot/build/mt7986/release/lib/libc.a(memcpy.o)
 .data          0x0000000000000000        0x0 /media/data_nvme/git/uboot/u-boot/build/mt7986/release/lib/libc.a(memcpy.o)
 .bss           0x0000000000000000        0x0 /media/data_nvme/git/uboot/u-boot/build/mt7986/release/lib/libc.a(memcpy.o)
 .eh_frame      0x0000000000000000       0x28 /media/data_nvme/git/uboot/u-boot/build/mt7986/release/lib/libc.a(memcpy.o)
 .text          0x0000000000000000        0x0 /media/data_nvme/git/uboot/u-boot/build/mt7986/release/lib/libc.a(memmove.o)
 .data          0x0000000000000000        0x0 /media/data_nvme/git/uboot/u-boot/build/mt7986/release/lib/libc.a(memmove.o)
 .bss           0x0000000000000000        0x0 /media/data_nvme/git/uboot/u-boot/build/mt7986/release/lib/libc.a(memmove.o)
 .eh_frame      0x0000000000000000       0x28 /media/data_nvme/git/uboot/u-boot/build/mt7986/release/lib/libc.a(memmove.o)
 .text          0x0000000000000000        0x0 /media/data_nvme/git/uboot/u-boot/build/mt7986/release/lib/libc.a(memset.o)
 .data          0x0000000000000000        0x0 /media/data_nvme/git/uboot/u-boot/build/mt7986/release/lib/libc.a(memset.o)
 .bss           0x0000000000000000        0x0 /media/data_nvme/git/uboot/u-boot/build/mt7986/release/lib/libc.a(memset.o)
 .eh_frame      0x0000000000000000       0x28 /media/data_nvme/git/uboot/u-boot/build/mt7986/release/lib/libc.a(memset.o)
 .text          0x0000000000000000        0x0 /media/data_nvme/git/uboot/u-boot/build/mt7986/release/lib/libc.a(printf.o)
 .data          0x0000000000000000        0x0 /media/data_nvme/git/uboot/u-boot/build/mt7986/release/lib/libc.a(printf.o)
 .bss           0x0000000000000000        0x0 /media/data_nvme/git/uboot/u-boot/build/mt7986/release/lib/libc.a(printf.o)
 .eh_frame      0x0000000000000000       0xb0 /media/data_nvme/git/uboot/u-boot/build/mt7986/release/lib/libc.a(printf.o)
 .text          0x0000000000000000        0x0 /media/data_nvme/git/uboot/u-boot/build/mt7986/release/lib/libc.a(strcmp.o)
 .data          0x0000000000000000        0x0 /media/data_nvme/git/uboot/u-boot/build/mt7986/release/lib/libc.a(strcmp.o)
 .bss           0x0000000000000000        0x0 /media/data_nvme/git/uboot/u-boot/build/mt7986/release/lib/libc.a(strcmp.o)
 .eh_frame      0x0000000000000000       0x28 /media/data_nvme/git/uboot/u-boot/build/mt7986/release/lib/libc.a(strcmp.o)
 .text          0x0000000000000000        0x0 /media/data_nvme/git/uboot/u-boot/build/mt7986/release/lib/libc.a(strlen.o)
 .data          0x0000000000000000        0x0 /media/data_nvme/git/uboot/u-boot/build/mt7986/release/lib/libc.a(strlen.o)
 .bss           0x0000000000000000        0x0 /media/data_nvme/git/uboot/u-boot/build/mt7986/release/lib/libc.a(strlen.o)
 .text.strlen   0x0000000000000000       0x1c /media/data_nvme/git/uboot/u-boot/build/mt7986/release/lib/libc.a(strlen.o)
 .debug_info    0x0000000000000000       0x9f /media/data_nvme/git/uboot/u-boot/build/mt7986/release/lib/libc.a(strlen.o)
 .debug_abbrev  0x0000000000000000       0x84 /media/data_nvme/git/uboot/u-boot/build/mt7986/release/lib/libc.a(strlen.o)
 .debug_loc     0x0000000000000000       0x8c /media/data_nvme/git/uboot/u-boot/build/mt7986/release/lib/libc.a(strlen.o)
 .debug_aranges
                0x0000000000000000       0x30 /media/data_nvme/git/uboot/u-boot/build/mt7986/release/lib/libc.a(strlen.o)
 .debug_ranges  0x0000000000000000       0x20 /media/data_nvme/git/uboot/u-boot/build/mt7986/release/lib/libc.a(strlen.o)
 .debug_line    0x0000000000000000       0x8a /media/data_nvme/git/uboot/u-boot/build/mt7986/release/lib/libc.a(strlen.o)
 .debug_str     0x0000000000000000      0x181 /media/data_nvme/git/uboot/u-boot/build/mt7986/release/lib/libc.a(strlen.o)
 .comment       0x0000000000000000       0x2c /media/data_nvme/git/uboot/u-boot/build/mt7986/release/lib/libc.a(strlen.o)
 .note.GNU-stack
                0x0000000000000000        0x0 /media/data_nvme/git/uboot/u-boot/build/mt7986/release/lib/libc.a(strlen.o)
 .eh_frame      0x0000000000000000       0x28 /media/data_nvme/git/uboot/u-boot/build/mt7986/release/lib/libc.a(strlen.o)
 .text          0x0000000000000000        0x0 /media/data_nvme/git/uboot/u-boot/build/mt7986/release/lib/libc.a(strnlen.o)
 .data          0x0000000000000000        0x0 /media/data_nvme/git/uboot/u-boot/build/mt7986/release/lib/libc.a(strnlen.o)
 .bss           0x0000000000000000        0x0 /media/data_nvme/git/uboot/u-boot/build/mt7986/release/lib/libc.a(strnlen.o)
 .text.strnlen  0x0000000000000000       0x24 /media/data_nvme/git/uboot/u-boot/build/mt7986/release/lib/libc.a(strnlen.o)
 .debug_info    0x0000000000000000       0xad /media/data_nvme/git/uboot/u-boot/build/mt7986/release/lib/libc.a(strnlen.o)
 .debug_abbrev  0x0000000000000000       0x95 /media/data_nvme/git/uboot/u-boot/build/mt7986/release/lib/libc.a(strnlen.o)
 .debug_loc     0x0000000000000000       0x7a /media/data_nvme/git/uboot/u-boot/build/mt7986/release/lib/libc.a(strnlen.o)
 .debug_aranges
                0x0000000000000000       0x30 /media/data_nvme/git/uboot/u-boot/build/mt7986/release/lib/libc.a(strnlen.o)
 .debug_ranges  0x0000000000000000       0x20 /media/data_nvme/git/uboot/u-boot/build/mt7986/release/lib/libc.a(strnlen.o)
 .debug_line    0x0000000000000000       0xa9 /media/data_nvme/git/uboot/u-boot/build/mt7986/release/lib/libc.a(strnlen.o)
 .debug_str     0x0000000000000000      0x183 /media/data_nvme/git/uboot/u-boot/build/mt7986/release/lib/libc.a(strnlen.o)
 .comment       0x0000000000000000       0x2c /media/data_nvme/git/uboot/u-boot/build/mt7986/release/lib/libc.a(strnlen.o)
 .note.GNU-stack
                0x0000000000000000        0x0 /media/data_nvme/git/uboot/u-boot/build/mt7986/release/lib/libc.a(strnlen.o)
 .eh_frame      0x0000000000000000       0x28 /media/data_nvme/git/uboot/u-boot/build/mt7986/release/lib/libc.a(strnlen.o)
 .text          0x0000000000000000        0x0 /media/data_nvme/git/uboot/u-boot/build/mt7986/release/lib/libc.a(strrchr.o)
 .data          0x0000000000000000        0x0 /media/data_nvme/git/uboot/u-boot/build/mt7986/release/lib/libc.a(strrchr.o)
 .bss           0x0000000000000000        0x0 /media/data_nvme/git/uboot/u-boot/build/mt7986/release/lib/libc.a(strrchr.o)
 .text.strrchr  0x0000000000000000       0x28 /media/data_nvme/git/uboot/u-boot/build/mt7986/release/lib/libc.a(strrchr.o)
 .debug_info    0x0000000000000000       0xc5 /media/data_nvme/git/uboot/u-boot/build/mt7986/release/lib/libc.a(strrchr.o)
 .debug_abbrev  0x0000000000000000       0x94 /media/data_nvme/git/uboot/u-boot/build/mt7986/release/lib/libc.a(strrchr.o)
 .debug_loc     0x0000000000000000       0xd7 /media/data_nvme/git/uboot/u-boot/build/mt7986/release/lib/libc.a(strrchr.o)
 .debug_aranges
                0x0000000000000000       0x30 /media/data_nvme/git/uboot/u-boot/build/mt7986/release/lib/libc.a(strrchr.o)
 .debug_ranges  0x0000000000000000       0x20 /media/data_nvme/git/uboot/u-boot/build/mt7986/release/lib/libc.a(strrchr.o)
 .debug_line    0x0000000000000000       0x7d /media/data_nvme/git/uboot/u-boot/build/mt7986/release/lib/libc.a(strrchr.o)
 .debug_str     0x0000000000000000      0x17a /media/data_nvme/git/uboot/u-boot/build/mt7986/release/lib/libc.a(strrchr.o)
 .comment       0x0000000000000000       0x2c /media/data_nvme/git/uboot/u-boot/build/mt7986/release/lib/libc.a(strrchr.o)
 .note.GNU-stack
                0x0000000000000000        0x0 /media/data_nvme/git/uboot/u-boot/build/mt7986/release/lib/libc.a(strrchr.o)
 .eh_frame      0x0000000000000000       0x28 /media/data_nvme/git/uboot/u-boot/build/mt7986/release/lib/libc.a(strrchr.o)

Memory Configuration

Name             Origin             Length             Attributes
RAM              0x0000000000201000 0x000000000007f000 xrw
*default*        0x0000000000000000 0xffffffffffffffff

Linker script and memory map

                0x0000000000201000                RAM_REGION_START = ORIGIN (RAM)
                0x000000000007f000                RAM_REGION_LENGTH = LENGTH (RAM)
                0x0000000000201000                . = 0x201000
                0x0000000000000001                ASSERT ((. == ALIGN (0x1000)), BL2_BASE address is not aligned on a page boundary.)

.ro             0x0000000000201000    0x30000
                0x0000000000201000                __RO_START__ = .
                0x0000000000201000                __TEXT_RESIDENT_START__ = .
 *bl2_el3_entrypoint.o(SORT_BY_ALIGNMENT(.text*))
 .text.asm.bl2_entrypoint
                0x0000000000201000      0x104 /media/data_nvme/git/uboot/u-boot/build/mt7986/release/bl2/bl2_el3_entrypoint.o
                0x0000000000201000                bl2_entrypoint
 *(SORT_BY_ALIGNMENT(.text.asm.*))
 .text.asm.bl2_run_next_image
                0x0000000000201104       0x38 /media/data_nvme/git/uboot/u-boot/build/mt7986/release/bl2/bl2_run_next_image.o
                0x0000000000201104                bl2_run_next_image
 .text.asm.errata_a53_826319_wa
                0x000000000020113c       0x20 /media/data_nvme/git/uboot/u-boot/build/mt7986/release/bl2/cortex_a53.o
 .text.asm.check_errata_826319
                0x000000000020115c        0x8 /media/data_nvme/git/uboot/u-boot/build/mt7986/release/bl2/cortex_a53.o
 .text.asm.a53_disable_non_temporal_hint
                0x0000000000201164       0x1c /media/data_nvme/git/uboot/u-boot/build/mt7986/release/bl2/cortex_a53.o
 .text.asm.check_errata_disable_non_temporal_hint
                0x0000000000201180        0x8 /media/data_nvme/git/uboot/u-boot/build/mt7986/release/bl2/cortex_a53.o
 .text.asm.errata_a53_855873_wa
                0x0000000000201188       0x1c /media/data_nvme/git/uboot/u-boot/build/mt7986/release/bl2/cortex_a53.o
 .text.asm.check_errata_855873
                0x00000000002011a4        0x8 /media/data_nvme/git/uboot/u-boot/build/mt7986/release/bl2/cortex_a53.o
 .text.asm.cortex_a53_reset_func
                0x00000000002011ac       0x38 /media/data_nvme/git/uboot/u-boot/build/mt7986/release/bl2/cortex_a53.o
 .text.asm.reset_handler
                0x00000000002011e4       0x20 /media/data_nvme/git/uboot/u-boot/build/mt7986/release/bl2/cpu_helpers.o
                0x00000000002011e4                reset_handler
 .text.asm.get_cpu_ops_ptr
                0x0000000000201204       0x40 /media/data_nvme/git/uboot/u-boot/build/mt7986/release/bl2/cpu_helpers.o
                0x0000000000201204                get_cpu_ops_ptr
 .text.asm.cpu_get_rev_var
                0x0000000000201244       0x10 /media/data_nvme/git/uboot/u-boot/build/mt7986/release/bl2/cpu_helpers.o
                0x0000000000201244                cpu_get_rev_var
 .text.asm.cpu_rev_var_ls
                0x0000000000201254       0x14 /media/data_nvme/git/uboot/u-boot/build/mt7986/release/bl2/cpu_helpers.o
                0x0000000000201254                cpu_rev_var_ls
 .text.asm.cpu_rev_var_hs
                0x0000000000201268       0x14 /media/data_nvme/git/uboot/u-boot/build/mt7986/release/bl2/cpu_helpers.o
                0x0000000000201268                cpu_rev_var_hs
 .text.asm.plat_set_my_stack
                0x000000000020127c       0x10 /media/data_nvme/git/uboot/u-boot/build/mt7986/release/bl2/platform_up_stack.o
                0x000000000020127c                plat_set_my_stack
 .text.asm.console_hsuart_init
                0x000000000020128c       0xb8 /media/data_nvme/git/uboot/u-boot/build/mt7986/release/bl2/hsuart.o
                0x000000000020128c                console_hsuart_init
 .text.asm.console_hsuart_core_getc
                0x0000000000201344       0x18 /media/data_nvme/git/uboot/u-boot/build/mt7986/release/bl2/hsuart.o
                0x0000000000201344                console_hsuart_core_getc
 .text.asm.console_hsuart_core_putc
                0x000000000020135c       0x38 /media/data_nvme/git/uboot/u-boot/build/mt7986/release/bl2/hsuart.o
                0x000000000020135c                console_hsuart_core_putc
 .text.asm.console_hsuart_core_flush
                0x0000000000201394       0x18 /media/data_nvme/git/uboot/u-boot/build/mt7986/release/bl2/hsuart.o
                0x0000000000201394                console_hsuart_core_flush
 .text.asm.console_hsuart_getc
                0x00000000002013ac        0x8 /media/data_nvme/git/uboot/u-boot/build/mt7986/release/bl2/hsuart.o
 .text.asm.console_hsuart_putc
                0x00000000002013b4        0x8 /media/data_nvme/git/uboot/u-boot/build/mt7986/release/bl2/hsuart.o
 .text.asm.console_hsuart_flush
                0x00000000002013bc        0x8 /media/data_nvme/git/uboot/u-boot/build/mt7986/release/bl2/hsuart.o
 .text.asm.console_hsuart_register
                0x00000000002013c4       0x58 /media/data_nvme/git/uboot/u-boot/build/mt7986/release/bl2/hsuart.o
                0x00000000002013c4                console_hsuart_register
 .text.asm.plat_secondary_cold_boot_setup
                0x000000000020141c        0x4 /media/data_nvme/git/uboot/u-boot/build/mt7986/release/bl2/plat_helpers.o
                0x000000000020141c                plat_secondary_cold_boot_setup
 .text.asm.plat_crash_console_init
                0x0000000000201420       0x20 /media/data_nvme/git/uboot/u-boot/build/mt7986/release/bl2/plat_helpers.o
                0x0000000000201420                plat_crash_console_init
 .text.asm.plat_crash_console_putc
                0x0000000000201440        0xc /media/data_nvme/git/uboot/u-boot/build/mt7986/release/bl2/plat_helpers.o
                0x0000000000201440                plat_crash_console_putc
 .text.asm.plat_crash_console_flush
                0x000000000020144c        0xc /media/data_nvme/git/uboot/u-boot/build/mt7986/release/bl2/plat_helpers.o
                0x000000000020144c                plat_crash_console_flush
 .text.asm.asm_print_str
                0x0000000000201458       0x18 /media/data_nvme/git/uboot/u-boot/build/mt7986/release/bl2/debug.o
                0x0000000000201458                asm_print_str
 .text.asm.asm_print_hex
                0x0000000000201470       0x30 /media/data_nvme/git/uboot/u-boot/build/mt7986/release/bl2/debug.o
                0x0000000000201470                asm_print_hex
                0x0000000000201474                asm_print_hex_bits
 .text.asm.asm_print_newline
                0x00000000002014a0        0x8 /media/data_nvme/git/uboot/u-boot/build/mt7986/release/bl2/debug.o
                0x00000000002014a0                asm_print_newline
 .text.asm.el3_panic
                0x00000000002014a8       0x30 /media/data_nvme/git/uboot/u-boot/build/mt7986/release/bl2/debug.o
                0x00000000002014a8                el3_panic
 .text.asm.flush_dcache_range
                0x00000000002014d8       0x38 /media/data_nvme/git/uboot/u-boot/build/mt7986/release/bl2/cache_helpers.o
                0x00000000002014d8                flush_dcache_range
 .text.asm.inv_dcache_range
                0x0000000000201510       0x38 /media/data_nvme/git/uboot/u-boot/build/mt7986/release/bl2/cache_helpers.o
                0x0000000000201510                inv_dcache_range
 .text.asm.zeromem
                0x0000000000201548        0x8 /media/data_nvme/git/uboot/u-boot/build/mt7986/release/bl2/misc_helpers.o
                0x0000000000201548                zeromem
 .text.asm.zeromem_dczva
                0x0000000000201550       0xe8 /media/data_nvme/git/uboot/u-boot/build/mt7986/release/bl2/misc_helpers.o
                0x0000000000201550                zero_normalmem
 .text.asm.disable_mmu_el3
                0x0000000000201638       0x1c /media/data_nvme/git/uboot/u-boot/build/mt7986/release/bl2/misc_helpers.o
                0x0000000000201638                disable_mmu_el3
 .text.asm.disable_mmu_icache_el3
                0x0000000000201654        0x8 /media/data_nvme/git/uboot/u-boot/build/mt7986/release/bl2/misc_helpers.o
                0x0000000000201654                disable_mmu_icache_el3
 .text.asm.plat_report_exception
                0x000000000020165c        0x4 /media/data_nvme/git/uboot/u-boot/build/mt7986/release/bl2/platform_helpers.o
                0x000000000020165c                plat_report_exception
 .text.asm.plat_reset_handler
                0x0000000000201660        0x4 /media/data_nvme/git/uboot/u-boot/build/mt7986/release/bl2/platform_helpers.o
                0x0000000000201660                plat_reset_handler
 .text.asm.plat_panic_handler
                0x0000000000201664        0x8 /media/data_nvme/git/uboot/u-boot/build/mt7986/release/bl2/platform_helpers.o
                0x0000000000201664                plat_panic_handler
                0x000000000020166c                __TEXT_RESIDENT_END__ = .
 *(SORT_BY_ALIGNMENT(.text*))
 .text.bl2_arch_setup
                0x000000000020166c        0xc /media/data_nvme/git/uboot/u-boot/build/mt7986/release/bl2/bl2_arch_setup.o
                0x000000000020166c                bl2_arch_setup
 .text.mtk_ar_update_bl_ar_ver
                0x0000000000201678        0x8 /media/data_nvme/git/uboot/u-boot/build/mt7986/release/bl2/bl2_image_load_v2.o
                0x0000000000201678                mtk_ar_update_bl_ar_ver
 .text.bl2_load_images
                0x0000000000201680      0x110 /media/data_nvme/git/uboot/u-boot/build/mt7986/release/bl2/bl2_image_load_v2.o
                0x0000000000201680                bl2_load_images
 .text.bl2_el3_setup
                0x0000000000201790       0x14 /media/data_nvme/git/uboot/u-boot/build/mt7986/release/bl2/bl2_main.o
                0x0000000000201790                bl2_el3_setup
 .text.bl2_main
                0x00000000002017a4       0x6c /media/data_nvme/git/uboot/u-boot/build/mt7986/release/bl2/bl2_main.o
                0x00000000002017a4                bl2_main
 .text.flush_bl_params_desc_args
                0x0000000000201810       0x30 /media/data_nvme/git/uboot/u-boot/build/mt7986/release/bl2/desc_image_load.o
                0x0000000000201810                flush_bl_params_desc_args
 .text.flush_bl_params_desc
                0x0000000000201840       0x1c /media/data_nvme/git/uboot/u-boot/build/mt7986/release/bl2/desc_image_load.o
                0x0000000000201840                flush_bl_params_desc
 .text.get_bl_params_node_index
                0x000000000020185c       0x4c /media/data_nvme/git/uboot/u-boot/build/mt7986/release/bl2/desc_image_load.o
                0x000000000020185c                get_bl_params_node_index
 .text.get_bl_mem_params_node
                0x00000000002018a8       0x30 /media/data_nvme/git/uboot/u-boot/build/mt7986/release/bl2/desc_image_load.o
                0x00000000002018a8                get_bl_mem_params_node
 .text.get_bl_load_info_from_mem_params_desc
                0x00000000002018d8       0x74 /media/data_nvme/git/uboot/u-boot/build/mt7986/release/bl2/desc_image_load.o
                0x00000000002018d8                get_bl_load_info_from_mem_params_desc
 .text.get_next_bl_params_from_mem_params_desc
                0x000000000020194c       0xd8 /media/data_nvme/git/uboot/u-boot/build/mt7986/release/bl2/desc_image_load.o
                0x000000000020194c                get_next_bl_params_from_mem_params_desc
 .text.image_decompress_init
                0x0000000000201a24       0x1c /media/data_nvme/git/uboot/u-boot/build/mt7986/release/bl2/image_decompress.o
                0x0000000000201a24                image_decompress_init
 .text.image_decompress_prepare
                0x0000000000201a40       0x3c /media/data_nvme/git/uboot/u-boot/build/mt7986/release/bl2/image_decompress.o
                0x0000000000201a40                image_decompress_prepare
 .text.image_decompress
                0x0000000000201a7c       0xa8 /media/data_nvme/git/uboot/u-boot/build/mt7986/release/bl2/image_decompress.o
                0x0000000000201a7c                image_decompress
 .text.tf_crc32
                0x0000000000201b24       0x28 /media/data_nvme/git/uboot/u-boot/build/mt7986/release/bl2/tf_crc32.o
                0x0000000000201b24                tf_crc32
 .text.udelay   0x0000000000201b4c       0x68 /media/data_nvme/git/uboot/u-boot/build/mt7986/release/bl2/delay_timer.o
                0x0000000000201b4c                udelay
 .text.mdelay   0x0000000000201bb4        0xc /media/data_nvme/git/uboot/u-boot/build/mt7986/release/bl2/delay_timer.o
                0x0000000000201bb4                mdelay
 .text.timer_init
                0x0000000000201bc0        0xc /media/data_nvme/git/uboot/u-boot/build/mt7986/release/bl2/delay_timer.o
                0x0000000000201bc0                timer_init
 .text.gpio_init
                0x0000000000201bcc        0xc /media/data_nvme/git/uboot/u-boot/build/mt7986/release/bl2/gpio.o
                0x0000000000201bcc                gpio_init
 .text.device_type_block
                0x0000000000201bd8        0x8 /media/data_nvme/git/uboot/u-boot/build/mt7986/release/bl2/io_block.o
                0x0000000000201bd8                device_type_block
 .text.block_open
                0x0000000000201be0       0x1c /media/data_nvme/git/uboot/u-boot/build/mt7986/release/bl2/io_block.o
 .text.block_seek
                0x0000000000201bfc       0x30 /media/data_nvme/git/uboot/u-boot/build/mt7986/release/bl2/io_block.o
 .text.block_close
                0x0000000000201c2c        0xc /media/data_nvme/git/uboot/u-boot/build/mt7986/release/bl2/io_block.o
 .text.block_write
                0x0000000000201c38      0x15c /media/data_nvme/git/uboot/u-boot/build/mt7986/release/bl2/io_block.o
 .text.block_read
                0x0000000000201d94       0xfc /media/data_nvme/git/uboot/u-boot/build/mt7986/release/bl2/io_block.o
 .text.block_dev_close
                0x0000000000201e90       0x64 /media/data_nvme/git/uboot/u-boot/build/mt7986/release/bl2/io_block.o
 .text.block_dev_open
                0x0000000000201ef4       0x60 /media/data_nvme/git/uboot/u-boot/build/mt7986/release/bl2/io_block.o
 .text.register_io_dev_block
                0x0000000000201f54       0x38 /media/data_nvme/git/uboot/u-boot/build/mt7986/release/bl2/io_block.o
                0x0000000000201f54                register_io_dev_block
 .text.device_type_fip
                0x0000000000201f8c        0x8 /media/data_nvme/git/uboot/u-boot/build/mt7986/release/bl2/io_fip.o
 .text.fip_file_len
                0x0000000000201f94       0x14 /media/data_nvme/git/uboot/u-boot/build/mt7986/release/bl2/io_fip.o
 .text.fip_file_close
                0x0000000000201fa8       0x3c /media/data_nvme/git/uboot/u-boot/build/mt7986/release/bl2/io_fip.o
 .text.fip_dev_init
                0x0000000000201fe4       0xb4 /media/data_nvme/git/uboot/u-boot/build/mt7986/release/bl2/io_fip.o
 .text.fip_file_read
                0x0000000000202098       0xb8 /media/data_nvme/git/uboot/u-boot/build/mt7986/release/bl2/io_fip.o
 .text.fip_dev_open
                0x0000000000202150       0x60 /media/data_nvme/git/uboot/u-boot/build/mt7986/release/bl2/io_fip.o
 .text.fip_file_open
                0x00000000002021b0       0xf4 /media/data_nvme/git/uboot/u-boot/build/mt7986/release/bl2/io_fip.o
 .text.fip_dev_close
                0x00000000002022a4       0x5c /media/data_nvme/git/uboot/u-boot/build/mt7986/release/bl2/io_fip.o
 .text.register_io_dev_fip
                0x0000000000202300       0x38 /media/data_nvme/git/uboot/u-boot/build/mt7986/release/bl2/io_fip.o
                0x0000000000202300                register_io_dev_fip
 .text.free_entity.isra.0
                0x0000000000202338       0x44 /media/data_nvme/git/uboot/u-boot/build/mt7986/release/bl2/io_storage.o
 .text.io_register_device
                0x000000000020237c       0x28 /media/data_nvme/git/uboot/u-boot/build/mt7986/release/bl2/io_storage.o
                0x000000000020237c                io_register_device
 .text.io_dev_open
                0x00000000002023a4       0x18 /media/data_nvme/git/uboot/u-boot/build/mt7986/release/bl2/io_storage.o
                0x00000000002023a4                io_dev_open
 .text.io_dev_init
                0x00000000002023bc       0x1c /media/data_nvme/git/uboot/u-boot/build/mt7986/release/bl2/io_storage.o
                0x00000000002023bc                io_dev_init
 .text.io_dev_close
                0x00000000002023d8       0x1c /media/data_nvme/git/uboot/u-boot/build/mt7986/release/bl2/io_storage.o
                0x00000000002023d8                io_dev_close
 .text.io_open  0x00000000002023f4       0xd4 /media/data_nvme/git/uboot/u-boot/build/mt7986/release/bl2/io_storage.o
                0x00000000002023f4                io_open
 .text.io_seek  0x00000000002024c8       0x20 /media/data_nvme/git/uboot/u-boot/build/mt7986/release/bl2/io_storage.o
                0x00000000002024c8                io_seek
 .text.io_size  0x00000000002024e8       0x20 /media/data_nvme/git/uboot/u-boot/build/mt7986/release/bl2/io_storage.o
                0x00000000002024e8                io_size
 .text.io_read  0x0000000000202508       0x20 /media/data_nvme/git/uboot/u-boot/build/mt7986/release/bl2/io_storage.o
                0x0000000000202508                io_read
 .text.io_close
                0x0000000000202528       0x48 /media/data_nvme/git/uboot/u-boot/build/mt7986/release/bl2/io_storage.o
                0x0000000000202528                io_close
 .text.mmc_send_cmd
                0x0000000000202570       0xf0 /media/data_nvme/git/uboot/u-boot/build/mt7986/release/bl2/mmc.o
 .text.mmc_device_state
                0x0000000000202660       0x74 /media/data_nvme/git/uboot/u-boot/build/mt7986/release/bl2/mmc.o
 .text.sd_switch.constprop.0
                0x00000000002026d4       0x9c /media/data_nvme/git/uboot/u-boot/build/mt7986/release/bl2/mmc.o
 .text.mmc_read_blocks
                0x0000000000202770      0x124 /media/data_nvme/git/uboot/u-boot/build/mt7986/release/bl2/mmc.o
                0x0000000000202770                mmc_read_blocks
 .text.mmc_init
                0x0000000000202894      0x5f8 /media/data_nvme/git/uboot/u-boot/build/mt7986/release/bl2/mmc.o
                0x0000000000202894                mmc_init
 .text.parse_gpt_entry
                0x0000000000202e8c       0xcc /media/data_nvme/git/uboot/u-boot/build/mt7986/release/bl2/gpt.o
                0x0000000000202e8c                parse_gpt_entry
 .text.load_partition_table
                0x0000000000202f58      0x298 /media/data_nvme/git/uboot/u-boot/build/mt7986/release/bl2/partition.o
                0x0000000000202f58                load_partition_table
 .text.get_partition_entry
                0x00000000002031f0       0x78 /media/data_nvme/git/uboot/u-boot/build/mt7986/release/bl2/partition.o
                0x00000000002031f0                get_partition_entry
 .text.partition_init
                0x0000000000203268        0x4 /media/data_nvme/git/uboot/u-boot/build/mt7986/release/bl2/partition.o
                0x0000000000203268                partition_init
 .text.xz_malloc
                0x000000000020326c       0x68 /media/data_nvme/git/uboot/u-boot/build/mt7986/release/bl2/tf_unxz.o
                0x000000000020326c                xz_malloc
 .text.unxz     0x00000000002032d4      0x13c /media/data_nvme/git/uboot/u-boot/build/mt7986/release/bl2/tf_unxz.o
                0x00000000002032d4                unxz
 .text.xz_crc32_init
                0x0000000000203410       0x44 /media/data_nvme/git/uboot/u-boot/build/mt7986/release/bl2/xz_crc32.o
                0x0000000000203410                xz_crc32_init
 .text.xz_crc32
                0x0000000000203454       0x3c /media/data_nvme/git/uboot/u-boot/build/mt7986/release/bl2/xz_crc32.o
                0x0000000000203454                xz_crc32
 .text.dict_repeat
                0x0000000000203490       0xac /media/data_nvme/git/uboot/u-boot/build/mt7986/release/bl2/xz_dec_lzma2.o
 .text.lzma_len
                0x000000000020353c      0x1d4 /media/data_nvme/git/uboot/u-boot/build/mt7986/release/bl2/xz_dec_lzma2.o
 .text.lzma_main
                0x0000000000203710      0x8c8 /media/data_nvme/git/uboot/u-boot/build/mt7986/release/bl2/xz_dec_lzma2.o
 .text.xz_dec_lzma2_run
                0x0000000000203fd8      0x668 /media/data_nvme/git/uboot/u-boot/build/mt7986/release/bl2/xz_dec_lzma2.o
                0x0000000000203fd8                xz_dec_lzma2_run
 .text.xz_dec_lzma2_create
                0x0000000000204640       0x34 /media/data_nvme/git/uboot/u-boot/build/mt7986/release/bl2/xz_dec_lzma2.o
                0x0000000000204640                xz_dec_lzma2_create
 .text.xz_dec_lzma2_reset
                0x0000000000204674       0x4c /media/data_nvme/git/uboot/u-boot/build/mt7986/release/bl2/xz_dec_lzma2.o
                0x0000000000204674                xz_dec_lzma2_reset
 .text.xz_dec_lzma2_end
                0x00000000002046c0        0x4 /media/data_nvme/git/uboot/u-boot/build/mt7986/release/bl2/xz_dec_lzma2.o
                0x00000000002046c0                xz_dec_lzma2_end
 .text.get_unaligned_le32
                0x00000000002046c4       0x20 /media/data_nvme/git/uboot/u-boot/build/mt7986/release/bl2/xz_dec_stream.o
 .text.dec_vli  0x00000000002046e4       0x78 /media/data_nvme/git/uboot/u-boot/build/mt7986/release/bl2/xz_dec_stream.o
 .text.index_update
                0x000000000020475c       0x48 /media/data_nvme/git/uboot/u-boot/build/mt7986/release/bl2/xz_dec_stream.o
 .text.fill_temp
                0x00000000002047a4       0x94 /media/data_nvme/git/uboot/u-boot/build/mt7986/release/bl2/xz_dec_stream.o
 .text.xz_dec_reset
                0x0000000000204838       0x50 /media/data_nvme/git/uboot/u-boot/build/mt7986/release/bl2/xz_dec_stream.o
                0x0000000000204838                xz_dec_reset
 .text.xz_dec_run
                0x0000000000204888      0x700 /media/data_nvme/git/uboot/u-boot/build/mt7986/release/bl2/xz_dec_stream.o
                0x0000000000204888                xz_dec_run
 .text.xz_dec_init
                0x0000000000204f88       0x64 /media/data_nvme/git/uboot/u-boot/build/mt7986/release/bl2/xz_dec_stream.o
                0x0000000000204f88                xz_dec_init
 .text.xz_dec_end
                0x0000000000204fec       0x10 /media/data_nvme/git/uboot/u-boot/build/mt7986/release/bl2/xz_dec_stream.o
                0x0000000000204fec                xz_dec_end
 .text.mtk_mmc_gpt_image_setup
                0x0000000000204ffc       0x6c /media/data_nvme/git/uboot/u-boot/build/mt7986/release/bl2/bl2_boot_mmc.o
                0x0000000000204ffc                mtk_mmc_gpt_image_setup
 .text.mtk_fip_image_setup
                0x0000000000205068       0x74 /media/data_nvme/git/uboot/u-boot/build/mt7986/release/bl2/bl2_boot_mmc.o
                0x0000000000205068                mtk_fip_image_setup
 .text.check_gpt_dev
                0x00000000002050dc       0x10 /media/data_nvme/git/uboot/u-boot/build/mt7986/release/bl2/bl2_plat_setup.o
 .text.check_boot_dev
                0x00000000002050ec       0x10 /media/data_nvme/git/uboot/u-boot/build/mt7986/release/bl2/bl2_plat_setup.o
 .text.check_fip
                0x00000000002050fc       0x48 /media/data_nvme/git/uboot/u-boot/build/mt7986/release/bl2/bl2_plat_setup.o
 .text.plat_get_image_source
                0x0000000000205144       0x68 /media/data_nvme/git/uboot/u-boot/build/mt7986/release/bl2/bl2_plat_setup.o
                0x0000000000205144                plat_get_image_source
 .text.bl2_plat_preload_setup
                0x00000000002051ac       0x14 /media/data_nvme/git/uboot/u-boot/build/mt7986/release/bl2/bl2_plat_setup.o
                0x00000000002051ac                bl2_plat_preload_setup
 .text.bl2_plat_handle_pre_image_load
                0x00000000002051c0       0x2c /media/data_nvme/git/uboot/u-boot/build/mt7986/release/bl2/bl2_plat_setup.o
                0x00000000002051c0                bl2_plat_handle_pre_image_load
 .text.bl2_plat_handle_post_image_load
                0x00000000002051ec       0x38 /media/data_nvme/git/uboot/u-boot/build/mt7986/release/bl2/bl2_plat_setup.o
                0x00000000002051ec                bl2_plat_handle_post_image_load
 .text.plat_get_bl_image_load_info
                0x0000000000205224        0x4 /media/data_nvme/git/uboot/u-boot/build/mt7986/release/bl2/bl2_plat_setup.o
                0x0000000000205224                plat_get_bl_image_load_info
 .text.plat_get_next_bl_params
                0x0000000000205228        0x4 /media/data_nvme/git/uboot/u-boot/build/mt7986/release/bl2/bl2_plat_setup.o
                0x0000000000205228                plat_get_next_bl_params
 .text.plat_flush_next_bl_params
                0x000000000020522c        0x4 /media/data_nvme/git/uboot/u-boot/build/mt7986/release/bl2/bl2_plat_setup.o
                0x000000000020522c                plat_flush_next_bl_params
 .text.platform_mem_init
                0x0000000000205230        0x4 /media/data_nvme/git/uboot/u-boot/build/mt7986/release/bl2/bl2_plat_setup.o
                0x0000000000205230                platform_mem_init
 .text.bl2_el3_early_platform_setup
                0x0000000000205234       0x28 /media/data_nvme/git/uboot/u-boot/build/mt7986/release/bl2/bl2_plat_setup.o
                0x0000000000205234                bl2_el3_early_platform_setup
 .text.bl2_platform_setup
                0x000000000020525c       0x8c /media/data_nvme/git/uboot/u-boot/build/mt7986/release/bl2/bl2_plat_setup.o
                0x000000000020525c                bl2_platform_setup
 .text.mtk_gpt_stop
                0x00000000002052e8       0x14 /media/data_nvme/git/uboot/u-boot/build/mt7986/release/bl2/mt_gpt.o
                0x00000000002052e8                mtk_gpt_stop
 .text.mtk_gpt_start
                0x00000000002052fc       0x60 /media/data_nvme/git/uboot/u-boot/build/mt7986/release/bl2/mt_gpt.o
                0x00000000002052fc                mtk_gpt_start
 .text.mtk_gpt_reset
                0x000000000020535c       0x18 /media/data_nvme/git/uboot/u-boot/build/mt7986/release/bl2/mt_gpt.o
                0x000000000020535c                mtk_gpt_reset
 .text.mtk_gpt_init
                0x0000000000205374       0x64 /media/data_nvme/git/uboot/u-boot/build/mt7986/release/bl2/mt_gpt.o
                0x0000000000205374                mtk_gpt_init
 .text.mtk_gpt_get_counter
                0x00000000002053d8       0x60 /media/data_nvme/git/uboot/u-boot/build/mt7986/release/bl2/mt_gpt.o
                0x00000000002053d8                mtk_gpt_get_counter
 .text.msdc_card_busy
                0x0000000000205438       0x18 /media/data_nvme/git/uboot/u-boot/build/mt7986/release/bl2/mtk-sd.o
 .text.mtk_mmc_prepare
                0x0000000000205450       0x58 /media/data_nvme/git/uboot/u-boot/build/mt7986/release/bl2/mtk-sd.o
 .text.mtk_mmc_write
                0x00000000002054a8        0x8 /media/data_nvme/git/uboot/u-boot/build/mt7986/release/bl2/mtk-sd.o
 .text.mtk_mmc_read
                0x00000000002054b0      0x17c /media/data_nvme/git/uboot/u-boot/build/mt7986/release/bl2/mtk-sd.o
 .text.msdc_ops_set_ios
                0x000000000020562c      0x1a8 /media/data_nvme/git/uboot/u-boot/build/mt7986/release/bl2/mtk-sd.o
 .text.msdc_reset_hw.constprop.0
                0x00000000002057d4       0x20 /media/data_nvme/git/uboot/u-boot/build/mt7986/release/bl2/mtk-sd.o
 .text.msdc_init_hw
                0x00000000002057f4      0x228 /media/data_nvme/git/uboot/u-boot/build/mt7986/release/bl2/mtk-sd.o
 .text.mtk_mmc_send_cmd
                0x0000000000205a1c      0x224 /media/data_nvme/git/uboot/u-boot/build/mt7986/release/bl2/mtk-sd.o
 .text.mtk_mmc_init
                0x0000000000205c40       0x54 /media/data_nvme/git/uboot/u-boot/build/mt7986/release/bl2/mtk-sd.o
                0x0000000000205c40                mtk_mmc_init
 .text.mtk_plat_mmc_setup
                0x0000000000205c94      0x1f4 /media/data_nvme/git/uboot/u-boot/build/mt7986/release/bl2/bl2_dev_mmc.o
                0x0000000000205c94                mtk_plat_mmc_setup
 .text.mtk_clock_init
                0x0000000000205e88        0x4 /media/data_nvme/git/uboot/u-boot/build/mt7986/release/bl2/bl2_plat_init.o
 .text.mtk_netsys_init
                0x0000000000205e8c       0x28 /media/data_nvme/git/uboot/u-boot/build/mt7986/release/bl2/bl2_plat_init.o
 .text.mtk_pcie_init
                0x0000000000205eb4       0x10 /media/data_nvme/git/uboot/u-boot/build/mt7986/release/bl2/bl2_plat_init.o
 .text.mtk_rng_init
                0x0000000000205ec4       0x18 /media/data_nvme/git/uboot/u-boot/build/mt7986/release/bl2/bl2_plat_init.o
 .text.mtk_dcm_init
                0x0000000000205edc       0x10 /media/data_nvme/git/uboot/u-boot/build/mt7986/release/bl2/bl2_plat_init.o
 .text.mtk_print_cpu
                0x0000000000205eec       0x28 /media/data_nvme/git/uboot/u-boot/build/mt7986/release/bl2/bl2_plat_init.o
 .text.mt7986_pll_init
                0x0000000000205f14        0x8 /media/data_nvme/git/uboot/u-boot/build/mt7986/release/bl2/bl2_plat_init.o
 .text.mtk_wdt_init
                0x0000000000205f1c       0x18 /media/data_nvme/git/uboot/u-boot/build/mt7986/release/bl2/bl2_plat_init.o
 .text.mt7986_i2c_init
                0x0000000000205f34        0x4 /media/data_nvme/git/uboot/u-boot/build/mt7986/release/bl2/bl2_plat_init.o
 .text.bl2_el3_plat_arch_setup
                0x0000000000205f38        0x4 /media/data_nvme/git/uboot/u-boot/build/mt7986/release/bl2/bl2_plat_init.o
                0x0000000000205f38                bl2_el3_plat_arch_setup
 .text.plat_is_my_cpu_primary
                0x0000000000205f3c        0x8 /media/data_nvme/git/uboot/u-boot/build/mt7986/release/bl2/bl2_plat_init.o
                0x0000000000205f3c                plat_is_my_cpu_primary
 .text.mtk_mem_init
                0x0000000000205f44       0x2c /media/data_nvme/git/uboot/u-boot/build/mt7986/release/bl2/emicfg.o
                0x0000000000205f44                mtk_mem_init
 .text.mtk_mem_dbg_print
                0x0000000000205f70       0x60 /media/data_nvme/git/uboot/u-boot/build/mt7986/release/bl2/emicfg.o
                0x0000000000205f70                mtk_mem_dbg_print
 .text.mtk_mem_err_print
                0x0000000000205fd0       0x84 /media/data_nvme/git/uboot/u-boot/build/mt7986/release/bl2/emicfg.o
                0x0000000000205fd0                mtk_mem_err_print
 .text.mt_set_pinmux_mode
                0x0000000000206054       0x60 /media/data_nvme/git/uboot/u-boot/build/mt7986/release/bl2/mt7986_gpio.o
 .text.mt_get_pinmux_mode
                0x00000000002060b4       0x3c /media/data_nvme/git/uboot/u-boot/build/mt7986/release/bl2/mt7986_gpio.o
 .text.mt_set_gpio_dir
                0x00000000002060f0       0x68 /media/data_nvme/git/uboot/u-boot/build/mt7986/release/bl2/mt7986_gpio.o
 .text.mt_get_gpio_dir
                0x0000000000206158       0x40 /media/data_nvme/git/uboot/u-boot/build/mt7986/release/bl2/mt7986_gpio.o
 .text.mt_set_gpio_out
                0x0000000000206198       0x48 /media/data_nvme/git/uboot/u-boot/build/mt7986/release/bl2/mt7986_gpio.o
 .text.mt_get_gpio_in
                0x00000000002061e0       0x3c /media/data_nvme/git/uboot/u-boot/build/mt7986/release/bl2/mt7986_gpio.o
 .text.mt_gpio_find_reg_addr
                0x000000000020621c       0x38 /media/data_nvme/git/uboot/u-boot/build/mt7986/release/bl2/mt7986_gpio.o
 .text.mt_gpio_set_pull_pupd
                0x0000000000206254       0xac /media/data_nvme/git/uboot/u-boot/build/mt7986/release/bl2/mt7986_gpio.o
 .text.mt_get_gpio_pull
                0x0000000000206300       0xa8 /media/data_nvme/git/uboot/u-boot/build/mt7986/release/bl2/mt7986_gpio.o
 .text.mt_set_gpio_pull
                0x00000000002063a8       0x34 /media/data_nvme/git/uboot/u-boot/build/mt7986/release/bl2/mt7986_gpio.o
 .text.mtk_pin_init
                0x00000000002063dc        0xc /media/data_nvme/git/uboot/u-boot/build/mt7986/release/bl2/mt7986_gpio.o
                0x00000000002063dc                mtk_pin_init
 .text.mt7986_set_default_pinmux
                0x00000000002063e8       0x84 /media/data_nvme/git/uboot/u-boot/build/mt7986/release/bl2/mt7986_gpio.o
                0x00000000002063e8                mt7986_set_default_pinmux
 .text.mt_get_ckgen_ck_freq
                0x000000000020646c       0xac /media/data_nvme/git/uboot/u-boot/build/mt7986/release/bl2/pll.o
                0x000000000020646c                mt_get_ckgen_ck_freq
 .text.mtk_pll_init
                0x0000000000206518      0x3f0 /media/data_nvme/git/uboot/u-boot/build/mt7986/release/bl2/pll.o
                0x0000000000206518                mtk_pll_init
 .text.get_timer_value
                0x0000000000206908       0x20 /media/data_nvme/git/uboot/u-boot/build/mt7986/release/bl2/timer.o
 .text.mtk_timer_init
                0x0000000000206928       0x78 /media/data_nvme/git/uboot/u-boot/build/mt7986/release/bl2/timer.o
                0x0000000000206928                mtk_timer_init
 .text.mtk_wdt_control
                0x00000000002069a0       0x50 /media/data_nvme/git/uboot/u-boot/build/mt7986/release/bl2/mtk_wdt.o
                0x00000000002069a0                mtk_wdt_control
 .text.mtk_wdt_print_status
                0x00000000002069f0       0xc8 /media/data_nvme/git/uboot/u-boot/build/mt7986/release/bl2/mtk_wdt.o
                0x00000000002069f0                mtk_wdt_print_status
 .text.load_auth_image
                0x0000000000206ab8       0xec /media/data_nvme/git/uboot/u-boot/build/mt7986/release/bl2/bl_common.o
                0x0000000000206ab8                load_auth_image
 .text.print_entry_point_info
                0x0000000000206ba4        0x4 /media/data_nvme/git/uboot/u-boot/build/mt7986/release/bl2/bl_common.o
                0x0000000000206ba4                print_entry_point_info
 .text.tf_log   0x0000000000206ba8       0x94 /media/data_nvme/git/uboot/u-boot/build/mt7986/release/bl2/tf_log.o
                0x0000000000206ba8                tf_log
 .text.console_is_registered
                0x0000000000206c3c       0x2c /media/data_nvme/git/uboot/u-boot/build/mt7986/release/bl2/multi_console.o
                0x0000000000206c3c                console_is_registered
 .text.console_register
                0x0000000000206c68       0x34 /media/data_nvme/git/uboot/u-boot/build/mt7986/release/bl2/multi_console.o
                0x0000000000206c68                console_register
 .text.console_putc
                0x0000000000206c9c       0x9c /media/data_nvme/git/uboot/u-boot/build/mt7986/release/bl2/multi_console.o
                0x0000000000206c9c                console_putc
 .text.putchar  0x0000000000206d38       0x28 /media/data_nvme/git/uboot/u-boot/build/mt7986/release/bl2/multi_console.o
                0x0000000000206d38                putchar
 .text.console_flush
                0x0000000000206d60       0x54 /media/data_nvme/git/uboot/u-boot/build/mt7986/release/bl2/multi_console.o
                0x0000000000206d60                console_flush
 .text.bl2_el3_plat_prepare_exit
                0x0000000000206db4        0x4 /media/data_nvme/git/uboot/u-boot/build/mt7986/release/bl2/plat_bl_common.o
                0x0000000000206db4                bl2_el3_plat_prepare_exit
 .text.plat_error_handler
                0x0000000000206db8        0x8 /media/data_nvme/git/uboot/u-boot/build/mt7986/release/bl2/plat_bl_common.o
                0x0000000000206db8                plat_error_handler
 .text.plat_try_next_boot_source
                0x0000000000206dc0        0x8 /media/data_nvme/git/uboot/u-boot/build/mt7986/release/bl2/plat_bl_common.o
                0x0000000000206dc0                plat_try_next_boot_source
 .text.plat_log_get_prefix
                0x0000000000206dc8       0x30 /media/data_nvme/git/uboot/u-boot/build/mt7986/release/bl2/plat_log_common.o
                0x0000000000206dc8                plat_log_get_prefix
 .text.complex_mem_test
                0x0000000000206df8      0x6dc plat/mediatek/mt7986/drivers/dram/release/dram.o
                0x0000000000206df8                complex_mem_test
 .text.mtk_mem_init_real
                0x00000000002074d4      0x13c plat/mediatek/mt7986/drivers/dram/release/dram.o
                0x00000000002074d4                mtk_mem_init_real
 .text.ANA_PLL_shuffle_Config
                0x0000000000207610      0x2a0 plat/mediatek/mt7986/drivers/dram/release/dram.o
                0x0000000000207610                ANA_PLL_shuffle_Config
 .text.ANA_CLK_DIV_config_setting
                0x00000000002078b0      0xb40 plat/mediatek/mt7986/drivers/dram/release/dram.o
                0x00000000002078b0                ANA_CLK_DIV_config_setting
 .text.ANA_DLL_non_shuffle_config
                0x00000000002083f0      0x2e0 plat/mediatek/mt7986/drivers/dram/release/dram.o
                0x00000000002083f0                ANA_DLL_non_shuffle_config
 .text.ANA_DLL_shuffle_Config
                0x00000000002086d0      0x480 plat/mediatek/mt7986/drivers/dram/release/dram.o
                0x00000000002086d0                ANA_DLL_shuffle_Config
 .text.ANA_ARPI_shuffle_config
                0x0000000000208b50      0x27c plat/mediatek/mt7986/drivers/dram/release/dram.o
                0x0000000000208b50                ANA_ARPI_shuffle_config
 .text.ANA_TX_nonshuffle_config
                0x0000000000208dcc      0xd5c plat/mediatek/mt7986/drivers/dram/release/dram.o
                0x0000000000208dcc                ANA_TX_nonshuffle_config
 .text.ANA_TX_shuffle_config
                0x0000000000209b28      0x368 plat/mediatek/mt7986/drivers/dram/release/dram.o
                0x0000000000209b28                ANA_TX_shuffle_config
 .text.ANA_RX_shuffle_config
                0x0000000000209e90      0x328 plat/mediatek/mt7986/drivers/dram/release/dram.o
                0x0000000000209e90                ANA_RX_shuffle_config
 .text.ANA_RX_nonshuffle_config
                0x000000000020a1b8      0x33c plat/mediatek/mt7986/drivers/dram/release/dram.o
                0x000000000020a1b8                ANA_RX_nonshuffle_config
 .text.RESETB_PULL_DN
                0x000000000020a4f4       0xb0 plat/mediatek/mt7986/drivers/dram/release/dram.o
                0x000000000020a4f4                RESETB_PULL_DN
 .text.SUSPEND_ON
                0x000000000020a5a4       0xd0 plat/mediatek/mt7986/drivers/dram/release/dram.o
                0x000000000020a5a4                SUSPEND_ON
 .text.SPM_control
                0x000000000020a674      0x1cc plat/mediatek/mt7986/drivers/dram/release/dram.o
                0x000000000020a674                SPM_control
 .text.ANA_OPEN_LOOP_MODE_config
                0x000000000020a840      0x178 plat/mediatek/mt7986/drivers/dram/release/dram.o
                0x000000000020a840                ANA_OPEN_LOOP_MODE_config
 .text.DIG_DCM_nonshuffle_config
                0x000000000020a9b8       0x54 plat/mediatek/mt7986/drivers/dram/release/dram.o
                0x000000000020a9b8                DIG_DCM_nonshuffle_config
 .text.DIG_PHY_SHU_MISC_CG_CTRL
                0x000000000020aa0c       0x1c plat/mediatek/mt7986/drivers/dram/release/dram.o
                0x000000000020aa0c                DIG_PHY_SHU_MISC_CG_CTRL
 .text.ANA_IMP_configure
                0x000000000020aa28       0x64 plat/mediatek/mt7986/drivers/dram/release/dram.o
                0x000000000020aa28                ANA_IMP_configure
 .text.ANA_CLOCK_SWITCH
                0x000000000020aa8c      0x230 plat/mediatek/mt7986/drivers/dram/release/dram.o
                0x000000000020aa8c                ANA_CLOCK_SWITCH
 .text.ANA_Config_nonshuffle
                0x000000000020acbc       0x70 plat/mediatek/mt7986/drivers/dram/release/dram.o
                0x000000000020acbc                ANA_Config_nonshuffle
 .text.ANA_Config_shuffle
                0x000000000020ad2c       0x94 plat/mediatek/mt7986/drivers/dram/release/dram.o
                0x000000000020ad2c                ANA_Config_shuffle
 .text.ANA_PHY_Config
                0x000000000020adc0       0x30 plat/mediatek/mt7986/drivers/dram/release/dram.o
                0x000000000020adc0                ANA_PHY_Config
 .text.ANA_PLL_sequence
                0x000000000020adf0       0xa8 plat/mediatek/mt7986/drivers/dram/release/dram.o
                0x000000000020adf0                ANA_PLL_sequence
 .text.ANA_MIDPI_sequence
                0x000000000020ae98      0x738 plat/mediatek/mt7986/drivers/dram/release/dram.o
                0x000000000020ae98                ANA_MIDPI_sequence
 .text.ANA_DLL_sequence
                0x000000000020b5d0      0x264 plat/mediatek/mt7986/drivers/dram/release/dram.o
                0x000000000020b5d0                ANA_DLL_sequence
 .text.ANA_ClockOff_Sequence
                0x000000000020b834      0x298 plat/mediatek/mt7986/drivers/dram/release/dram.o
                0x000000000020b834                ANA_ClockOff_Sequence
 .text.ANA_ClockOff_Sequence_DRM
                0x000000000020bacc       0x54 plat/mediatek/mt7986/drivers/dram/release/dram.o
                0x000000000020bacc                ANA_ClockOff_Sequence_DRM
 .text.ANA_init_DRM
                0x000000000020bb20       0x64 plat/mediatek/mt7986/drivers/dram/release/dram.o
                0x000000000020bb20                ANA_init_DRM
 .text.ANA_init_sequence
                0x000000000020bb84       0x70 plat/mediatek/mt7986/drivers/dram/release/dram.o
                0x000000000020bb84                ANA_init_sequence
 .text.ANA_init
                0x000000000020bbf4       0x68 plat/mediatek/mt7986/drivers/dram/release/dram.o
                0x000000000020bbf4                ANA_init
 .text.DIG_PHY_config
                0x000000000020bc5c      0x390 plat/mediatek/mt7986/drivers/dram/release/dram.o
                0x000000000020bc5c                DIG_PHY_config
 .text.GATING_MODE_CFG
                0x000000000020bfec      0x138 plat/mediatek/mt7986/drivers/dram/release/dram.o
                0x000000000020bfec                GATING_MODE_CFG
 .text.DPHY_GAT_TRACK_Config
                0x000000000020c124      0x860 plat/mediatek/mt7986/drivers/dram/release/dram.o
                0x000000000020c124                DPHY_GAT_TRACK_Config
 .text.DIG_CONFIG_NONSHUF_DCM
                0x000000000020c984      0x634 plat/mediatek/mt7986/drivers/dram/release/dram.o
                0x000000000020c984                DIG_CONFIG_NONSHUF_DCM
 .text.DDRPHY_PICG_Config
                0x000000000020cfb8       0x70 plat/mediatek/mt7986/drivers/dram/release/dram.o
                0x000000000020cfb8                DDRPHY_PICG_Config
 .text.DRAMC_COMMON_Config
                0x000000000020d028      0x9dc plat/mediatek/mt7986/drivers/dram/release/dram.o
                0x000000000020d028                DRAMC_COMMON_Config
 .text.IO_Release
                0x000000000020da04      0x124 plat/mediatek/mt7986/drivers/dram/release/dram.o
                0x000000000020da04                IO_Release
 .text.DIG_STATIC_SETTING
                0x000000000020db28       0x6c plat/mediatek/mt7986/drivers/dram/release/dram.o
                0x000000000020db28                DIG_STATIC_SETTING
 .text.DIG_CONFIG_SHUF_ALG_TXCA
                0x000000000020db94      0x1e0 plat/mediatek/mt7986/drivers/dram/release/dram.o
                0x000000000020db94                DIG_CONFIG_SHUF_ALG_TXCA
 .text.DIG_CONFIG_SHUF_MISC_FIX
                0x000000000020dd74      0x678 plat/mediatek/mt7986/drivers/dram/release/dram.o
                0x000000000020dd74                DIG_CONFIG_SHUF_MISC_FIX
 .text.DIG_CONFIG_SHUF_DCM
                0x000000000020e3ec      0x394 plat/mediatek/mt7986/drivers/dram/release/dram.o
                0x000000000020e3ec                DIG_CONFIG_SHUF_DCM
 .text.DIG_CONFIG_SHUF_DBI
                0x000000000020e780      0x130 plat/mediatek/mt7986/drivers/dram/release/dram.o
                0x000000000020e780                DIG_CONFIG_SHUF_DBI
 .text.DIG_CONFIG_SHUF_PC4_TX_PREAMBLE
                0x000000000020e8b0      0x108 plat/mediatek/mt7986/drivers/dram/release/dram.o
                0x000000000020e8b0                DIG_CONFIG_SHUF_PC4_TX_PREAMBLE
 .text.DIG_CONFIG_SHUF
                0x000000000020e9b8       0xe8 plat/mediatek/mt7986/drivers/dram/release/dram.o
                0x000000000020e9b8                DIG_CONFIG_SHUF
 .text.PC3_DRAM_INIT_CWL_MRfield_config
                0x000000000020eaa0       0xd8 plat/mediatek/mt7986/drivers/dram/release/dram.o
                0x000000000020eaa0                PC3_DRAM_INIT_CWL_MRfield_config
 .text.PC3_DRAM_INIT_CL_MRfield_config
                0x000000000020eb78       0xb0 plat/mediatek/mt7986/drivers/dram/release/dram.o
                0x000000000020eb78                PC3_DRAM_INIT_CL_MRfield_config
 .text.PC3_DRAM_config
                0x000000000020ec28       0xe4 plat/mediatek/mt7986/drivers/dram/release/dram.o
                0x000000000020ec28                PC3_DRAM_config
 .text.Get_WL_by_MR_PC3
                0x000000000020ed0c       0x6c plat/mediatek/mt7986/drivers/dram/release/dram.o
                0x000000000020ed0c                Get_WL_by_MR_PC3
 .text.Get_RL_by_MR_PC3
                0x000000000020ed78       0xe0 plat/mediatek/mt7986/drivers/dram/release/dram.o
                0x000000000020ed78                Get_RL_by_MR_PC3
 .text.PC4_WR_INIT_MRfiled_config
                0x000000000020ee58       0x4c plat/mediatek/mt7986/drivers/dram/release/dram.o
                0x000000000020ee58                PC4_WR_INIT_MRfiled_config
 .text.PC4_DRAM_INIT_CWL_MRfield_config
                0x000000000020eea4       0xb0 plat/mediatek/mt7986/drivers/dram/release/dram.o
                0x000000000020eea4                PC4_DRAM_INIT_CWL_MRfield_config
 .text.PC4_DRAM_INIT_CL_MRfield_config
                0x000000000020ef54       0xc4 plat/mediatek/mt7986/drivers/dram/release/dram.o
                0x000000000020ef54                PC4_DRAM_INIT_CL_MRfield_config
 .text.Get_WL_by_MR_PC4
                0x000000000020f018       0x78 plat/mediatek/mt7986/drivers/dram/release/dram.o
                0x000000000020f018                Get_WL_by_MR_PC4
 .text.PC4_DRAM_config
                0x000000000020f090       0xec plat/mediatek/mt7986/drivers/dram/release/dram.o
                0x000000000020f090                PC4_DRAM_config
 .text.Get_RL_by_MR_PC4
                0x000000000020f17c       0x78 plat/mediatek/mt7986/drivers/dram/release/dram.o
                0x000000000020f17c                Get_RL_by_MR_PC4
 .text.vSetDFSTable
                0x000000000020f1f4        0x8 plat/mediatek/mt7986/drivers/dram/release/dram.o
                0x000000000020f1f4                vSetDFSTable
 .text.vInitMappingFreqArray
                0x000000000020f1fc       0x64 plat/mediatek/mt7986/drivers/dram/release/dram.o
                0x000000000020f1fc                vInitMappingFreqArray
 .text.get_shuffleIndex_by_Freq
                0x000000000020f260       0x4c plat/mediatek/mt7986/drivers/dram/release/dram.o
                0x000000000020f260                get_shuffleIndex_by_Freq
 .text.ANA_TOP_FUNCTION_CFG
                0x000000000020f2ac       0xf8 plat/mediatek/mt7986/drivers/dram/release/dram.o
                0x000000000020f2ac                ANA_TOP_FUNCTION_CFG
 .text.ANA_CLK_DIV_config
                0x000000000020f3a4      0x470 plat/mediatek/mt7986/drivers/dram/release/dram.o
                0x000000000020f3a4                ANA_CLK_DIV_config
 .text.DRAMC_SUBSYS_PRE_CONFIG
                0x000000000020f814      0x27c plat/mediatek/mt7986/drivers/dram/release/dram.o
                0x000000000020f814                DRAMC_SUBSYS_PRE_CONFIG
 .text.u4RegBaseAddrTraslate
                0x000000000020fa90      0x1b4 plat/mediatek/mt7986/drivers/dram/release/dram.o
                0x000000000020fa90                u4RegBaseAddrTraslate
 .text.u4Dram_Register_Read
                0x000000000020fc44       0x2c plat/mediatek/mt7986/drivers/dram/release/dram.o
                0x000000000020fc44                u4Dram_Register_Read
 .text.ucDram_Register_Write
                0x000000000020fc70       0x30 plat/mediatek/mt7986/drivers/dram/release/dram.o
                0x000000000020fc70                ucDram_Register_Write
 .text.vIO32Write4BMsk2
                0x000000000020fca0       0x48 plat/mediatek/mt7986/drivers/dram/release/dram.o
                0x000000000020fca0                vIO32Write4BMsk2
 .text.vIO32Write4B_All2
                0x000000000020fce8       0x5c plat/mediatek/mt7986/drivers/dram/release/dram.o
                0x000000000020fce8                vIO32Write4B_All2
 .text.vIO32Write4BMsk_All2
                0x000000000020fd44       0x98 plat/mediatek/mt7986/drivers/dram/release/dram.o
                0x000000000020fd44                vIO32Write4BMsk_All2
 .text.get_dq_ca_p2s_latency
                0x000000000020fddc       0xf8 plat/mediatek/mt7986/drivers/dram/release/dram.o
                0x000000000020fddc                get_dq_ca_p2s_latency
 .text.get_dqsien_p2s_latency
                0x000000000020fed4       0xd0 plat/mediatek/mt7986/drivers/dram/release/dram.o
                0x000000000020fed4                get_dqsien_p2s_latency
 .text.get_oe_p2s_latency
                0x000000000020ffa4       0x80 plat/mediatek/mt7986/drivers/dram/release/dram.o
                0x000000000020ffa4                get_oe_p2s_latency
 .text.A_div_B_RU
                0x0000000000210024       0x20 plat/mediatek/mt7986/drivers/dram/release/dram.o
                0x0000000000210024                A_div_B_RU
 .text.print_TX_path_config
                0x0000000000210044      0x328 plat/mediatek/mt7986/drivers/dram/release/dram.o
                0x0000000000210044                print_TX_path_config
 .text.print_TX_path_attribution
                0x000000000021036c      0x524 plat/mediatek/mt7986/drivers/dram/release/dram.o
                0x000000000021036c                print_TX_path_attribution
 .text.get_TX_path_config
                0x0000000000210890      0x2a8 plat/mediatek/mt7986/drivers/dram/release/dram.o
                0x0000000000210890                get_TX_path_config
 .text.calculate_TX_path_rg_val
                0x0000000000210b38      0x808 plat/mediatek/mt7986/drivers/dram/release/dram.o
                0x0000000000210b38                calculate_TX_path_rg_val
 .text.TX_PATH_auto_gen_and_set
                0x0000000000211340      0x7f0 plat/mediatek/mt7986/drivers/dram/release/dram.o
                0x0000000000211340                TX_PATH_auto_gen_and_set
 .text.get_max_val
                0x0000000000211b30       0x2c plat/mediatek/mt7986/drivers/dram/release/dram.o
                0x0000000000211b30                get_max_val
 .text.get_min_val
                0x0000000000211b5c       0x2c plat/mediatek/mt7986/drivers/dram/release/dram.o
                0x0000000000211b5c                get_min_val
 .text.print_RX_path_config
                0x0000000000211b88      0x304 plat/mediatek/mt7986/drivers/dram/release/dram.o
                0x0000000000211b88                print_RX_path_config
 .text.print_RX_path_rg_val
                0x0000000000211e8c      0x454 plat/mediatek/mt7986/drivers/dram/release/dram.o
                0x0000000000211e8c                print_RX_path_rg_val
 .text.get_RX_path_config
                0x00000000002122e0      0x34c plat/mediatek/mt7986/drivers/dram/release/dram.o
                0x00000000002122e0                get_RX_path_config
 .text.calculate_RX_path_rg_val
                0x000000000021262c      0x768 plat/mediatek/mt7986/drivers/dram/release/dram.o
                0x000000000021262c                calculate_RX_path_rg_val
 .text.RX_PATH_auto_gen_and_set
                0x0000000000212d94      0x728 plat/mediatek/mt7986/drivers/dram/release/dram.o
                0x0000000000212d94                RX_PATH_auto_gen_and_set
 .text.print_HW_ZQCAL_config
                0x00000000002134bc       0x84 plat/mediatek/mt7986/drivers/dram/release/dram.o
                0x00000000002134bc                print_HW_ZQCAL_config
 .text.DRAMC_HW_FUNC_ZQCAL_config
                0x0000000000213540       0x48 plat/mediatek/mt7986/drivers/dram/release/dram.o
                0x0000000000213540                DRAMC_HW_FUNC_ZQCAL_config
 .text.DIG_HW_NONSHUF_ZQCAL_CFG
                0x0000000000213588       0xcc plat/mediatek/mt7986/drivers/dram/release/dram.o
                0x0000000000213588                DIG_HW_NONSHUF_ZQCAL_CFG
 .text.DIG_HW_SHUF_ZQCAL_CFG
                0x0000000000213654       0x80 plat/mediatek/mt7986/drivers/dram/release/dram.o
                0x0000000000213654                DIG_HW_SHUF_ZQCAL_CFG
 .text.DIG_HW_NONSHUF_ZQCAL_SWITCH
                0x00000000002136d4       0x74 plat/mediatek/mt7986/drivers/dram/release/dram.o
                0x00000000002136d4                DIG_HW_NONSHUF_ZQCAL_SWITCH
 .text.DIG_HW_NONSHUF_DQSG_SWITCH
                0x0000000000213748       0x8c plat/mediatek/mt7986/drivers/dram/release/dram.o
                0x0000000000213748                DIG_HW_NONSHUF_DQSG_SWITCH
 .text.DIG_HW_ATTRIBUTE_INIT
                0x00000000002137d4       0x20 plat/mediatek/mt7986/drivers/dram/release/dram.o
                0x00000000002137d4                DIG_HW_ATTRIBUTE_INIT
 .text.DIG_HW_NONSHUF_CFG
                0x00000000002137f4       0x5c plat/mediatek/mt7986/drivers/dram/release/dram.o
                0x00000000002137f4                DIG_HW_NONSHUF_CFG
 .text.DIG_HW_SHUF_CFG
                0x0000000000213850       0x20 plat/mediatek/mt7986/drivers/dram/release/dram.o
                0x0000000000213850                DIG_HW_SHUF_CFG
 .text.DIG_HW_NONSHUF_SWITCH
                0x0000000000213870       0x58 plat/mediatek/mt7986/drivers/dram/release/dram.o
                0x0000000000213870                DIG_HW_NONSHUF_SWITCH
 .text.DIG_HW_SHUF_SWITCH
                0x00000000002138c8        0x4 plat/mediatek/mt7986/drivers/dram/release/dram.o
                0x00000000002138c8                DIG_HW_SHUF_SWITCH
 .text.SetClkFreeRun
                0x00000000002138cc       0xe8 plat/mediatek/mt7986/drivers/dram/release/dram.o
                0x00000000002138cc                SetClkFreeRun
 .text.CKE_FIX_ON
                0x00000000002139b4       0x4c plat/mediatek/mt7986/drivers/dram/release/dram.o
                0x00000000002139b4                CKE_FIX_ON
 .text.CKE_FIX_OFF
                0x0000000000213a00       0x4c plat/mediatek/mt7986/drivers/dram/release/dram.o
                0x0000000000213a00                CKE_FIX_OFF
 .text.get_cen_emi_cona
                0x0000000000213a4c       0x14 plat/mediatek/mt7986/drivers/dram/release/dram.o
                0x0000000000213a4c                get_cen_emi_cona
 .text.get_chn_emi_cona
                0x0000000000213a60       0x14 plat/mediatek/mt7986/drivers/dram/release/dram.o
                0x0000000000213a60                get_chn_emi_cona
 .text.get_channel_nr_by_emi
                0x0000000000213a74       0x20 plat/mediatek/mt7986/drivers/dram/release/dram.o
                0x0000000000213a74                get_channel_nr_by_emi
 .text.get_dram_rank_size_by_EMI_CONA
                0x0000000000213a94      0x1d0 plat/mediatek/mt7986/drivers/dram/release/dram.o
                0x0000000000213a94                get_dram_rank_size_by_EMI_CONA
 .text.phy_addr_to_dram_addr
                0x0000000000213c64      0x18c plat/mediatek/mt7986/drivers/dram/release/dram.o
                0x0000000000213c64                phy_addr_to_dram_addr
 .text.emi_config
                0x0000000000213df0      0x594 plat/mediatek/mt7986/drivers/dram/release/dram.o
                0x0000000000213df0                emi_config
 .text.mem_init_emi
                0x0000000000214384      0x15c plat/mediatek/mt7986/drivers/dram/release/dram.o
                0x0000000000214384                mem_init_emi
 .text.mdl_setting
                0x00000000002144e0       0x38 plat/mediatek/mt7986/drivers/dram/release/dram.o
                0x00000000002144e0                mdl_setting
 .text.dramc_set_vcore_voltage
                0x0000000000214518        0x8 plat/mediatek/mt7986/drivers/dram/release/dram.o
                0x0000000000214518                dramc_set_vcore_voltage
 .text.dramc_get_vcore_voltage
                0x0000000000214520        0x8 plat/mediatek/mt7986/drivers/dram/release/dram.o
                0x0000000000214520                dramc_get_vcore_voltage
 .text.dramc_get_vdram_voltage
                0x0000000000214528        0x8 plat/mediatek/mt7986/drivers/dram/release/dram.o
                0x0000000000214528                dramc_get_vdram_voltage
 .text.dramc_get_vddq_voltage
                0x0000000000214530        0x8 plat/mediatek/mt7986/drivers/dram/release/dram.o
                0x0000000000214530                dramc_get_vddq_voltage
 .text.dramc_get_vmddr_voltage
                0x0000000000214538        0x8 plat/mediatek/mt7986/drivers/dram/release/dram.o
                0x0000000000214538                dramc_get_vmddr_voltage
 .text.dramc_get_vio18_voltage
                0x0000000000214540        0x8 plat/mediatek/mt7986/drivers/dram/release/dram.o
                0x0000000000214540                dramc_get_vio18_voltage
 .text.mt_get_dram_type_from_hw_trap
                0x0000000000214548       0x18 plat/mediatek/mt7986/drivers/dram/release/dram.o
                0x0000000000214548                mt_get_dram_type_from_hw_trap
 .text.mt_get_dram_type
                0x0000000000214560       0x3c plat/mediatek/mt7986/drivers/dram/release/dram.o
                0x0000000000214560                mt_get_dram_type
 .text.release_dram
                0x000000000021459c       0xf8 plat/mediatek/mt7986/drivers/dram/release/dram.o
                0x000000000021459c                release_dram
 .text.check_ddr_reserve_status
                0x0000000000214694      0x1a0 plat/mediatek/mt7986/drivers/dram/release/dram.o
                0x0000000000214694                check_ddr_reserve_status
 .text.get_dram_channel_nr
                0x0000000000214834        0x4 plat/mediatek/mt7986/drivers/dram/release/dram.o
                0x0000000000214834                get_dram_channel_nr
 .text.get_dram_rank_nr
                0x0000000000214838       0x18 plat/mediatek/mt7986/drivers/dram/release/dram.o
                0x0000000000214838                get_dram_rank_nr
 .text.mt_set_emi
                0x0000000000214850       0x90 plat/mediatek/mt7986/drivers/dram/release/dram.o
                0x0000000000214850                mt_set_emi
 .text.dram_auto_detect_size
                0x00000000002148e0      0x1fc plat/mediatek/mt7986/drivers/dram/release/dram.o
                0x00000000002148e0                dram_auto_detect_size
 .text.set_emi_cona_by_size
                0x0000000000214adc      0x178 plat/mediatek/mt7986/drivers/dram/release/dram.o
                0x0000000000214adc                set_emi_cona_by_size
 .text.doe_get_config
                0x0000000000214c54        0x8 plat/mediatek/mt7986/drivers/dram/release/dram.o
                0x0000000000214c54                doe_get_config
 .text.u1GetACTimingIdx_ddr3
                0x0000000000214c5c       0xcc plat/mediatek/mt7986/drivers/dram/release/dram.o
                0x0000000000214c5c                u1GetACTimingIdx_ddr3
 .text.u1GetACTimingIdx_ddr4
                0x0000000000214d28       0xdc plat/mediatek/mt7986/drivers/dram/release/dram.o
                0x0000000000214d28                u1GetACTimingIdx_ddr4
 .text.DdrUpdateACTiming
                0x0000000000214e04     0x15c4 plat/mediatek/mt7986/drivers/dram/release/dram.o
                0x0000000000214e04                DdrUpdateACTiming
 .text.GetDramcBroadcast
                0x00000000002163c8       0x10 plat/mediatek/mt7986/drivers/dram/release/dram.o
                0x00000000002163c8                GetDramcBroadcast
 .text.DramcBroadcastOnOff
                0x00000000002163d8        0x4 plat/mediatek/mt7986/drivers/dram/release/dram.o
                0x00000000002163d8                DramcBroadcastOnOff
 .text.vSetPHY2ChannelMapping
                0x00000000002163dc        0xc plat/mediatek/mt7986/drivers/dram/release/dram.o
                0x00000000002163dc                vSetPHY2ChannelMapping
 .text.vGetPHY2ChannelMapping
                0x00000000002163e8        0x8 plat/mediatek/mt7986/drivers/dram/release/dram.o
                0x00000000002163e8                vGetPHY2ChannelMapping
 .text.vSetChannelNumber
                0x00000000002163f0        0xc plat/mediatek/mt7986/drivers/dram/release/dram.o
                0x00000000002163f0                vSetChannelNumber
 .text.vSetRank
                0x00000000002163fc        0xc plat/mediatek/mt7986/drivers/dram/release/dram.o
                0x00000000002163fc                vSetRank
 .text.u1GetRank
                0x0000000000216408        0x8 plat/mediatek/mt7986/drivers/dram/release/dram.o
                0x0000000000216408                u1GetRank
 .text.vSetRankNumber
                0x0000000000216410       0x30 plat/mediatek/mt7986/drivers/dram/release/dram.o
                0x0000000000216410                vSetRankNumber
 .text.vGet_PLL_FreqSel
                0x0000000000216440        0xc plat/mediatek/mt7986/drivers/dram/release/dram.o
                0x0000000000216440                vGet_PLL_FreqSel
 .text.vSet_PLL_FreqSel
                0x000000000021644c        0xc plat/mediatek/mt7986/drivers/dram/release/dram.o
                0x000000000021644c                vSet_PLL_FreqSel
 .text.vGet_DDR_Loop_Mode
                0x0000000000216458        0xc plat/mediatek/mt7986/drivers/dram/release/dram.o
                0x0000000000216458                vGet_DDR_Loop_Mode
 .text.vSet_Div_Mode
                0x0000000000216464        0xc plat/mediatek/mt7986/drivers/dram/release/dram.o
                0x0000000000216464                vSet_Div_Mode
 .text.vGet_Div_Mode
                0x0000000000216470        0xc plat/mediatek/mt7986/drivers/dram/release/dram.o
                0x0000000000216470                vGet_Div_Mode
 .text.vGet_Current_ShuLevel
                0x000000000021647c        0xc plat/mediatek/mt7986/drivers/dram/release/dram.o
                0x000000000021647c                vGet_Current_ShuLevel
 .text.Get_Duty_Calibration_Mode
                0x0000000000216488        0xc plat/mediatek/mt7986/drivers/dram/release/dram.o
                0x0000000000216488                Get_Duty_Calibration_Mode
 .text.Get_Vref_Calibration_OnOff
                0x0000000000216494        0xc plat/mediatek/mt7986/drivers/dram/release/dram.o
                0x0000000000216494                Get_Vref_Calibration_OnOff
 .text.vPrintCalibrationBasicInfo
                0x00000000002164a0       0x4c plat/mediatek/mt7986/drivers/dram/release/dram.o
                0x00000000002164a0                vPrintCalibrationBasicInfo
 .text.GetDataRateByFreq
                0x00000000002164ec       0xd4 plat/mediatek/mt7986/drivers/dram/release/dram.o
                0x00000000002164ec                GetDataRateByFreq
 .text.GetEyeScanEnable
                0x00000000002165c0        0x8 plat/mediatek/mt7986/drivers/dram/release/dram.o
                0x00000000002165c0                GetEyeScanEnable
 .text.CKEFixOnOff
                0x00000000002165c8      0x158 plat/mediatek/mt7986/drivers/dram/release/dram.o
                0x00000000002165c8                CKEFixOnOff
 .text.vAutoRefreshSwitch
                0x0000000000216720       0xf8 plat/mediatek/mt7986/drivers/dram/release/dram.o
                0x0000000000216720                vAutoRefreshSwitch
 .text.vCKERankCtrl
                0x0000000000216818       0xa0 plat/mediatek/mt7986/drivers/dram/release/dram.o
                0x0000000000216818                vCKERankCtrl
 .text.DramcSetRWOFOEN
                0x00000000002168b8       0x84 plat/mediatek/mt7986/drivers/dram/release/dram.o
                0x00000000002168b8                DramcSetRWOFOEN
 .text.DramcSetRankEngine2
                0x000000000021693c       0x78 plat/mediatek/mt7986/drivers/dram/release/dram.o
                0x000000000021693c                DramcSetRankEngine2
 .text.DramcEngine2SetPat
                0x00000000002169b4      0x240 plat/mediatek/mt7986/drivers/dram/release/dram.o
                0x00000000002169b4                DramcEngine2SetPat
 .text.DramcEngine2CheckComplete
                0x0000000000216bf4      0x10c plat/mediatek/mt7986/drivers/dram/release/dram.o
                0x0000000000216bf4                DramcEngine2CheckComplete
 .text.DramcEngine2Compare
                0x0000000000216d00      0x100 plat/mediatek/mt7986/drivers/dram/release/dram.o
                0x0000000000216d00                DramcEngine2Compare
 .text.DramcEngine2Init
                0x0000000000216e00      0x158 plat/mediatek/mt7986/drivers/dram/release/dram.o
                0x0000000000216e00                DramcEngine2Init
 .text.DramcEngine2Run
                0x0000000000216f58       0xec plat/mediatek/mt7986/drivers/dram/release/dram.o
                0x0000000000216f58                DramcEngine2Run
 .text.DramcEngine2End
                0x0000000000217044       0x60 plat/mediatek/mt7986/drivers/dram/release/dram.o
                0x0000000000217044                DramcEngine2End
 .text.TA2_Test_Run_Time_HW_Set_Column_Num
                0x00000000002170a4       0xa8 plat/mediatek/mt7986/drivers/dram/release/dram.o
                0x00000000002170a4                TA2_Test_Run_Time_HW_Set_Column_Num
 .text.TA2_Test_Run_Time_HW_Presetting
                0x000000000021714c      0x21c plat/mediatek/mt7986/drivers/dram/release/dram.o
                0x000000000021714c                TA2_Test_Run_Time_HW_Presetting
 .text.TA2_Test_Run_Time_Pat_Setting
                0x0000000000217368       0xc8 plat/mediatek/mt7986/drivers/dram/release/dram.o
                0x0000000000217368                TA2_Test_Run_Time_Pat_Setting
 .text.TA2_Test_Run_Time_HW_Write
                0x0000000000217430       0x84 plat/mediatek/mt7986/drivers/dram/release/dram.o
                0x0000000000217430                TA2_Test_Run_Time_HW_Write
 .text.TA2_Show_Cnt
                0x00000000002174b4       0xa8 plat/mediatek/mt7986/drivers/dram/release/dram.o
                0x00000000002174b4                TA2_Show_Cnt
 .text.TA2_Test_Run_Time_HW_Status
                0x000000000021755c       0xf4 plat/mediatek/mt7986/drivers/dram/release/dram.o
                0x000000000021755c                TA2_Test_Run_Time_HW_Status
 .text.TA2_Test_Run_Time_HW
                0x0000000000217650       0x60 plat/mediatek/mt7986/drivers/dram/release/dram.o
                0x0000000000217650                TA2_Test_Run_Time_HW
 .text.DramcTriggerRTSWCMD
                0x00000000002176b0      0x338 plat/mediatek/mt7986/drivers/dram/release/dram.o
                0x00000000002176b0                DramcTriggerRTSWCMD
 .text.DramcBackupRegisters
                0x00000000002179e8       0x60 plat/mediatek/mt7986/drivers/dram/release/dram.o
                0x00000000002179e8                DramcBackupRegisters
 .text.DramcRestoreRegisters
                0x0000000000217a48       0x60 plat/mediatek/mt7986/drivers/dram/release/dram.o
                0x0000000000217a48                DramcRestoreRegisters
 .text.MD32_initializaton
                0x0000000000217aa8      0x6cc plat/mediatek/mt7986/drivers/dram/release/dram.o
                0x0000000000217aa8                MD32_initializaton
 .text.vSetVcoreByFreq
                0x0000000000218174       0xcc plat/mediatek/mt7986/drivers/dram/release/dram.o
                0x0000000000218174                vSetVcoreByFreq
 .text.Get_RX_DelayCell
                0x0000000000218240        0x4 plat/mediatek/mt7986/drivers/dram/release/dram.o
                0x0000000000218240                Get_RX_DelayCell
 .text.PRE_MIOCK_JMETER_HQA_USED
                0x0000000000218244       0x68 plat/mediatek/mt7986/drivers/dram/release/dram.o
                0x0000000000218244                PRE_MIOCK_JMETER_HQA_USED
 .text.vDramCPUReadWriteTestAfterCalibration
                0x00000000002182ac       0xe4 plat/mediatek/mt7986/drivers/dram/release/dram.o
                0x00000000002182ac                vDramCPUReadWriteTestAfterCalibration
 .text.DramRankNumberDetection
                0x0000000000218390       0x98 plat/mediatek/mt7986/drivers/dram/release/dram.o
                0x0000000000218390                DramRankNumberDetection
 .text.vCalibration_Flow_For_MDL
                0x0000000000218428       0x9c plat/mediatek/mt7986/drivers/dram/release/dram.o
                0x0000000000218428                vCalibration_Flow_For_MDL
 .text.vDramCalibrationAllChannel
                0x00000000002184c4      0x210 plat/mediatek/mt7986/drivers/dram/release/dram.o
                0x00000000002184c4                vDramCalibrationAllChannel
 .text.Get_MDL_Used_Flag
                0x00000000002186d4        0xc plat/mediatek/mt7986/drivers/dram/release/dram.o
                0x00000000002186d4                Get_MDL_Used_Flag
 .text.Init_DramcSwImpedanceCal
                0x00000000002186e0       0x78 plat/mediatek/mt7986/drivers/dram/release/dram.o
                0x00000000002186e0                Init_DramcSwImpedanceCal
 .text.Init_Dram_Ctx_By_Type
                0x0000000000218758       0x5c plat/mediatek/mt7986/drivers/dram/release/dram.o
                0x0000000000218758                Init_Dram_Ctx_By_Type
 .text.dump_dramc_ctx
                0x00000000002187b4      0x134 plat/mediatek/mt7986/drivers/dram/release/dram.o
                0x00000000002187b4                dump_dramc_ctx
 .text.Init_DRAM
                0x00000000002188e8      0x268 plat/mediatek/mt7986/drivers/dram/release/dram.o
                0x00000000002188e8                Init_DRAM
 .text.Set_DRAM_Pinmux_Sel
                0x0000000000218b50       0x54 plat/mediatek/mt7986/drivers/dram/release/dram.o
                0x0000000000218b50                Set_DRAM_Pinmux_Sel
 .text.Set_DQO1_Pinmux_Mapping
                0x0000000000218ba4      0x1b0 plat/mediatek/mt7986/drivers/dram/release/dram.o
                0x0000000000218ba4                Set_DQO1_Pinmux_Mapping
 .text.Global_Option_Init
                0x0000000000218d54       0xa4 plat/mediatek/mt7986/drivers/dram/release/dram.o
                0x0000000000218d54                Global_Option_Init
 .text.MPLLInit
                0x0000000000218df8       0xac plat/mediatek/mt7986/drivers/dram/release/dram.o
                0x0000000000218df8                MPLLInit
 .text.XRTRTR_SHU_Setting
                0x0000000000218ea4        0x4 plat/mediatek/mt7986/drivers/dram/release/dram.o
                0x0000000000218ea4                XRTRTR_SHU_Setting
 .text.vReplaceDVInit
                0x0000000000218ea8      0xa2c plat/mediatek/mt7986/drivers/dram/release/dram.o
                0x0000000000218ea8                vReplaceDVInit
 .text.DramcInit_DutyCalibration
                0x00000000002198d4       0x8c plat/mediatek/mt7986/drivers/dram/release/dram.o
                0x00000000002198d4                DramcInit_DutyCalibration
 .text.DV_InitialSettings
                0x0000000000219960       0x48 plat/mediatek/mt7986/drivers/dram/release/dram.o
                0x0000000000219960                DV_InitialSettings
 .text.SA_InitialSettings2
                0x00000000002199a8       0x8c plat/mediatek/mt7986/drivers/dram/release/dram.o
                0x00000000002199a8                SA_InitialSettings2
 .text.SetCKE2RankIndependent
                0x0000000000219a34       0x30 plat/mediatek/mt7986/drivers/dram/release/dram.o
                0x0000000000219a34                SetCKE2RankIndependent
 .text.DramcShuTrackingDcmEnBySRAM
                0x0000000000219a64       0x58 plat/mediatek/mt7986/drivers/dram/release/dram.o
                0x0000000000219a64                DramcShuTrackingDcmEnBySRAM
 .text.DramcEnablePerBankRefresh
                0x0000000000219abc        0x4 plat/mediatek/mt7986/drivers/dram/release/dram.o
                0x0000000000219abc                DramcEnablePerBankRefresh
 .text.DramcRefreshRateDeBounceEnable
                0x0000000000219ac0       0x14 plat/mediatek/mt7986/drivers/dram/release/dram.o
                0x0000000000219ac0                DramcRefreshRateDeBounceEnable
 .text.DramcModifiedRefreshMode
                0x0000000000219ad4       0x58 plat/mediatek/mt7986/drivers/dram/release/dram.o
                0x0000000000219ad4                DramcModifiedRefreshMode
 .text.TXPICGSetting
                0x0000000000219b2c      0x330 plat/mediatek/mt7986/drivers/dram/release/dram.o
                0x0000000000219b2c                TXPICGSetting
 .text.RXPICGSetting
                0x0000000000219e5c      0x188 plat/mediatek/mt7986/drivers/dram/release/dram.o
                0x0000000000219e5c                RXPICGSetting
 .text.TXPICGNewModeEnable
                0x0000000000219fe4       0x14 plat/mediatek/mt7986/drivers/dram/release/dram.o
                0x0000000000219fe4                TXPICGNewModeEnable
 .text.DramcRunTimeConfig
                0x0000000000219ff8      0x290 plat/mediatek/mt7986/drivers/dram/release/dram.o
                0x0000000000219ff8                DramcRunTimeConfig
 .text.RODTSettings
                0x000000000021a288      0x234 plat/mediatek/mt7986/drivers/dram/release/dram.o
                0x000000000021a288                RODTSettings
 .text.DQSSTBSettings
                0x000000000021a4bc       0xa8 plat/mediatek/mt7986/drivers/dram/release/dram.o
                0x000000000021a4bc                DQSSTBSettings
 .text.SetMck8xLowPwrOption
                0x000000000021a564       0x18 plat/mediatek/mt7986/drivers/dram/release/dram.o
                0x000000000021a564                SetMck8xLowPwrOption
 .text.PC3_UpdateInitialSettings
                0x000000000021a57c      0x1e0 plat/mediatek/mt7986/drivers/dram/release/dram.o
                0x000000000021a57c                PC3_UpdateInitialSettings
 .text.PC4_UpdateInitialSettings
                0x000000000021a75c      0x1a4 plat/mediatek/mt7986/drivers/dram/release/dram.o
                0x000000000021a75c                PC4_UpdateInitialSettings
 .text.FMeter   0x000000000021a900       0xe8 plat/mediatek/mt7986/drivers/dram/release/dram.o
                0x000000000021a900                FMeter
 .text.DDRPhyFreqMeter
                0x000000000021a9e8       0xe0 plat/mediatek/mt7986/drivers/dram/release/dram.o
                0x000000000021a9e8                DDRPhyFreqMeter
 .text.SA_InitialSettings1
                0x000000000021aac8       0x88 plat/mediatek/mt7986/drivers/dram/release/dram.o
                0x000000000021aac8                SA_InitialSettings1
 .text.DFSInitForCalibration
                0x000000000021ab50      0x11c plat/mediatek/mt7986/drivers/dram/release/dram.o
                0x000000000021ab50                DFSInitForCalibration
 .text.SetRxDqDelay
                0x000000000021ac6c       0x6c plat/mediatek/mt7986/drivers/dram/release/dram.o
 .text.TXSetDelayReg_DQ
                0x000000000021acd8      0x148 plat/mediatek/mt7986/drivers/dram/release/dram.o
 .text.TXSetDelayReg_DQM
                0x000000000021ae20      0x148 plat/mediatek/mt7986/drivers/dram/release/dram.o
 .text.vImpCalVrefSel.isra.0
                0x000000000021af68       0x8c plat/mediatek/mt7986/drivers/dram/release/dram.o
 .text.vSetCalibrationResult
                0x000000000021aff4       0x8c plat/mediatek/mt7986/drivers/dram/release/dram.o
                0x000000000021aff4                vSetCalibrationResult
 .text.vPrintCalibrationResult
                0x000000000021b080      0x1bc plat/mediatek/mt7986/drivers/dram/release/dram.o
                0x000000000021b080                vPrintCalibrationResult
 .text.vInitGlobalVariablesByCondition
                0x000000000021b23c       0x14 plat/mediatek/mt7986/drivers/dram/release/dram.o
                0x000000000021b23c                vInitGlobalVariablesByCondition
 .text.get_dq_dramc2phy_mapping
                0x000000000021b250       0xa4 plat/mediatek/mt7986/drivers/dram/release/dram.o
                0x000000000021b250                get_dq_dramc2phy_mapping
 .text.vBeforeCalibration
                0x000000000021b2f4      0x35c plat/mediatek/mt7986/drivers/dram/release/dram.o
                0x000000000021b2f4                vBeforeCalibration
 .text.vAfterCalibration
                0x000000000021b650       0x64 plat/mediatek/mt7986/drivers/dram/release/dram.o
                0x000000000021b650                vAfterCalibration
 .text.O1PathOnOff
                0x000000000021b6b4      0x21c plat/mediatek/mt7986/drivers/dram/release/dram.o
                0x000000000021b6b4                O1PathOnOff
 .text.u1IsPhaseMode
                0x000000000021b8d0       0x38 plat/mediatek/mt7986/drivers/dram/release/dram.o
                0x000000000021b8d0                u1IsPhaseMode
 .text.u1MCK2UI_DivShift
                0x000000000021b908       0x20 plat/mediatek/mt7986/drivers/dram/release/dram.o
                0x000000000021b908                u1MCK2UI_DivShift
 .text._LoopAryToDelay
                0x000000000021b928      0x1a0 plat/mediatek/mt7986/drivers/dram/release/dram.o
 .text.PCDDR_ShiftDQSUI
                0x000000000021bac8       0x7c plat/mediatek/mt7986/drivers/dram/release/dram.o
                0x000000000021bac8                PCDDR_ShiftDQSUI
 .text.PCDDR_ShiftDQS_OENUI
                0x000000000021bb44       0x7c plat/mediatek/mt7986/drivers/dram/release/dram.o
                0x000000000021bb44                PCDDR_ShiftDQS_OENUI
 .text.ShiftDQUI
                0x000000000021bbc0       0x7c plat/mediatek/mt7986/drivers/dram/release/dram.o
                0x000000000021bbc0                ShiftDQUI
 .text.ShiftDQUI_AllRK
                0x000000000021bc3c       0x7c plat/mediatek/mt7986/drivers/dram/release/dram.o
                0x000000000021bc3c                ShiftDQUI_AllRK
 .text.ShiftDQ_OENUI
                0x000000000021bcb8       0x7c plat/mediatek/mt7986/drivers/dram/release/dram.o
                0x000000000021bcb8                ShiftDQ_OENUI
 .text.ShiftDQ_OENUI_AllRK
                0x000000000021bd34       0x7c plat/mediatek/mt7986/drivers/dram/release/dram.o
                0x000000000021bd34                ShiftDQ_OENUI_AllRK
 .text.ShiftDQSWCK_UI
                0x000000000021bdb0       0x40 plat/mediatek/mt7986/drivers/dram/release/dram.o
                0x000000000021bdb0                ShiftDQSWCK_UI
 .text.vSetDramMRWriteLevelingOnOff
                0x000000000021bdf0      0x15c plat/mediatek/mt7986/drivers/dram/release/dram.o
                0x000000000021bdf0                vSetDramMRWriteLevelingOnOff
 .text.DramcWriteLeveling
                0x000000000021bf4c      0xa78 plat/mediatek/mt7986/drivers/dram/release/dram.o
                0x000000000021bf4c                DramcWriteLeveling
 .text.vResetDelayChainBeforeCalibration
                0x000000000021c9c4      0x150 plat/mediatek/mt7986/drivers/dram/release/dram.o
                0x000000000021c9c4                vResetDelayChainBeforeCalibration
 .text.DramPhyReset
                0x000000000021cb14      0x214 plat/mediatek/mt7986/drivers/dram/release/dram.o
                0x000000000021cb14                DramPhyReset
 .text.get_gating_start_pos
                0x000000000021cd28       0xb0 plat/mediatek/mt7986/drivers/dram/release/dram.o
                0x000000000021cd28                get_gating_start_pos
 .text.dramc_rx_dqs_gating_cal
                0x000000000021cdd8      0xb08 plat/mediatek/mt7986/drivers/dram/release/dram.o
                0x000000000021cdd8                dramc_rx_dqs_gating_cal
 .text.DramcRxWinRDDQCInit
                0x000000000021d8e0      0x1f0 plat/mediatek/mt7986/drivers/dram/release/dram.o
                0x000000000021d8e0                DramcRxWinRDDQCInit
 .text.DramcRxWinRDDQCRun
                0x000000000021dad0       0x50 plat/mediatek/mt7986/drivers/dram/release/dram.o
                0x000000000021dad0                DramcRxWinRDDQCRun
 .text.DramcRxWinRDDQCEnd
                0x000000000021db20       0xa8 plat/mediatek/mt7986/drivers/dram/release/dram.o
                0x000000000021db20                DramcRxWinRDDQCEnd
 .text.DramcRxWindowPerbitCal
                0x000000000021dbc8      0xfb0 plat/mediatek/mt7986/drivers/dram/release/dram.o
                0x000000000021dbc8                DramcRxWindowPerbitCal
 .text.dle_factor_handler
                0x000000000021eb78       0xdc plat/mediatek/mt7986/drivers/dram/release/dram.o
                0x000000000021eb78                dle_factor_handler
 .text.DramcRxdatlatCal
                0x000000000021ec54      0x218 plat/mediatek/mt7986/drivers/dram/release/dram.o
                0x000000000021ec54                DramcRxdatlatCal
 .text.DramcDualRankRxdatlatCal
                0x000000000021ee6c       0x74 plat/mediatek/mt7986/drivers/dram/release/dram.o
                0x000000000021ee6c                DramcDualRankRxdatlatCal
 .text.TxWinTransferDelayToUIPI
                0x000000000021eee0       0xd0 plat/mediatek/mt7986/drivers/dram/release/dram.o
                0x000000000021eee0                TxWinTransferDelayToUIPI
 .text.DramcTXSetVref
                0x000000000021efb0      0x114 plat/mediatek/mt7986/drivers/dram/release/dram.o
                0x000000000021efb0                DramcTXSetVref
 .text.DramcTxWindowPerbitCal
                0x000000000021f0c4      0xdc4 plat/mediatek/mt7986/drivers/dram/release/dram.o
                0x000000000021f0c4                DramcTxWindowPerbitCal
 .text.DramcMiockJmeter
                0x000000000021fe88      0x86c plat/mediatek/mt7986/drivers/dram/release/dram.o
                0x000000000021fe88                DramcMiockJmeter
 .text.DramcMiockJmeterHQA
                0x00000000002206f4       0xac plat/mediatek/mt7986/drivers/dram/release/dram.o
                0x00000000002206f4                DramcMiockJmeterHQA
 .text.DramcSwImpedanceSaveRegister
                0x00000000002207a0      0x2d4 plat/mediatek/mt7986/drivers/dram/release/dram.o
                0x00000000002207a0                DramcSwImpedanceSaveRegister
 .text.DramcSwImpedanceCal
                0x0000000000220a74      0x49c plat/mediatek/mt7986/drivers/dram/release/dram.o
                0x0000000000220a74                DramcSwImpedanceCal
 .text.DramcClockDutySetClkDelayCell
                0x0000000000220f10       0xf0 plat/mediatek/mt7986/drivers/dram/release/dram.o
                0x0000000000220f10                DramcClockDutySetClkDelayCell
 .text.DQSDutyScan_SetDqsDelayCell
                0x0000000000221000      0x188 plat/mediatek/mt7986/drivers/dram/release/dram.o
                0x0000000000221000                DQSDutyScan_SetDqsDelayCell
 .text.DutyScan_Offset_Convert
                0x0000000000221188       0x4c plat/mediatek/mt7986/drivers/dram/release/dram.o
                0x0000000000221188                DutyScan_Offset_Convert
 .text.DutyScan_Offset_Calibration
                0x00000000002211d4      0x5cc plat/mediatek/mt7986/drivers/dram/release/dram.o
                0x00000000002211d4                DutyScan_Offset_Calibration
 .text.DutyScan_Calibration_Flow
                0x00000000002217a0      0xd8c plat/mediatek/mt7986/drivers/dram/release/dram.o
                0x00000000002217a0                DutyScan_Calibration_Flow
 .text.DramcNewDutyCalibration
                0x000000000022252c      0x318 plat/mediatek/mt7986/drivers/dram/release/dram.o
                0x000000000022252c                DramcNewDutyCalibration
 .text.is_ddr3_family
                0x0000000000222844       0x10 plat/mediatek/mt7986/drivers/dram/release/dram.o
                0x0000000000222844                is_ddr3_family
 .text.is_ddr4_family
                0x0000000000222854       0x10 plat/mediatek/mt7986/drivers/dram/release/dram.o
                0x0000000000222854                is_ddr4_family
 .text.PCDDR_SetFreqGroup
                0x0000000000222864       0xcc plat/mediatek/mt7986/drivers/dram/release/dram.o
                0x0000000000222864                PCDDR_SetFreqGroup
 .text.PCDDR_GetFreqBySel
                0x0000000000222930       0x44 plat/mediatek/mt7986/drivers/dram/release/dram.o
                0x0000000000222930                PCDDR_GetFreqBySel
 .text.PCDDR_GetDataRateByFreq
                0x0000000000222974       0xf8 plat/mediatek/mt7986/drivers/dram/release/dram.o
                0x0000000000222974                PCDDR_GetDataRateByFreq
 .text.PCDDR_PhyFreqSel
                0x0000000000222a6c       0x64 plat/mediatek/mt7986/drivers/dram/release/dram.o
                0x0000000000222a6c                PCDDR_PhyFreqSel
 .text.PCDDR_SetDFSFreqSelByTable
                0x0000000000222ad0       0x34 plat/mediatek/mt7986/drivers/dram/release/dram.o
                0x0000000000222ad0                PCDDR_SetDFSFreqSelByTable
 .text.PCDDR_GetDramcDramRatio
                0x0000000000222b04       0x30 plat/mediatek/mt7986/drivers/dram/release/dram.o
                0x0000000000222b04                PCDDR_GetDramcDramRatio
 .text.DDR_Enable_Gating_Tracking
                0x0000000000222b34       0x44 plat/mediatek/mt7986/drivers/dram/release/dram.o
                0x0000000000222b34                DDR_Enable_Gating_Tracking
 .text.Enable_ClkTxRxLatchEn
                0x0000000000222b78      0x108 plat/mediatek/mt7986/drivers/dram/release/dram.o
                0x0000000000222b78                Enable_ClkTxRxLatchEn
 .text.DramcHWGatingOnOff
                0x0000000000222c80       0x78 plat/mediatek/mt7986/drivers/dram/release/dram.o
                0x0000000000222c80                DramcHWGatingOnOff
 .text.DramcHWGatingDebugOnOff
                0x0000000000222cf8       0x9c plat/mediatek/mt7986/drivers/dram/release/dram.o
                0x0000000000222cf8                DramcHWGatingDebugOnOff
 .text.DDR3_MRS
                0x0000000000222d94      0x158 plat/mediatek/mt7986/drivers/dram/release/dram.o
                0x0000000000222d94                DDR3_MRS
 .text.DDR3_SWZQ
                0x0000000000222eec      0x104 plat/mediatek/mt7986/drivers/dram/release/dram.o
                0x0000000000222eec                DDR3_SWZQ
 .text.PC3_dram_init_single_rank
                0x0000000000222ff0      0x1ac plat/mediatek/mt7986/drivers/dram/release/dram.o
                0x0000000000222ff0                PC3_dram_init_single_rank
 .text.PC3_DRAM_INIT
                0x000000000022319c      0x1e8 plat/mediatek/mt7986/drivers/dram/release/dram.o
                0x000000000022319c                PC3_DRAM_INIT
 .text.PC3_dram_init_single_rank_DRM
                0x0000000000223384      0x170 plat/mediatek/mt7986/drivers/dram/release/dram.o
                0x0000000000223384                PC3_dram_init_single_rank_DRM
 .text.DDR4_MRS
                0x00000000002234f4      0x158 plat/mediatek/mt7986/drivers/dram/release/dram.o
                0x00000000002234f4                DDR4_MRS
 .text.DDR4_SWZQ
                0x000000000022364c      0x104 plat/mediatek/mt7986/drivers/dram/release/dram.o
                0x000000000022364c                DDR4_SWZQ
 .text.PC4_dram_init_single_rank
                0x0000000000223750      0x2b0 plat/mediatek/mt7986/drivers/dram/release/dram.o
                0x0000000000223750                PC4_dram_init_single_rank
 .text.PC4_DRAM_INIT
                0x0000000000223a00      0x1e8 plat/mediatek/mt7986/drivers/dram/release/dram.o
                0x0000000000223a00                PC4_DRAM_INIT
 .text.EnableCommonDCMNonShuffle
                0x0000000000223be8       0x74 plat/mediatek/mt7986/drivers/dram/release/dram.o
                0x0000000000223be8                EnableCommonDCMNonShuffle
 .text.EnableCommonDCMShuffle
                0x0000000000223c5c       0x8c plat/mediatek/mt7986/drivers/dram/release/dram.o
                0x0000000000223c5c                EnableCommonDCMShuffle
 .text.EnableDramcPhyDCMNonShuffle
                0x0000000000223ce8      0x4e0 plat/mediatek/mt7986/drivers/dram/release/dram.o
                0x0000000000223ce8                EnableDramcPhyDCMNonShuffle
 .text.EnableDramcPhyDCMShuffle
                0x00000000002241c8      0x1c8 plat/mediatek/mt7986/drivers/dram/release/dram.o
                0x00000000002241c8                EnableDramcPhyDCMShuffle
 .text.EnableDramcPhyDCM
                0x0000000000224390       0x54 plat/mediatek/mt7986/drivers/dram/release/dram.o
                0x0000000000224390                EnableDramcPhyDCM
 .text.EnableRxDcmDPhy
                0x00000000002243e4       0x1c plat/mediatek/mt7986/drivers/dram/release/dram.o
                0x00000000002243e4                EnableRxDcmDPhy
 .text.DRM_DDR34_SWZQ
                0x0000000000224400      0x154 plat/mediatek/mt7986/drivers/dram/release/dram.o
                0x0000000000224400                DRM_DDR34_SWZQ
 .text.MD32_init
                0x0000000000224554       0x9c plat/mediatek/mt7986/drivers/dram/release/dram.o
                0x0000000000224554                MD32_init
 .text.ASVA5_8_CSCA_Pull_Down_EN
                0x00000000002245f0       0xb4 plat/mediatek/mt7986/drivers/dram/release/dram.o
                0x00000000002245f0                ASVA5_8_CSCA_Pull_Down_EN
 .text.ASVA5_8_CSCA_Pull_Down_DIS
                0x00000000002246a4       0x70 plat/mediatek/mt7986/drivers/dram/release/dram.o
                0x00000000002246a4                ASVA5_8_CSCA_Pull_Down_DIS
 .text.wait_SREFx
                0x0000000000224714       0x4c plat/mediatek/mt7986/drivers/dram/release/dram.o
                0x0000000000224714                wait_SREFx
 .text.dump_last_dramc
                0x0000000000224760      0x270 plat/mediatek/mt7986/drivers/dram/release/dram.o
                0x0000000000224760                dump_last_dramc
 .text.dump_gating_error_rg
                0x00000000002249d0      0x1d0 plat/mediatek/mt7986/drivers/dram/release/dram.o
                0x00000000002249d0                dump_gating_error_rg
 .text.Dramc_DDR_Reserved_Mode_setting
                0x0000000000224ba0      0x628 plat/mediatek/mt7986/drivers/dram/release/dram.o
                0x0000000000224ba0                Dramc_DDR_Reserved_Mode_setting
 .text.Dramc_DDR_Reserved_Mode_BeforeSR
                0x00000000002251c8      0x214 plat/mediatek/mt7986/drivers/dram/release/dram.o
                0x00000000002251c8                Dramc_DDR_Reserved_Mode_BeforeSR
 .text.Dramc_DDR_Reserved_Mode_AfterSR
                0x00000000002253dc      0x2e8 plat/mediatek/mt7986/drivers/dram/release/dram.o
                0x00000000002253dc                Dramc_DDR_Reserved_Mode_AfterSR
 .text.Patch_ReK
                0x00000000002256c4       0xfc plat/mediatek/mt7986/drivers/dram/release/dram.o
                0x00000000002256c4                Patch_ReK
 .text.Before_Init_DRAM_While_Reserve_Mode_fail
                0x00000000002257c0       0x38 plat/mediatek/mt7986/drivers/dram/release/dram.o
                0x00000000002257c0                Before_Init_DRAM_While_Reserve_Mode_fail
 .text.mtk_drm_get_debug_ctl
                0x00000000002257f8       0x24 plat/mediatek/mt7986/drivers/dram/release/dram.o
 .text.drm_dram_reserved
                0x000000000022581c       0xc8 plat/mediatek/mt7986/drivers/dram/release/dram.o
                0x000000000022581c                drm_dram_reserved
 .text.drm_is_reserve_ddr_enabled
                0x00000000002258e4       0x14 plat/mediatek/mt7986/drivers/dram/release/dram.o
                0x00000000002258e4                drm_is_reserve_ddr_enabled
 .text.drm_is_dram_slf
                0x00000000002258f8       0x44 plat/mediatek/mt7986/drivers/dram/release/dram.o
                0x00000000002258f8                drm_is_dram_slf
 .text.drm_wait_for_reg_update_done
                0x000000000022593c       0xa4 plat/mediatek/mt7986/drivers/dram/release/dram.o
                0x000000000022593c                drm_wait_for_reg_update_done
 .text.drm_update_reg
                0x00000000002259e0      0x108 plat/mediatek/mt7986/drivers/dram/release/dram.o
                0x00000000002259e0                drm_update_reg
 .text.drm_is_reserve_ddr_mode_success
                0x0000000000225ae8       0x40 plat/mediatek/mt7986/drivers/dram/release/dram.o
                0x0000000000225ae8                drm_is_reserve_ddr_mode_success
 .text.drm_release_rg_dramc_conf_iso
                0x0000000000225b28       0x48 plat/mediatek/mt7986/drivers/dram/release/dram.o
                0x0000000000225b28                drm_release_rg_dramc_conf_iso
 .text.drm_release_rg_dramc_iso
                0x0000000000225b70       0x14 plat/mediatek/mt7986/drivers/dram/release/dram.o
                0x0000000000225b70                drm_release_rg_dramc_iso
 .text.drm_release_rg_dramc_sref
                0x0000000000225b84       0x14 plat/mediatek/mt7986/drivers/dram/release/dram.o
                0x0000000000225b84                drm_release_rg_dramc_sref
 .text.drm_is_dvfsrc_success
                0x0000000000225b98       0x34 plat/mediatek/mt7986/drivers/dram/release/dram.o
                0x0000000000225b98                drm_is_dvfsrc_success
 .text.drm_is_dvfsrc_enable
                0x0000000000225bcc       0x14 plat/mediatek/mt7986/drivers/dram/release/dram.o
                0x0000000000225bcc                drm_is_dvfsrc_enable
 .text.mtk_drm_init
                0x0000000000225be0      0x108 plat/mediatek/mt7986/drivers/dram/release/dram.o
                0x0000000000225be0                mtk_drm_init
 .text.set_mtk_drm_to_default
                0x0000000000225ce8       0xb0 plat/mediatek/mt7986/drivers/dram/release/dram.o
                0x0000000000225ce8                set_mtk_drm_to_default
 .text.memcmp   0x0000000000225d98       0x34 /media/data_nvme/git/uboot/u-boot/build/mt7986/release/lib/libc.a(memcmp.o)
                0x0000000000225d98                memcmp
 .text.memcpy   0x0000000000225dcc       0x20 /media/data_nvme/git/uboot/u-boot/build/mt7986/release/lib/libc.a(memcpy.o)
                0x0000000000225dcc                memcpy
 .text.memmove  0x0000000000225dec       0x34 /media/data_nvme/git/uboot/u-boot/build/mt7986/release/lib/libc.a(memmove.o)
                0x0000000000225dec                memmove
 .text.memset   0x0000000000225e20       0x78 /media/data_nvme/git/uboot/u-boot/build/mt7986/release/lib/libc.a(memset.o)
                0x0000000000225e20                memset
 .text.unsigned_num_print.part.0
                0x0000000000225e98       0xd0 /media/data_nvme/git/uboot/u-boot/build/mt7986/release/lib/libc.a(printf.o)
 .text.vprintf  0x0000000000225f68      0x444 /media/data_nvme/git/uboot/u-boot/build/mt7986/release/lib/libc.a(printf.o)
                0x0000000000225f68                vprintf
 .text.printf   0x00000000002263ac       0x54 /media/data_nvme/git/uboot/u-boot/build/mt7986/release/lib/libc.a(printf.o)
                0x00000000002263ac                printf
 .text.strcmp   0x0000000000226400       0x2c /media/data_nvme/git/uboot/u-boot/build/mt7986/release/lib/libc.a(strcmp.o)
                0x0000000000226400                strcmp
 *(SORT_BY_ALIGNMENT(.rodata*))
 *fill*         0x000000000022642c        0x4 
 .rodata.block_dev_connector
                0x0000000000226430        0x8 /media/data_nvme/git/uboot/u-boot/build/mt7986/release/bl2/io_block.o
 .rodata.block_dev_funcs
                0x0000000000226438       0x48 /media/data_nvme/git/uboot/u-boot/build/mt7986/release/bl2/io_block.o
 .rodata.fip_dev_connector
                0x0000000000226480        0x8 /media/data_nvme/git/uboot/u-boot/build/mt7986/release/bl2/io_fip.o
 .rodata.fip_dev_funcs
                0x0000000000226488       0x48 /media/data_nvme/git/uboot/u-boot/build/mt7986/release/bl2/io_fip.o
 .rodata.mmc_dev_gpt_spec
                0x00000000002264d0       0x10 /media/data_nvme/git/uboot/u-boot/build/mt7986/release/bl2/bl2_boot_mmc.o
 .rodata.mtk_mmc_ops
                0x00000000002264e0       0x38 /media/data_nvme/git/uboot/u-boot/build/mt7986/release/bl2/mtk-sd.o
 .rodata.bl2_initcalls
                0x0000000000226518       0x70 /media/data_nvme/git/uboot/u-boot/build/mt7986/release/bl2/bl2_plat_init.o
                0x0000000000226518                bl2_initcalls
 .rodata.mtgpio_ops
                0x0000000000226588       0x40 /media/data_nvme/git/uboot/u-boot/build/mt7986/release/bl2/mt7986_gpio.o
 .rodata.wdt_rst_reason
                0x00000000002265c8       0x60 /media/data_nvme/git/uboot/u-boot/build/mt7986/release/bl2/mtk_wdt.o
 .rodata.plat_prefix_str
                0x0000000000226628       0x28 /media/data_nvme/git/uboot/u-boot/build/mt7986/release/bl2/plat_log_common.o
 .rodata.xz_dec_lzma2_run
                0x0000000000226650       0x12 /media/data_nvme/git/uboot/u-boot/build/mt7986/release/bl2/xz_dec_lzma2.o
 *fill*         0x0000000000226662        0x2 
 .rodata.xz_dec_run
                0x0000000000226664       0x14 /media/data_nvme/git/uboot/u-boot/build/mt7986/release/bl2/xz_dec_stream.o
 .rodata.mtk_mmc_send_cmd
                0x0000000000226678       0x14 /media/data_nvme/git/uboot/u-boot/build/mt7986/release/bl2/mtk-sd.o
 .rodata.mt7986_msdc0_compat
                0x000000000022668c        0xc /media/data_nvme/git/uboot/u-boot/build/mt7986/release/bl2/bl2_dev_mmc.o
 .rodata.CSWTCH.17
                0x0000000000226698       0x18 /media/data_nvme/git/uboot/u-boot/build/mt7986/release/bl2/mt7986_gpio.o
 .rodata        0x00000000002266b0      0x134 plat/mediatek/mt7986/drivers/dram/release/dram.o
 .rodata.DPHY_GAT_TRACK_Config
                0x00000000002267e4        0x8 plat/mediatek/mt7986/drivers/dram/release/dram.o
 .rodata.DIG_CONFIG_SHUF_MISC_FIX
                0x00000000002267ec       0x10 plat/mediatek/mt7986/drivers/dram/release/dram.o
 .rodata.Get_RL_by_MR_PC3
                0x00000000002267fc        0xe plat/mediatek/mt7986/drivers/dram/release/dram.o
 *fill*         0x000000000022680a        0x2 
 .rodata.u4RegBaseAddrTraslate
                0x000000000022680c        0x8 plat/mediatek/mt7986/drivers/dram/release/dram.o
 .rodata.CSWTCH.27
                0x0000000000226814       0x1c plat/mediatek/mt7986/drivers/dram/release/dram.o
 .rodata.dramc_rx_dqs_gating_cal
                0x0000000000226830        0x8 plat/mediatek/mt7986/drivers/dram/release/dram.o
 .rodata.vprintf
                0x0000000000226838       0x30 /media/data_nvme/git/uboot/u-boot/build/mt7986/release/lib/libc.a(printf.o)
 .rodata.mt7986_pin_infos
                0x0000000000226868      0x328 /media/data_nvme/git/uboot/u-boot/build/mt7986/release/bl2/mt7986_gpio.o
 .rodata.CSWTCH.4
                0x0000000000226b90       0x20 plat/mediatek/mt7986/drivers/dram/release/dram.o
 .rodata.ACTimingTbl_DDR3
                0x0000000000226bb0      0xa78 plat/mediatek/mt7986/drivers/dram/release/dram.o
                0x0000000000226bb0                ACTimingTbl_DDR3
 .rodata.ACTimingTbl_DDR4
                0x0000000000227628      0xac8 plat/mediatek/mt7986/drivers/dram/release/dram.o
                0x0000000000227628                ACTimingTbl_DDR4
 .rodata.build_message
                0x00000000002280f0       0x1e /media/data_nvme/git/uboot/u-boot/build/mt7986/release/bl2/build_message.o
                0x00000000002280f0                build_message
 .rodata.version_string
                0x000000000022810e       0x34 /media/data_nvme/git/uboot/u-boot/build/mt7986/release/bl2/build_message.o
                0x000000000022810e                version_string
 .rodata.bl2_load_images.str1.1
                0x0000000000228142       0xbc /media/data_nvme/git/uboot/u-boot/build/mt7986/release/bl2/bl2_image_load_v2.o
 .rodata.bl2_main.str1.1
                0x00000000002281fe       0x1e /media/data_nvme/git/uboot/u-boot/build/mt7986/release/bl2/bl2_main.o
 .rodata.image_decompress.str1.1
                0x000000000022821c       0x26 /media/data_nvme/git/uboot/u-boot/build/mt7986/release/bl2/image_decompress.o
 .rodata.uuid_null.0
                0x0000000000228242       0x10 /media/data_nvme/git/uboot/u-boot/build/mt7986/release/bl2/io_fip.o
 .rodata.mmc_device_state.str1.1
                0x0000000000228252       0x20 /media/data_nvme/git/uboot/u-boot/build/mt7986/release/bl2/mmc.o
 .rodata.mmc_init.str1.1
                0x0000000000228272       0x6a /media/data_nvme/git/uboot/u-boot/build/mt7986/release/bl2/mmc.o
 .rodata.sd_tran_speed_base
                0x00000000002282dc       0x10 /media/data_nvme/git/uboot/u-boot/build/mt7986/release/bl2/mmc.o
 .rodata.tran_speed_base
                0x00000000002282ec       0x10 /media/data_nvme/git/uboot/u-boot/build/mt7986/release/bl2/mmc.o
 .rodata.load_partition_table.str1.1
                0x00000000002282fc       0x3f /media/data_nvme/git/uboot/u-boot/build/mt7986/release/bl2/partition.o
 .rodata.unxz.str1.1
                0x000000000022833b       0x40 /media/data_nvme/git/uboot/u-boot/build/mt7986/release/bl2/tf_unxz.o
 .rodata.xz_dec_run.str1.1
                0x000000000022837b        0x9 /media/data_nvme/git/uboot/u-boot/build/mt7986/release/bl2/xz_dec_stream.o
 .rodata.mtk_fip_image_setup.str1.1
                0x0000000000228384       0x20 /media/data_nvme/git/uboot/u-boot/build/mt7986/release/bl2/bl2_boot_mmc.o
 .rodata.bl2_platform_setup.str1.1
                0x00000000002283a4       0x30 /media/data_nvme/git/uboot/u-boot/build/mt7986/release/bl2/bl2_plat_setup.o
 .rodata.bl31_uuid_spec
                0x00000000002283d4       0x10 /media/data_nvme/git/uboot/u-boot/build/mt7986/release/bl2/bl2_plat_setup.o
 .rodata.bl32_uuid_spec
                0x00000000002283e4       0x10 /media/data_nvme/git/uboot/u-boot/build/mt7986/release/bl2/bl2_plat_setup.o
 .rodata.bl33_uuid_spec
                0x00000000002283f4       0x10 /media/data_nvme/git/uboot/u-boot/build/mt7986/release/bl2/bl2_plat_setup.o
 .rodata.gpt_soc_data
                0x0000000000228404        0xc /media/data_nvme/git/uboot/u-boot/build/mt7986/release/bl2/mt_gpt.o
 .rodata.mtk_mmc_read.str1.1
                0x0000000000228410       0xd0 /media/data_nvme/git/uboot/u-boot/build/mt7986/release/bl2/mtk-sd.o
 .rodata.mtk_mmc_send_cmd.str1.1
                0x00000000002284e0       0xa6 /media/data_nvme/git/uboot/u-boot/build/mt7986/release/bl2/mtk-sd.o
 .rodata.CSWTCH.46
                0x0000000000228586       0x1d /media/data_nvme/git/uboot/u-boot/build/mt7986/release/bl2/mtk-sd.o
 .rodata.mtk_print_cpu.str1.1
                0x00000000002285a3       0x14 /media/data_nvme/git/uboot/u-boot/build/mt7986/release/bl2/bl2_plat_init.o
 .rodata.mtk_mem_init.str1.1
                0x00000000002285b7       0x1c /media/data_nvme/git/uboot/u-boot/build/mt7986/release/bl2/emicfg.o
 .rodata.mtk_wdt_control.str1.1
                0x00000000002285d3       0x3d /media/data_nvme/git/uboot/u-boot/build/mt7986/release/bl2/mtk_wdt.o
 .rodata.mtk_wdt_print_status.str1.1
                0x0000000000228610       0x24 /media/data_nvme/git/uboot/u-boot/build/mt7986/release/bl2/mtk_wdt.o
                                         0x29 (size before relaxing)
 .rodata.str1.1
                0x0000000000228634       0x7c /media/data_nvme/git/uboot/u-boot/build/mt7986/release/bl2/mtk_wdt.o
 .rodata.str1.1
                0x00000000002286b0       0x32 /media/data_nvme/git/uboot/u-boot/build/mt7986/release/bl2/plat_log_common.o
 .rodata.errata_entries
                0x00000000002286e2        0x0 /media/data_nvme/git/uboot/u-boot/build/mt7986/release/bl2/cortex_a53.o
 .rodata.panic_str
                0x00000000002286e2       0x11 /media/data_nvme/git/uboot/u-boot/build/mt7986/release/bl2/debug.o
 .rodata.complex_mem_test.str1.1
                0x00000000002286f3      0x197 plat/mediatek/mt7986/drivers/dram/release/dram.o
 .rodata.mtk_mem_init_real.str1.1
                0x000000000022888a       0xe2 plat/mediatek/mt7986/drivers/dram/release/dram.o
 .rodata.ANA_PLL_shuffle_Config.str1.1
                0x000000000022896c       0x75 plat/mediatek/mt7986/drivers/dram/release/dram.o
                                         0x9b (size before relaxing)
 .rodata.ANA_CLK_DIV_config_setting.str1.1
                0x00000000002289e1      0x2bb plat/mediatek/mt7986/drivers/dram/release/dram.o
 .rodata.ANA_DLL_shuffle_Config.str1.1
                0x0000000000228c9c       0x50 plat/mediatek/mt7986/drivers/dram/release/dram.o
 .rodata.ANA_TX_nonshuffle_config.str1.1
                0x0000000000228cec       0x22 plat/mediatek/mt7986/drivers/dram/release/dram.o
 .rodata.RESETB_PULL_DN.str1.1
                0x0000000000228d0e       0x61 plat/mediatek/mt7986/drivers/dram/release/dram.o
 .rodata.SUSPEND_ON.str1.1
                0x0000000000228d6f       0x50 plat/mediatek/mt7986/drivers/dram/release/dram.o
 .rodata.SPM_control.str1.1
                0x0000000000228dbf       0x52 plat/mediatek/mt7986/drivers/dram/release/dram.o
 .rodata.ANA_PLL_sequence.str1.1
                0x0000000000228e11       0x34 plat/mediatek/mt7986/drivers/dram/release/dram.o
 .rodata.ANA_MIDPI_sequence.str1.1
                0x0000000000228e45       0x38 plat/mediatek/mt7986/drivers/dram/release/dram.o
 .rodata.ANA_DLL_sequence.str1.1
                0x0000000000228e7d       0x34 plat/mediatek/mt7986/drivers/dram/release/dram.o
 .rodata.ANA_ClockOff_Sequence.str1.1
                0x0000000000228eb1       0xb0 plat/mediatek/mt7986/drivers/dram/release/dram.o
 .rodata.ANA_ClockOff_Sequence_DRM.str1.1
                0x0000000000228f61       0x50 plat/mediatek/mt7986/drivers/dram/release/dram.o
 .rodata.ANA_init_DRM.str1.1
                0x0000000000228fb1       0x36 plat/mediatek/mt7986/drivers/dram/release/dram.o
 .rodata.ANA_init_sequence.str1.1
                0x0000000000228fe7       0x2e plat/mediatek/mt7986/drivers/dram/release/dram.o
 .rodata.ANA_init.str1.1
                0x0000000000229015       0x37 plat/mediatek/mt7986/drivers/dram/release/dram.o
 .rodata.DIG_PHY_config.str1.1
                0x000000000022904c       0x6e plat/mediatek/mt7986/drivers/dram/release/dram.o
 .rodata.GATING_MODE_CFG.str1.1
                0x00000000002290ba      0x234 plat/mediatek/mt7986/drivers/dram/release/dram.o
 .rodata.DPHY_GAT_TRACK_Config.str1.1
                0x00000000002292ee       0xb3 plat/mediatek/mt7986/drivers/dram/release/dram.o
 .rodata.DIG_CONFIG_NONSHUF_DCM.str1.1
                0x00000000002293a1       0x32 plat/mediatek/mt7986/drivers/dram/release/dram.o
 .rodata.DDRPHY_PICG_Config.str1.1
                0x00000000002293d3       0x49 plat/mediatek/mt7986/drivers/dram/release/dram.o
 .rodata.DIG_CONFIG_SHUF_ALG_TXCA.str1.1
                0x000000000022941c       0x7a plat/mediatek/mt7986/drivers/dram/release/dram.o
 .rodata.DIG_CONFIG_SHUF_MISC_FIX.str1.1
                0x0000000000229496      0x14c plat/mediatek/mt7986/drivers/dram/release/dram.o
 .rodata.DIG_CONFIG_SHUF_DCM.str1.1
                0x00000000002295e2       0x6a plat/mediatek/mt7986/drivers/dram/release/dram.o
 .rodata.DIG_CONFIG_SHUF_DBI.str1.1
                0x000000000022964c       0x94 plat/mediatek/mt7986/drivers/dram/release/dram.o
 .rodata.DIG_CONFIG_SHUF_PC4_TX_PREAMBLE.str1.1
                0x00000000002296e0       0x66 plat/mediatek/mt7986/drivers/dram/release/dram.o
 .rodata.PC3_DRAM_INIT_CWL_MRfield_config.str1.1
                0x0000000000229746       0x61 plat/mediatek/mt7986/drivers/dram/release/dram.o
 .rodata.PC3_DRAM_INIT_CL_MRfield_config.str1.1
                0x00000000002297a7       0x31 plat/mediatek/mt7986/drivers/dram/release/dram.o
 .rodata.PC3_DRAM_config.str1.1
                0x00000000002297d8       0x92 plat/mediatek/mt7986/drivers/dram/release/dram.o
                                         0xb8 (size before relaxing)
 .rodata.Get_WL_by_MR_PC3.str1.1
                0x000000000022986a       0x58 plat/mediatek/mt7986/drivers/dram/release/dram.o
 .rodata.Get_RL_by_MR_PC3.str1.1
                0x00000000002298c2       0x55 plat/mediatek/mt7986/drivers/dram/release/dram.o
 .rodata.PC4_WR_INIT_MRfiled_config.str1.1
                0x0000000000229917       0x31 plat/mediatek/mt7986/drivers/dram/release/dram.o
 .rodata.PC4_DRAM_INIT_CWL_MRfield_config.str1.1
                0x0000000000229948       0x2e plat/mediatek/mt7986/drivers/dram/release/dram.o
 .rodata.Get_WL_by_MR_PC4.str1.1
                0x0000000000229976       0x2c plat/mediatek/mt7986/drivers/dram/release/dram.o
 .rodata.PC4_DRAM_config.str1.1
                0x00000000002299a2       0x1b plat/mediatek/mt7986/drivers/dram/release/dram.o
 .rodata.Get_RL_by_MR_PC4.str1.1
                0x00000000002299bd       0x2b plat/mediatek/mt7986/drivers/dram/release/dram.o
 .rodata.CSWTCH.10
                0x00000000002299e8        0xb plat/mediatek/mt7986/drivers/dram/release/dram.o
 .rodata.CSWTCH.13
                0x00000000002299f3       0x18 plat/mediatek/mt7986/drivers/dram/release/dram.o
 .rodata.ANA_TOP_FUNCTION_CFG.str1.1
                0x0000000000229a0b      0x100 plat/mediatek/mt7986/drivers/dram/release/dram.o
                                        0x126 (size before relaxing)
 .rodata.ANA_CLK_DIV_config.str1.1
                0x0000000000229b0b      0x2f7 plat/mediatek/mt7986/drivers/dram/release/dram.o
 .rodata.DRAMC_SUBSYS_PRE_CONFIG.str1.1
                0x0000000000229e02       0x8a plat/mediatek/mt7986/drivers/dram/release/dram.o
 .rodata.get_dq_ca_p2s_latency.str1.1
                0x0000000000229e8c       0xd1 plat/mediatek/mt7986/drivers/dram/release/dram.o
 .rodata.get_oe_p2s_latency.str1.1
                0x0000000000229f5d       0x25 plat/mediatek/mt7986/drivers/dram/release/dram.o
 .rodata.print_TX_path_config.str1.1
                0x0000000000229f82      0x604 plat/mediatek/mt7986/drivers/dram/release/dram.o
                                        0x658 (size before relaxing)
 .rodata.print_TX_path_attribution.str1.1
                0x000000000022a586      0xd2f plat/mediatek/mt7986/drivers/dram/release/dram.o
 .rodata.get_TX_path_config.str1.1
                0x000000000022b2b5       0x8f plat/mediatek/mt7986/drivers/dram/release/dram.o
 .rodata.calculate_TX_path_rg_val.str1.1
                0x000000000022b344      0x10e plat/mediatek/mt7986/drivers/dram/release/dram.o
 .rodata.TX_PATH_auto_gen_and_set.str1.1
                0x000000000022b452       0x44 plat/mediatek/mt7986/drivers/dram/release/dram.o
 .rodata.print_RX_path_config.str1.1
                0x000000000022b496      0x56b plat/mediatek/mt7986/drivers/dram/release/dram.o
                                        0x591 (size before relaxing)
 .rodata.print_RX_path_rg_val.str1.1
                0x000000000022ba01      0x832 plat/mediatek/mt7986/drivers/dram/release/dram.o
 .rodata.get_RX_path_config.str1.1
                0x000000000022c233       0xc4 plat/mediatek/mt7986/drivers/dram/release/dram.o
 .rodata.calculate_RX_path_rg_val.str1.1
                0x000000000022c2f7       0x31 plat/mediatek/mt7986/drivers/dram/release/dram.o
 .rodata.print_HW_ZQCAL_config.str1.1
                0x000000000022c328       0x7d plat/mediatek/mt7986/drivers/dram/release/dram.o
                                         0xab (size before relaxing)
 .rodata.DIG_HW_NONSHUF_ZQCAL_CFG.str1.1
                0x000000000022c3a5       0xa4 plat/mediatek/mt7986/drivers/dram/release/dram.o
 .rodata.DIG_HW_SHUF_ZQCAL_CFG.str1.1
                0x000000000022c449       0x37 plat/mediatek/mt7986/drivers/dram/release/dram.o
 .rodata.DIG_HW_NONSHUF_ZQCAL_SWITCH.str1.1
                0x000000000022c480       0x33 plat/mediatek/mt7986/drivers/dram/release/dram.o
 .rodata.DIG_HW_NONSHUF_DQSG_SWITCH.str1.1
                0x000000000022c4b3       0x32 plat/mediatek/mt7986/drivers/dram/release/dram.o
 .rodata.SetClkFreeRun.str1.1
                0x000000000022c4e5       0x3e plat/mediatek/mt7986/drivers/dram/release/dram.o
 .rodata.CKE_FIX_ON.str1.1
                0x000000000022c523       0x2c plat/mediatek/mt7986/drivers/dram/release/dram.o
 .rodata.CKE_FIX_OFF.str1.1
                0x000000000022c54f       0x2d plat/mediatek/mt7986/drivers/dram/release/dram.o
 .rodata.get_dram_rank_size_by_EMI_CONA.str1.1
                0x000000000022c57c       0x29 plat/mediatek/mt7986/drivers/dram/release/dram.o
 .rodata.CSWTCH.19
                0x000000000022c5a5        0x3 plat/mediatek/mt7986/drivers/dram/release/dram.o
 .rodata.mt_get_dram_type.str1.1
                0x000000000022c5a8       0x18 plat/mediatek/mt7986/drivers/dram/release/dram.o
 .rodata.release_dram.str1.1
                0x000000000022c5c0      0x13a plat/mediatek/mt7986/drivers/dram/release/dram.o
 .rodata.check_ddr_reserve_status.str1.1
                0x000000000022c6fa      0x152 plat/mediatek/mt7986/drivers/dram/release/dram.o
 .rodata.mt_set_emi.str1.1
                0x000000000022c84c       0x49 plat/mediatek/mt7986/drivers/dram/release/dram.o
 .rodata.dram_auto_detect_size.str1.1
                0x000000000022c895      0x157 plat/mediatek/mt7986/drivers/dram/release/dram.o
                                        0x15a (size before relaxing)
 .rodata.set_emi_cona_by_size.str1.1
                0x000000000022c9ec       0x5d plat/mediatek/mt7986/drivers/dram/release/dram.o
 .rodata.__func__.4563
                0x000000000022ca49       0x24 plat/mediatek/mt7986/drivers/dram/release/dram.o
 .rodata.__func__.4782
                0x000000000022ca6d       0x15 plat/mediatek/mt7986/drivers/dram/release/dram.o
 .rodata.u1GetACTimingIdx_ddr3.str1.1
                0x000000000022ca82       0x4b plat/mediatek/mt7986/drivers/dram/release/dram.o
 .rodata.u1GetACTimingIdx_ddr4.str1.1
                0x000000000022cacd       0x12 plat/mediatek/mt7986/drivers/dram/release/dram.o
 .rodata.DdrUpdateACTiming.str1.1
                0x000000000022cadf       0x54 plat/mediatek/mt7986/drivers/dram/release/dram.o
                                         0x6c (size before relaxing)
 .rodata.__FUNCTION__.5128
                0x000000000022cb33       0x17 plat/mediatek/mt7986/drivers/dram/release/dram.o
 .rodata.__FUNCTION__.5224
                0x000000000022cb4a       0x17 plat/mediatek/mt7986/drivers/dram/release/dram.o
 .rodata.__FUNCTION__.5287
                0x000000000022cb61       0x12 plat/mediatek/mt7986/drivers/dram/release/dram.o
 .rodata.__func__.5288
                0x000000000022cb73       0x12 plat/mediatek/mt7986/drivers/dram/release/dram.o
 .rodata.vPrintCalibrationBasicInfo.str1.1
                0x000000000022cb85       0xfc plat/mediatek/mt7986/drivers/dram/release/dram.o
 .rodata.GetDataRateByFreq.str1.1
                0x000000000022cc81       0x2a plat/mediatek/mt7986/drivers/dram/release/dram.o
                                         0x42 (size before relaxing)
 .rodata.DramcSetRWOFOEN.str1.1
                0x000000000022ccab       0x24 plat/mediatek/mt7986/drivers/dram/release/dram.o
 .rodata.DramcEngine2CheckComplete.str1.1
                0x000000000022cccf       0x63 plat/mediatek/mt7986/drivers/dram/release/dram.o
 .rodata.DramcEngine2Init.str1.1
                0x000000000022cd32       0x2e plat/mediatek/mt7986/drivers/dram/release/dram.o
 .rodata.TA2_Test_Run_Time_HW_Presetting.str1.1
                0x000000000022cd60       0x32 plat/mediatek/mt7986/drivers/dram/release/dram.o
 .rodata.TA2_Test_Run_Time_Pat_Setting.str1.1
                0x000000000022cd92        0xd plat/mediatek/mt7986/drivers/dram/release/dram.o
 .rodata.TA2_Test_Run_Time_HW_Write.str1.1
                0x000000000022cd9f       0x14 plat/mediatek/mt7986/drivers/dram/release/dram.o
 .rodata.TA2_Show_Cnt.str1.1
                0x000000000022cdb3       0x7a plat/mediatek/mt7986/drivers/dram/release/dram.o
 .rodata.TA2_Test_Run_Time_HW_Status.str1.1
                0x000000000022ce2d       0x38 plat/mediatek/mt7986/drivers/dram/release/dram.o
 .rodata.DramcTriggerRTSWCMD.str1.1
                0x000000000022ce65       0x2a plat/mediatek/mt7986/drivers/dram/release/dram.o
 .rodata.__func__.4666
                0x000000000022ce8f       0x12 plat/mediatek/mt7986/drivers/dram/release/dram.o
 .rodata.__func__.5038
                0x000000000022cea1       0x14 plat/mediatek/mt7986/drivers/dram/release/dram.o
 .rodata.MD32_initializaton.str1.1
                0x000000000022ceb5      0x237 plat/mediatek/mt7986/drivers/dram/release/dram.o
 .rodata.vSetVcoreByFreq.str1.1
                0x000000000022d0ec       0x54 plat/mediatek/mt7986/drivers/dram/release/dram.o
 .rodata.vDramCPUReadWriteTestAfterCalibration.str1.1
                0x000000000022d140       0x66 plat/mediatek/mt7986/drivers/dram/release/dram.o
 .rodata.DramRankNumberDetection.str1.1
                0x000000000022d1a6       0x1a plat/mediatek/mt7986/drivers/dram/release/dram.o
 .rodata.vDramCalibrationAllChannel.str1.1
                0x000000000022d1c0       0x5d plat/mediatek/mt7986/drivers/dram/release/dram.o
 .rodata.Init_DramcSwImpedanceCal.str1.1
                0x000000000022d21d       0x51 plat/mediatek/mt7986/drivers/dram/release/dram.o
 .rodata.Init_Dram_Ctx_By_Type.str1.1
                0x000000000022d26e       0x18 plat/mediatek/mt7986/drivers/dram/release/dram.o
 .rodata.dump_dramc_ctx.str1.1
                0x000000000022d26e      0x1f5 plat/mediatek/mt7986/drivers/dram/release/dram.o
 .rodata.Init_DRAM.str1.1
                0x000000000022d463       0xf8 plat/mediatek/mt7986/drivers/dram/release/dram.o
                                        0x106 (size before relaxing)
 .rodata.__func__.4776
                0x000000000022d55b       0x19 plat/mediatek/mt7986/drivers/dram/release/dram.o
 .rodata.__func__.4785
                0x000000000022d574       0x16 plat/mediatek/mt7986/drivers/dram/release/dram.o
 .rodata.__func__.4795
                0x000000000022d58a        0xa plat/mediatek/mt7986/drivers/dram/release/dram.o
 .rodata.Set_DRAM_Pinmux_Sel.str1.1
                0x000000000022d594       0x27 plat/mediatek/mt7986/drivers/dram/release/dram.o
 .rodata.SetCKE2RankIndependent.str1.1
                0x000000000022d5bb       0x29 plat/mediatek/mt7986/drivers/dram/release/dram.o
 .rodata.DramcShuTrackingDcmEnBySRAM.str1.1
                0x000000000022d5e4        0xa plat/mediatek/mt7986/drivers/dram/release/dram.o
 .rodata.DramcRunTimeConfig.str1.1
                0x000000000022d5ee      0x344 plat/mediatek/mt7986/drivers/dram/release/dram.o
                                        0x378 (size before relaxing)
 .rodata.DDRPhyFreqMeter.str1.1
                0x000000000022d932       0x55 plat/mediatek/mt7986/drivers/dram/release/dram.o
 .rodata.DFSInitForCalibration.str1.1
                0x000000000022d987       0x1a plat/mediatek/mt7986/drivers/dram/release/dram.o
 .rodata.vImpCalVrefSel.isra.0.str1.1
                0x000000000022d9a1       0x48 plat/mediatek/mt7986/drivers/dram/release/dram.o
 .rodata.vPrintCalibrationResult.str1.1
                0x000000000022d9e9       0x61 plat/mediatek/mt7986/drivers/dram/release/dram.o
                                         0x67 (size before relaxing)
 .rodata.get_dq_dramc2phy_mapping.str1.1
                0x000000000022da4a       0x19 plat/mediatek/mt7986/drivers/dram/release/dram.o
                                         0x31 (size before relaxing)
 .rodata.DramcWriteLeveling.str1.1
                0x000000000022da63       0xff plat/mediatek/mt7986/drivers/dram/release/dram.o
 .rodata.get_gating_start_pos.str1.1
                0x000000000022db62       0x50 plat/mediatek/mt7986/drivers/dram/release/dram.o
 .rodata.dramc_rx_dqs_gating_cal.str1.1
                0x000000000022dbb2       0xf1 plat/mediatek/mt7986/drivers/dram/release/dram.o
 .rodata.DramcRxWindowPerbitCal.str1.1
                0x000000000022dca3      0x25f plat/mediatek/mt7986/drivers/dram/release/dram.o
                                        0x266 (size before relaxing)
 .rodata.DramcRxdatlatCal.str1.1
                0x000000000022df02       0xbf plat/mediatek/mt7986/drivers/dram/release/dram.o
 .rodata.DramcDualRankRxdatlatCal.str1.1
                0x000000000022dfc1       0x39 plat/mediatek/mt7986/drivers/dram/release/dram.o
 .rodata.DramcTXSetVref.str1.1
                0x000000000022dffa       0x31 plat/mediatek/mt7986/drivers/dram/release/dram.o
 .rodata.DramcTxWindowPerbitCal.str1.1
                0x000000000022e02b      0x2ae plat/mediatek/mt7986/drivers/dram/release/dram.o
 .rodata.DramcMiockJmeter.str1.1
                0x000000000022e2d9      0x177 plat/mediatek/mt7986/drivers/dram/release/dram.o
 .rodata.DramcMiockJmeterHQA.str1.1
                0x000000000022e450       0x12 plat/mediatek/mt7986/drivers/dram/release/dram.o
 .rodata.DramcSwImpedanceCal.str1.1
                0x000000000022e462       0xb5 plat/mediatek/mt7986/drivers/dram/release/dram.o
 .rodata.DutyScan_Offset_Calibration.str1.1
                0x000000000022e517       0xd5 plat/mediatek/mt7986/drivers/dram/release/dram.o
                                         0xf2 (size before relaxing)
 .rodata.DutyScan_Calibration_Flow.str1.1
                0x000000000022e5ec      0x346 plat/mediatek/mt7986/drivers/dram/release/dram.o
 .rodata.DramcNewDutyCalibration.str1.1
                0x000000000022e932       0x21 plat/mediatek/mt7986/drivers/dram/release/dram.o
 .rodata.str1.1
                0x000000000022e953       0xd8 plat/mediatek/mt7986/drivers/dram/release/dram.o
 .rodata.ImpPCDDR4VrefSel
                0x000000000022ea2b        0x4 plat/mediatek/mt7986/drivers/dram/release/dram.o
 .rodata.PCDDR3_O1_Mapping_POP
                0x000000000022ea2f       0x10 plat/mediatek/mt7986/drivers/dram/release/dram.o
                0x000000000022ea2f                PCDDR3_O1_Mapping_POP
 .rodata.PCDDR3_O1_Mapping_POP_DSC
                0x000000000022ea3f       0x10 plat/mediatek/mt7986/drivers/dram/release/dram.o
                0x000000000022ea3f                PCDDR3_O1_Mapping_POP_DSC
 .rodata.PCDDR4_O1_Mapping_POP
                0x000000000022ea4f       0x10 plat/mediatek/mt7986/drivers/dram/release/dram.o
                0x000000000022ea4f                PCDDR4_O1_Mapping_POP
 .rodata.__func__.4444
                0x000000000022ea5f       0x19 plat/mediatek/mt7986/drivers/dram/release/dram.o
 .rodata.__func__.4610
                0x000000000022ea78       0x13 plat/mediatek/mt7986/drivers/dram/release/dram.o
 .rodata.__func__.4774
                0x000000000022ea8b       0x15 plat/mediatek/mt7986/drivers/dram/release/dram.o
 .rodata.__func__.5133
                0x000000000022eaa0       0x19 plat/mediatek/mt7986/drivers/dram/release/dram.o
 .rodata.__func__.5199
                0x000000000022eab9        0xf plat/mediatek/mt7986/drivers/dram/release/dram.o
 .rodata.pcddr3_dq_dramc2phy_mapping_DSC
                0x000000000022eac8       0x10 plat/mediatek/mt7986/drivers/dram/release/dram.o
                0x000000000022eac8                pcddr3_dq_dramc2phy_mapping_DSC
 .rodata.pcddr3_dq_dramc2phy_mapping_KGD
                0x000000000022ead8       0x10 plat/mediatek/mt7986/drivers/dram/release/dram.o
                0x000000000022ead8                pcddr3_dq_dramc2phy_mapping_KGD
 .rodata.pcddr4_dq_dramc2phy_mapping
                0x000000000022eae8       0x10 plat/mediatek/mt7986/drivers/dram/release/dram.o
                0x000000000022eae8                pcddr4_dq_dramc2phy_mapping
 .rodata.PCDDR_SetFreqGroup.str1.1
                0x000000000022eaf8       0x18 plat/mediatek/mt7986/drivers/dram/release/dram.o
 .rodata.PCDDR_GetFreqBySel.str1.1
                0x000000000022eaf8       0x20 plat/mediatek/mt7986/drivers/dram/release/dram.o
 .rodata.PCDDR_GetDataRateByFreq.str1.1
                0x000000000022eb18       0x2e plat/mediatek/mt7986/drivers/dram/release/dram.o
 .rodata.__func__.4538
                0x000000000022eb46       0x13 plat/mediatek/mt7986/drivers/dram/release/dram.o
 .rodata.__func__.4609
                0x000000000022eb59       0x18 plat/mediatek/mt7986/drivers/dram/release/dram.o
 .rodata.DDR3_MRS.str1.1
                0x000000000022eb71       0x2c plat/mediatek/mt7986/drivers/dram/release/dram.o
 .rodata.DDR3_SWZQ.str1.1
                0x000000000022eb9d       0x41 plat/mediatek/mt7986/drivers/dram/release/dram.o
 .rodata.PC3_dram_init_single_rank.str1.1
                0x000000000022ebde       0xd8 plat/mediatek/mt7986/drivers/dram/release/dram.o
 .rodata.PC3_DRAM_INIT.str1.1
                0x000000000022ecb6       0xb0 plat/mediatek/mt7986/drivers/dram/release/dram.o
 .rodata.DDR4_MRS.str1.1
                0x000000000022ed66       0x2d plat/mediatek/mt7986/drivers/dram/release/dram.o
 .rodata.DDR4_SWZQ.str1.1
                0x000000000022ed93       0x41 plat/mediatek/mt7986/drivers/dram/release/dram.o
 .rodata.PC4_dram_init_single_rank.str1.1
                0x000000000022edd4      0x1d3 plat/mediatek/mt7986/drivers/dram/release/dram.o
 .rodata.PC4_DRAM_INIT.str1.1
                0x000000000022efa7       0xb0 plat/mediatek/mt7986/drivers/dram/release/dram.o
 .rodata.DRM_DDR34_SWZQ.str1.1
                0x000000000022f057       0x45 plat/mediatek/mt7986/drivers/dram/release/dram.o
 .rodata.MD32_init.str1.1
                0x000000000022f09c       0x44 plat/mediatek/mt7986/drivers/dram/release/dram.o
 .rodata.ASVA5_8_CSCA_Pull_Down_EN.str1.1
                0x000000000022f0e0       0x1b plat/mediatek/mt7986/drivers/dram/release/dram.o
 .rodata.ASVA5_8_CSCA_Pull_Down_DIS.str1.1
                0x000000000022f0fb       0x1c plat/mediatek/mt7986/drivers/dram/release/dram.o
 .rodata.wait_SREFx.str1.1
                0x000000000022f117       0x30 plat/mediatek/mt7986/drivers/dram/release/dram.o
 .rodata.dump_last_dramc.str1.1
                0x000000000022f147      0x244 plat/mediatek/mt7986/drivers/dram/release/dram.o
 .rodata.dump_gating_error_rg.str1.1
                0x000000000022f38b      0x1e0 plat/mediatek/mt7986/drivers/dram/release/dram.o
 .rodata.Dramc_DDR_Reserved_Mode_setting.str1.1
                0x000000000022f56b      0x1ee plat/mediatek/mt7986/drivers/dram/release/dram.o
 .rodata.Dramc_DDR_Reserved_Mode_BeforeSR.str1.1
                0x000000000022f759      0x11a plat/mediatek/mt7986/drivers/dram/release/dram.o
 .rodata.Dramc_DDR_Reserved_Mode_AfterSR.str1.1
                0x000000000022f873      0x125 plat/mediatek/mt7986/drivers/dram/release/dram.o
 .rodata.Before_Init_DRAM_While_Reserve_Mode_fail.str1.1
                0x000000000022f998       0x46 plat/mediatek/mt7986/drivers/dram/release/dram.o
 .rodata.drm_dram_reserved.str1.1
                0x000000000022f9de       0x51 plat/mediatek/mt7986/drivers/dram/release/dram.o
 .rodata.drm_is_dram_slf.str1.1
                0x000000000022fa2f       0x3c plat/mediatek/mt7986/drivers/dram/release/dram.o
 .rodata.drm_wait_for_reg_update_done.str1.1
                0x000000000022fa6b       0x3f plat/mediatek/mt7986/drivers/dram/release/dram.o
 .rodata.drm_update_reg.str1.1
                0x000000000022faaa       0x5d plat/mediatek/mt7986/drivers/dram/release/dram.o
 .rodata.drm_is_reserve_ddr_mode_success.str1.1
                0x000000000022fb07       0x41 plat/mediatek/mt7986/drivers/dram/release/dram.o
 .rodata.drm_release_rg_dramc_conf_iso.str1.1
                0x000000000022fb48       0x18 plat/mediatek/mt7986/drivers/dram/release/dram.o
 .rodata.drm_is_dvfsrc_success.str1.1
                0x000000000022fb60       0x13 plat/mediatek/mt7986/drivers/dram/release/dram.o
 .rodata.mtk_drm_init.str1.1
                0x000000000022fb73       0x4e plat/mediatek/mt7986/drivers/dram/release/dram.o
                                         0x7a (size before relaxing)
 .rodata.set_mtk_drm_to_default.str1.1
                0x000000000022fbc1       0x8a plat/mediatek/mt7986/drivers/dram/release/dram.o
 .rodata.__func__.3163
                0x000000000022fc4b       0x12 plat/mediatek/mt7986/drivers/dram/release/dram.o
 .rodata.__func__.3182
                0x000000000022fc5d       0x1d plat/mediatek/mt7986/drivers/dram/release/dram.o
 .rodata.__func__.3191
                0x000000000022fc7a        0xf plat/mediatek/mt7986/drivers/dram/release/dram.o
 .rodata.__func__.3223
                0x000000000022fc89       0x17 plat/mediatek/mt7986/drivers/dram/release/dram.o
 .rodata.vprintf.str1.1
                0x000000000022fca0        0x3 /media/data_nvme/git/uboot/u-boot/build/mt7986/release/lib/libc.a(printf.o)
                0x000000000022fca8                . = ALIGN (0x8)
 *fill*         0x000000000022fca3        0x5 
                0x000000000022fca8                __RT_SVC_DESCS_START__ = .
 *(SORT_BY_ALIGNMENT(.rt_svc_descs))
                0x000000000022fca8                __RT_SVC_DESCS_END__ = .
                0x000000000022fca8                . = ALIGN (0x8)
                0x000000000022fca8                __FCONF_POPULATOR_START__ = .
 *(SORT_BY_ALIGNMENT(.fconf_populator))
                0x000000000022fca8                __FCONF_POPULATOR_END__ = .
                0x000000000022fca8                . = ALIGN (0x8)
                0x000000000022fca8                __PMF_SVC_DESCS_START__ = .
 *(SORT_BY_ALIGNMENT(.pmf_svc_descs))
                0x000000000022fca8                __PMF_SVC_DESCS_END__ = .
                0x000000000022fca8                . = ALIGN (0x8)
                0x000000000022fca8                __PARSER_LIB_DESCS_START__ = .
 *(SORT_BY_ALIGNMENT(.img_parser_lib_descs))
                0x000000000022fca8                __PARSER_LIB_DESCS_END__ = .
                0x000000000022fca8                . = ALIGN (0x8)
                0x000000000022fca8                __CPU_OPS_START__ = .
 *(SORT_BY_ALIGNMENT(.cpu_ops))
 .cpu_ops       0x000000000022fca8       0x40 /media/data_nvme/git/uboot/u-boot/build/mt7986/release/bl2/cortex_a53.o
                0x000000000022fce8                __CPU_OPS_END__ = .
                0x000000000022fce8                . = ALIGN (0x8)
                0x000000000022fce8                __GOT_START__ = .
 *(SORT_BY_ALIGNMENT(.got))
                0x000000000022fce8                __GOT_END__ = .
 *(SORT_BY_ALIGNMENT(.vectors))
 *fill*         0x000000000022fce8      0x318 
 .vectors       0x0000000000230000      0x800 /media/data_nvme/git/uboot/u-boot/build/mt7986/release/bl2/bl2_el3_exceptions.o
                0x0000000000230000                bl2_el3_exceptions
                0x0000000000230800                __RO_END_UNALIGNED__ = .
                0x0000000000231000                . = ALIGN (0x1000)
 *fill*         0x0000000000230800      0x800 
                0x0000000000231000                __RO_END__ = .
                0x0000000000000001                ASSERT ((__CPU_OPS_END__ > __CPU_OPS_START__), cpu_ops not defined for this platform.)
                0x0000000000231000                __RW_START__ = .

.iplt           0x0000000000231000        0x0
 .iplt          0x0000000000231000        0x0 /media/data_nvme/git/uboot/u-boot/build/mt7986/release/bl2/bl2_image_load_v2.o

.data           0x0000000000231000      0x748
                0x0000000000231000                __DATA_START__ = .
 *(SORT_BY_ALIGNMENT(.data*))
 .data.mmc_dev_spec
                0x0000000000231000       0x28 /media/data_nvme/git/uboot/u-boot/build/mt7986/release/bl2/bl2_boot_mmc.o
 .data.bl2_mem_params_descs
                0x0000000000231028      0x170 /media/data_nvme/git/uboot/u-boot/build/mt7986/release/bl2/bl2_plat_setup.o
 .data.bl_mem_params_desc_ptr
                0x0000000000231198        0x8 /media/data_nvme/git/uboot/u-boot/build/mt7986/release/bl2/bl2_plat_setup.o
                0x0000000000231198                bl_mem_params_desc_ptr
 .data.policies
                0x00000000002311a0      0x2b8 /media/data_nvme/git/uboot/u-boot/build/mt7986/release/bl2/bl2_plat_setup.o
 .data.mtk_mmc_device_info
                0x0000000000231458       0x18 /media/data_nvme/git/uboot/u-boot/build/mt7986/release/bl2/mtk-sd.o
 .data.gpt4     0x0000000000231470       0x28 /media/data_nvme/git/uboot/u-boot/build/mt7986/release/bl2/timer.o
 .data.DramCtx_PCDDR
                0x0000000000231498       0xb8 plat/mediatek/mt7986/drivers/dram/release/dram.o
                0x0000000000231498                DramCtx_PCDDR
 .data.szCalibStatusName
                0x0000000000231550       0x60 plat/mediatek/mt7986/drivers/dram/release/dram.o
                0x0000000000231550                szCalibStatusName
 .data.bl_mem_params_desc_num
                0x00000000002315b0        0x4 /media/data_nvme/git/uboot/u-boot/build/mt7986/release/bl2/bl2_plat_setup.o
                0x00000000002315b0                bl_mem_params_desc_num
 .data.max_log_level
                0x00000000002315b4        0x4 /media/data_nvme/git/uboot/u-boot/build/mt7986/release/bl2/tf_log.o
 .data.emi_setting_index
                0x00000000002315b8        0x4 plat/mediatek/mt7986/drivers/dram/release/dram.o
                0x00000000002315b8                emi_setting_index
 .data.mt7986_ddr4_freq
                0x00000000002315bc        0x4 plat/mediatek/mt7986/drivers/dram/release/dram.o
                0x00000000002315bc                mt7986_ddr4_freq
 .data.gFreqTbl_PC3
                0x00000000002315c0       0xa8 plat/mediatek/mt7986/drivers/dram/release/dram.o
                0x00000000002315c0                gFreqTbl_PC3
 .data.gFreqTbl_PC4
                0x0000000000231668       0xa8 plat/mediatek/mt7986/drivers/dram/release/dram.o
                0x0000000000231668                gFreqTbl_PC4
 .data.u4ReserveRegBackupAddress
                0x0000000000231710       0x30 plat/mediatek/mt7986/drivers/dram/release/dram.o
 .data.s2RxDelayPreCal
                0x0000000000231740        0x2 plat/mediatek/mt7986/drivers/dram/release/dram.o
                0x0000000000231740                s2RxDelayPreCal
 .data.u2g_num_dlycell_perT
                0x0000000000231742        0x2 plat/mediatek/mt7986/drivers/dram/release/dram.o
 .data.console_state
                0x0000000000231744        0x1 /media/data_nvme/git/uboot/u-boot/build/mt7986/release/bl2/multi_console.o
 .data.u1MaType
                0x0000000000231745        0x1 plat/mediatek/mt7986/drivers/dram/release/dram.o
                0x0000000000231745                u1MaType
 .data.u1Pat.4947
                0x0000000000231746        0x1 plat/mediatek/mt7986/drivers/dram/release/dram.o
 .data.u1loop.4948
                0x0000000000231747        0x1 plat/mediatek/mt7986/drivers/dram/release/dram.o
                0x0000000000231748                __DATA_END__ = .
                0x0000000000231000                __DATA_RAM_START__ = __DATA_START__
                0x0000000000231748                __DATA_RAM_END__ = __DATA_END__

.igot.plt       0x0000000000231748        0x0
 .igot.plt      0x0000000000231748        0x0 /media/data_nvme/git/uboot/u-boot/build/mt7986/release/bl2/bl2_image_load_v2.o

.rela.dyn       0x0000000000231748        0x0
                0x0000000000231748                __RELA_START__ = .
 *(SORT_BY_ALIGNMENT(.rela*))
 .rela.iplt     0x0000000000231748        0x0 /media/data_nvme/git/uboot/u-boot/build/mt7986/release/bl2/bl2_image_load_v2.o
 .rela.text.asm.bl2_entrypoint
                0x0000000000231748        0x0 /media/data_nvme/git/uboot/u-boot/build/mt7986/release/bl2/bl2_image_load_v2.o
 .rela.text.asm.get_cpu_ops_ptr
                0x0000000000231748        0x0 /media/data_nvme/git/uboot/u-boot/build/mt7986/release/bl2/bl2_image_load_v2.o
                0x0000000000231748                __RELA_END__ = .

.stacks         0x0000000000231780     0x1000
                0x0000000000231780                __STACKS_START__ = .
 *(SORT_BY_ALIGNMENT(.tzfw_normal_stacks))
 .tzfw_normal_stacks
                0x0000000000231780     0x1000 /media/data_nvme/git/uboot/u-boot/build/mt7986/release/bl2/platform_up_stack.o
                0x0000000000232780                __STACKS_END__ = .

.bss            0x0000000000232780     0x3f00
                0x0000000000232780                __BSS_START__ = .
 *(SORT_BY_ALIGNMENT(.bss*))
 .bss.mmc_ext_csd
                0x0000000000232780      0x200 /media/data_nvme/git/uboot/u-boot/build/mt7986/release/bl2/mmc.o
 .bss.scr       0x0000000000232980        0x8 /media/data_nvme/git/uboot/u-boot/build/mt7986/release/bl2/mmc.o
 .bss.bl_load_info
                0x0000000000232988       0x10 /media/data_nvme/git/uboot/u-boot/build/mt7986/release/bl2/desc_image_load.o
 .bss.next_bl_params
                0x0000000000232998       0x10 /media/data_nvme/git/uboot/u-boot/build/mt7986/release/bl2/desc_image_load.o
 .bss.decompressor
                0x00000000002329a8        0x8 /media/data_nvme/git/uboot/u-boot/build/mt7986/release/bl2/image_decompress.o
 .bss.decompressor_buf_base
                0x00000000002329b0        0x8 /media/data_nvme/git/uboot/u-boot/build/mt7986/release/bl2/image_decompress.o
 .bss.saved_image_info
                0x00000000002329b8       0x18 /media/data_nvme/git/uboot/u-boot/build/mt7986/release/bl2/image_decompress.o
 .bss.timer_ops
                0x00000000002329d0        0x8 /media/data_nvme/git/uboot/u-boot/build/mt7986/release/bl2/delay_timer.o
 .bss.ops       0x00000000002329d8        0x8 /media/data_nvme/git/uboot/u-boot/build/mt7986/release/bl2/gpio.o
 .bss.dev_info_pool
                0x00000000002329e0       0x10 /media/data_nvme/git/uboot/u-boot/build/mt7986/release/bl2/io_block.o
 .bss.state_pool
                0x00000000002329f0       0x20 /media/data_nvme/git/uboot/u-boot/build/mt7986/release/bl2/io_block.o
 .bss.backend_dev_handle
                0x0000000000232a10        0x8 /media/data_nvme/git/uboot/u-boot/build/mt7986/release/bl2/io_fip.o
 .bss.backend_image_spec
                0x0000000000232a18        0x8 /media/data_nvme/git/uboot/u-boot/build/mt7986/release/bl2/io_fip.o
 .bss.current_fip_file
                0x0000000000232a20       0x30 /media/data_nvme/git/uboot/u-boot/build/mt7986/release/bl2/io_fip.o
 .bss.dev_info_pool
                0x0000000000232a50       0x10 /media/data_nvme/git/uboot/u-boot/build/mt7986/release/bl2/io_fip.o
 .bss.state_pool
                0x0000000000232a60       0x10 /media/data_nvme/git/uboot/u-boot/build/mt7986/release/bl2/io_fip.o
 .bss.entity_map
                0x0000000000232a70       0x20 /media/data_nvme/git/uboot/u-boot/build/mt7986/release/bl2/io_storage.o
 .bss.entity_pool
                0x0000000000232a90       0x40 /media/data_nvme/git/uboot/u-boot/build/mt7986/release/bl2/io_storage.o
 .bss.mmc_dev_info
                0x0000000000232ad0        0x8 /media/data_nvme/git/uboot/u-boot/build/mt7986/release/bl2/mmc.o
 .bss.ops       0x0000000000232ad8        0x8 /media/data_nvme/git/uboot/u-boot/build/mt7986/release/bl2/mmc.o
 .bss.list      0x0000000000232ae0     0x2c08 /media/data_nvme/git/uboot/u-boot/build/mt7986/release/bl2/partition.o
 .bss.xzalloc_current
                0x00000000002356e8        0x8 /media/data_nvme/git/uboot/u-boot/build/mt7986/release/bl2/tf_unxz.o
 .bss.xzalloc_end
                0x00000000002356f0        0x8 /media/data_nvme/git/uboot/u-boot/build/mt7986/release/bl2/tf_unxz.o
 .bss.mmc_dev_fip_spec
                0x00000000002356f8       0x10 /media/data_nvme/git/uboot/u-boot/build/mt7986/release/bl2/bl2_boot_mmc.o
 .bss.mmc_dev_handle
                0x0000000000235708        0x8 /media/data_nvme/git/uboot/u-boot/build/mt7986/release/bl2/bl2_boot_mmc.o
 .bss.boot_dev_handle
                0x0000000000235710        0x8 /media/data_nvme/git/uboot/u-boot/build/mt7986/release/bl2/bl2_plat_setup.o
 .bss.console.0
                0x0000000000235718       0x30 /media/data_nvme/git/uboot/u-boot/build/mt7986/release/bl2/bl2_plat_setup.o
 .bss.fip_dev_con
                0x0000000000235748        0x8 /media/data_nvme/git/uboot/u-boot/build/mt7986/release/bl2/bl2_plat_setup.o
 .bss.fip_dev_handle
                0x0000000000235750        0x8 /media/data_nvme/git/uboot/u-boot/build/mt7986/release/bl2/bl2_plat_setup.o
 .bss.gpt_dev_handle
                0x0000000000235758        0x8 /media/data_nvme/git/uboot/u-boot/build/mt7986/release/bl2/bl2_plat_setup.o
 .bss._host     0x0000000000235760       0x40 /media/data_nvme/git/uboot/u-boot/build/mt7986/release/bl2/mtk-sd.o
 .bss.xfer_size
                0x00000000002357a0        0x8 /media/data_nvme/git/uboot/u-boot/build/mt7986/release/bl2/mtk-sd.o
 .bss.ops       0x00000000002357a8       0x10 /media/data_nvme/git/uboot/u-boot/build/mt7986/release/bl2/timer.o
 .bss.console_list
                0x00000000002357b8        0x8 /media/data_nvme/git/uboot/u-boot/build/mt7986/release/bl2/multi_console.o
                0x00000000002357b8                console_list
 .bss.DV_p      0x00000000002357c0       0x88 plat/mediatek/mt7986/drivers/dram/release/dram.o
                0x00000000002357c0                DV_p
 .bss.default_emi_setting
                0x0000000000235848       0xa0 plat/mediatek/mt7986/drivers/dram/release/dram.o
                0x0000000000235848                default_emi_setting
 .bss.emi_settings
                0x00000000002358e8      0x140 plat/mediatek/mt7986/drivers/dram/release/dram.o
                0x00000000002358e8                emi_settings
 .bss.psCurrDramCtx
                0x0000000000235a28        0x8 plat/mediatek/mt7986/drivers/dram/release/dram.o
                0x0000000000235a28                psCurrDramCtx
 .bss.decompressor_buf_size
                0x0000000000235a30        0x4 /media/data_nvme/git/uboot/u-boot/build/mt7986/release/bl2/image_decompress.o
 .bss.block_dev_count
                0x0000000000235a34        0x4 /media/data_nvme/git/uboot/u-boot/build/mt7986/release/bl2/io_block.o
 .bss.fip_dev_count
                0x0000000000235a38        0x4 /media/data_nvme/git/uboot/u-boot/build/mt7986/release/bl2/io_fip.o
 .bss.dev_count
                0x0000000000235a3c        0x4 /media/data_nvme/git/uboot/u-boot/build/mt7986/release/bl2/io_storage.o
 .bss.entity_count
                0x0000000000235a40        0x4 /media/data_nvme/git/uboot/u-boot/build/mt7986/release/bl2/io_storage.o
 .bss.mmc_csd   0x0000000000235a44       0x10 /media/data_nvme/git/uboot/u-boot/build/mt7986/release/bl2/mmc.o
 .bss.mmc_flags
                0x0000000000235a54        0x4 /media/data_nvme/git/uboot/u-boot/build/mt7986/release/bl2/mmc.o
 .bss.mmc_ocr_value
                0x0000000000235a58        0x4 /media/data_nvme/git/uboot/u-boot/build/mt7986/release/bl2/mmc.o
 .bss.rca       0x0000000000235a5c        0x4 /media/data_nvme/git/uboot/u-boot/build/mt7986/release/bl2/mmc.o
 .bss.xz_crc32_table
                0x0000000000235a60      0x400 /media/data_nvme/git/uboot/u-boot/build/mt7986/release/bl2/xz_crc32.o
 .bss.xfer_blocks
                0x0000000000235e60        0x4 /media/data_nvme/git/uboot/u-boot/build/mt7986/release/bl2/mtk-sd.o
 .bss.xfer_blocksz
                0x0000000000235e64        0x4 /media/data_nvme/git/uboot/u-boot/build/mt7986/release/bl2/mtk-sd.o
 .bss.MEM_TYPE  0x0000000000235e68        0x4 plat/mediatek/mt7986/drivers/dram/release/dram.o
                0x0000000000235e68                MEM_TYPE
 .bss.ANA_option
                0x0000000000235e6c       0x18 plat/mediatek/mt7986/drivers/dram/release/dram.o
                0x0000000000235e6c                ANA_option
 .bss.DFS_TOP   0x0000000000235e84       0x50 plat/mediatek/mt7986/drivers/dram/release/dram.o
                0x0000000000235e84                DFS_TOP
 .bss.LP5_INIT  0x0000000000235ed4       0x2c plat/mediatek/mt7986/drivers/dram/release/dram.o
                0x0000000000235ed4                LP5_INIT
 .bss.HW_ZQCAL_CTRL
                0x0000000000235f00        0x8 plat/mediatek/mt7986/drivers/dram/release/dram.o
                0x0000000000235f00                HW_ZQCAL_CTRL
 .bss.g_ddr_reserve_enable
                0x0000000000235f08        0x4 plat/mediatek/mt7986/drivers/dram/release/dram.o
                0x0000000000235f08                g_ddr_reserve_enable
 .bss.g_ddr_reserve_success
                0x0000000000235f0c        0x4 plat/mediatek/mt7986/drivers/dram/release/dram.o
                0x0000000000235f0c                g_ddr_reserve_success
 .bss.mt7986_ddr_size_limit
                0x0000000000235f10        0x4 plat/mediatek/mt7986/drivers/dram/release/dram.o
                0x0000000000235f10                mt7986_ddr_size_limit
 .bss.mt7986_dram_debug
                0x0000000000235f14        0x4 plat/mediatek/mt7986/drivers/dram/release/dram.o
                0x0000000000235f14                mt7986_dram_debug
 .bss.mt7986_use_ddr4
                0x0000000000235f18        0x4 plat/mediatek/mt7986/drivers/dram/release/dram.o
                0x0000000000235f18                mt7986_use_ddr4
 .bss.err_count.4976
                0x0000000000235f1c        0x4 plat/mediatek/mt7986/drivers/dram/release/dram.o
 .bss.pass_count.4977
                0x0000000000235f20        0x4 plat/mediatek/mt7986/drivers/dram/release/dram.o
 .bss.u4gpRegBackupVlaue
                0x0000000000235f24      0x190 plat/mediatek/mt7986/drivers/dram/release/dram.o
                0x0000000000235f24                u4gpRegBackupVlaue
 .bss.uiReg0D0h
                0x00000000002360b4        0x4 plat/mediatek/mt7986/drivers/dram/release/dram.o
 .bss.gFreqTbl  0x00000000002360b8       0xa8 plat/mediatek/mt7986/drivers/dram/release/dram.o
                0x00000000002360b8                gFreqTbl
 .bss.gDramcSwImpedanceResult
                0x0000000000236160       0x30 plat/mediatek/mt7986/drivers/dram/release/dram.o
                0x0000000000236160                gDramcSwImpedanceResult
 .bss.wrlevel_dqs_final_delay
                0x0000000000236190       0x20 plat/mediatek/mt7986/drivers/dram/release/dram.o
 .bss.drm_debug_ctl.3154
                0x00000000002361b0        0x4 plat/mediatek/mt7986/drivers/dram/release/dram.o
 .bss.sd_switch_func_status
                0x00000000002361b4       0x40 /media/data_nvme/git/uboot/u-boot/build/mt7986/release/bl2/mmc.o
 .bss.gddrphyfmeter_value
                0x00000000002361f4        0x2 plat/mediatek/mt7986/drivers/dram/release/dram.o
                0x00000000002361f4                gddrphyfmeter_value
 .bss.gMRVal    0x00000000002361f6       0x1c plat/mediatek/mt7986/drivers/dram/release/dram.o
                0x00000000002361f6                gMRVal
 .bss.u2g_num_dlycell_perT_all
                0x0000000000236212        0xe plat/mediatek/mt7986/drivers/dram/release/dram.o
                0x0000000000236212                u2g_num_dlycell_perT_all
 .bss.u2gdelay_cell_ps
                0x0000000000236220        0x2 plat/mediatek/mt7986/drivers/dram/release/dram.o
                0x0000000000236220                u2gdelay_cell_ps
 .bss.u2gdelay_cell_ps_all
                0x0000000000236222        0xe plat/mediatek/mt7986/drivers/dram/release/dram.o
                0x0000000000236222                u2gdelay_cell_ps_all
 .bss.mbr_sector
                0x0000000000236230      0x200 /media/data_nvme/git/uboot/u-boot/build/mt7986/release/bl2/partition.o
 .bss.xz_crc32_initialized
                0x0000000000236430        0x1 /media/data_nvme/git/uboot/u-boot/build/mt7986/release/bl2/tf_unxz.o
 .bss.new_xfer  0x0000000000236431        0x1 /media/data_nvme/git/uboot/u-boot/build/mt7986/release/bl2/mtk-sd.o
 .bss.Gat_p     0x0000000000236432        0x6 plat/mediatek/mt7986/drivers/dram/release/dram.o
                0x0000000000236432                Gat_p
 .bss.DUTShufConfigGlobal
                0x0000000000236438      0x10e plat/mediatek/mt7986/drivers/dram/release/dram.o
                0x0000000000236438                DUTShufConfigGlobal
 .bss.DUTTopSetGlobal
                0x0000000000236546       0x9b plat/mediatek/mt7986/drivers/dram/release/dram.o
                0x0000000000236546                DUTTopSetGlobal
 .bss.HWFUNCEnableGlobal
                0x00000000002365e1        0x7 plat/mediatek/mt7986/drivers/dram/release/dram.o
                0x00000000002365e1                HWFUNCEnableGlobal
 .bss._MappingFreqArray
                0x00000000002365e8        0x7 plat/mediatek/mt7986/drivers/dram/release/dram.o
                0x00000000002365e8                _MappingFreqArray
 .bss.LP4_INIT  0x00000000002365ef       0x11 plat/mediatek/mt7986/drivers/dram/release/dram.o
                0x00000000002365ef                LP4_INIT
 .bss.PC3_INIT  0x0000000000236600        0x7 plat/mediatek/mt7986/drivers/dram/release/dram.o
                0x0000000000236600                PC3_INIT
 .bss.PC4_INIT  0x0000000000236607        0x7 plat/mediatek/mt7986/drivers/dram/release/dram.o
                0x0000000000236607                PC4_INIT
 .bss.ana_top_p
                0x000000000023660e        0x9 plat/mediatek/mt7986/drivers/dram/release/dram.o
                0x000000000023660e                ana_top_p
 .bss.gGet_MDL_Used_Flag
                0x0000000000236617        0x1 plat/mediatek/mt7986/drivers/dram/release/dram.o
                0x0000000000236617                gGet_MDL_Used_Flag
 .bss.gPRE_MIOCK_JMETER_HQA_USED_flag
                0x0000000000236618        0x1 plat/mediatek/mt7986/drivers/dram/release/dram.o
                0x0000000000236618                gPRE_MIOCK_JMETER_HQA_USED_flag
 .bss.gfirst_init_flag
                0x0000000000236619        0x1 plat/mediatek/mt7986/drivers/dram/release/dram.o
                0x0000000000236619                gfirst_init_flag
 .bss.u1PrintModeRegWrite
                0x000000000023661a        0x1 plat/mediatek/mt7986/drivers/dram/release/dram.o
                0x000000000023661a                u1PrintModeRegWrite
 .bss.aru1RxDatlatResult
                0x000000000023661b        0x2 plat/mediatek/mt7986/drivers/dram/release/dram.o
 .bss.gFinalRXVrefDQ
                0x000000000023661d        0x4 plat/mediatek/mt7986/drivers/dram/release/dram.o
                0x000000000023661d                gFinalRXVrefDQ
 .bss.gFinalRXVrefDQForSpeedUp
                0x0000000000236621        0x8 plat/mediatek/mt7986/drivers/dram/release/dram.o
                0x0000000000236621                gFinalRXVrefDQForSpeedUp
 .bss.gcFinal_K_Duty_DQS_delay_cell
                0x0000000000236629        0x4 plat/mediatek/mt7986/drivers/dram/release/dram.o
                0x0000000000236629                gcFinal_K_Duty_DQS_delay_cell
 .bss.gcFinal_K_Duty_clk_delay_cell
                0x000000000023662d        0x4 plat/mediatek/mt7986/drivers/dram/release/dram.o
                0x000000000023662d                gcFinal_K_Duty_clk_delay_cell
 .bss.r_filter_count.4833
                0x0000000000236631        0x4 plat/mediatek/mt7986/drivers/dram/release/dram.o
 .bss.ucbest_coarse_mck_P1_backup
                0x0000000000236635        0x8 plat/mediatek/mt7986/drivers/dram/release/dram.o
                0x0000000000236635                ucbest_coarse_mck_P1_backup
 .bss.ucbest_coarse_mck_backup
                0x000000000023663d        0x8 plat/mediatek/mt7986/drivers/dram/release/dram.o
                0x000000000023663d                ucbest_coarse_mck_backup
 .bss.ucbest_coarse_ui_P1_backup
                0x0000000000236645        0x8 plat/mediatek/mt7986/drivers/dram/release/dram.o
                0x0000000000236645                ucbest_coarse_ui_P1_backup
 .bss.ucbest_coarse_ui_backup
                0x000000000023664d        0x8 plat/mediatek/mt7986/drivers/dram/release/dram.o
                0x000000000023664d                ucbest_coarse_ui_backup
 *(SORT_BY_ALIGNMENT(COMMON))
                0x0000000000236680                . = ALIGN (0x40)
 *fill*         0x0000000000236655       0x2b 
                0x0000000000236680                __PMF_TIMESTAMP_START__ = .
 *(SORT_BY_ALIGNMENT(.pmf_timestamp_array))
                0x0000000000236680                . = ALIGN (0x40)
                0x0000000000236680                __PMF_PERCPU_TIMESTAMP_END__ = .
                0x0000000000000000                __PERCPU_TIMESTAMP_SIZE__ = ABSOLUTE ((. - __PMF_TIMESTAMP_START__))
                0x0000000000236680                . = (. + (__PERCPU_TIMESTAMP_SIZE__ * 0x3))
                0x0000000000236680                __PMF_TIMESTAMP_END__ = .
                0x0000000000236680                . = ALIGN (0x10)
                0x0000000000236680                __BASE_XLAT_TABLE_START__ = .
 *(SORT_BY_ALIGNMENT(.base_xlat_table))
                0x0000000000236680                __BASE_XLAT_TABLE_END__ = .
                0x0000000000236680                __BSS_END__ = .

.xlat_table     0x0000000000236680        0x0
                0x0000000000236680                __XLAT_TABLE_START__ = .
 *(SORT_BY_ALIGNMENT(.xlat_table))
                0x0000000000236680                __XLAT_TABLE_END__ = .

.coherent_ram   0x0000000000237000        0x0
                0x0000000000237000                __COHERENT_RAM_START__ = .
 *(SORT_BY_ALIGNMENT(.tzfw_coherent_mem))
                0x0000000000237000                __COHERENT_RAM_END_UNALIGNED__ = .
                0x0000000000237000                . = ALIGN (0x1000)
                0x0000000000237000                __COHERENT_RAM_END__ = .
                0x0000000000237000                __RW_END__ = .
                0x0000000000237000                __BL2_END__ = .

/DISCARD/
 *(SORT_BY_ALIGNMENT(.dynsym) SORT_BY_ALIGNMENT(.dynstr) SORT_BY_ALIGNMENT(.hash) SORT_BY_ALIGNMENT(.gnu.hash))
                0x0000000000003f00                __BSS_SIZE__ = SIZEOF (.bss)
                0x0000000000000000                __COHERENT_RAM_UNALIGNED_SIZE__ = (__COHERENT_RAM_END_UNALIGNED__ - __COHERENT_RAM_START__)
                0x0000000000237000                RAM_REGION_END = .
                0x0000000000000001                ASSERT ((. <= 0x280000), BL2 image has exceeded its limit.)
LOAD /media/data_nvme/git/uboot/u-boot/build/mt7986/release/bl2/build_message.o
LOAD /media/data_nvme/git/uboot/u-boot/build/mt7986/release/bl2/bl2_arch_setup.o
LOAD /media/data_nvme/git/uboot/u-boot/build/mt7986/release/bl2/bl2_image_load_v2.o
LOAD /media/data_nvme/git/uboot/u-boot/build/mt7986/release/bl2/bl2_main.o
LOAD /media/data_nvme/git/uboot/u-boot/build/mt7986/release/bl2/desc_image_load.o
LOAD /media/data_nvme/git/uboot/u-boot/build/mt7986/release/bl2/image_decompress.o
LOAD /media/data_nvme/git/uboot/u-boot/build/mt7986/release/bl2/tf_crc32.o
LOAD /media/data_nvme/git/uboot/u-boot/build/mt7986/release/bl2/delay_timer.o
LOAD /media/data_nvme/git/uboot/u-boot/build/mt7986/release/bl2/gpio.o
LOAD /media/data_nvme/git/uboot/u-boot/build/mt7986/release/bl2/io_block.o
LOAD /media/data_nvme/git/uboot/u-boot/build/mt7986/release/bl2/io_fip.o
LOAD /media/data_nvme/git/uboot/u-boot/build/mt7986/release/bl2/io_storage.o
LOAD /media/data_nvme/git/uboot/u-boot/build/mt7986/release/bl2/mmc.o
LOAD /media/data_nvme/git/uboot/u-boot/build/mt7986/release/bl2/gpt.o
LOAD /media/data_nvme/git/uboot/u-boot/build/mt7986/release/bl2/partition.o
LOAD /media/data_nvme/git/uboot/u-boot/build/mt7986/release/bl2/tf_unxz.o
LOAD /media/data_nvme/git/uboot/u-boot/build/mt7986/release/bl2/xz_crc32.o
LOAD /media/data_nvme/git/uboot/u-boot/build/mt7986/release/bl2/xz_crc64.o
LOAD /media/data_nvme/git/uboot/u-boot/build/mt7986/release/bl2/xz_dec_bcj.o
LOAD /media/data_nvme/git/uboot/u-boot/build/mt7986/release/bl2/xz_dec_lzma2.o
LOAD /media/data_nvme/git/uboot/u-boot/build/mt7986/release/bl2/xz_dec_stream.o
LOAD /media/data_nvme/git/uboot/u-boot/build/mt7986/release/bl2/bl2_boot_mmc.o
LOAD /media/data_nvme/git/uboot/u-boot/build/mt7986/release/bl2/bl2_plat_setup.o
LOAD /media/data_nvme/git/uboot/u-boot/build/mt7986/release/bl2/mtk_efuse.o
LOAD /media/data_nvme/git/uboot/u-boot/build/mt7986/release/bl2/mt_gpt.o
LOAD /media/data_nvme/git/uboot/u-boot/build/mt7986/release/bl2/mtk-sd.o
LOAD /media/data_nvme/git/uboot/u-boot/build/mt7986/release/bl2/mtk_spi.o
LOAD /media/data_nvme/git/uboot/u-boot/build/mt7986/release/bl2/mtk_plat_common.o
LOAD /media/data_nvme/git/uboot/u-boot/build/mt7986/release/bl2/platform_common.o
LOAD /media/data_nvme/git/uboot/u-boot/build/mt7986/release/bl2/bl2_dev_mmc.o
LOAD /media/data_nvme/git/uboot/u-boot/build/mt7986/release/bl2/bl2_plat_init.o
LOAD /media/data_nvme/git/uboot/u-boot/build/mt7986/release/bl2/emicfg.o
LOAD /media/data_nvme/git/uboot/u-boot/build/mt7986/release/bl2/mt7986_gpio.o
LOAD /media/data_nvme/git/uboot/u-boot/build/mt7986/release/bl2/pll.o
LOAD /media/data_nvme/git/uboot/u-boot/build/mt7986/release/bl2/boot_spi.o
LOAD /media/data_nvme/git/uboot/u-boot/build/mt7986/release/bl2/timer.o
LOAD /media/data_nvme/git/uboot/u-boot/build/mt7986/release/bl2/mtk_wdt.o
LOAD /media/data_nvme/git/uboot/u-boot/build/mt7986/release/bl2/bl_common.o
LOAD /media/data_nvme/git/uboot/u-boot/build/mt7986/release/bl2/tf_log.o
LOAD /media/data_nvme/git/uboot/u-boot/build/mt7986/release/bl2/multi_console.o
LOAD /media/data_nvme/git/uboot/u-boot/build/mt7986/release/bl2/pmuv3.o
LOAD /media/data_nvme/git/uboot/u-boot/build/mt7986/release/bl2/plat_bl_common.o
LOAD /media/data_nvme/git/uboot/u-boot/build/mt7986/release/bl2/plat_log_common.o
LOAD /media/data_nvme/git/uboot/u-boot/build/mt7986/release/bl2/plat_common.o
LOAD /media/data_nvme/git/uboot/u-boot/build/mt7986/release/bl2/popcountdi2.o
LOAD /media/data_nvme/git/uboot/u-boot/build/mt7986/release/bl2/popcountsi2.o
LOAD /media/data_nvme/git/uboot/u-boot/build/mt7986/release/bl2/bl2_el3_entrypoint.o
LOAD /media/data_nvme/git/uboot/u-boot/build/mt7986/release/bl2/bl2_el3_exceptions.o
LOAD /media/data_nvme/git/uboot/u-boot/build/mt7986/release/bl2/bl2_run_next_image.o
LOAD /media/data_nvme/git/uboot/u-boot/build/mt7986/release/bl2/early_exceptions.o
LOAD /media/data_nvme/git/uboot/u-boot/build/mt7986/release/bl2/cortex_a53.o
LOAD /media/data_nvme/git/uboot/u-boot/build/mt7986/release/bl2/cpu_helpers.o
LOAD /media/data_nvme/git/uboot/u-boot/build/mt7986/release/bl2/dsu_helpers.o
LOAD /media/data_nvme/git/uboot/u-boot/build/mt7986/release/bl2/spinlock.o
LOAD /media/data_nvme/git/uboot/u-boot/build/mt7986/release/bl2/platform_up_stack.o
LOAD /media/data_nvme/git/uboot/u-boot/build/mt7986/release/bl2/hsuart.o
LOAD /media/data_nvme/git/uboot/u-boot/build/mt7986/release/bl2/plat_helpers.o
LOAD /media/data_nvme/git/uboot/u-boot/build/mt7986/release/bl2/dtb.o
LOAD /media/data_nvme/git/uboot/u-boot/build/mt7986/release/bl2/debug.o
LOAD /media/data_nvme/git/uboot/u-boot/build/mt7986/release/bl2/cache_helpers.o
LOAD /media/data_nvme/git/uboot/u-boot/build/mt7986/release/bl2/misc_helpers.o
LOAD /media/data_nvme/git/uboot/u-boot/build/mt7986/release/bl2/platform_helpers.o
LOAD plat/mediatek/mt7986/drivers/dram/release/dram.o
LOAD plat/mediatek/mt7986/drivers/efuse/release/efuse_cmd.o
LOAD /media/data_nvme/git/uboot/u-boot/build/mt7986/release/lib/libfdt.a
LOAD /media/data_nvme/git/uboot/u-boot/build/mt7986/release/lib/libc.a
OUTPUT(/media/data_nvme/git/uboot/u-boot/build/mt7986/release/bl2/bl2.elf elf64-littleaarch64)
LOAD linker stubs

.debug_info     0x0000000000000000    0x19b6b
 .debug_info    0x0000000000000000       0xae /media/data_nvme/git/uboot/u-boot/build/mt7986/release/bl2/build_message.o
 .debug_info    0x00000000000000ae      0x14e /media/data_nvme/git/uboot/u-boot/build/mt7986/release/bl2/bl2_arch_setup.o
 .debug_info    0x00000000000001fc      0x57b /media/data_nvme/git/uboot/u-boot/build/mt7986/release/bl2/bl2_image_load_v2.o
 .debug_info    0x0000000000000777      0x481 /media/data_nvme/git/uboot/u-boot/build/mt7986/release/bl2/bl2_main.o
 .debug_info    0x0000000000000bf8      0x8f0 /media/data_nvme/git/uboot/u-boot/build/mt7986/release/bl2/desc_image_load.o
 .debug_info    0x00000000000014e8      0x3bf /media/data_nvme/git/uboot/u-boot/build/mt7986/release/bl2/image_decompress.o
 .debug_info    0x00000000000018a7      0x137 /media/data_nvme/git/uboot/u-boot/build/mt7986/release/bl2/tf_crc32.o
 .debug_info    0x00000000000019de      0x219 /media/data_nvme/git/uboot/u-boot/build/mt7986/release/bl2/delay_timer.o
 .debug_info    0x0000000000001bf7      0x371 /media/data_nvme/git/uboot/u-boot/build/mt7986/release/bl2/gpio.o
 .debug_info    0x0000000000001f68      0xd6a /media/data_nvme/git/uboot/u-boot/build/mt7986/release/bl2/io_block.o
 .debug_info    0x0000000000002cd2     0x106f /media/data_nvme/git/uboot/u-boot/build/mt7986/release/bl2/io_fip.o
 .debug_info    0x0000000000003d41      0xd08 /media/data_nvme/git/uboot/u-boot/build/mt7986/release/bl2/io_storage.o
 .debug_info    0x0000000000004a49     0x2000 /media/data_nvme/git/uboot/u-boot/build/mt7986/release/bl2/mmc.o
 .debug_info    0x0000000000006a49      0x407 /media/data_nvme/git/uboot/u-boot/build/mt7986/release/bl2/gpt.o
 .debug_info    0x0000000000006e50      0xe83 /media/data_nvme/git/uboot/u-boot/build/mt7986/release/bl2/partition.o
 .debug_info    0x0000000000007cd3      0x4c3 /media/data_nvme/git/uboot/u-boot/build/mt7986/release/bl2/tf_unxz.o
 .debug_info    0x0000000000008196      0x199 /media/data_nvme/git/uboot/u-boot/build/mt7986/release/bl2/xz_crc32.o
 .debug_info    0x000000000000832f     0x1fc5 /media/data_nvme/git/uboot/u-boot/build/mt7986/release/bl2/xz_dec_lzma2.o
 .debug_info    0x000000000000a2f4      0xdf3 /media/data_nvme/git/uboot/u-boot/build/mt7986/release/bl2/xz_dec_stream.o
 .debug_info    0x000000000000b0e7      0x737 /media/data_nvme/git/uboot/u-boot/build/mt7986/release/bl2/bl2_boot_mmc.o
 .debug_info    0x000000000000b81e     0x118c /media/data_nvme/git/uboot/u-boot/build/mt7986/release/bl2/bl2_plat_setup.o
 .debug_info    0x000000000000c9aa      0x8f6 /media/data_nvme/git/uboot/u-boot/build/mt7986/release/bl2/mt_gpt.o
 .debug_info    0x000000000000d2a0     0x360f /media/data_nvme/git/uboot/u-boot/build/mt7986/release/bl2/mtk-sd.o
 .debug_info    0x00000000000108af     0x10cf /media/data_nvme/git/uboot/u-boot/build/mt7986/release/bl2/bl2_dev_mmc.o
 .debug_info    0x000000000001197e      0x516 /media/data_nvme/git/uboot/u-boot/build/mt7986/release/bl2/bl2_plat_init.o
 .debug_info    0x0000000000011e94      0x2c9 /media/data_nvme/git/uboot/u-boot/build/mt7986/release/bl2/emicfg.o
 .debug_info    0x000000000001215d     0x10ea /media/data_nvme/git/uboot/u-boot/build/mt7986/release/bl2/mt7986_gpio.o
 .debug_info    0x0000000000013247     0x36c7 /media/data_nvme/git/uboot/u-boot/build/mt7986/release/bl2/pll.o
 .debug_info    0x000000000001690e      0x9ab /media/data_nvme/git/uboot/u-boot/build/mt7986/release/bl2/timer.o
 .debug_info    0x00000000000172b9      0x734 /media/data_nvme/git/uboot/u-boot/build/mt7986/release/bl2/mtk_wdt.o
 .debug_info    0x00000000000179ed      0x648 /media/data_nvme/git/uboot/u-boot/build/mt7986/release/bl2/bl_common.o
 .debug_info    0x0000000000018035      0x290 /media/data_nvme/git/uboot/u-boot/build/mt7986/release/bl2/tf_log.o
 .debug_info    0x00000000000182c5      0x538 /media/data_nvme/git/uboot/u-boot/build/mt7986/release/bl2/multi_console.o
 .debug_info    0x00000000000187fd      0x4df /media/data_nvme/git/uboot/u-boot/build/mt7986/release/bl2/plat_bl_common.o
 .debug_info    0x0000000000018cdc      0x156 /media/data_nvme/git/uboot/u-boot/build/mt7986/release/bl2/plat_log_common.o
 .debug_info    0x0000000000018e32       0x28 /media/data_nvme/git/uboot/u-boot/build/mt7986/release/bl2/bl2_el3_entrypoint.o
 .debug_info    0x0000000000018e5a       0x28 /media/data_nvme/git/uboot/u-boot/build/mt7986/release/bl2/bl2_el3_exceptions.o
 .debug_info    0x0000000000018e82       0x27 /media/data_nvme/git/uboot/u-boot/build/mt7986/release/bl2/bl2_run_next_image.o
 .debug_info    0x0000000000018ea9       0x22 /media/data_nvme/git/uboot/u-boot/build/mt7986/release/bl2/cortex_a53.o
 .debug_info    0x0000000000018ecb       0x22 /media/data_nvme/git/uboot/u-boot/build/mt7986/release/bl2/cpu_helpers.o
 .debug_info    0x0000000000018eed       0x22 /media/data_nvme/git/uboot/u-boot/build/mt7986/release/bl2/platform_up_stack.o
 .debug_info    0x0000000000018f0f       0x22 /media/data_nvme/git/uboot/u-boot/build/mt7986/release/bl2/hsuart.o
 .debug_info    0x0000000000018f31       0x22 /media/data_nvme/git/uboot/u-boot/build/mt7986/release/bl2/plat_helpers.o
 .debug_info    0x0000000000018f53       0x22 /media/data_nvme/git/uboot/u-boot/build/mt7986/release/bl2/debug.o
 .debug_info    0x0000000000018f75       0x22 /media/data_nvme/git/uboot/u-boot/build/mt7986/release/bl2/cache_helpers.o
 .debug_info    0x0000000000018f97       0x22 /media/data_nvme/git/uboot/u-boot/build/mt7986/release/bl2/misc_helpers.o
 .debug_info    0x0000000000018fb9       0x22 /media/data_nvme/git/uboot/u-boot/build/mt7986/release/bl2/platform_helpers.o
 .debug_info    0x0000000000018fdb      0x10b /media/data_nvme/git/uboot/u-boot/build/mt7986/release/lib/libc.a(memcmp.o)
 .debug_info    0x00000000000190e6       0xdc /media/data_nvme/git/uboot/u-boot/build/mt7986/release/lib/libc.a(memcpy.o)
 .debug_info    0x00000000000191c2      0x135 /media/data_nvme/git/uboot/u-boot/build/mt7986/release/lib/libc.a(memmove.o)
 .debug_info    0x00000000000192f7      0x151 /media/data_nvme/git/uboot/u-boot/build/mt7986/release/lib/libc.a(memset.o)
 .debug_info    0x0000000000019448      0x689 /media/data_nvme/git/uboot/u-boot/build/mt7986/release/lib/libc.a(printf.o)
 .debug_info    0x0000000000019ad1       0x9a /media/data_nvme/git/uboot/u-boot/build/mt7986/release/lib/libc.a(strcmp.o)

.debug_abbrev   0x0000000000000000     0x50f9
 .debug_abbrev  0x0000000000000000       0x45 /media/data_nvme/git/uboot/u-boot/build/mt7986/release/bl2/build_message.o
 .debug_abbrev  0x0000000000000045       0xad /media/data_nvme/git/uboot/u-boot/build/mt7986/release/bl2/bl2_arch_setup.o
 .debug_abbrev  0x00000000000000f2      0x137 /media/data_nvme/git/uboot/u-boot/build/mt7986/release/bl2/bl2_image_load_v2.o
 .debug_abbrev  0x0000000000000229      0x16a /media/data_nvme/git/uboot/u-boot/build/mt7986/release/bl2/bl2_main.o
 .debug_abbrev  0x0000000000000393      0x206 /media/data_nvme/git/uboot/u-boot/build/mt7986/release/bl2/desc_image_load.o
 .debug_abbrev  0x0000000000000599      0x177 /media/data_nvme/git/uboot/u-boot/build/mt7986/release/bl2/image_decompress.o
 .debug_abbrev  0x0000000000000710       0xb1 /media/data_nvme/git/uboot/u-boot/build/mt7986/release/bl2/tf_crc32.o
 .debug_abbrev  0x00000000000007c1      0x117 /media/data_nvme/git/uboot/u-boot/build/mt7986/release/bl2/delay_timer.o
 .debug_abbrev  0x00000000000008d8      0x12a /media/data_nvme/git/uboot/u-boot/build/mt7986/release/bl2/gpio.o
 .debug_abbrev  0x0000000000000a02      0x30b /media/data_nvme/git/uboot/u-boot/build/mt7986/release/bl2/io_block.o
 .debug_abbrev  0x0000000000000d0d      0x335 /media/data_nvme/git/uboot/u-boot/build/mt7986/release/bl2/io_fip.o
 .debug_abbrev  0x0000000000001042      0x2d4 /media/data_nvme/git/uboot/u-boot/build/mt7986/release/bl2/io_storage.o
 .debug_abbrev  0x0000000000001316      0x511 /media/data_nvme/git/uboot/u-boot/build/mt7986/release/bl2/mmc.o
 .debug_abbrev  0x0000000000001827      0x178 /media/data_nvme/git/uboot/u-boot/build/mt7986/release/bl2/gpt.o
 .debug_abbrev  0x000000000000199f      0x2c6 /media/data_nvme/git/uboot/u-boot/build/mt7986/release/bl2/partition.o
 .debug_abbrev  0x0000000000001c65      0x1cb /media/data_nvme/git/uboot/u-boot/build/mt7986/release/bl2/tf_unxz.o
 .debug_abbrev  0x0000000000001e30       0xf1 /media/data_nvme/git/uboot/u-boot/build/mt7986/release/bl2/xz_crc32.o
 .debug_abbrev  0x0000000000001f21      0x394 /media/data_nvme/git/uboot/u-boot/build/mt7986/release/bl2/xz_dec_lzma2.o
 .debug_abbrev  0x00000000000022b5      0x371 /media/data_nvme/git/uboot/u-boot/build/mt7986/release/bl2/xz_dec_stream.o
 .debug_abbrev  0x0000000000002626      0x172 /media/data_nvme/git/uboot/u-boot/build/mt7986/release/bl2/bl2_boot_mmc.o
 .debug_abbrev  0x0000000000002798      0x3ae /media/data_nvme/git/uboot/u-boot/build/mt7986/release/bl2/bl2_plat_setup.o
 .debug_abbrev  0x0000000000002b46      0x25f /media/data_nvme/git/uboot/u-boot/build/mt7986/release/bl2/mt_gpt.o
 .debug_abbrev  0x0000000000002da5      0x433 /media/data_nvme/git/uboot/u-boot/build/mt7986/release/bl2/mtk-sd.o
 .debug_abbrev  0x00000000000031d8      0x1bc /media/data_nvme/git/uboot/u-boot/build/mt7986/release/bl2/bl2_dev_mmc.o
 .debug_abbrev  0x0000000000003394      0x223 /media/data_nvme/git/uboot/u-boot/build/mt7986/release/bl2/bl2_plat_init.o
 .debug_abbrev  0x00000000000035b7      0x138 /media/data_nvme/git/uboot/u-boot/build/mt7986/release/bl2/emicfg.o
 .debug_abbrev  0x00000000000036ef      0x3f3 /media/data_nvme/git/uboot/u-boot/build/mt7986/release/bl2/mt7986_gpio.o
 .debug_abbrev  0x0000000000003ae2      0x221 /media/data_nvme/git/uboot/u-boot/build/mt7986/release/bl2/pll.o
 .debug_abbrev  0x0000000000003d03      0x2d0 /media/data_nvme/git/uboot/u-boot/build/mt7986/release/bl2/timer.o
 .debug_abbrev  0x0000000000003fd3      0x211 /media/data_nvme/git/uboot/u-boot/build/mt7986/release/bl2/mtk_wdt.o
 .debug_abbrev  0x00000000000041e4      0x211 /media/data_nvme/git/uboot/u-boot/build/mt7986/release/bl2/bl_common.o
 .debug_abbrev  0x00000000000043f5      0x13f /media/data_nvme/git/uboot/u-boot/build/mt7986/release/bl2/tf_log.o
 .debug_abbrev  0x0000000000004534      0x228 /media/data_nvme/git/uboot/u-boot/build/mt7986/release/bl2/multi_console.o
 .debug_abbrev  0x000000000000475c      0x2a4 /media/data_nvme/git/uboot/u-boot/build/mt7986/release/bl2/plat_bl_common.o
 .debug_abbrev  0x0000000000004a00       0xbf /media/data_nvme/git/uboot/u-boot/build/mt7986/release/bl2/plat_log_common.o
 .debug_abbrev  0x0000000000004abf       0x14 /media/data_nvme/git/uboot/u-boot/build/mt7986/release/bl2/bl2_el3_entrypoint.o
 .debug_abbrev  0x0000000000004ad3       0x14 /media/data_nvme/git/uboot/u-boot/build/mt7986/release/bl2/bl2_el3_exceptions.o
 .debug_abbrev  0x0000000000004ae7       0x14 /media/data_nvme/git/uboot/u-boot/build/mt7986/release/bl2/bl2_run_next_image.o
 .debug_abbrev  0x0000000000004afb       0x12 /media/data_nvme/git/uboot/u-boot/build/mt7986/release/bl2/cortex_a53.o
 .debug_abbrev  0x0000000000004b0d       0x12 /media/data_nvme/git/uboot/u-boot/build/mt7986/release/bl2/cpu_helpers.o
 .debug_abbrev  0x0000000000004b1f       0x12 /media/data_nvme/git/uboot/u-boot/build/mt7986/release/bl2/platform_up_stack.o
 .debug_abbrev  0x0000000000004b31       0x12 /media/data_nvme/git/uboot/u-boot/build/mt7986/release/bl2/hsuart.o
 .debug_abbrev  0x0000000000004b43       0x12 /media/data_nvme/git/uboot/u-boot/build/mt7986/release/bl2/plat_helpers.o
 .debug_abbrev  0x0000000000004b55       0x12 /media/data_nvme/git/uboot/u-boot/build/mt7986/release/bl2/debug.o
 .debug_abbrev  0x0000000000004b67       0x12 /media/data_nvme/git/uboot/u-boot/build/mt7986/release/bl2/cache_helpers.o
 .debug_abbrev  0x0000000000004b79       0x12 /media/data_nvme/git/uboot/u-boot/build/mt7986/release/bl2/misc_helpers.o
 .debug_abbrev  0x0000000000004b8b       0x12 /media/data_nvme/git/uboot/u-boot/build/mt7986/release/bl2/platform_helpers.o
 .debug_abbrev  0x0000000000004b9d       0x94 /media/data_nvme/git/uboot/u-boot/build/mt7986/release/lib/libc.a(memcmp.o)
 .debug_abbrev  0x0000000000004c31       0xa1 /media/data_nvme/git/uboot/u-boot/build/mt7986/release/lib/libc.a(memcpy.o)
 .debug_abbrev  0x0000000000004cd2       0xc6 /media/data_nvme/git/uboot/u-boot/build/mt7986/release/lib/libc.a(memmove.o)
 .debug_abbrev  0x0000000000004d98       0xc8 /media/data_nvme/git/uboot/u-boot/build/mt7986/release/lib/libc.a(memset.o)
 .debug_abbrev  0x0000000000004e60      0x22d /media/data_nvme/git/uboot/u-boot/build/mt7986/release/lib/libc.a(printf.o)
 .debug_abbrev  0x000000000000508d       0x6c /media/data_nvme/git/uboot/u-boot/build/mt7986/release/lib/libc.a(strcmp.o)

.debug_aranges  0x0000000000000000     0x1890
 .debug_aranges
                0x0000000000000000       0x20 /media/data_nvme/git/uboot/u-boot/build/mt7986/release/bl2/build_message.o
 .debug_aranges
                0x0000000000000020       0x30 /media/data_nvme/git/uboot/u-boot/build/mt7986/release/bl2/bl2_arch_setup.o
 .debug_aranges
                0x0000000000000050       0x40 /media/data_nvme/git/uboot/u-boot/build/mt7986/release/bl2/bl2_image_load_v2.o
 .debug_aranges
                0x0000000000000090       0x40 /media/data_nvme/git/uboot/u-boot/build/mt7986/release/bl2/bl2_main.o
 .debug_aranges
                0x00000000000000d0       0xa0 /media/data_nvme/git/uboot/u-boot/build/mt7986/release/bl2/desc_image_load.o
 .debug_aranges
                0x0000000000000170       0x50 /media/data_nvme/git/uboot/u-boot/build/mt7986/release/bl2/image_decompress.o
 .debug_aranges
                0x00000000000001c0       0x30 /media/data_nvme/git/uboot/u-boot/build/mt7986/release/bl2/tf_crc32.o
 .debug_aranges
                0x00000000000001f0       0x50 /media/data_nvme/git/uboot/u-boot/build/mt7986/release/bl2/delay_timer.o
 .debug_aranges
                0x0000000000000240       0x90 /media/data_nvme/git/uboot/u-boot/build/mt7986/release/bl2/gpio.o
 .debug_aranges
                0x00000000000002d0       0xb0 /media/data_nvme/git/uboot/u-boot/build/mt7986/release/bl2/io_block.o
 .debug_aranges
                0x0000000000000380       0xc0 /media/data_nvme/git/uboot/u-boot/build/mt7986/release/bl2/io_fip.o
 .debug_aranges
                0x0000000000000440       0xd0 /media/data_nvme/git/uboot/u-boot/build/mt7986/release/bl2/io_storage.o
 .debug_aranges
                0x0000000000000510       0xe0 /media/data_nvme/git/uboot/u-boot/build/mt7986/release/bl2/mmc.o
 .debug_aranges
                0x00000000000005f0       0x30 /media/data_nvme/git/uboot/u-boot/build/mt7986/release/bl2/gpt.o
 .debug_aranges
                0x0000000000000620       0x80 /media/data_nvme/git/uboot/u-boot/build/mt7986/release/bl2/partition.o
 .debug_aranges
                0x00000000000006a0       0x60 /media/data_nvme/git/uboot/u-boot/build/mt7986/release/bl2/tf_unxz.o
 .debug_aranges
                0x0000000000000700       0x40 /media/data_nvme/git/uboot/u-boot/build/mt7986/release/bl2/xz_crc32.o
 .debug_aranges
                0x0000000000000740       0x90 /media/data_nvme/git/uboot/u-boot/build/mt7986/release/bl2/xz_dec_lzma2.o
 .debug_aranges
                0x00000000000007d0       0xa0 /media/data_nvme/git/uboot/u-boot/build/mt7986/release/bl2/xz_dec_stream.o
 .debug_aranges
                0x0000000000000870       0x40 /media/data_nvme/git/uboot/u-boot/build/mt7986/release/bl2/bl2_boot_mmc.o
 .debug_aranges
                0x00000000000008b0      0x100 /media/data_nvme/git/uboot/u-boot/build/mt7986/release/bl2/bl2_plat_setup.o
 .debug_aranges
                0x00000000000009b0       0xa0 /media/data_nvme/git/uboot/u-boot/build/mt7986/release/bl2/mt_gpt.o
 .debug_aranges
                0x0000000000000a50       0xb0 /media/data_nvme/git/uboot/u-boot/build/mt7986/release/bl2/mtk-sd.o
 .debug_aranges
                0x0000000000000b00       0x30 /media/data_nvme/git/uboot/u-boot/build/mt7986/release/bl2/bl2_dev_mmc.o
 .debug_aranges
                0x0000000000000b30       0xb0 /media/data_nvme/git/uboot/u-boot/build/mt7986/release/bl2/bl2_plat_init.o
 .debug_aranges
                0x0000000000000be0       0x50 /media/data_nvme/git/uboot/u-boot/build/mt7986/release/bl2/emicfg.o
 .debug_aranges
                0x0000000000000c30       0xe0 /media/data_nvme/git/uboot/u-boot/build/mt7986/release/bl2/mt7986_gpio.o
 .debug_aranges
                0x0000000000000d10       0x40 /media/data_nvme/git/uboot/u-boot/build/mt7986/release/bl2/pll.o
 .debug_aranges
                0x0000000000000d50       0xb0 /media/data_nvme/git/uboot/u-boot/build/mt7986/release/bl2/timer.o
 .debug_aranges
                0x0000000000000e00       0x50 /media/data_nvme/git/uboot/u-boot/build/mt7986/release/bl2/mtk_wdt.o
 .debug_aranges
                0x0000000000000e50       0x60 /media/data_nvme/git/uboot/u-boot/build/mt7986/release/bl2/bl_common.o
 .debug_aranges
                0x0000000000000eb0       0x50 /media/data_nvme/git/uboot/u-boot/build/mt7986/release/bl2/tf_log.o
 .debug_aranges
                0x0000000000000f00       0xb0 /media/data_nvme/git/uboot/u-boot/build/mt7986/release/bl2/multi_console.o
 .debug_aranges
                0x0000000000000fb0       0xa0 /media/data_nvme/git/uboot/u-boot/build/mt7986/release/bl2/plat_bl_common.o
 .debug_aranges
                0x0000000000001050       0x30 /media/data_nvme/git/uboot/u-boot/build/mt7986/release/bl2/plat_log_common.o
 .debug_aranges
                0x0000000000001080       0x30 /media/data_nvme/git/uboot/u-boot/build/mt7986/release/bl2/bl2_el3_entrypoint.o
 .debug_aranges
                0x00000000000010b0       0x30 /media/data_nvme/git/uboot/u-boot/build/mt7986/release/bl2/bl2_el3_exceptions.o
 .debug_aranges
                0x00000000000010e0       0x30 /media/data_nvme/git/uboot/u-boot/build/mt7986/release/bl2/bl2_run_next_image.o
 .debug_aranges
                0x0000000000001110      0x140 /media/data_nvme/git/uboot/u-boot/build/mt7986/release/bl2/cortex_a53.o
 .debug_aranges
                0x0000000000001250       0xb0 /media/data_nvme/git/uboot/u-boot/build/mt7986/release/bl2/cpu_helpers.o
 .debug_aranges
                0x0000000000001300       0x40 /media/data_nvme/git/uboot/u-boot/build/mt7986/release/bl2/platform_up_stack.o
 .debug_aranges
                0x0000000000001340       0xc0 /media/data_nvme/git/uboot/u-boot/build/mt7986/release/bl2/hsuart.o
 .debug_aranges
                0x0000000000001400       0xa0 /media/data_nvme/git/uboot/u-boot/build/mt7986/release/bl2/plat_helpers.o
 .debug_aranges
                0x00000000000014a0       0x70 /media/data_nvme/git/uboot/u-boot/build/mt7986/release/bl2/debug.o
 .debug_aranges
                0x0000000000001510       0xc0 /media/data_nvme/git/uboot/u-boot/build/mt7986/release/bl2/cache_helpers.o
 .debug_aranges
                0x00000000000015d0       0xc0 /media/data_nvme/git/uboot/u-boot/build/mt7986/release/bl2/misc_helpers.o
 .debug_aranges
                0x0000000000001690       0xc0 /media/data_nvme/git/uboot/u-boot/build/mt7986/release/bl2/platform_helpers.o
 .debug_aranges
                0x0000000000001750       0x30 /media/data_nvme/git/uboot/u-boot/build/mt7986/release/lib/libc.a(memcmp.o)
 .debug_aranges
                0x0000000000001780       0x30 /media/data_nvme/git/uboot/u-boot/build/mt7986/release/lib/libc.a(memcpy.o)
 .debug_aranges
                0x00000000000017b0       0x30 /media/data_nvme/git/uboot/u-boot/build/mt7986/release/lib/libc.a(memmove.o)
 .debug_aranges
                0x00000000000017e0       0x30 /media/data_nvme/git/uboot/u-boot/build/mt7986/release/lib/libc.a(memset.o)
 .debug_aranges
                0x0000000000001810       0x50 /media/data_nvme/git/uboot/u-boot/build/mt7986/release/lib/libc.a(printf.o)
 .debug_aranges
                0x0000000000001860       0x30 /media/data_nvme/git/uboot/u-boot/build/mt7986/release/lib/libc.a(strcmp.o)

.debug_line     0x0000000000000000     0xbd79
 .debug_line    0x0000000000000000       0x28 /media/data_nvme/git/uboot/u-boot/build/mt7986/release/bl2/build_message.o
 .debug_line    0x0000000000000028       0xc8 /media/data_nvme/git/uboot/u-boot/build/mt7986/release/bl2/bl2_arch_setup.o
 .debug_line    0x00000000000000f0      0x281 /media/data_nvme/git/uboot/u-boot/build/mt7986/release/bl2/bl2_image_load_v2.o
 .debug_line    0x0000000000000371      0x202 /media/data_nvme/git/uboot/u-boot/build/mt7986/release/bl2/bl2_main.o
 .debug_line    0x0000000000000573      0x59a /media/data_nvme/git/uboot/u-boot/build/mt7986/release/bl2/desc_image_load.o
 .debug_line    0x0000000000000b0d      0x207 /media/data_nvme/git/uboot/u-boot/build/mt7986/release/bl2/image_decompress.o
 .debug_line    0x0000000000000d14       0xb8 /media/data_nvme/git/uboot/u-boot/build/mt7986/release/bl2/tf_crc32.o
 .debug_line    0x0000000000000dcc      0x171 /media/data_nvme/git/uboot/u-boot/build/mt7986/release/bl2/delay_timer.o
 .debug_line    0x0000000000000f3d      0x139 /media/data_nvme/git/uboot/u-boot/build/mt7986/release/bl2/gpio.o
 .debug_line    0x0000000000001076      0x5e2 /media/data_nvme/git/uboot/u-boot/build/mt7986/release/bl2/io_block.o
 .debug_line    0x0000000000001658      0x5f5 /media/data_nvme/git/uboot/u-boot/build/mt7986/release/bl2/io_fip.o
 .debug_line    0x0000000000001c4d      0x427 /media/data_nvme/git/uboot/u-boot/build/mt7986/release/bl2/io_storage.o
 .debug_line    0x0000000000002074      0xd32 /media/data_nvme/git/uboot/u-boot/build/mt7986/release/bl2/mmc.o
 .debug_line    0x0000000000002da6      0x203 /media/data_nvme/git/uboot/u-boot/build/mt7986/release/bl2/gpt.o
 .debug_line    0x0000000000002fa9      0x559 /media/data_nvme/git/uboot/u-boot/build/mt7986/release/bl2/partition.o
 .debug_line    0x0000000000003502      0x23f /media/data_nvme/git/uboot/u-boot/build/mt7986/release/bl2/tf_unxz.o
 .debug_line    0x0000000000003741      0x168 /media/data_nvme/git/uboot/u-boot/build/mt7986/release/bl2/xz_crc32.o
 .debug_line    0x00000000000038a9     0x1726 /media/data_nvme/git/uboot/u-boot/build/mt7986/release/bl2/xz_dec_lzma2.o
 .debug_line    0x0000000000004fcf      0x934 /media/data_nvme/git/uboot/u-boot/build/mt7986/release/bl2/xz_dec_stream.o
 .debug_line    0x0000000000005903      0x269 /media/data_nvme/git/uboot/u-boot/build/mt7986/release/bl2/bl2_boot_mmc.o
 .debug_line    0x0000000000005b6c      0x4f7 /media/data_nvme/git/uboot/u-boot/build/mt7986/release/bl2/bl2_plat_setup.o
 .debug_line    0x0000000000006063      0x475 /media/data_nvme/git/uboot/u-boot/build/mt7986/release/bl2/mt_gpt.o
 .debug_line    0x00000000000064d8     0x1297 /media/data_nvme/git/uboot/u-boot/build/mt7986/release/bl2/mtk-sd.o
 .debug_line    0x000000000000776f      0x58a /media/data_nvme/git/uboot/u-boot/build/mt7986/release/bl2/bl2_dev_mmc.o
 .debug_line    0x0000000000007cf9      0x2cb /media/data_nvme/git/uboot/u-boot/build/mt7986/release/bl2/bl2_plat_init.o
 .debug_line    0x0000000000007fc4      0x1a2 /media/data_nvme/git/uboot/u-boot/build/mt7986/release/bl2/emicfg.o
 .debug_line    0x0000000000008166      0x72e /media/data_nvme/git/uboot/u-boot/build/mt7986/release/bl2/mt7986_gpio.o
 .debug_line    0x0000000000008894      0xd6c /media/data_nvme/git/uboot/u-boot/build/mt7986/release/bl2/pll.o
 .debug_line    0x0000000000009600      0x47a /media/data_nvme/git/uboot/u-boot/build/mt7986/release/bl2/timer.o
 .debug_line    0x0000000000009a7a      0x37b /media/data_nvme/git/uboot/u-boot/build/mt7986/release/bl2/mtk_wdt.o
 .debug_line    0x0000000000009df5      0x352 /media/data_nvme/git/uboot/u-boot/build/mt7986/release/bl2/bl_common.o
 .debug_line    0x000000000000a147      0x17f /media/data_nvme/git/uboot/u-boot/build/mt7986/release/bl2/tf_log.o
 .debug_line    0x000000000000a2c6      0x39a /media/data_nvme/git/uboot/u-boot/build/mt7986/release/bl2/multi_console.o
 .debug_line    0x000000000000a660      0x272 /media/data_nvme/git/uboot/u-boot/build/mt7986/release/bl2/plat_bl_common.o
 .debug_line    0x000000000000a8d2       0xa1 /media/data_nvme/git/uboot/u-boot/build/mt7986/release/bl2/plat_log_common.o
 .debug_line    0x000000000000a973       0x66 /media/data_nvme/git/uboot/u-boot/build/mt7986/release/bl2/bl2_el3_entrypoint.o
 .debug_line    0x000000000000a9d9       0x93 /media/data_nvme/git/uboot/u-boot/build/mt7986/release/bl2/bl2_el3_exceptions.o
 .debug_line    0x000000000000aa6c       0x60 /media/data_nvme/git/uboot/u-boot/build/mt7986/release/bl2/bl2_run_next_image.o
 .debug_line    0x000000000000aacc      0x1f6 /media/data_nvme/git/uboot/u-boot/build/mt7986/release/bl2/cortex_a53.o
 .debug_line    0x000000000000acc2      0x132 /media/data_nvme/git/uboot/u-boot/build/mt7986/release/bl2/cpu_helpers.o
 .debug_line    0x000000000000adf4       0x72 /media/data_nvme/git/uboot/u-boot/build/mt7986/release/bl2/platform_up_stack.o
 .debug_line    0x000000000000ae66      0x1a0 /media/data_nvme/git/uboot/u-boot/build/mt7986/release/bl2/hsuart.o
 .debug_line    0x000000000000b006       0xf7 /media/data_nvme/git/uboot/u-boot/build/mt7986/release/bl2/plat_helpers.o
 .debug_line    0x000000000000b0fd       0xb8 /media/data_nvme/git/uboot/u-boot/build/mt7986/release/bl2/debug.o
 .debug_line    0x000000000000b1b5      0x139 /media/data_nvme/git/uboot/u-boot/build/mt7986/release/bl2/cache_helpers.o
 .debug_line    0x000000000000b2ee      0x189 /media/data_nvme/git/uboot/u-boot/build/mt7986/release/bl2/misc_helpers.o
 .debug_line    0x000000000000b477      0x10d /media/data_nvme/git/uboot/u-boot/build/mt7986/release/bl2/platform_helpers.o
 .debug_line    0x000000000000b584       0xa9 /media/data_nvme/git/uboot/u-boot/build/mt7986/release/lib/libc.a(memcmp.o)
 .debug_line    0x000000000000b62d       0x8e /media/data_nvme/git/uboot/u-boot/build/mt7986/release/lib/libc.a(memcpy.o)
 .debug_line    0x000000000000b6bb       0xcf /media/data_nvme/git/uboot/u-boot/build/mt7986/release/lib/libc.a(memmove.o)
 .debug_line    0x000000000000b78a      0x14e /media/data_nvme/git/uboot/u-boot/build/mt7986/release/lib/libc.a(memset.o)
 .debug_line    0x000000000000b8d8      0x42f /media/data_nvme/git/uboot/u-boot/build/mt7986/release/lib/libc.a(printf.o)
 .debug_line    0x000000000000bd07       0x72 /media/data_nvme/git/uboot/u-boot/build/mt7986/release/lib/libc.a(strcmp.o)

.debug_str      0x0000000000000000     0x4ea5
 .debug_str     0x0000000000000000      0x157 /media/data_nvme/git/uboot/u-boot/build/mt7986/release/bl2/build_message.o
                                        0x176 (size before relaxing)
 .debug_str     0x0000000000000157      0x22b /media/data_nvme/git/uboot/u-boot/build/mt7986/release/bl2/bl2_arch_setup.o
                                        0x286 (size before relaxing)
 .debug_str     0x0000000000000382      0x29f /media/data_nvme/git/uboot/u-boot/build/mt7986/release/bl2/bl2_image_load_v2.o
                                        0x54d (size before relaxing)
 .debug_str     0x0000000000000621      0x102 /media/data_nvme/git/uboot/u-boot/build/mt7986/release/bl2/bl2_main.o
                                        0x45b (size before relaxing)
 .debug_str     0x0000000000000723      0x29a /media/data_nvme/git/uboot/u-boot/build/mt7986/release/bl2/desc_image_load.o
                                        0x728 (size before relaxing)
 .debug_str     0x00000000000009bd       0xfb /media/data_nvme/git/uboot/u-boot/build/mt7986/release/bl2/image_decompress.o
                                        0x3f3 (size before relaxing)
 .debug_str     0x0000000000000ab8       0x39 /media/data_nvme/git/uboot/u-boot/build/mt7986/release/bl2/tf_crc32.o
                                        0x230 (size before relaxing)
 .debug_str     0x0000000000000af1       0x77 /media/data_nvme/git/uboot/u-boot/build/mt7986/release/bl2/delay_timer.o
                                        0x295 (size before relaxing)
 .debug_str     0x0000000000000b68       0xa0 /media/data_nvme/git/uboot/u-boot/build/mt7986/release/bl2/gpio.o
                                        0x2ea (size before relaxing)
 .debug_str     0x0000000000000c08      0x353 /media/data_nvme/git/uboot/u-boot/build/mt7986/release/bl2/io_block.o
                                        0x607 (size before relaxing)
 .debug_str     0x0000000000000f5b      0x32d /media/data_nvme/git/uboot/u-boot/build/mt7986/release/bl2/io_fip.o
                                        0x833 (size before relaxing)
 .debug_str     0x0000000000001288       0xd6 /media/data_nvme/git/uboot/u-boot/build/mt7986/release/bl2/io_storage.o
                                        0x524 (size before relaxing)
 .debug_str     0x000000000000135e      0x66a /media/data_nvme/git/uboot/u-boot/build/mt7986/release/bl2/mmc.o
                                        0x9d7 (size before relaxing)
 .debug_str     0x00000000000019c8       0xc7 /media/data_nvme/git/uboot/u-boot/build/mt7986/release/bl2/gpt.o
                                        0x33f (size before relaxing)
 .debug_str     0x0000000000001a8f      0x1fa /media/data_nvme/git/uboot/u-boot/build/mt7986/release/bl2/partition.o
                                        0x6b7 (size before relaxing)
 .debug_str     0x0000000000001c89      0x1d3 /media/data_nvme/git/uboot/u-boot/build/mt7986/release/bl2/tf_unxz.o
                                        0x3e7 (size before relaxing)
 .debug_str     0x0000000000001e5c       0x2f /media/data_nvme/git/uboot/u-boot/build/mt7986/release/bl2/xz_crc32.o
                                        0x237 (size before relaxing)
 .debug_str     0x0000000000001e8b      0x523 /media/data_nvme/git/uboot/u-boot/build/mt7986/release/bl2/xz_dec_lzma2.o
                                        0x8cc (size before relaxing)
 .debug_str     0x00000000000023ae      0x23c /media/data_nvme/git/uboot/u-boot/build/mt7986/release/bl2/xz_dec_stream.o
                                        0x640 (size before relaxing)
 .debug_str     0x00000000000025ea       0xab /media/data_nvme/git/uboot/u-boot/build/mt7986/release/bl2/bl2_boot_mmc.o
                                        0x581 (size before relaxing)
 .debug_str     0x0000000000002695      0x1c0 /media/data_nvme/git/uboot/u-boot/build/mt7986/release/bl2/bl2_plat_setup.o
                                        0xa4e (size before relaxing)
 .debug_str     0x0000000000002855      0x189 /media/data_nvme/git/uboot/u-boot/build/mt7986/release/bl2/mt_gpt.o
                                        0x3d4 (size before relaxing)
 .debug_str     0x00000000000029de      0x5ff /media/data_nvme/git/uboot/u-boot/build/mt7986/release/bl2/mtk-sd.o
                                        0x9ca (size before relaxing)
 .debug_str     0x0000000000002fdd       0x67 /media/data_nvme/git/uboot/u-boot/build/mt7986/release/bl2/bl2_dev_mmc.o
                                        0x3ef (size before relaxing)
 .debug_str     0x0000000000003044      0x109 /media/data_nvme/git/uboot/u-boot/build/mt7986/release/bl2/bl2_plat_init.o
                                        0x3bd (size before relaxing)
 .debug_str     0x000000000000314d       0xec /media/data_nvme/git/uboot/u-boot/build/mt7986/release/bl2/emicfg.o
                                        0x340 (size before relaxing)
 .debug_str     0x0000000000003239      0x256 /media/data_nvme/git/uboot/u-boot/build/mt7986/release/bl2/mt7986_gpio.o
                                        0x57c (size before relaxing)
 .debug_str     0x000000000000348f     0x12ce /media/data_nvme/git/uboot/u-boot/build/mt7986/release/bl2/pll.o
                                       0x1599 (size before relaxing)
 .debug_str     0x000000000000475d       0xe2 /media/data_nvme/git/uboot/u-boot/build/mt7986/release/bl2/timer.o
                                        0x498 (size before relaxing)
 .debug_str     0x000000000000483f       0x8a /media/data_nvme/git/uboot/u-boot/build/mt7986/release/bl2/mtk_wdt.o
                                        0x2ec (size before relaxing)
 .debug_str     0x00000000000048c9       0x96 /media/data_nvme/git/uboot/u-boot/build/mt7986/release/bl2/bl_common.o
                                        0x4ab (size before relaxing)
 .debug_str     0x000000000000495f       0x4a /media/data_nvme/git/uboot/u-boot/build/mt7986/release/bl2/tf_log.o
                                        0x304 (size before relaxing)
 .debug_str     0x00000000000049a9       0xf6 /media/data_nvme/git/uboot/u-boot/build/mt7986/release/bl2/multi_console.o
                                        0x345 (size before relaxing)
 .debug_str     0x0000000000004a9f      0x16e /media/data_nvme/git/uboot/u-boot/build/mt7986/release/bl2/plat_bl_common.o
                                        0x490 (size before relaxing)
 .debug_str     0x0000000000004c0d       0x2e /media/data_nvme/git/uboot/u-boot/build/mt7986/release/bl2/plat_log_common.o
                                        0x28f (size before relaxing)
 .debug_str     0x0000000000004c3b       0x2d /media/data_nvme/git/uboot/u-boot/build/mt7986/release/bl2/bl2_el3_entrypoint.o
                                         0x4f (size before relaxing)
 .debug_str     0x0000000000004c68       0x21 /media/data_nvme/git/uboot/u-boot/build/mt7986/release/bl2/bl2_el3_exceptions.o
                                         0x4f (size before relaxing)
 .debug_str     0x0000000000004c89       0x21 /media/data_nvme/git/uboot/u-boot/build/mt7986/release/bl2/bl2_run_next_image.o
                                         0x4f (size before relaxing)
 .debug_str     0x0000000000004caa       0x1e /media/data_nvme/git/uboot/u-boot/build/mt7986/release/bl2/cortex_a53.o
                                         0x4c (size before relaxing)
 .debug_str     0x0000000000004cc8       0x1f /media/data_nvme/git/uboot/u-boot/build/mt7986/release/bl2/cpu_helpers.o
                                         0x4d (size before relaxing)
 .debug_str     0x0000000000004ce7       0x28 /media/data_nvme/git/uboot/u-boot/build/mt7986/release/bl2/platform_up_stack.o
                                         0x56 (size before relaxing)
 .debug_str     0x0000000000004d0f       0x33 /media/data_nvme/git/uboot/u-boot/build/mt7986/release/bl2/hsuart.o
                                         0x61 (size before relaxing)
 .debug_str     0x0000000000004d42       0x2c /media/data_nvme/git/uboot/u-boot/build/mt7986/release/bl2/plat_helpers.o
                                         0x5a (size before relaxing)
 .debug_str     0x0000000000004d6e       0x17 /media/data_nvme/git/uboot/u-boot/build/mt7986/release/bl2/debug.o
                                         0x45 (size before relaxing)
 .debug_str     0x0000000000004d85       0x1c /media/data_nvme/git/uboot/u-boot/build/mt7986/release/bl2/cache_helpers.o
                                         0x4a (size before relaxing)
 .debug_str     0x0000000000004da1       0x1b /media/data_nvme/git/uboot/u-boot/build/mt7986/release/bl2/misc_helpers.o
                                         0x49 (size before relaxing)
 .debug_str     0x0000000000004dbc       0x27 /media/data_nvme/git/uboot/u-boot/build/mt7986/release/bl2/platform_helpers.o
                                         0x55 (size before relaxing)
 .debug_str     0x0000000000004de3       0x12 /media/data_nvme/git/uboot/u-boot/build/mt7986/release/lib/libc.a(memcmp.o)
                                        0x183 (size before relaxing)
 .debug_str     0x0000000000004df5       0x12 /media/data_nvme/git/uboot/u-boot/build/mt7986/release/lib/libc.a(memcpy.o)
                                        0x17a (size before relaxing)
 .debug_str     0x0000000000004e07       0x13 /media/data_nvme/git/uboot/u-boot/build/mt7986/release/lib/libc.a(memmove.o)
                                        0x183 (size before relaxing)
 .debug_str     0x0000000000004e1a       0x1d /media/data_nvme/git/uboot/u-boot/build/mt7986/release/lib/libc.a(memset.o)
                                        0x225 (size before relaxing)
 .debug_str     0x0000000000004e37       0x5c /media/data_nvme/git/uboot/u-boot/build/mt7986/release/lib/libc.a(printf.o)
                                        0x29e (size before relaxing)
 .debug_str     0x0000000000004e93       0x12 /media/data_nvme/git/uboot/u-boot/build/mt7986/release/lib/libc.a(strcmp.o)
                                        0x173 (size before relaxing)

.comment        0x0000000000000000       0x3c
 .comment       0x0000000000000000       0x2b /media/data_nvme/git/uboot/u-boot/build/mt7986/release/bl2/build_message.o
                                         0x2c (size before relaxing)
 .comment       0x000000000000002b       0x2c /media/data_nvme/git/uboot/u-boot/build/mt7986/release/bl2/bl2_arch_setup.o
 .comment       0x000000000000002b       0x2c /media/data_nvme/git/uboot/u-boot/build/mt7986/release/bl2/bl2_image_load_v2.o
 .comment       0x000000000000002b       0x2c /media/data_nvme/git/uboot/u-boot/build/mt7986/release/bl2/bl2_main.o
 .comment       0x000000000000002b       0x2c /media/data_nvme/git/uboot/u-boot/build/mt7986/release/bl2/desc_image_load.o
 .comment       0x000000000000002b       0x2c /media/data_nvme/git/uboot/u-boot/build/mt7986/release/bl2/image_decompress.o
 .comment       0x000000000000002b       0x2c /media/data_nvme/git/uboot/u-boot/build/mt7986/release/bl2/tf_crc32.o
 .comment       0x000000000000002b       0x2c /media/data_nvme/git/uboot/u-boot/build/mt7986/release/bl2/delay_timer.o
 .comment       0x000000000000002b       0x2c /media/data_nvme/git/uboot/u-boot/build/mt7986/release/bl2/gpio.o
 .comment       0x000000000000002b       0x2c /media/data_nvme/git/uboot/u-boot/build/mt7986/release/bl2/io_block.o
 .comment       0x000000000000002b       0x2c /media/data_nvme/git/uboot/u-boot/build/mt7986/release/bl2/io_fip.o
 .comment       0x000000000000002b       0x2c /media/data_nvme/git/uboot/u-boot/build/mt7986/release/bl2/io_storage.o
 .comment       0x000000000000002b       0x2c /media/data_nvme/git/uboot/u-boot/build/mt7986/release/bl2/mmc.o
 .comment       0x000000000000002b       0x2c /media/data_nvme/git/uboot/u-boot/build/mt7986/release/bl2/gpt.o
 .comment       0x000000000000002b       0x2c /media/data_nvme/git/uboot/u-boot/build/mt7986/release/bl2/partition.o
 .comment       0x000000000000002b       0x2c /media/data_nvme/git/uboot/u-boot/build/mt7986/release/bl2/tf_unxz.o
 .comment       0x000000000000002b       0x2c /media/data_nvme/git/uboot/u-boot/build/mt7986/release/bl2/xz_crc32.o
 .comment       0x000000000000002b       0x2c /media/data_nvme/git/uboot/u-boot/build/mt7986/release/bl2/xz_dec_lzma2.o
 .comment       0x000000000000002b       0x2c /media/data_nvme/git/uboot/u-boot/build/mt7986/release/bl2/xz_dec_stream.o
 .comment       0x000000000000002b       0x2c /media/data_nvme/git/uboot/u-boot/build/mt7986/release/bl2/bl2_boot_mmc.o
 .comment       0x000000000000002b       0x2c /media/data_nvme/git/uboot/u-boot/build/mt7986/release/bl2/bl2_plat_setup.o
 .comment       0x000000000000002b       0x2c /media/data_nvme/git/uboot/u-boot/build/mt7986/release/bl2/mt_gpt.o
 .comment       0x000000000000002b       0x2c /media/data_nvme/git/uboot/u-boot/build/mt7986/release/bl2/mtk-sd.o
 .comment       0x000000000000002b       0x2c /media/data_nvme/git/uboot/u-boot/build/mt7986/release/bl2/bl2_dev_mmc.o
 .comment       0x000000000000002b       0x2c /media/data_nvme/git/uboot/u-boot/build/mt7986/release/bl2/bl2_plat_init.o
 .comment       0x000000000000002b       0x2c /media/data_nvme/git/uboot/u-boot/build/mt7986/release/bl2/emicfg.o
 .comment       0x000000000000002b       0x2c /media/data_nvme/git/uboot/u-boot/build/mt7986/release/bl2/mt7986_gpio.o
 .comment       0x000000000000002b       0x2c /media/data_nvme/git/uboot/u-boot/build/mt7986/release/bl2/pll.o
 .comment       0x000000000000002b       0x2c /media/data_nvme/git/uboot/u-boot/build/mt7986/release/bl2/timer.o
 .comment       0x000000000000002b       0x2c /media/data_nvme/git/uboot/u-boot/build/mt7986/release/bl2/mtk_wdt.o
 .comment       0x000000000000002b       0x2c /media/data_nvme/git/uboot/u-boot/build/mt7986/release/bl2/bl_common.o
 .comment       0x000000000000002b       0x2c /media/data_nvme/git/uboot/u-boot/build/mt7986/release/bl2/tf_log.o
 .comment       0x000000000000002b       0x2c /media/data_nvme/git/uboot/u-boot/build/mt7986/release/bl2/multi_console.o
 .comment       0x000000000000002b       0x2c /media/data_nvme/git/uboot/u-boot/build/mt7986/release/bl2/plat_bl_common.o
 .comment       0x000000000000002b       0x2c /media/data_nvme/git/uboot/u-boot/build/mt7986/release/bl2/plat_log_common.o
 .comment       0x000000000000002b       0x11 plat/mediatek/mt7986/drivers/dram/release/dram.o
                                        0x2be (size before relaxing)
 .comment       0x000000000000003c       0x2c /media/data_nvme/git/uboot/u-boot/build/mt7986/release/lib/libc.a(memcmp.o)
 .comment       0x000000000000003c       0x2c /media/data_nvme/git/uboot/u-boot/build/mt7986/release/lib/libc.a(memcpy.o)
 .comment       0x000000000000003c       0x2c /media/data_nvme/git/uboot/u-boot/build/mt7986/release/lib/libc.a(memmove.o)
 .comment       0x000000000000003c       0x2c /media/data_nvme/git/uboot/u-boot/build/mt7986/release/lib/libc.a(memset.o)
 .comment       0x000000000000003c       0x2c /media/data_nvme/git/uboot/u-boot/build/mt7986/release/lib/libc.a(printf.o)
 .comment       0x000000000000003c       0x2c /media/data_nvme/git/uboot/u-boot/build/mt7986/release/lib/libc.a(strcmp.o)

.note.GNU-stack
                0x0000000000000000        0x0
 .note.GNU-stack
                0x0000000000000000        0x0 /media/data_nvme/git/uboot/u-boot/build/mt7986/release/bl2/build_message.o
 .note.GNU-stack
                0x0000000000000000        0x0 /media/data_nvme/git/uboot/u-boot/build/mt7986/release/bl2/bl2_arch_setup.o
 .note.GNU-stack
                0x0000000000000000        0x0 /media/data_nvme/git/uboot/u-boot/build/mt7986/release/bl2/bl2_image_load_v2.o
 .note.GNU-stack
                0x0000000000000000        0x0 /media/data_nvme/git/uboot/u-boot/build/mt7986/release/bl2/bl2_main.o
 .note.GNU-stack
                0x0000000000000000        0x0 /media/data_nvme/git/uboot/u-boot/build/mt7986/release/bl2/desc_image_load.o
 .note.GNU-stack
                0x0000000000000000        0x0 /media/data_nvme/git/uboot/u-boot/build/mt7986/release/bl2/image_decompress.o
 .note.GNU-stack
                0x0000000000000000        0x0 /media/data_nvme/git/uboot/u-boot/build/mt7986/release/bl2/tf_crc32.o
 .note.GNU-stack
                0x0000000000000000        0x0 /media/data_nvme/git/uboot/u-boot/build/mt7986/release/bl2/delay_timer.o
 .note.GNU-stack
                0x0000000000000000        0x0 /media/data_nvme/git/uboot/u-boot/build/mt7986/release/bl2/gpio.o
 .note.GNU-stack
                0x0000000000000000        0x0 /media/data_nvme/git/uboot/u-boot/build/mt7986/release/bl2/io_block.o
 .note.GNU-stack
                0x0000000000000000        0x0 /media/data_nvme/git/uboot/u-boot/build/mt7986/release/bl2/io_fip.o
 .note.GNU-stack
                0x0000000000000000        0x0 /media/data_nvme/git/uboot/u-boot/build/mt7986/release/bl2/io_storage.o
 .note.GNU-stack
                0x0000000000000000        0x0 /media/data_nvme/git/uboot/u-boot/build/mt7986/release/bl2/mmc.o
 .note.GNU-stack
                0x0000000000000000        0x0 /media/data_nvme/git/uboot/u-boot/build/mt7986/release/bl2/gpt.o
 .note.GNU-stack
                0x0000000000000000        0x0 /media/data_nvme/git/uboot/u-boot/build/mt7986/release/bl2/partition.o
 .note.GNU-stack
                0x0000000000000000        0x0 /media/data_nvme/git/uboot/u-boot/build/mt7986/release/bl2/tf_unxz.o
 .note.GNU-stack
                0x0000000000000000        0x0 /media/data_nvme/git/uboot/u-boot/build/mt7986/release/bl2/xz_crc32.o
 .note.GNU-stack
                0x0000000000000000        0x0 /media/data_nvme/git/uboot/u-boot/build/mt7986/release/bl2/xz_dec_lzma2.o
 .note.GNU-stack
                0x0000000000000000        0x0 /media/data_nvme/git/uboot/u-boot/build/mt7986/release/bl2/xz_dec_stream.o
 .note.GNU-stack
                0x0000000000000000        0x0 /media/data_nvme/git/uboot/u-boot/build/mt7986/release/bl2/bl2_boot_mmc.o
 .note.GNU-stack
                0x0000000000000000        0x0 /media/data_nvme/git/uboot/u-boot/build/mt7986/release/bl2/bl2_plat_setup.o
 .note.GNU-stack
                0x0000000000000000        0x0 /media/data_nvme/git/uboot/u-boot/build/mt7986/release/bl2/mt_gpt.o
 .note.GNU-stack
                0x0000000000000000        0x0 /media/data_nvme/git/uboot/u-boot/build/mt7986/release/bl2/mtk-sd.o
 .note.GNU-stack
                0x0000000000000000        0x0 /media/data_nvme/git/uboot/u-boot/build/mt7986/release/bl2/bl2_dev_mmc.o
 .note.GNU-stack
                0x0000000000000000        0x0 /media/data_nvme/git/uboot/u-boot/build/mt7986/release/bl2/bl2_plat_init.o
 .note.GNU-stack
                0x0000000000000000        0x0 /media/data_nvme/git/uboot/u-boot/build/mt7986/release/bl2/emicfg.o
 .note.GNU-stack
                0x0000000000000000        0x0 /media/data_nvme/git/uboot/u-boot/build/mt7986/release/bl2/mt7986_gpio.o
 .note.GNU-stack
                0x0000000000000000        0x0 /media/data_nvme/git/uboot/u-boot/build/mt7986/release/bl2/pll.o
 .note.GNU-stack
                0x0000000000000000        0x0 /media/data_nvme/git/uboot/u-boot/build/mt7986/release/bl2/timer.o
 .note.GNU-stack
                0x0000000000000000        0x0 /media/data_nvme/git/uboot/u-boot/build/mt7986/release/bl2/mtk_wdt.o
 .note.GNU-stack
                0x0000000000000000        0x0 /media/data_nvme/git/uboot/u-boot/build/mt7986/release/bl2/bl_common.o
 .note.GNU-stack
                0x0000000000000000        0x0 /media/data_nvme/git/uboot/u-boot/build/mt7986/release/bl2/tf_log.o
 .note.GNU-stack
                0x0000000000000000        0x0 /media/data_nvme/git/uboot/u-boot/build/mt7986/release/bl2/multi_console.o
 .note.GNU-stack
                0x0000000000000000        0x0 /media/data_nvme/git/uboot/u-boot/build/mt7986/release/bl2/plat_bl_common.o
 .note.GNU-stack
                0x0000000000000000        0x0 /media/data_nvme/git/uboot/u-boot/build/mt7986/release/bl2/plat_log_common.o
 .note.GNU-stack
                0x0000000000000000        0x0 plat/mediatek/mt7986/drivers/dram/release/dram.o
 .note.GNU-stack
                0x0000000000000000        0x0 /media/data_nvme/git/uboot/u-boot/build/mt7986/release/lib/libc.a(memcmp.o)
 .note.GNU-stack
                0x0000000000000000        0x0 /media/data_nvme/git/uboot/u-boot/build/mt7986/release/lib/libc.a(memcpy.o)
 .note.GNU-stack
                0x0000000000000000        0x0 /media/data_nvme/git/uboot/u-boot/build/mt7986/release/lib/libc.a(memmove.o)
 .note.GNU-stack
                0x0000000000000000        0x0 /media/data_nvme/git/uboot/u-boot/build/mt7986/release/lib/libc.a(memset.o)
 .note.GNU-stack
                0x0000000000000000        0x0 /media/data_nvme/git/uboot/u-boot/build/mt7986/release/lib/libc.a(printf.o)
 .note.GNU-stack
                0x0000000000000000        0x0 /media/data_nvme/git/uboot/u-boot/build/mt7986/release/lib/libc.a(strcmp.o)

.debug_loc      0x0000000000000000    0x191e4
 .debug_loc     0x0000000000000000       0x28 /media/data_nvme/git/uboot/u-boot/build/mt7986/release/bl2/bl2_arch_setup.o
 .debug_loc     0x0000000000000028      0x25e /media/data_nvme/git/uboot/u-boot/build/mt7986/release/bl2/bl2_image_load_v2.o
 .debug_loc     0x0000000000000286      0x143 /media/data_nvme/git/uboot/u-boot/build/mt7986/release/bl2/bl2_main.o
 .debug_loc     0x00000000000003c9      0x997 /media/data_nvme/git/uboot/u-boot/build/mt7986/release/bl2/desc_image_load.o
 .debug_loc     0x0000000000000d60      0x1bf /media/data_nvme/git/uboot/u-boot/build/mt7986/release/bl2/image_decompress.o
 .debug_loc     0x0000000000000f1f      0x15d /media/data_nvme/git/uboot/u-boot/build/mt7986/release/bl2/tf_crc32.o
 .debug_loc     0x000000000000107c      0x15e /media/data_nvme/git/uboot/u-boot/build/mt7986/release/bl2/delay_timer.o
 .debug_loc     0x00000000000011da      0x225 /media/data_nvme/git/uboot/u-boot/build/mt7986/release/bl2/gpio.o
 .debug_loc     0x00000000000013ff     0x10be /media/data_nvme/git/uboot/u-boot/build/mt7986/release/bl2/io_block.o
 .debug_loc     0x00000000000024bd      0xd19 /media/data_nvme/git/uboot/u-boot/build/mt7986/release/bl2/io_fip.o
 .debug_loc     0x00000000000031d6     0x1345 /media/data_nvme/git/uboot/u-boot/build/mt7986/release/bl2/io_storage.o
 .debug_loc     0x000000000000451b     0x1e3a /media/data_nvme/git/uboot/u-boot/build/mt7986/release/bl2/mmc.o
 .debug_loc     0x0000000000006355      0x2c6 /media/data_nvme/git/uboot/u-boot/build/mt7986/release/bl2/gpt.o
 .debug_loc     0x000000000000661b      0x8aa /media/data_nvme/git/uboot/u-boot/build/mt7986/release/bl2/partition.o
 .debug_loc     0x0000000000006ec5      0x4da /media/data_nvme/git/uboot/u-boot/build/mt7986/release/bl2/tf_unxz.o
 .debug_loc     0x000000000000739f      0x223 /media/data_nvme/git/uboot/u-boot/build/mt7986/release/bl2/xz_crc32.o
 .debug_loc     0x00000000000075c2     0x2f12 /media/data_nvme/git/uboot/u-boot/build/mt7986/release/bl2/xz_dec_lzma2.o
 .debug_loc     0x000000000000a4d4      0x932 /media/data_nvme/git/uboot/u-boot/build/mt7986/release/bl2/xz_dec_stream.o
 .debug_loc     0x000000000000ae06      0x1fb /media/data_nvme/git/uboot/u-boot/build/mt7986/release/bl2/bl2_boot_mmc.o
 .debug_loc     0x000000000000b001      0x6f4 /media/data_nvme/git/uboot/u-boot/build/mt7986/release/bl2/bl2_plat_setup.o
 .debug_loc     0x000000000000b6f5      0x865 /media/data_nvme/git/uboot/u-boot/build/mt7986/release/bl2/mt_gpt.o
 .debug_loc     0x000000000000bf5a     0x3da7 /media/data_nvme/git/uboot/u-boot/build/mt7986/release/bl2/mtk-sd.o
 .debug_loc     0x000000000000fd01     0x1133 /media/data_nvme/git/uboot/u-boot/build/mt7986/release/bl2/bl2_dev_mmc.o
 .debug_loc     0x0000000000010e34      0x1fc /media/data_nvme/git/uboot/u-boot/build/mt7986/release/bl2/bl2_plat_init.o
 .debug_loc     0x0000000000011030      0x11f /media/data_nvme/git/uboot/u-boot/build/mt7986/release/bl2/emicfg.o
 .debug_loc     0x000000000001114f     0x159b /media/data_nvme/git/uboot/u-boot/build/mt7986/release/bl2/mt7986_gpio.o
 .debug_loc     0x00000000000126ea     0x2c5f /media/data_nvme/git/uboot/u-boot/build/mt7986/release/bl2/pll.o
 .debug_loc     0x0000000000015349      0x6c1 /media/data_nvme/git/uboot/u-boot/build/mt7986/release/bl2/timer.o
 .debug_loc     0x0000000000015a0a      0x75a /media/data_nvme/git/uboot/u-boot/build/mt7986/release/bl2/mtk_wdt.o
 .debug_loc     0x0000000000016164      0x347 /media/data_nvme/git/uboot/u-boot/build/mt7986/release/bl2/bl_common.o
 .debug_loc     0x00000000000164ab      0x1b7 /media/data_nvme/git/uboot/u-boot/build/mt7986/release/bl2/tf_log.o
 .debug_loc     0x0000000000016662      0x447 /media/data_nvme/git/uboot/u-boot/build/mt7986/release/bl2/multi_console.o
 .debug_loc     0x0000000000016aa9      0x2db /media/data_nvme/git/uboot/u-boot/build/mt7986/release/bl2/plat_bl_common.o
 .debug_loc     0x0000000000016d84       0xd6 /media/data_nvme/git/uboot/u-boot/build/mt7986/release/bl2/plat_log_common.o
 .debug_loc     0x0000000000016e5a      0x29e /media/data_nvme/git/uboot/u-boot/build/mt7986/release/lib/libc.a(memcmp.o)
 .debug_loc     0x00000000000170f8      0x15e /media/data_nvme/git/uboot/u-boot/build/mt7986/release/lib/libc.a(memcpy.o)
 .debug_loc     0x0000000000017256      0x1ff /media/data_nvme/git/uboot/u-boot/build/mt7986/release/lib/libc.a(memmove.o)
 .debug_loc     0x0000000000017455      0x3e7 /media/data_nvme/git/uboot/u-boot/build/mt7986/release/lib/libc.a(memset.o)
 .debug_loc     0x000000000001783c     0x186d /media/data_nvme/git/uboot/u-boot/build/mt7986/release/lib/libc.a(printf.o)
 .debug_loc     0x00000000000190a9      0x13b /media/data_nvme/git/uboot/u-boot/build/mt7986/release/lib/libc.a(strcmp.o)

.debug_ranges   0x0000000000000000     0x4ba0
 .debug_ranges  0x0000000000000000       0x20 /media/data_nvme/git/uboot/u-boot/build/mt7986/release/bl2/bl2_arch_setup.o
 .debug_ranges  0x0000000000000020       0x30 /media/data_nvme/git/uboot/u-boot/build/mt7986/release/bl2/bl2_image_load_v2.o
 .debug_ranges  0x0000000000000050       0x30 /media/data_nvme/git/uboot/u-boot/build/mt7986/release/bl2/bl2_main.o
 .debug_ranges  0x0000000000000080       0x90 /media/data_nvme/git/uboot/u-boot/build/mt7986/release/bl2/desc_image_load.o
 .debug_ranges  0x0000000000000110       0x40 /media/data_nvme/git/uboot/u-boot/build/mt7986/release/bl2/image_decompress.o
 .debug_ranges  0x0000000000000150       0x20 /media/data_nvme/git/uboot/u-boot/build/mt7986/release/bl2/tf_crc32.o
 .debug_ranges  0x0000000000000170       0x40 /media/data_nvme/git/uboot/u-boot/build/mt7986/release/bl2/delay_timer.o
 .debug_ranges  0x00000000000001b0       0x80 /media/data_nvme/git/uboot/u-boot/build/mt7986/release/bl2/gpio.o
 .debug_ranges  0x0000000000000230      0x1a0 /media/data_nvme/git/uboot/u-boot/build/mt7986/release/bl2/io_block.o
 .debug_ranges  0x00000000000003d0      0x210 /media/data_nvme/git/uboot/u-boot/build/mt7986/release/bl2/io_fip.o
 .debug_ranges  0x00000000000005e0      0x260 /media/data_nvme/git/uboot/u-boot/build/mt7986/release/bl2/io_storage.o
 .debug_ranges  0x0000000000000840      0x3f0 /media/data_nvme/git/uboot/u-boot/build/mt7986/release/bl2/mmc.o
 .debug_ranges  0x0000000000000c30       0xe0 /media/data_nvme/git/uboot/u-boot/build/mt7986/release/bl2/gpt.o
 .debug_ranges  0x0000000000000d10      0x1c0 /media/data_nvme/git/uboot/u-boot/build/mt7986/release/bl2/partition.o
 .debug_ranges  0x0000000000000ed0       0x50 /media/data_nvme/git/uboot/u-boot/build/mt7986/release/bl2/tf_unxz.o
 .debug_ranges  0x0000000000000f20       0x30 /media/data_nvme/git/uboot/u-boot/build/mt7986/release/bl2/xz_crc32.o
 .debug_ranges  0x0000000000000f50      0xc60 /media/data_nvme/git/uboot/u-boot/build/mt7986/release/bl2/xz_dec_lzma2.o
 .debug_ranges  0x0000000000001bb0      0x200 /media/data_nvme/git/uboot/u-boot/build/mt7986/release/bl2/xz_dec_stream.o
 .debug_ranges  0x0000000000001db0       0x30 /media/data_nvme/git/uboot/u-boot/build/mt7986/release/bl2/bl2_boot_mmc.o
 .debug_ranges  0x0000000000001de0      0x1c0 /media/data_nvme/git/uboot/u-boot/build/mt7986/release/bl2/bl2_plat_setup.o
 .debug_ranges  0x0000000000001fa0      0x1a0 /media/data_nvme/git/uboot/u-boot/build/mt7986/release/bl2/mt_gpt.o
 .debug_ranges  0x0000000000002140      0x6e0 /media/data_nvme/git/uboot/u-boot/build/mt7986/release/bl2/mtk-sd.o
 .debug_ranges  0x0000000000002820      0x430 /media/data_nvme/git/uboot/u-boot/build/mt7986/release/bl2/bl2_dev_mmc.o
 .debug_ranges  0x0000000000002c50       0xd0 /media/data_nvme/git/uboot/u-boot/build/mt7986/release/bl2/bl2_plat_init.o
 .debug_ranges  0x0000000000002d20       0x40 /media/data_nvme/git/uboot/u-boot/build/mt7986/release/bl2/emicfg.o
 .debug_ranges  0x0000000000002d60      0x340 /media/data_nvme/git/uboot/u-boot/build/mt7986/release/bl2/mt7986_gpio.o
 .debug_ranges  0x00000000000030a0      0xc10 /media/data_nvme/git/uboot/u-boot/build/mt7986/release/bl2/pll.o
 .debug_ranges  0x0000000000003cb0      0x260 /media/data_nvme/git/uboot/u-boot/build/mt7986/release/bl2/timer.o
 .debug_ranges  0x0000000000003f10      0x1c0 /media/data_nvme/git/uboot/u-boot/build/mt7986/release/bl2/mtk_wdt.o
 .debug_ranges  0x00000000000040d0       0x90 /media/data_nvme/git/uboot/u-boot/build/mt7986/release/bl2/bl_common.o
 .debug_ranges  0x0000000000004160       0x40 /media/data_nvme/git/uboot/u-boot/build/mt7986/release/bl2/tf_log.o
 .debug_ranges  0x00000000000041a0      0x100 /media/data_nvme/git/uboot/u-boot/build/mt7986/release/bl2/multi_console.o
 .debug_ranges  0x00000000000042a0       0x90 /media/data_nvme/git/uboot/u-boot/build/mt7986/release/bl2/plat_bl_common.o
 .debug_ranges  0x0000000000004330       0x20 /media/data_nvme/git/uboot/u-boot/build/mt7986/release/bl2/plat_log_common.o
 .debug_ranges  0x0000000000004350      0x140 /media/data_nvme/git/uboot/u-boot/build/mt7986/release/bl2/cortex_a53.o
 .debug_ranges  0x0000000000004490       0xb0 /media/data_nvme/git/uboot/u-boot/build/mt7986/release/bl2/cpu_helpers.o
 .debug_ranges  0x0000000000004540       0x40 /media/data_nvme/git/uboot/u-boot/build/mt7986/release/bl2/platform_up_stack.o
 .debug_ranges  0x0000000000004580       0xc0 /media/data_nvme/git/uboot/u-boot/build/mt7986/release/bl2/hsuart.o
 .debug_ranges  0x0000000000004640       0xa0 /media/data_nvme/git/uboot/u-boot/build/mt7986/release/bl2/plat_helpers.o
 .debug_ranges  0x00000000000046e0       0x70 /media/data_nvme/git/uboot/u-boot/build/mt7986/release/bl2/debug.o
 .debug_ranges  0x0000000000004750       0xc0 /media/data_nvme/git/uboot/u-boot/build/mt7986/release/bl2/cache_helpers.o
 .debug_ranges  0x0000000000004810       0xc0 /media/data_nvme/git/uboot/u-boot/build/mt7986/release/bl2/misc_helpers.o
 .debug_ranges  0x00000000000048d0       0xc0 /media/data_nvme/git/uboot/u-boot/build/mt7986/release/bl2/platform_helpers.o
 .debug_ranges  0x0000000000004990       0x20 /media/data_nvme/git/uboot/u-boot/build/mt7986/release/lib/libc.a(memcmp.o)
 .debug_ranges  0x00000000000049b0       0x20 /media/data_nvme/git/uboot/u-boot/build/mt7986/release/lib/libc.a(memcpy.o)
 .debug_ranges  0x00000000000049d0       0x50 /media/data_nvme/git/uboot/u-boot/build/mt7986/release/lib/libc.a(memmove.o)
 .debug_ranges  0x0000000000004a20       0x20 /media/data_nvme/git/uboot/u-boot/build/mt7986/release/lib/libc.a(memset.o)
 .debug_ranges  0x0000000000004a40      0x140 /media/data_nvme/git/uboot/u-boot/build/mt7986/release/lib/libc.a(printf.o)
 .debug_ranges  0x0000000000004b80       0x20 /media/data_nvme/git/uboot/u-boot/build/mt7986/release/lib/libc.a(strcmp.o)

.debug_frame    0x0000000000000000      0xa20
 .debug_frame   0x0000000000000000       0x28 /media/data_nvme/git/uboot/u-boot/build/mt7986/release/bl2/bl2_el3_entrypoint.o
 .debug_frame   0x0000000000000028      0x190 /media/data_nvme/git/uboot/u-boot/build/mt7986/release/bl2/bl2_el3_exceptions.o
 .debug_frame   0x00000000000001b8       0x28 /media/data_nvme/git/uboot/u-boot/build/mt7986/release/bl2/bl2_run_next_image.o
 .debug_frame   0x00000000000001e0      0x1c0 /media/data_nvme/git/uboot/u-boot/build/mt7986/release/bl2/cortex_a53.o
 .debug_frame   0x00000000000003a0       0xe8 /media/data_nvme/git/uboot/u-boot/build/mt7986/release/bl2/cpu_helpers.o
 .debug_frame   0x0000000000000488       0x40 /media/data_nvme/git/uboot/u-boot/build/mt7986/release/bl2/platform_up_stack.o
 .debug_frame   0x00000000000004c8      0x100 /media/data_nvme/git/uboot/u-boot/build/mt7986/release/bl2/hsuart.o
 .debug_frame   0x00000000000005c8       0xd0 /media/data_nvme/git/uboot/u-boot/build/mt7986/release/bl2/plat_helpers.o
 .debug_frame   0x0000000000000698       0x88 /media/data_nvme/git/uboot/u-boot/build/mt7986/release/bl2/debug.o
 .debug_frame   0x0000000000000720      0x100 /media/data_nvme/git/uboot/u-boot/build/mt7986/release/bl2/cache_helpers.o
 .debug_frame   0x0000000000000820      0x100 /media/data_nvme/git/uboot/u-boot/build/mt7986/release/bl2/misc_helpers.o
 .debug_frame   0x0000000000000920      0x100 /media/data_nvme/git/uboot/u-boot/build/mt7986/release/bl2/platform_helpers.o
